** EXPERIMENTAL (HLL) ** Open Watcom Linker Version 1.6beta1 Limited Availability
Portions Copyright (c) 1985-2002 Sybase, Inc. All Rights Reserved.
Created on:       14/11/02 20:39:46
Executable Image: ..\..\bin\assistant.exe
creating an OS/2 EMX executable


                        +------------+
                        |   Groups   |
                        +------------+

Group                           Address              Size
=====                           =======              ====

CGROUP                          0001:00000000        0004b290
DGROUP                          0002:00000000        00000650



                        +--------------+
                        |   Segments   |
                        +--------------+

Segment                Class          Group          Address         Size
=======                =====          =====          =======         ====

TEXT32                 CODE           CGROUP         0001:00000000   0004b290
________TEXT           CODE           CGROUP         0001:0004b290   00000000
DATA32                 DATA           DGROUP         0002:00000000   00000310
SET1__os2dll           DATA           DGROUP         0002:00000310   00000004
SET2__os2dll           DATA           DGROUP         0002:00000314   00000000
SET3__os2dll           DATA           DGROUP         0002:00000314   00000004
SET1___CTOR_LIST__     DATA           DGROUP         0002:00000318   00000004
SET2___CTOR_LIST__     DATA           DGROUP         0002:0000031c   00000038
SET3___CTOR_LIST__     DATA           DGROUP         0002:00000354   00000004
SET1___DTOR_LIST__     DATA           DGROUP         0002:00000358   00000004
SET2___DTOR_LIST__     DATA           DGROUP         0002:0000035c   00000038
SET3___DTOR_LIST__     DATA           DGROUP         0002:00000394   00000004
SET1___crtinit1__      DATA           DGROUP         0002:00000398   00000004
SET2___crtinit1__      DATA           DGROUP         0002:0000039c   00000000
SET3___crtinit1__      DATA           DGROUP         0002:0000039c   00000004
SET1___crtexit1__      DATA           DGROUP         0002:000003a0   00000004
SET2___crtexit1__      DATA           DGROUP         0002:000003a4   00000000
SET3___crtexit1__      DATA           DGROUP         0002:000003a4   00000004
SET1___eh_frame__      DATA           DGROUP         0002:000003a8   00000004
SET2___eh_frame__      DATA           DGROUP         0002:000003ac   00000000
SET3___eh_frame__      DATA           DGROUP         0002:000003ac   00000004
SET1___eh_init__       DATA           DGROUP         0002:000003b0   00000004
SET2___eh_init__       DATA           DGROUP         0002:000003b4   00000000
SET3___eh_init__       DATA           DGROUP         0002:000003b4   00000004
SET1___eh_term__       DATA           DGROUP         0002:000003b8   00000004
SET2___eh_term__       DATA           DGROUP         0002:000003bc   00000000
SET3___eh_term__       DATA           DGROUP         0002:000003bc   00000004
________DATA           DATA           DGROUP         0002:000003c0   00000000
SET1___fork_child1__   DATA           DGROUP         0002:000003c0   00000000
SET2___fork_child1__   DATA           DGROUP         0002:000003c0   00000004
SET3___fork_child1__   DATA           DGROUP         0002:000003c4   00000000
BSS32                  BSS            DGROUP         0002:000003d0   00000280
c_common               BSS            DGROUP         0002:00000650   00000000
________BSS            BSS            DGROUP         0002:00000650   00000000
STACK                  STACK          AUTO           0003:00000000   00800000


                        +----------------+
                        |   Memory Map   |
                        +----------------+

* = unreferenced symbol
+ = symbol only referenced locally

Address        Symbol
=======        ======

Module: C:\usr\lib\crt0nofork.obj({standard input})
0001:00000000* __text
0002:00000000* __data
0002:00000000* ___data_start
0002:000003d0* ___bss_start
0002:00000310+ __os2dll
0002:00000318  ___CTOR_LIST__
0002:00000358  ___DTOR_LIST__
0002:00000398* ___crtinit1__
0002:000003a0* ___crtexit1__
0002:000003a8* ___eh_frame__
0002:000003b0  ___eh_init__
0002:000003b8  ___eh_term__
Module: C:\200\trunk\tools\assistant\tmp\obj\release_mt_shared\main.obj(main.obj)
0001:00000064* __ZN15AssistantSocketC2EiP7QObject
0001:000000c4* __ZN15AssistantSocketC1EiP7QObject
0001:00000128* __ZN15AssistantSocket10readClientEv
0001:00002a3c* __ZN15AssistantSocket15showLinkRequestERK7QString
0001:000002cc* __ZN15AssistantSocket16connectionClosedEv
0001:00000310* __ZN15AssistantServerC2EP7QObject
0001:00002b70* __ZN15AssistantServer2trEPKcS1_
0001:00000440* __ZN15AssistantServerC1EP7QObject
0001:00000570* __ZNK15AssistantServer7getPortEv
0001:000005a0* __ZN15AssistantServer13newConnectionEi
0001:00002d54* __ZN15AssistantServer10newConnectEv
0001:00000bfc  _main
0001:00002834* __ZNK15AssistantSocket9classNameEv
0001:00002840* __ZN15AssistantSocket2trEPKcS1_
0001:00002880* __ZN15AssistantSocket6trUtf8EPKcS1_
0001:00002988* __ZN15AssistantSocket16staticMetaObjectEv
0001:000029e4* __ZN15AssistantSocket7qt_castEPKc
0001:00002a90* __ZN15AssistantSocket9qt_invokeEiP8QUObject
0001:00002ae8* __ZN15AssistantSocket7qt_emitEiP8QUObject
0001:00002b30* __ZN15AssistantSocket11qt_propertyEiiP8QVariant
0001:00002b4c* __ZN15AssistantSocket18qt_static_propertyEP7QObjectiiP8QVariant
0001:00002b64* __ZNK15AssistantServer9classNameEv
0001:00002bb0* __ZN15AssistantServer6trUtf8EPKcS1_
0001:00002c4c* __ZN15AssistantServer16staticMetaObjectEv
0001:00002ca8* __ZN15AssistantServer7qt_castEPKc
0001:00002d00* __ZN15AssistantServer15showLinkRequestERK7QString
0001:00002d74* __ZN15AssistantServer9qt_invokeEiP8QUObject
0001:00002d90* __ZN15AssistantServer7qt_emitEiP8QUObject
0001:00002df0* __ZN15AssistantServer11qt_propertyEiiP8QVariant
0001:00002e0c* __ZN15AssistantServer18qt_static_propertyEP7QObjectiiP8QVariant
0002:000003d0* __ZN15AssistantSocket7metaObjE
0002:000003d4* __ZN15AssistantServer7metaObjE
0001:000030e0* __ZTV15AssistantSocket$w$RNDPrx0G8U67Cqo51
0001:00003060* __ZTV15AssistantServer$w$RNDPrx0G8U67Cqo51
0001:00002e14* __ZN17QValueListPrivateI7QStringEC1Ev$w$RNDPrx0G8U67Cqo51
0001:00002e60* __ZN17QValueListPrivateI7QStringED1Ev$w$RNDPrx0G8U67Cqo51
0001:00002f38* __ZNK17QValueListPrivateI7QStringE2atEj$w$RNDPrx0G8U67Cqo51
0001:00002f80* __ZN10QValueListI7QStringE14detachInternalEv$w$RNDPrx0G8U67Cqo51
0001:00002fb0* __ZN17QValueListPrivateI7QStringEC1ERKS1_$w$RNDPrx0G8U67Cqo51
0001:00003350* __ZN17QValueListPrivateI7QStringE6insertE18QValueListIteratorIS0_ERKS0_$w$RNDPrx0G8U67Cqo51
0001:00003344* __ZNK15AssistantServer10metaObjectEv$w$RNDPrx0G8U67Cqo51
0001:00003300* __ZN15AssistantServerD1Ev$w$RNDPrx0G8U67Cqo51
0001:0000331c* __ZN15AssistantServerD0Ev$w$RNDPrx0G8U67Cqo51
0001:00003294* __ZNK15AssistantSocket10metaObjectEv$w$RNDPrx0G8U67Cqo51
0001:000032a0* __ZN15AssistantSocketD1Ev$w$RNDPrx0G8U67Cqo51
0001:000032cc* __ZN15AssistantSocketD0Ev$w$RNDPrx0G8U67Cqo51
0001:000032c4* __ZThn40_N15AssistantSocketD1Ev$w$RNDPrx0G8U67Cqo51
0001:000032f8* __ZThn40_N15AssistantSocketD0Ev$w$RNDPrx0G8U67Cqo51
0001:000031e0* __ZTV6QGList$w$RNDPrx0G8U67Cqo51
0001:00003288* __ZNK6QGList5countEv$w$RNDPrx0G8U67Cqo51
Module: C:\200\trunk\tools\assistant\tmp\obj\release_mt_shared\helpwindow.obj(helpwindow.obj)
0001:0000343c* __ZN10HelpWindowC2EP10MainWindowP7QWidgetPKc
0001:000034c4  __ZN10HelpWindowC1EP10MainWindowP7QWidgetPKc
0001:00003708  __ZN10HelpWindow9setSourceERK7QString
0001:00004228  __ZN10HelpWindow19openLinkInNewWindowEv
0001:0000426c  __ZN10HelpWindow19openLinkInNewWindowERK7QString
0001:00004294  __ZN10HelpWindow17openLinkInNewPageEv
0001:000042e4  __ZN10HelpWindow17openLinkInNewPageERK7QString
0001:00004370  __ZN10HelpWindow15createPopupMenuERK6QPoint
0001:000047b8  __ZN10HelpWindow14blockScrollingEb
0001:000047cc  __ZN10HelpWindow19ensureCursorVisibleEv
0001:000047e8  __ZN10HelpWindow23contentsMousePressEventEP11QMouseEvent
0001:00004804  __ZN10HelpWindow13keyPressEventEP9QKeyEvent
0001:00004840  __ZN10HelpWindow4copyEv
0001:00004b2c  __ZN10HelpWindow13updateForwardEb
0001:00004b40  __ZN10HelpWindow14updateBackwardEb
0001:00004b60* __ZTV6QGList$w$Vdcz5F0G8U6lNJvm3
0001:00004b8c* __ZNK6QGList5countEv$w$Vdcz5F0G8U6lNJvm3
Module: C:\200\trunk\tools\assistant\tmp\obj\release_mt_shared\topicchooserimpl.obj(topicchooserimpl.obj)
0001:00004bc0* __ZN12TopicChooserC2EP7QWidgetRK11QStringListS4_RK7QString
0001:00004ce4* __ZN12TopicChooserC1EP7QWidgetRK11QStringListS4_RK7QString
0001:00004e08* __ZNK12TopicChooser4linkEv
0001:00004ed0  __ZN12TopicChooser7getLinkEP7QWidgetRK11QStringListS4_RK7QString
0001:00004f80* __ZNK17QValueListPrivateI7QStringE9findIndexEP14QValueListNodeIS0_ERKS0_$w$7GT3RJ0G8U62UmDg4
0001:00005020* __ZNK17QValueListPrivateI7QStringE2atEj$w$7GT3RJ0G8U62UmDg4
0001:00005080* __ZTV6QGList$w$7GT3RJ0G8U62UmDg4
0001:000050ac* __ZNK6QGList5countEv$w$7GT3RJ0G8U62UmDg4
Module: C:\200\trunk\tools\assistant\tmp\obj\release_mt_shared\docuparser.obj(docuparser.obj)
0001:000050c0  __ZrsR11QDataStreamR11ContentItem
0001:000050f8  __ZlsR11QDataStreamRK11ContentItem
0001:00005190  __ZN10DocuParser12createParserERK7QString
0001:0000615c* __ZN13DocuParser320C1Ev
0001:00005444* __ZN10DocuParser5parseEP5QFile
0001:00005528  __ZNK10DocuParser13errorProtocolEv
0001:00005548  __ZN10DocuParser15getContentItemsEv
0001:0000555c  __ZN10DocuParser13getIndexItemsEv
0001:00005588* __ZNK10DocuParser10absolutifyERK7QString
0001:00005698* __ZN13DocuParser3105addToEP7Profile
0001:00005824* __ZN13DocuParser31013startDocumentEv
0001:000058b0* __ZN13DocuParser31012startElementERK7QStringS2_S2_RK14QXmlAttributes
0001:00005e30* __ZN13DocuParser31010endElementERK7QStringS2_S2_
0001:00005e84* __ZN13DocuParser31010charactersERK7QString
0001:00005f7c* __ZN13DocuParser31010fatalErrorERK18QXmlParseException
0001:000060d0* __ZN13DocuParser320C2Ev
0001:000061e8* __ZN13DocuParser3205addToEP7Profile
0001:000063e0* __ZN13DocuParser32013startDocumentEv
0001:000064e0* __ZN13DocuParser32012startElementERK7QStringS2_S2_RK14QXmlAttributes
0001:00006bb0* __ZN13DocuParser32010endElementERK7QStringS2_S2_
0001:00007164* __ZN13DocuParser32010charactersERK7QString
0001:0000725c* __ZN13DocuParser32010fatalErrorERK18QXmlParseException
0002:00000400* __ZN10DocuParser11DocumentKeyE
0001:00008374* __ZN10DocuParserC2Ev$w$VXFKxN0G8U6Gyw6D0
0001:00007f80* __ZTV13DocuParser310$w$VXFKxN0G8U6Gyw6D0
0001:000081c0* __ZTV8QPtrListI9IndexItemE$w$VXFKxN0G8U6Gyw6D0
0001:000073b0* __ZN4QMapI7QStringS0_EixERKS0_$w$VXFKxN0G8U6Gyw6D0
0001:00007460* __ZNK17QValueListPrivateI7QStringE8containsERKS0_$w$VXFKxN0G8U6Gyw6D0
0001:000074b4* __ZN17QValueListPrivateI7QStringE6insertE18QValueListIteratorIS0_ERKS0_$w$VXFKxN0G8U6Gyw6D0
0001:00007510* __ZN10QValueListI7QStringE14detachInternalEv$w$VXFKxN0G8U6Gyw6D0
0001:00007540* __ZN10QValueListI11ContentItemE5clearEv$w$VXFKxN0G8U6Gyw6D0
0001:00007584* __ZN17QValueListPrivateI11ContentItemE6insertE18QValueListIteratorIS0_ERKS0_$w$VXFKxN0G8U6Gyw6D0
0001:000075f8* __ZN10QValueListI11ContentItemE14detachInternalEv$w$VXFKxN0G8U6Gyw6D0
0001:000060c4* __ZThn4_N13DocuParser31010fatalErrorERK18QXmlParseException$w$VXFKxN0G8U6Gyw6D0
0001:00007e60* __ZTV13DocuParser320$w$VXFKxN0G8U6Gyw6D0
0001:00007658* __ZN17QMapConstIteratorI7QStringS0_E3incEv$w$VXFKxN0G8U6Gyw6D0
0001:00007628* __ZN4QMapI7QStringS0_E14detachInternalEv$w$VXFKxN0G8U6Gyw6D0
0001:000076a4* __ZN17QValueListPrivateI7QStringEC1Ev$w$VXFKxN0G8U6Gyw6D0
0001:000076f0* __ZN17QValueListPrivateI7QStringED1Ev$w$VXFKxN0G8U6Gyw6D0
0001:000073a4* __ZThn4_N13DocuParser32010fatalErrorERK18QXmlParseException$w$VXFKxN0G8U6Gyw6D0
0001:00007780* __ZNK11QMapPrivateI7QStringS0_E4findERKS0_$w$VXFKxN0G8U6Gyw6D0
0001:00007804* __ZN4QMapI7QStringS0_E6insertERKS0_S3_b$w$VXFKxN0G8U6Gyw6D0
0001:000078cc* __ZN17QValueListPrivateI7QStringEC1ERKS1_$w$VXFKxN0G8U6Gyw6D0
0001:00007870* __ZN17QValueListPrivateI11ContentItemEC1Ev$w$VXFKxN0G8U6Gyw6D0
0001:00007960* __ZN17QValueListPrivateI11ContentItemE5clearEv$w$VXFKxN0G8U6Gyw6D0
0001:000079f0* __ZN17QValueListPrivateI11ContentItemEC1ERKS1_$w$VXFKxN0G8U6Gyw6D0
0001:00007aa0* __ZN11QMapPrivateI7QStringS0_EC1EPKS1_$w$VXFKxN0G8U6Gyw6D0
0001:00007b6c* __ZN11QMapPrivateI7QStringS0_E12insertSingleERKS0_$w$VXFKxN0G8U6Gyw6D0
0001:00007c20* __ZN11QMapPrivateI7QStringS0_E4copyEP8QMapNodeIS0_S0_E$w$VXFKxN0G8U6Gyw6D0
0001:00007d00* __ZN11QMapPrivateI7QStringS0_E6insertEP12QMapNodeBaseS3_RKS0_$w$VXFKxN0G8U6Gyw6D0
0001:00007e04* __ZN12QMapIteratorI7QStringS0_E3decEv$w$VXFKxN0G8U6Gyw6D0
0001:000088a4* __ZN13DocuParser320D1Ev$w$VXFKxN0G8U6Gyw6D0
0001:0000892c* __ZN13DocuParser320D0Ev$w$VXFKxN0G8U6Gyw6D0
0001:000089b8* __ZNK13DocuParser32013parserVersionEv$w$VXFKxN0G8U6Gyw6D0
0001:00008814* __ZN13DocuParser310D1Ev$w$VXFKxN0G8U6Gyw6D0
0001:00008854* __ZN13DocuParser310D0Ev$w$VXFKxN0G8U6Gyw6D0
0001:0000889c* __ZNK13DocuParser31013parserVersionEv$w$VXFKxN0G8U6Gyw6D0
0001:000080a0* __ZTV10DocuParser$w$VXFKxN0G8U6Gyw6D0
0001:00008664* __ZN10DocuParserD1Ev$w$VXFKxN0G8U6Gyw6D0
0001:000084ac* __ZN10DocuParserD0Ev$w$VXFKxN0G8U6Gyw6D0
0001:00008b4c* __ZNK8QPtrListI9IndexItemE5countEv$w$VXFKxN0G8U6Gyw6D0
0001:00008a04* __ZN8QPtrListI9IndexItemE5clearEv$w$VXFKxN0G8U6Gyw6D0
0001:000089dc* __ZN8QPtrListI9IndexItemED1Ev$w$VXFKxN0G8U6Gyw6D0
0001:00008a10* __ZN8QPtrListI9IndexItemED0Ev$w$VXFKxN0G8U6Gyw6D0
0001:00008b58* __ZN8QPtrListI9IndexItemE10deleteItemEPv$w$VXFKxN0G8U6Gyw6D0
0001:00008200* __ZTV6QGList$w$VXFKxN0G8U6Gyw6D0
0001:00008368* __ZNK6QGList5countEv$w$VXFKxN0G8U6Gyw6D0
0001:00008a74* __ZN17QValueListPrivateI11ContentItemED1Ev$w$VXFKxN0G8U6Gyw6D0
0001:00008bc8* __ZN10DocuParserD2Ev$w$VXFKxN0G8U6Gyw6D0
Module: C:\200\trunk\tools\assistant\tmp\obj\release_mt_shared\helpdialogimpl.obj(helpdialogimpl.obj)
0001:00008f08* __ZrsR11QDataStreamR12IndexKeyword
0001:00008f34* __ZlsR11QDataStreamRK12IndexKeyword
0001:00008f60  __ZNK15SearchValidator8validateER7QStringRi
0001:00009050* __ZN22HelpNavigationListItemC2EP8QListBoxRK7QString
0001:00009090* __ZN22HelpNavigationListItemC1EP8QListBoxRK7QString
0001:000090d0* __ZN22HelpNavigationListItem7addLinkERK7QString
0001:00009244* __ZN26HelpNavigationContentsItemC2EP9QListViewP13QListViewItem
0001:00009280* __ZN26HelpNavigationContentsItemC1EP9QListViewP13QListViewItem
0001:000092bc* __ZN26HelpNavigationContentsItemC2EP13QListViewItemS1_
0001:000092f8* __ZN26HelpNavigationContentsItemC1EP13QListViewItemS1_
0001:00009334* __ZN26HelpNavigationContentsItem7setLinkERK7QString
0001:00009348* __ZNK26HelpNavigationContentsItem4linkEv
0001:00009368* __ZN10HelpDialogC2EP7QWidgetP10MainWindow
0001:00009474  __ZN10HelpDialogC1EP7QWidgetP10MainWindow
0001:00009a28  __ZN10HelpDialog10initializeEv
0001:0000bb14* __ZN10HelpDialog13setupTitleMapEv
0001:00009ed0  __ZN10HelpDialog13processEventsEv
0001:00009eec  __ZN10HelpDialog13lastWinClosedEv
0001:00009f54* __ZN10HelpDialog19removeOldCacheFilesEv
0001:0000a4c4  __ZN10HelpDialog10timerEventEP11QTimerEvent
0001:0000a590  __ZN10HelpDialog13loadIndexFileEv
0001:0000afb8* __ZN10HelpDialog14buildKeywordDBEv
0001:0000ae58* __ZN10HelpDialog11getFileAgesEv
0001:0000ce4c* __ZN10HelpDialog19showInitDoneMessageEv
0001:0000bda4* __ZN10HelpDialog14getAllContentsEv
0001:0000c118* __ZN10HelpDialog16buildContentDictEv
0001:0000cc08  __ZN10HelpDialog17currentTabChangedERK7QString
0001:0000dd30  __ZN10HelpDialog15insertBookmarksEv
0001:0000cec0  __ZN10HelpDialog19currentIndexChangedEP12QListBoxItem
0001:0000cec8  __ZN10HelpDialog9showTopicEiP12QListBoxItemRK6QPoint
0001:0000cef4  __ZN10HelpDialog9showTopicEiP13QListViewItemRK6QPoint
0001:0000cf20  __ZN10HelpDialog9showTopicEP13QListViewItem
0001:0000cf44  __ZN10HelpDialog9showTopicEv
0001:0000d1dc* __ZN10HelpDialog14showIndexTopicEv
0001:0000dff8* __ZN10HelpDialog17showBookmarkTopicEv
0001:0000e904* __ZN10HelpDialog17showContentsTopicEv
0001:0000d79c* __ZN10HelpDialog11titleOfLinkERK7QString
0001:0000d5ac  __ZN10HelpDialog13searchInIndexERK7QString
0001:0000d850  __ZN10HelpDialog11eventFilterEP7QObjectP6QEvent
0001:0000da64  __ZN10HelpDialog11addBookmarkEv
0001:0000e1d0* __ZN10HelpDialog13saveBookmarksEv
0001:0000dc80  __ZN10HelpDialog14removeBookmarkEv
0001:0000dff0  __ZN10HelpDialog22currentBookmarkChangedEP13QListViewItem
0001:0000e464  __ZN10HelpDialog14insertContentsEv
0001:0000e8fc  __ZN10HelpDialog22currentContentsChangedEP13QListViewItem
0001:0000e964  __ZN10HelpDialog14toggleContentsEv
0001:0000e9bc  __ZN10HelpDialog11toggleIndexEv
0001:0000ea38  __ZN10HelpDialog15toggleBookmarksEv
0001:0000ea90  __ZN10HelpDialog12toggleSearchEv
0001:0000eb84  __ZN10HelpDialog18setupFullTextIndexEv
0001:0000f564  __ZN10HelpDialog19setIndexingProgressEi
0001:0000f624  __ZN10HelpDialog11startSearchEv
0001:00010650  __ZN10HelpDialog14showSearchHelpEv
0001:0001070c  __ZN10HelpDialog14showResultPageEiP12QListBoxItemRK6QPoint
0001:00010734  __ZN10HelpDialog14showResultPageEP12QListBoxItem
0001:000107ac  __ZN10HelpDialog12showItemMenuEP12QListBoxItemRK6QPoint
0001:00010e94  __ZN10HelpDialog12showItemMenuEP13QListViewItemRK6QPoint
0001:00013480* __ZTV22HelpNavigationListItem$w$f0AJ931G8U6rrled2
0001:000110c8* __ZN17QValueListPrivateI7QStringEC1Ev$w$f0AJ931G8U6rrled2
0001:000111a4* __ZN17QValueListPrivateI7QStringE6insertE18QValueListIteratorIS0_ERKS0_$w$f0AJ931G8U6rrled2
0001:00011200* __ZN10QValueListI7QStringE14detachInternalEv$w$f0AJ931G8U6rrled2
0001:00011114* __ZN17QValueListPrivateI7QStringED1Ev$w$f0AJ931G8U6rrled2
0001:000133c0* __ZTV26HelpNavigationContentsItem$w$f0AJ931G8U6rrled2
0001:00011230* __ZN11QMapPrivateI7QStringS0_EC1Ev$w$f0AJ931G8U6rrled2
0001:00013380* __ZTV5QDictI10QValueListI11ContentItemEE$w$f0AJ931G8U6rrled2
0001:00011018* __ZN4QMapI7QStringS0_EixERKS0_$w$f0AJ931G8U6rrled2
0001:000112a0* __ZN10QValueListI7QStringE5clearEv$w$f0AJ931G8U6rrled2
0001:00011460* __ZN17QValueListPrivateI12IndexKeywordEC1Ev$w$f0AJ931G8U6rrled2
0001:000114b4* __ZN17QValueListPrivateI12IndexKeywordED1Ev$w$f0AJ931G8U6rrled2
0001:000112e4* __ZrsI12IndexKeywordER11QDataStreamS2_R10QValueListIT_E$w$f0AJ931G8U6rrled2
0001:000115bc* __ZNK17QValueListPrivateI7QStringE8containsERKS0_$w$f0AJ931G8U6rrled2
0001:0001158c* __ZN10QValueListI12IndexKeywordE14detachInternalEv$w$f0AJ931G8U6rrled2
0001:000117c4* __ZN17QValueListPrivateI12IndexKeywordE6insertE18QValueListIteratorIS0_ERKS0_$w$f0AJ931G8U6rrled2
0001:000134c0* __ZTV8QPtrListI9IndexItemE$w$f0AJ931G8U6rrled2
0001:0001175c* __ZlsI12IndexKeywordER11QDataStreamS2_RK10QValueListIT_E$w$f0AJ931G8U6rrled2
0001:00011610* __Z9qHeapSortI10QValueListI12IndexKeywordEEvRT_$w$f0AJ931G8U6rrled2
0001:00011830* __ZN4QMapI7QStringS0_E5clearEv$w$f0AJ931G8U6rrled2
0001:00011874* __ZN10QValueListI11ContentItemE14detachInternalEv$w$f0AJ931G8U6rrled2
0001:00011a28* __ZN17QValueListPrivateI11ContentItemEC1Ev$w$f0AJ931G8U6rrled2
0001:000118a4* __ZrsI11ContentItemER11QDataStreamS2_R10QValueListIT_E$w$f0AJ931G8U6rrled2
0001:00011a84* __ZN17QValueListPrivateI11ContentItemED1Ev$w$f0AJ931G8U6rrled2
0001:00011b5c* __ZlsI11ContentItemER11QDataStreamS2_RK10QValueListIT_E$w$f0AJ931G8U6rrled2
0001:00011bc4* __Z9qHeapSortI11QStringListEvRT_$w$f0AJ931G8U6rrled2
0001:00013340* __ZTV9QPtrStackI26HelpNavigationContentsItemE$w$f0AJ931G8U6rrled2
0001:00011d00* __ZN17QMapConstIteratorI7QStringS0_E3incEv$w$f0AJ931G8U6rrled2
0001:00011cd0* __ZN4QMapI7QStringS0_E14detachInternalEv$w$f0AJ931G8U6rrled2
0001:00011d4c* __ZN10QValueListI7QStringEpLERKS1_$w$f0AJ931G8U6rrled2
0001:00011e28* __ZNK17QValueListPrivateI7QStringE2atEj$w$f0AJ931G8U6rrled2
0001:00011e70* __ZNK11QMapPrivateI7QStringS0_E4findERKS0_$w$f0AJ931G8U6rrled2
0001:00011ef4* __ZN4QMapI7QStringS0_E6insertERKS0_S3_b$w$f0AJ931G8U6rrled2
0001:00011f60* __ZN17QValueListPrivateI7QStringEC1ERKS1_$w$f0AJ931G8U6rrled2
0001:00011ff4* __ZN17QValueListPrivateI7QStringE5clearEv$w$f0AJ931G8U6rrled2
0001:00012058* __ZN10QValueListI12IndexKeywordE5clearEv$w$f0AJ931G8U6rrled2
0001:0001209c* __ZN17QValueListPrivateI12IndexKeywordEC1ERKS1_$w$f0AJ931G8U6rrled2
0001:0001213c* __Z15qHeapSortHelperI18QValueListIteratorI12IndexKeywordES1_EvT_S3_T0_j$w$f0AJ931G8U6rrled2
0001:000137b0* __ZN11QMapPrivateI7QStringS0_E5clearEv$w$f0AJ931G8U6rrled2
0001:00012454* __ZN17QValueListPrivateI11ContentItemEC1ERKS1_$w$f0AJ931G8U6rrled2
0001:00012504* __ZN10QValueListI11ContentItemE5clearEv$w$f0AJ931G8U6rrled2
0001:00012548* __ZN17QValueListPrivateI11ContentItemE6insertE18QValueListIteratorIS0_ERKS0_$w$f0AJ931G8U6rrled2
0001:000125bc* __Z15qHeapSortHelperI18QValueListIteratorI7QStringES1_EvT_S3_T0_j$w$f0AJ931G8U6rrled2
0001:00012794* __ZN11QMapPrivateI7QStringS0_EC1EPKS1_$w$f0AJ931G8U6rrled2
0001:00012860* __ZN11QMapPrivateI7QStringS0_E12insertSingleERKS0_$w$f0AJ931G8U6rrled2
0001:00012914* __ZN17QValueListPrivateI12IndexKeywordE5clearEv$w$f0AJ931G8U6rrled2
0001:000129a4* __Z17qHeapSortPushDownI12IndexKeywordEvPT_ii$w$f0AJ931G8U6rrled2
0001:00012ea0* __ZN17QValueListPrivateI11ContentItemE5clearEv$w$f0AJ931G8U6rrled2
0001:00012f30* __Z17qHeapSortPushDownI7QStringEvPT_ii$w$f0AJ931G8U6rrled2
0001:000130e8* __ZN11QMapPrivateI7QStringS0_E4copyEP8QMapNodeIS0_S0_E$w$f0AJ931G8U6rrled2
0001:000131c8* __ZN11QMapPrivateI7QStringS0_E6insertEP12QMapNodeBaseS3_RKS0_$w$f0AJ931G8U6rrled2
0001:000132cc* __ZN12QMapIteratorI7QStringS0_E3decEv$w$f0AJ931G8U6rrled2
0001:00013870* __ZNK9QPtrStackI26HelpNavigationContentsItemE5countEv$w$f0AJ931G8U6rrled2
0001:00013774* __ZN9QPtrStackI26HelpNavigationContentsItemE5clearEv$w$f0AJ931G8U6rrled2
0001:0001374c* __ZN9QPtrStackI26HelpNavigationContentsItemED1Ev$w$f0AJ931G8U6rrled2
0001:00013780* __ZN9QPtrStackI26HelpNavigationContentsItemED0Ev$w$f0AJ931G8U6rrled2
0001:0001387c* __ZN9QPtrStackI26HelpNavigationContentsItemE10deleteItemEPv$w$f0AJ931G8U6rrled2
0001:000138a4* __ZNK5QDictI10QValueListI11ContentItemEE5countEv$w$f0AJ931G8U6rrled2
0001:000136ac* __ZN5QDictI10QValueListI11ContentItemEE5clearEv$w$f0AJ931G8U6rrled2
0001:00013684* __ZN5QDictI10QValueListI11ContentItemEED1Ev$w$f0AJ931G8U6rrled2
0001:000136b8* __ZN5QDictI10QValueListI11ContentItemEED0Ev$w$f0AJ931G8U6rrled2
0001:000138b0* __ZN5QDictI10QValueListI11ContentItemEE10deleteItemEPv$w$f0AJ931G8U6rrled2
0001:000135f8* __ZN26HelpNavigationContentsItemD1Ev$w$f0AJ931G8U6rrled2
0001:0001363c* __ZN26HelpNavigationContentsItemD0Ev$w$f0AJ931G8U6rrled2
0001:0001354c* __ZN13QListViewItem10removeItemEPS_$w$f0AJ931G8U6rrled2
0001:00013564* __ZN22HelpNavigationListItemD1Ev$w$f0AJ931G8U6rrled2
0001:000135ac* __ZN22HelpNavigationListItemD0Ev$w$f0AJ931G8U6rrled2
0001:00013538* __ZN12QListBoxItem7setTextERK7QString$w$f0AJ931G8U6rrled2
0001:000138fc* __ZNK8QPtrListI9IndexItemE5countEv$w$f0AJ931G8U6rrled2
0001:00013710* __ZN8QPtrListI9IndexItemE5clearEv$w$f0AJ931G8U6rrled2
0001:000136e8* __ZN8QPtrListI9IndexItemED1Ev$w$f0AJ931G8U6rrled2
0001:0001371c* __ZN8QPtrListI9IndexItemED0Ev$w$f0AJ931G8U6rrled2
0001:00013908* __ZN8QPtrListI9IndexItemE10deleteItemEPv$w$f0AJ931G8U6rrled2
0001:00013500* __ZTV6QGList$w$f0AJ931G8U6rrled2
0001:0001352c* __ZNK6QGList5countEv$w$f0AJ931G8U6rrled2
0001:000137ec* __ZN11QMapPrivateI7QStringS0_E5clearEP8QMapNodeIS0_S0_E$w$f0AJ931G8U6rrled2
Module: C:\200\trunk\tools\assistant\tmp\obj\release_mt_shared\settingsdialogimpl.obj(settingsdialogimpl.obj)
0001:00013980* __ZN14SettingsDialogC2EP7QWidgetPKc
0001:000139f0* __ZN14SettingsDialog4initEv
0001:000139b8  __ZN14SettingsDialogC1EP7QWidgetPKc
0001:00013ae4  __ZN14SettingsDialog11selectColorEv
0001:00013b48  __ZN14SettingsDialog12browseWebAppEv
0001:00013c8c* __ZN14SettingsDialog7setFileEP9QLineEditRK7QString
0001:00013bc0  __ZN14SettingsDialog20browsePDFApplicationEv
0001:00013c34  __ZN14SettingsDialog14browseHomepageEv
0001:00013da0  __ZN14SettingsDialog6acceptEv
0001:00013e98  __ZN14SettingsDialog6rejectEv
0001:00013ec0* __ZTV6QGList$w$LosVY81G8U6VqRTs1
0001:00013eec* __ZNK6QGList5countEv$w$LosVY81G8U6VqRTs1
Module: C:\200\trunk\tools\assistant\tmp\obj\release_mt_shared\index.obj(index.obj)
0001:00013f00* __ZN8TermList12compareItemsEPvS0_
0001:00013f24* __ZrsR11QDataStreamR8Document
0001:00013f50* __ZlsR11QDataStreamRK8Document
0001:00013fa8* __ZN5IndexC2ERK7QStringS2_
0001:0001407c* __ZN5IndexC1ERK7QStringS2_
0001:00014150* __ZN5IndexC2ERK11QStringListRK7QString
0001:00014264  __ZN5IndexC1ERK11QStringListRK7QString
0001:00014378  __ZN5Index16setLastWinClosedEv
0001:00014384  __ZN5Index17setDictionaryFileERK7QString
0001:00014398  __ZN5Index14setDocListFileERK7QString
0001:000143ac  __ZN5Index10setDocListERK11QStringList
0001:000143f0  __ZN5Index9makeIndexEv
0001:00014930* __ZN5Index13parseDocumentERK7QStringi
0001:00014500* __ZN5Index17setupDocumentListEv
0001:00014764* __ZN5Index12insertInDictERK7QStringi
0001:00014cf8  __ZN5Index9writeDictEv
0001:00014e1c* __ZN5Index17writeDocumentListEv
0001:00014e80  __ZN5Index8readDictEv
0001:00015048* __ZN5Index16readDocumentListEv
0001:000150b4  __ZN5Index5queryERK11QStringListS2_S2_
0001:00015bb4* __ZN5Index16getWildcardTermsERK7QString
0001:000161d8* __ZN5Index14setupDummyTermERK11QStringList
0001:00016578* __ZN5Index16searchForPatternERK11QStringListS2_RK7QString
0001:000159c4  __ZN5Index16getDocumentTitleERK7QString
0001:00015f5c* __ZN5Index5splitERK7QString
0001:000164f0* __ZN5Index13buildMiniDictERK7QString
0001:00016f68* __ZN17QValueListPrivateI7QStringEC1Ev$w$BLCbqg1G8U6yWOue1
0001:00017b80* __ZTV5QDictIN5Index5EntryEE$w$BLCbqg1G8U6yWOue1
0001:00017b40* __ZTV5QDictIN5Index8PosEntryEE$w$BLCbqg1G8U6yWOue1
0001:00016fb4* __ZN17QValueListPrivateI7QStringED1Ev$w$BLCbqg1G8U6yWOue1
0001:00017044* __ZN10QValueListI7QStringE14detachInternalEv$w$BLCbqg1G8U6yWOue1
0001:00017074* __ZN17QValueListPrivateI7QStringE6insertE18QValueListIteratorIS0_ERKS0_$w$BLCbqg1G8U6yWOue1
0001:00017150* __ZN17QValueListPrivateI8DocumentEC1Ev$w$BLCbqg1G8U6yWOue1
0001:00017100* __ZN17QValueListPrivateI8DocumentE6insertE18QValueListIteratorIS0_ERKS0_$w$BLCbqg1G8U6yWOue1
0001:000170d0* __ZN10QValueListI8DocumentE14detachInternalEv$w$BLCbqg1G8U6yWOue1
0001:000171c8* __ZlsI8DocumentER11QDataStreamS2_RK10QValueListIT_E$w$BLCbqg1G8U6yWOue1
0001:00017230* __ZrsI8DocumentER11QDataStreamS2_R10QValueListIT_E$w$BLCbqg1G8U6yWOue1
0001:0001718c* __ZN17QValueListPrivateI8DocumentED1Ev$w$BLCbqg1G8U6yWOue1
0001:00017ac0* __ZTV8TermList$w$BLCbqg1G8U6yWOue1
0001:00017b00* __ZTV8QPtrListI4TermE$w$BLCbqg1G8U6yWOue1
0001:0001741c* __ZN17QValueListPrivateI8DocumentE6removeE18QValueListIteratorIS0_E$w$BLCbqg1G8U6yWOue1
0001:00017300* __Z9qHeapSortI10QValueListI8DocumentEEvRT_$w$BLCbqg1G8U6yWOue1
0001:00017488* __ZNK17QValueListPrivateI7QStringE2atEj$w$BLCbqg1G8U6yWOue1
0001:000174d0* __ZNK17QValueListPrivateI8DocumentE9findIndexEP14QValueListNodeIS0_ERKS0_$w$BLCbqg1G8U6yWOue1
0001:0001751c* __ZN17QValueListPrivateIjE6insertE18QValueListIteratorIjERKj$w$BLCbqg1G8U6yWOue1
0001:0001756c* __ZN10QValueListIjE14detachInternalEv$w$BLCbqg1G8U6yWOue1
0001:0001759c* __ZN17QValueListPrivateIjEC1Ev$w$BLCbqg1G8U6yWOue1
0001:00017608* __ZNK17QValueListPrivateIjE4findEP14QValueListNodeIjERKj$w$BLCbqg1G8U6yWOue1
0001:00017644* __ZN17QValueListPrivateIjE6removeE18QValueListIteratorIjE$w$BLCbqg1G8U6yWOue1
0001:000175cc* __ZN17QValueListPrivateIjED1Ev$w$BLCbqg1G8U6yWOue1
0001:000176a4* __ZN17QValueListPrivateI7QStringEC1ERKS1_$w$BLCbqg1G8U6yWOue1
0001:00017738* __ZN17QValueListPrivateI8DocumentEC1ERKS1_$w$BLCbqg1G8U6yWOue1
0001:000177c0* __ZN10QValueListI8DocumentE5clearEv$w$BLCbqg1G8U6yWOue1
0001:00017804* __Z15qHeapSortHelperI18QValueListIteratorI8DocumentES1_EvT_S3_T0_j$w$BLCbqg1G8U6yWOue1
0001:00017960* __ZN17QValueListPrivateIjEC1ERKS0_$w$BLCbqg1G8U6yWOue1
0001:000179dc* __ZN17QValueListPrivateI8DocumentE5clearEv$w$BLCbqg1G8U6yWOue1
0001:00017a18* __Z17qHeapSortPushDownI8DocumentEvPT_ii$w$BLCbqg1G8U6yWOue1
0001:00017d24* __ZNK8QPtrListI4TermE5countEv$w$BLCbqg1G8U6yWOue1
0001:00017d30* __ZN8QPtrListI4TermE5clearEv$w$BLCbqg1G8U6yWOue1
0001:00017c28* __ZN8TermListD1Ev$w$BLCbqg1G8U6yWOue1
0001:00017bf8* __ZN8TermListD0Ev$w$BLCbqg1G8U6yWOue1
0001:00017d94* __ZN8QPtrListI4TermE10deleteItemEPv$w$BLCbqg1G8U6yWOue1
0001:00017d3c* __ZN8QPtrListI4TermED1Ev$w$BLCbqg1G8U6yWOue1
0001:00017d64* __ZN8QPtrListI4TermED0Ev$w$BLCbqg1G8U6yWOue1
0001:00017e08* __ZNK5QDictIN5Index8PosEntryEE5countEv$w$BLCbqg1G8U6yWOue1
0001:00017cdc* __ZN5QDictIN5Index8PosEntryEE5clearEv$w$BLCbqg1G8U6yWOue1
0001:00017c78* __ZN5QDictIN5Index8PosEntryEED1Ev$w$BLCbqg1G8U6yWOue1
0001:00017ce8* __ZN5QDictIN5Index8PosEntryEED0Ev$w$BLCbqg1G8U6yWOue1
0001:00017e14* __ZN5QDictIN5Index8PosEntryEE10deleteItemEPv$w$BLCbqg1G8U6yWOue1
0001:00017d18* __ZNK5QDictIN5Index5EntryEE5countEv$w$BLCbqg1G8U6yWOue1
0001:00017ca0* __ZN5QDictIN5Index5EntryEE5clearEv$w$BLCbqg1G8U6yWOue1
0001:00017c50* __ZN5QDictIN5Index5EntryEED1Ev$w$BLCbqg1G8U6yWOue1
0001:00017cac* __ZN5QDictIN5Index5EntryEED0Ev$w$BLCbqg1G8U6yWOue1
0001:00017e60* __ZN5QDictIN5Index5EntryEE10deleteItemEPv$w$BLCbqg1G8U6yWOue1
0001:00017bc0* __ZTV6QGList$w$BLCbqg1G8U6yWOue1
0001:00017bec* __ZNK6QGList5countEv$w$BLCbqg1G8U6yWOue1
Module: C:\200\trunk\tools\assistant\tmp\obj\release_mt_shared\profile.obj(profile.obj)
0001:00018080  __ZN7Profile20createDefaultProfileERK7QString
0001:00019488  __ZN7ProfileC1Ev
0001:000193d8* __ZN7ProfileC2Ev
0001:00019538  __ZN7Profile18removeDocFileEntryERK7QString
0001:0001976c* __ZN4QMapI7QStringS0_EixERKS0_$w$DMM04j1G8U6RdFMm1
0001:0001981c* __ZNK17QValueListPrivateI7QStringE8containsERKS0_$w$DMM04j1G8U6RdFMm1
0001:00019870* __ZN17QValueListPrivateI7QStringE6insertE18QValueListIteratorIS0_ERKS0_$w$DMM04j1G8U6RdFMm1
0001:000198cc* __ZN10QValueListI7QStringE14detachInternalEv$w$DMM04j1G8U6RdFMm1
0001:000198fc* __ZN11QMapPrivateI7QStringS0_EC1Ev$w$DMM04j1G8U6RdFMm1
0001:0001996c* __ZN17QValueListPrivateI7QStringEC1Ev$w$DMM04j1G8U6RdFMm1
0001:00019b3c* __ZN17QValueListPrivateI7QStringE6removeERKS0_$w$DMM04j1G8U6RdFMm1
0001:00019be4* __ZN12QMapIteratorI7QStringS0_E3incEv$w$DMM04j1G8U6RdFMm1
0001:00019a48* __ZN4QMapI7QStringS0_E6removeERKS0_$w$DMM04j1G8U6RdFMm1
0001:000199b8* __ZN17QValueListPrivateI7QStringED1Ev$w$DMM04j1G8U6RdFMm1
0001:00019bb4* __ZN4QMapI7QStringS0_E14detachInternalEv$w$DMM04j1G8U6RdFMm1
0001:00019c30* __ZNK11QMapPrivateI7QStringS0_E4findERKS0_$w$DMM04j1G8U6RdFMm1
0001:00019cb4* __ZN4QMapI7QStringS0_E6insertERKS0_S3_b$w$DMM04j1G8U6RdFMm1
0001:00019d20* __ZN17QValueListPrivateI7QStringEC1ERKS1_$w$DMM04j1G8U6RdFMm1
0001:00019e00* __ZN17QValueListPrivateI7QStringE6removeE18QValueListIteratorIS0_E$w$DMM04j1G8U6RdFMm1
0001:00019e88* __ZN11QMapPrivateI7QStringS0_EC1EPKS1_$w$DMM04j1G8U6RdFMm1
0001:00019f54* __ZN11QMapPrivateI7QStringS0_E12insertSingleERKS0_$w$DMM04j1G8U6RdFMm1
0001:0001a008* __ZN11QMapPrivateI7QStringS0_E4copyEP8QMapNodeIS0_S0_E$w$DMM04j1G8U6RdFMm1
0001:0001a0e8* __ZN11QMapPrivateI7QStringS0_E6insertEP12QMapNodeBaseS3_RKS0_$w$DMM04j1G8U6RdFMm1
0001:0001a1ec* __ZN12QMapIteratorI7QStringS0_E3decEv$w$DMM04j1G8U6RdFMm1
0001:0001a260* __ZTV6QGList$w$DMM04j1G8U6RdFMm1
0001:0001a28c* __ZNK6QGList5countEv$w$DMM04j1G8U6RdFMm1
Module: C:\200\trunk\tools\assistant\tmp\obj\release_mt_shared\config.obj(config.obj)
0001:0001a2c8* __ZN6ConfigC2Ev
0001:0001a450* __ZN6ConfigC1Ev
0001:0001a668  __ZN6Config10loadConfigERK7QString
0001:0001a99c* __ZN6Config4loadEv
0001:0001c908  __ZN6Config18loadDefaultProfileEv
0001:0001a85c  __ZN6Config13configurationEv
0001:0001bb3c  __ZN6Config4saveEv
0001:0001bb60* __ZN6Config12saveSettingsEv
0001:0001d320  __ZN6Config11saveProfileEP7Profile
0001:0001df70  __ZN6Config9mimePathsEv
0001:0001e2b8* __ZNK6Config8profilesEv
0001:0001e2d4  __ZNK6Config5titleEv
0001:0001e344  __ZNK6Config24aboutApplicationMenuTextEv
0001:0001e3ac  __ZNK6Config8aboutURLEv
0001:0001e418  __ZNK6Config8homePageEv
0001:0001e4a0  __ZNK6Config6sourceEv
0001:0001e5b8  __ZNK6Config8docFilesEv
0001:0001e5d0  __ZNK6Config7docIconERK7QString
0001:0001e698  __ZNK6Config15applicationIconEv
0001:0001e6f8  __ZNK6Config9docTitlesEv
0001:0001e748* __ZNK6Config11docImageDirERK7QString
0001:0001e778  __ZNK6Config9indexPageERK7QString
0001:0001e7a8  __ZN6Config11hideSideBarEb
0001:0001e7b8  __ZNK6Config13sideBarHiddenEv
0001:0001e7d8  __ZNK6Config16assistantDocPathEv
0001:0001e9c8* __ZN17QValueListPrivateI7QStringEC1Ev$w$HclKHq1G8U684TJ72
0001:0001e918* __ZN4QMapI7QStringS0_EixERKS0_$w$HclKHq1G8U684TJ72
0001:0001ea14* __ZN17QValueListPrivateI7QStringED1Ev$w$HclKHq1G8U684TJ72
0001:0001eaa4* __ZN4QMapI7QStringS0_E5clearEv$w$HclKHq1G8U684TJ72
0001:0001eae8* __ZN10QValueListI7QStringE5clearEv$w$HclKHq1G8U684TJ72
0001:0001eb5c* __ZNK17QValueListPrivateI7QStringE8containsERKS0_$w$HclKHq1G8U684TJ72
0001:0001ebb0* __ZN17QValueListPrivateI7QStringE6insertE18QValueListIteratorIS0_ERKS0_$w$HclKHq1G8U684TJ72
0001:0001eb2c* __ZN10QValueListI7QStringE14detachInternalEv$w$HclKHq1G8U684TJ72
0001:0001ec0c* __ZN17QMapConstIteratorI7QStringS0_E3incEv$w$HclKHq1G8U684TJ72
0001:0001ec58* __ZN4QMapI7QStringS0_E14detachInternalEv$w$HclKHq1G8U684TJ72
0001:0001f398* __ZNK4QMapI7QStringS0_E4keysEv$w$HclKHq1G8U684TJ72
0001:0001ec88* __ZNK11QMapPrivateI7QStringS0_E4findERKS0_$w$HclKHq1G8U684TJ72
0001:0001ed0c* __ZN4QMapI7QStringS0_E6insertERKS0_S3_b$w$HclKHq1G8U684TJ72
0001:0001edb4* __ZN11QMapPrivateI7QStringS0_EC1Ev$w$HclKHq1G8U684TJ72
0001:0001ed78* __ZN11QMapPrivateI7QStringS0_E5clearEv$w$HclKHq1G8U684TJ72
0001:0001ee24* __ZN17QValueListPrivateI7QStringE5clearEv$w$HclKHq1G8U684TJ72
0001:0001ee88* __ZN17QValueListPrivateI7QStringEC1ERKS1_$w$HclKHq1G8U684TJ72
0001:0001ef1c* __ZN11QMapPrivateI7QStringS0_EC1EPKS1_$w$HclKHq1G8U684TJ72
0001:0001efe8* __ZN11QMapPrivateI7QStringS0_E12insertSingleERKS0_$w$HclKHq1G8U684TJ72
0001:0001f09c* __ZN11QMapPrivateI7QStringS0_E5clearEP8QMapNodeIS0_S0_E$w$HclKHq1G8U684TJ72
0001:0001f120* __ZN11QMapPrivateI7QStringS0_E4copyEP8QMapNodeIS0_S0_E$w$HclKHq1G8U684TJ72
0001:0001f200* __ZN11QMapPrivateI7QStringS0_E6insertEP12QMapNodeBaseS3_RKS0_$w$HclKHq1G8U684TJ72
0001:0001f304* __ZN12QMapIteratorI7QStringS0_E3decEv$w$HclKHq1G8U684TJ72
0001:0001f360* __ZTV6QGList$w$HclKHq1G8U684TJ72
0001:0001f38c* __ZNK6QGList5countEv$w$HclKHq1G8U684TJ72
Module: C:\200\trunk\tools\assistant\tmp\obj\release_mt_shared\mainwindow.obj(mainwindow.obj)
0001:0001f4ac  __ZN10MainWindow4initEv
0001:0001f9ec  __ZN10MainWindow5setupEv
0001:0001feac  __ZN10MainWindow14setupGoActionsEv
0001:00020238  __ZN10MainWindow17browserTabChangedEv
0001:000202c4  __ZN10MainWindow21insertActionSeparatorEv
0001:000202f8  __ZN10MainWindow5closeEb
0001:00020328  __ZN10MainWindow7destroyEv
0001:000206e8  __ZN10MainWindow5aboutEv
0001:000208ac  __ZN10MainWindow16aboutApplicationEv
0001:00020b48  __ZN10MainWindow4findEv
0001:00020ccc  __ZN10MainWindow9findAgainEv
0001:00020d38  __ZN10MainWindow13findAgainPrevEv
0001:00020da4  __ZN10MainWindow6goHomeEv
0001:00020df8  __ZN10MainWindow5printEv
0001:00020e00  __ZN10MainWindow18updateBookmarkMenuEv
0001:00020e5c  __ZN10MainWindow17setupBookmarkMenuEv
0001:00021158  __ZN10MainWindow12showBookmarkEi
0001:0002121c  __ZN10MainWindow18showLinkFromClientERK7QString
0001:000212ec  __ZN10MainWindow8showLinkERK7QString
0001:00021738  __ZN10MainWindow9showLinksERK11QStringList
0001:0002194c  __ZN10MainWindow10timerEventEP11QTimerEvent
0001:00021a98  __ZN10MainWindow10showQtHelpEv
0001:00021b58  __ZN10MainWindow18showSettingsDialogEv
0001:00021b74  __ZN10MainWindow22showWebBrowserSettingsEv
0001:00021bac  __ZN10MainWindow18showSettingsDialogEi
0001:000221e4  __ZN10MainWindow4hideEv
0001:00022208  __ZN10MainWindow9newWindowEv
0001:000240b0  __ZN10MainWindowC1EP7QWidgetPKcj
0001:000222ac  __ZN10MainWindow12saveSettingsEv
0001:00022620  __ZN10MainWindow19saveToolbarSettingsEv
0001:000226a4  __ZN10MainWindow8browsersEv
0001:000226b4  __ZN10MainWindow14showSearchLinkERK7QStringRK11QStringList
0001:00022890  __ZN10MainWindow16showGoActionLinkEv
0001:00022994  __ZN10MainWindow17showAssistantHelpEv
0001:00022a54  __ZN10MainWindow10helpDialogEv
0001:00022a64  __ZN10MainWindow17backwardAvailableEb
0001:00022a8c  __ZN10MainWindow16forwardAvailableEb
0001:00022ab4  __ZN10MainWindow21updateProfileSettingsEv
0001:00022f5c* __ZN10MainWindowC2EP7QWidgetPKcj
0001:00025a1c  __ZN10MainWindow14languageChangeEv
0001:00025204* __ZN10MainWindowD2Ev
0001:0002530c  __ZN10MainWindowD1Ev
0001:00025420  __ZN10MainWindowD0Ev
0002:00000480* __ZN10MainWindow7windowsE
0001:00028800* __ZTV8QPtrListI7QActionE$w$1d8mLF1G8U651yu50
0001:000275bc* __ZN11QMapPrivateIP7QAction7QStringEC1Ev$w$1d8mLF1G8U651yu50
0001:000287c0* __ZTV8QPtrListI10MainWindowE$w$1d8mLF1G8U651yu50
0001:00027614* __ZN4QMapIP7QAction7QStringE5clearEv$w$1d8mLF1G8U651yu50
0001:00027658* __ZN4QMapIP7QAction7QStringE6insertERKS1_RKS2_b$w$1d8mLF1G8U651yu50
0001:000276c4* __ZN17QValueListPrivateI7QStringED1Ev$w$1d8mLF1G8U651yu50
0001:00027754* __ZN10QValueListI7QStringE14detachInternalEv$w$1d8mLF1G8U651yu50
0001:00027784* __ZN11QMapPrivateIP7QAction7QStringE5clearEv$w$1d8mLF1G8U651yu50
0001:000288b0* __ZTV9QMemArrayIcE$w$1d8mLF1G8U651yu50
0001:000277c0* __ZN4QMapIi7QStringE5clearEv$w$1d8mLF1G8U651yu50
0001:0002750c* __ZN4QMapI7QStringS0_EixERKS0_$w$1d8mLF1G8U651yu50
0001:00027804* __ZN4QMapIi7QStringE6insertERKiRKS0_b$w$1d8mLF1G8U651yu50
0001:00027870* __ZNK11QMapPrivateIi7QStringE4findERKi$w$1d8mLF1G8U651yu50
0001:000278c0* __ZN4QMapIi7QStringE14detachInternalEv$w$1d8mLF1G8U651yu50
0001:0002793c* __ZN17QValueListPrivateI7QStringE6removeE18QValueListIteratorIS0_E$w$1d8mLF1G8U651yu50
0001:000279c4* __ZN17QValueListPrivateI7QStringEC1Ev$w$1d8mLF1G8U651yu50
0001:00027a10* __ZN17QValueListPrivateI7QStringE6insertE18QValueListIteratorIS0_ERKS0_$w$1d8mLF1G8U651yu50
0001:00028840* __ZTV8QPtrListI10HelpWindowE$w$1d8mLF1G8U651yu50
0001:00027a6c* __ZNK11QMapPrivateIP7QAction7QStringE4findERKS1_$w$1d8mLF1G8U651yu50
0001:00027abc* __ZN4QMapIP7QAction7QStringE14detachInternalEv$w$1d8mLF1G8U651yu50
0001:00027aec* __ZN11QMapPrivateIi7QStringEC1Ev$w$1d8mLF1G8U651yu50
0001:00027b44* __ZN11QMapPrivateIi7QStringE5clearEv$w$1d8mLF1G8U651yu50
0001:00025414* __ZThn40_N10MainWindowD1Ev$w$1d8mLF1G8U651yu50
0001:00025534* __ZThn40_N10MainWindowD0Ev$w$1d8mLF1G8U651yu50
0001:00027b80* __ZNK11QMapPrivateI7QStringS0_E4findERKS0_$w$1d8mLF1G8U651yu50
0001:00027c04* __ZN4QMapI7QStringS0_E6insertERKS0_S3_b$w$1d8mLF1G8U651yu50
0001:00027c70* __ZN4QMapI7QStringS0_E14detachInternalEv$w$1d8mLF1G8U651yu50
0001:00027ca0* __ZN11QMapPrivateIP7QAction7QStringE12insertSingleERKS1_$w$1d8mLF1G8U651yu50
0001:00027d3c* __ZN17QValueListPrivateI7QStringEC1ERKS1_$w$1d8mLF1G8U651yu50
0001:00027dd0* __ZN11QMapPrivateIP7QAction7QStringE5clearEP8QMapNodeIS1_S2_E$w$1d8mLF1G8U651yu50
0001:00027e34* __ZN11QMapPrivateIi7QStringE12insertSingleERKi$w$1d8mLF1G8U651yu50
0001:00027ed0* __ZN11QMapPrivateIi7QStringEC1EPKS1_$w$1d8mLF1G8U651yu50
0001:00027f80* __ZN11QMapPrivateIP7QAction7QStringEC1EPKS3_$w$1d8mLF1G8U651yu50
0001:00028030* __ZN11QMapPrivateIi7QStringE5clearEP8QMapNodeIiS0_E$w$1d8mLF1G8U651yu50
0001:00028094* __ZN11QMapPrivateI7QStringS0_E12insertSingleERKS0_$w$1d8mLF1G8U651yu50
0001:00028148* __ZN11QMapPrivateI7QStringS0_EC1EPKS1_$w$1d8mLF1G8U651yu50
0001:00028214* __ZN11QMapPrivateIP7QAction7QStringE6insertEP12QMapNodeBaseS5_RKS1_$w$1d8mLF1G8U651yu50
0001:000282bc* __ZN12QMapIteratorIP7QAction7QStringE3decEv$w$1d8mLF1G8U651yu50
0001:00028314* __ZN11QMapPrivateIi7QStringE6insertEP12QMapNodeBaseS3_RKi$w$1d8mLF1G8U651yu50
0001:000283bc* __ZN12QMapIteratorIi7QStringE3decEv$w$1d8mLF1G8U651yu50
0001:00028414* __ZN11QMapPrivateIi7QStringE4copyEP8QMapNodeIiS0_E$w$1d8mLF1G8U651yu50
0001:000284c4* __ZN11QMapPrivateIP7QAction7QStringE4copyEP8QMapNodeIS1_S2_E$w$1d8mLF1G8U651yu50
0001:00028574* __ZN11QMapPrivateI7QStringS0_E6insertEP12QMapNodeBaseS3_RKS0_$w$1d8mLF1G8U651yu50
0001:00028678* __ZN12QMapIteratorI7QStringS0_E3decEv$w$1d8mLF1G8U651yu50
0001:000286d0* __ZN11QMapPrivateI7QStringS0_E4copyEP8QMapNodeIS0_S0_E$w$1d8mLF1G8U651yu50
0001:00028a48* __ZNK8QPtrListI10MainWindowE5countEv$w$1d8mLF1G8U651yu50
0001:000289ec* __ZN8QPtrListI10MainWindowE5clearEv$w$1d8mLF1G8U651yu50
0001:000289f8* __ZN8QPtrListI10MainWindowED1Ev$w$1d8mLF1G8U651yu50
0001:00028900* __ZN8QPtrListI10MainWindowED0Ev$w$1d8mLF1G8U651yu50
0001:00028a54* __ZN8QPtrListI10MainWindowE10deleteItemEPv$w$1d8mLF1G8U651yu50
0001:00028a7c* __ZNK8QPtrListI7QActionE5countEv$w$1d8mLF1G8U651yu50
0001:000288f4* __ZN8QPtrListI7QActionE5clearEv$w$1d8mLF1G8U651yu50
0001:00028a20* __ZN8QPtrListI7QActionED1Ev$w$1d8mLF1G8U651yu50
0001:00028930* __ZN8QPtrListI7QActionED0Ev$w$1d8mLF1G8U651yu50
0001:00028a88* __ZN8QPtrListI7QActionE10deleteItemEPv$w$1d8mLF1G8U651yu50
0001:00028ab0* __ZNK8QPtrListI10HelpWindowE5countEv$w$1d8mLF1G8U651yu50
0001:000289b0* __ZN8QPtrListI10HelpWindowE5clearEv$w$1d8mLF1G8U651yu50
0001:00028988* __ZN8QPtrListI10HelpWindowED1Ev$w$1d8mLF1G8U651yu50
0001:000289bc* __ZN8QPtrListI10HelpWindowED0Ev$w$1d8mLF1G8U651yu50
0001:00028abc* __ZN8QPtrListI10HelpWindowE10deleteItemEPv$w$1d8mLF1G8U651yu50
0001:00028880* __ZTV6QGList$w$1d8mLF1G8U651yu50
0001:000288e8* __ZNK6QGList5countEv$w$1d8mLF1G8U651yu50
0001:000288cc* __ZN9QMemArrayIcED1Ev$w$1d8mLF1G8U651yu50
0001:00028960* __ZN9QMemArrayIcED0Ev$w$1d8mLF1G8U651yu50
0001:00028ae4* __ZN9QMemArrayIcE6detachEv$w$1d8mLF1G8U651yu50
Module: C:\200\trunk\tools\assistant\tmp\obj\release_mt_shared\topicchooser.obj(topicchooser.obj)
0001:00028bb8  __ZN16TopicChooserBaseC2EP7QWidgetPKcbj
0001:00029388  __ZN16TopicChooserBase14languageChangeEv
0001:000295a8  __ZN16TopicChooserBase4initEv
0001:00028ed4* __ZN16TopicChooserBaseC1EP7QWidgetPKcbj
0001:000291f0  __ZN16TopicChooserBaseD2Ev
0001:000295b0  __ZN16TopicChooserBase7destroyEv
0001:00029220  __ZN16TopicChooserBaseD1Ev
0001:00029258  __ZN16TopicChooserBaseD0Ev
0001:00029250* __ZThn40_N16TopicChooserBaseD1Ev$w$P6OloL1G8U6y9yNN0
0001:0002928c* __ZThn40_N16TopicChooserBaseD0Ev$w$P6OloL1G8U6y9yNN0
0001:000295c0* __ZTV6QGList$w$P6OloL1G8U6y9yNN0
0001:000295ec* __ZNK6QGList5countEv$w$P6OloL1G8U6y9yNN0
Module: C:\200\trunk\tools\assistant\tmp\obj\release_mt_shared\finddialog.obj(finddialog.obj)
0001:00029628  __ZN10FindDialog4initEv
0001:000296d8  __ZN10FindDialog7destroyEv
0001:000296e0  __ZN10FindDialog6doFindEv
0001:00029760  __ZN10FindDialog6doFindEb
0001:00029974* __ZN10FindDialog10mainWindowEv
0001:00029980  __ZN10FindDialog17hasFindExpressionEv
0001:000299a0  __ZN10FindDialog13statusMessageERK7QString
0001:00029aa8* __ZN10FindDialogC2EP7QWidgetPKcbj
0001:0002a918  __ZN10FindDialog14languageChangeEv
0001:0002a110  __ZN10FindDialogC1EP7QWidgetPKcbj
0001:0002a778* __ZN10FindDialogD2Ev
0001:0002a7d0  __ZN10FindDialogD1Ev
0001:0002a830  __ZN10FindDialogD0Ev
0001:0002a828* __ZThn40_N10FindDialogD1Ev$w$rIt6kT1G8U6RNZ1q3
0001:0002a88c* __ZThn40_N10FindDialogD0Ev$w$rIt6kT1G8U6RNZ1q3
0001:0002acc0* __ZTV6QGList$w$rIt6kT1G8U6RNZ1q3
0001:0002acec* __ZNK6QGList5countEv$w$rIt6kT1G8U6RNZ1q3
Module: C:\200\trunk\tools\assistant\tmp\obj\release_mt_shared\helpdialog.obj(helpdialog.obj)
0001:0002afa0  __ZN14HelpDialogBaseC2EP7QWidgetPKcj
0001:0002ccd4  __ZN14HelpDialogBase14languageChangeEv
0001:0002d57c  __ZN14HelpDialogBase4initEv
0001:0002bb38* __ZN14HelpDialogBaseC1EP7QWidgetPKcj
0001:0002c6d0  __ZN14HelpDialogBaseD2Ev
0001:0002d584  __ZN14HelpDialogBase7destroyEv
0001:0002c700  __ZN14HelpDialogBaseD1Ev
0001:0002c738  __ZN14HelpDialogBaseD0Ev
0001:0002d5c0  __ZN14HelpDialogBase11addBookmarkEv
0001:0002d61c  __ZN14HelpDialogBase22currentBookmarkChangedEP13QListViewItem
0001:0002d674  __ZN14HelpDialogBase19currentIndexChangedEP12QListBoxItem
0001:0002d6cc  __ZN14HelpDialogBase17currentTabChangedERK7QString
0001:0002d714  __ZN14HelpDialogBase13loadIndexFileEv
0001:0002d770  __ZN14HelpDialogBase22currentContentsChangedEP13QListViewItem
0001:0002d7b8  __ZN14HelpDialogBase14removeBookmarkEv
0001:0002d80c  __ZN14HelpDialogBase13searchInIndexERK7QString
0001:0002d850  __ZN14HelpDialogBase9showTopicEv
0001:0002d8b0  __ZN14HelpDialogBase9showTopicEiP12QListBoxItemRK6QPoint
0001:0002d8f8  __ZN14HelpDialogBase14showSearchHelpEv
0001:0002d93c  __ZN14HelpDialogBase11startSearchEv
0001:0002d990  __ZN14HelpDialogBase14showResultPageEP12QListBoxItem
0001:0002d9f8  __ZN14HelpDialogBase14showResultPageEiP12QListBoxItemRK6QPoint
0001:0002da60  __ZN14HelpDialogBase14showResultPageEiP13QListViewItemRK6QPoint
0001:0002c730* __ZThn40_N14HelpDialogBaseD1Ev$w$zSk8g12G8U6ZHyFQ3
0001:0002c76c* __ZThn40_N14HelpDialogBaseD0Ev$w$zSk8g12G8U6ZHyFQ3
0001:0002da80* __ZTV6QGList$w$zSk8g12G8U6ZHyFQ3
0001:0002daac* __ZNK6QGList5countEv$w$zSk8g12G8U6ZHyFQ3
Module: C:\200\trunk\tools\assistant\tmp\obj\release_mt_shared\settingsdialog.obj(settingsdialog.obj)
0001:0002dc90  __ZN18SettingsDialogBaseC2EP7QWidgetPKcbj
0001:0002fb48  __ZN18SettingsDialogBase14languageChangeEv
0001:0002eb58* __ZN18SettingsDialogBaseC1EP7QWidgetPKcbj
0001:0002fa20  __ZN18SettingsDialogBaseD2Ev
0001:0002fa44  __ZN18SettingsDialogBaseD1Ev
0001:0002fa70  __ZN18SettingsDialogBaseD0Ev
0001:0003001c  __ZN18SettingsDialogBase11selectColorEv
0001:00030064  __ZN18SettingsDialogBase12browseWebAppEv
0001:000300b4  __ZN18SettingsDialogBase20browsePDFApplicationEv
0001:00030100  __ZN18SettingsDialogBase14browseHomepageEv
0001:0002fa68* __ZThn40_N18SettingsDialogBaseD1Ev$w$DiTRT82G8U6rQRVP0
0001:0002fa9c* __ZThn40_N18SettingsDialogBaseD0Ev$w$DiTRT82G8U6rQRVP0
0001:00030120* __ZTV6QGList$w$DiTRT82G8U6rQRVP0
0001:0003014c* __ZNK6QGList5countEv$w$DiTRT82G8U6rQRVP0
Module: C:\200\trunk\tools\assistant\tmp\obj\release_mt_shared\tabbedbrowser.obj(tabbedbrowser.obj)
0001:000301e4  __ZN13TabbedBrowser7forwardEv
0001:00030208  __ZN13TabbedBrowser8backwardEv
0001:0003022c  __ZN13TabbedBrowser9setSourceERK7QString
0001:00030254  __ZN13TabbedBrowser6reloadEv
0001:00030278  __ZN13TabbedBrowser4homeEv
0001:0003029c  __ZN13TabbedBrowser14currentBrowserEv
0001:000302b0  __ZN13TabbedBrowser7nextTabEv
0001:000302fc  __ZN13TabbedBrowser11previousTabEv
0001:00030440  __ZN13TabbedBrowser16createHelpWindowERK7QString
0001:000313a8  __ZN13TabbedBrowser11browserFontEv
0001:000305d4  __ZN13TabbedBrowser16newBackgroundTabERK7QString
0001:000305ec  __ZN13TabbedBrowser6newTabERK7QString
0001:000306d8  __ZN13TabbedBrowser6zoomInEv
0001:000306fc  __ZN13TabbedBrowser7zoomOutEv
0001:00030808  __ZN13TabbedBrowser4initEv
0001:00030e14* __ZN13TabbedBrowser11setMimePathE11QStringList
0001:00030e38* __ZN13TabbedBrowser16setMimeExtensionERK7QString
0001:00030ef8  __ZN13TabbedBrowser11updateTitleERK7QString
0001:00030f24  __ZN13TabbedBrowser10mainWindowEv
0001:00030f30  __ZN13TabbedBrowser6newTabEv
0001:00030f50  __ZN13TabbedBrowser13transferFocusEv
0001:000310bc  __ZN13TabbedBrowser14initHelpWindowEP10HelpWindow
0001:000310d0  __ZN13TabbedBrowser5setupEv
0001:000313cc  __ZN13TabbedBrowser14setBrowserFontERK5QFont
0001:00031340  __ZN13TabbedBrowser16setLinkUnderlineEb
0001:00031438  __ZN13TabbedBrowser10setPaletteERK8QPalette
0001:000314a0  __ZN13TabbedBrowser10styleSheetEv
0001:000314ac  __ZN13TabbedBrowser13linkUnderlineEv
0001:000314bc  __ZN13TabbedBrowser4copyEv
0001:000314f0  __ZN13TabbedBrowser8closeTabEv
0001:0003156c* __ZN13TabbedBrowser7sourcesEv
0001:00031694  __ZNK13TabbedBrowser8browsersEv
0001:00031738  __ZN13TabbedBrowser13sourceChangedEv
0001:000317e4  __ZN13TabbedBrowser8setTitleEP10HelpWindowRK7QString
0001:00031994* __ZN13TabbedBrowserC2EP7QWidgetPKcj
0001:00031dc8  __ZN13TabbedBrowser14languageChangeEv
0001:00031b50  __ZN13TabbedBrowserC1EP7QWidgetPKcj
0001:00031d0c* __ZN13TabbedBrowserD2Ev
0001:00031d40  __ZN13TabbedBrowserD1Ev
0001:00031d7c  __ZN13TabbedBrowserD0Ev
0001:00031e5c* __ZN17QValueListPrivateI7QStringED1Ev$w$FRQDFg2G8U6wkjay4
0001:00031eec* __ZN17QValueListPrivateI7QStringEC1Ev$w$FRQDFg2G8U6wkjay4
0001:00031f38* __ZN17QValueListPrivateI7QStringE6insertE18QValueListIteratorIS0_ERKS0_$w$FRQDFg2G8U6wkjay4
0001:00031f94* __ZN10QValueListI7QStringE14detachInternalEv$w$FRQDFg2G8U6wkjay4
0001:00032080* __ZTV8QPtrListI10HelpWindowE$w$FRQDFg2G8U6wkjay4
0001:00031fc4* __Z7qt_castIP10HelpWindowET_PK7QObject$w$FRQDFg2G8U6wkjay4
0001:00031d74* __ZThn40_N13TabbedBrowserD1Ev$w$FRQDFg2G8U6wkjay4
0001:00031db8* __ZThn40_N13TabbedBrowserD0Ev$w$FRQDFg2G8U6wkjay4
0001:00031fe0* __ZN17QValueListPrivateI7QStringEC1ERKS1_$w$FRQDFg2G8U6wkjay4
0001:0003215c* __ZNK8QPtrListI10HelpWindowE5countEv$w$FRQDFg2G8U6wkjay4
0001:00032120* __ZN8QPtrListI10HelpWindowE5clearEv$w$FRQDFg2G8U6wkjay4
0001:000320f8* __ZN8QPtrListI10HelpWindowED1Ev$w$FRQDFg2G8U6wkjay4
0001:0003212c* __ZN8QPtrListI10HelpWindowED0Ev$w$FRQDFg2G8U6wkjay4
0001:00032168* __ZN8QPtrListI10HelpWindowE10deleteItemEPv$w$FRQDFg2G8U6wkjay4
0001:000320c0* __ZTV6QGList$w$FRQDFg2G8U6wkjay4
0001:000320ec* __ZNK6QGList5countEv$w$FRQDFg2G8U6wkjay4
Module: C:\200\trunk\tools\assistant\tmp\obj\release_mt_shared\qmake_image_collection.obj(qmake_image_collection.obj)
0001:000323ec* __Z21qInitImages_assistantv
0001:0003243c* __Z24qCleanupImages_assistantv
0001:00032510* __ZTV9QMemArrayIcE$w$ll9NOm2G8U6ycWDp0
0001:000324a0* __ZTV27MimeSourceFactory_assistant$w$ll9NOm2G8U6ycWDp0
0001:000325b0* __ZN27MimeSourceFactory_assistantD1Ev$w$ll9NOm2G8U6ycWDp0
0001:000325cc* __ZN27MimeSourceFactory_assistantD0Ev$w$ll9NOm2G8U6ycWDp0
0001:000325f4* __ZNK27MimeSourceFactory_assistant4dataERK7QString$w$ll9NOm2G8U6ycWDp0
0001:000324e0* __ZTV6QGList$w$ll9NOm2G8U6ycWDp0
0001:0003257c* __ZNK6QGList5countEv$w$ll9NOm2G8U6ycWDp0
0001:00032560* __ZN9QMemArrayIcED1Ev$w$ll9NOm2G8U6ycWDp0
0001:00032588* __ZN9QMemArrayIcED0Ev$w$ll9NOm2G8U6ycWDp0
0001:000437cc* __ZN9QMemArrayIcE6detachEv$w$ll9NOm2G8U6ycWDp0
Module: C:\200\trunk\tools\assistant\tmp\obj\release_mt_shared\moc_helpwindow.obj(moc_helpwindow.obj)
0001:0004382c* __ZNK10HelpWindow9classNameEv
0001:00043838  __ZN10HelpWindow2trEPKcS1_
0001:00043878* __ZN10HelpWindow6trUtf8EPKcS1_
0001:00043a88  __ZN10HelpWindow16staticMetaObjectEv
0001:00043ae4* __ZN10HelpWindow7qt_castEPKc
0001:00043b3c  __ZN10HelpWindow16chooseWebBrowserEv
0001:00043b5c* __ZN10HelpWindow9qt_invokeEiP8QUObject
0001:00043c14* __ZN10HelpWindow7qt_emitEiP8QUObject
0001:00043c54* __ZN10HelpWindow11qt_propertyEiiP8QVariant
0001:00043c70* __ZN10HelpWindow18qt_static_propertyEP7QObjectiiP8QVariant
0002:000004c0* __ZN10HelpWindow7metaObjE
0001:00043c80* __ZTV10HelpWindow$w$vsOvZr2G8U6R8eER1
0001:00044264* __ZNK10HelpWindow10metaObjectEv$w$vsOvZr2G8U6R8eER1
0001:000441b8* __ZN10HelpWindowD1Ev$w$vsOvZr2G8U6R8eER1
0001:0004420c* __ZN10HelpWindowD0Ev$w$vsOvZr2G8U6R8eER1
0001:000440e4* __ZN7QWidget11setGeometryERK5QRect$w$vsOvZr2G8U6R8eER1
0001:0004411c* __ZN7QWidget9setWStateEj$w$vsOvZr2G8U6R8eER1
0001:00044130* __ZN7QWidget9setWFlagsEj$w$vsOvZr2G8U6R8eER1
0001:00044144* __ZN9QTextEdit6zoomInEv$w$vsOvZr2G8U6R8eER1
0001:00044160* __ZN9QTextEdit7zoomOutEv$w$vsOvZr2G8U6R8eER1
0001:000441a0* __ZN9QTextEdit14setCurrentFontERK5QFont$w$vsOvZr2G8U6R8eER1
0001:0004417c* __ZN9QTextEdit16setOverwriteModeEb$w$vsOvZr2G8U6R8eER1
0001:000441ac* __ZNK12QTextBrowser12linksEnabledEv$w$vsOvZr2G8U6R8eER1
0001:00044204* __ZThn40_N10HelpWindowD1Ev$w$vsOvZr2G8U6R8eER1
0001:0004425c* __ZThn40_N10HelpWindowD0Ev$w$vsOvZr2G8U6R8eER1
0001:00044060* __ZTV6QGList$w$vsOvZr2G8U6R8eER1
0001:000440d8* __ZNK6QGList5countEv$w$vsOvZr2G8U6R8eER1
Module: C:\200\trunk\tools\assistant\tmp\obj\release_mt_shared\moc_topicchooserimpl.obj(moc_topicchooserimpl.obj)
0001:000442b0* __ZNK12TopicChooser9classNameEv
0001:000442bc  __ZN12TopicChooser2trEPKcS1_
0001:000442fc* __ZN12TopicChooser6trUtf8EPKcS1_
0001:0004433c* __ZN12TopicChooser16staticMetaObjectEv
0001:00044394* __ZN12TopicChooser7qt_castEPKc
0001:000443ec* __ZN12TopicChooser9qt_invokeEiP8QUObject
0001:00044408* __ZN12TopicChooser7qt_emitEiP8QUObject
0001:00044424* __ZN12TopicChooser11qt_propertyEiiP8QVariant
0001:00044440* __ZN12TopicChooser18qt_static_propertyEP7QObjectiiP8QVariant
0002:000004e0* __ZN12TopicChooser7metaObjE
0001:00044460* __ZTV12TopicChooser$w$drAUcw2G8U6oS9Es4
0001:00044884* __ZNK12TopicChooser10metaObjectEv$w$drAUcw2G8U6oS9Es4
0001:0004472c* __ZN12TopicChooserD1Ev$w$drAUcw2G8U6oS9Es4
0001:000447d4* __ZN12TopicChooserD0Ev$w$drAUcw2G8U6oS9Es4
0001:00044704* __ZN7QWidget9setWStateEj$w$drAUcw2G8U6oS9Es4
0001:00044718* __ZN7QWidget9setWFlagsEj$w$drAUcw2G8U6oS9Es4
0001:000447c8* __ZThn40_N12TopicChooserD1Ev$w$drAUcw2G8U6oS9Es4
0001:00044878* __ZThn40_N12TopicChooserD0Ev$w$drAUcw2G8U6oS9Es4
0001:00044680* __ZTV6QGList$w$drAUcw2G8U6oS9Es4
0001:000446f8* __ZNK6QGList5countEv$w$drAUcw2G8U6oS9Es4
0001:00044890* __ZN17QValueListPrivateI7QStringED1Ev$w$drAUcw2G8U6oS9Es4
Module: C:\200\trunk\tools\assistant\tmp\obj\release_mt_shared\moc_helpdialogimpl.obj(moc_helpdialogimpl.obj)
0001:00044970* __ZNK15SearchValidator9classNameEv
0001:0004497c* __ZN15SearchValidator2trEPKcS1_
0001:000449bc* __ZN15SearchValidator6trUtf8EPKcS1_
0001:000449fc* __ZN15SearchValidator16staticMetaObjectEv
0001:00044a54* __ZN15SearchValidator7qt_castEPKc
0001:00044aac* __ZN15SearchValidator9qt_invokeEiP8QUObject
0001:00044ac8* __ZN15SearchValidator7qt_emitEiP8QUObject
0001:00044ae4* __ZN15SearchValidator11qt_propertyEiiP8QVariant
0001:00044b00* __ZN15SearchValidator18qt_static_propertyEP7QObjectiiP8QVariant
0001:00044b14* __ZNK10HelpDialog9classNameEv
0001:00044b20  __ZN10HelpDialog2trEPKcS1_
0001:00044b60* __ZN10HelpDialog6trUtf8EPKcS1_
0001:000455a4* __ZN10HelpDialog16staticMetaObjectEv
0001:00045600* __ZN10HelpDialog7qt_castEPKc
0001:00045658  __ZN10HelpDialog8showLinkERK7QString
0001:000456ac  __ZN10HelpDialog14showSearchLinkERK7QStringRK11QStringList
0001:00045754* __ZN10HelpDialog9qt_invokeEiP8QUObject
0001:000459f4* __ZN10HelpDialog7qt_emitEiP8QUObject
0001:00045a58* __ZN10HelpDialog11qt_propertyEiiP8QVariant
0001:00045a74* __ZN10HelpDialog18qt_static_propertyEP7QObjectiiP8QVariant
0002:00000500* __ZN15SearchValidator7metaObjE
0002:00000504* __ZN10HelpDialog7metaObjE
0001:00045a80* __ZTV10HelpDialog$w$vQinWC2G8U6PoHHu4
0001:00046214* __ZNK10HelpDialog10metaObjectEv$w$vQinWC2G8U6PoHHu4
0001:00045ea4* __ZN10HelpDialogD1Ev$w$vQinWC2G8U6PoHHu4
0001:00046058* __ZN10HelpDialogD0Ev$w$vQinWC2G8U6PoHHu4
0001:00045df4* __ZN7QWidget11setGeometryERK5QRect$w$vQinWC2G8U6PoHHu4
0001:00045e2c* __ZN7QWidget9setWStateEj$w$vQinWC2G8U6PoHHu4
0001:00045e40* __ZN7QWidget9setWFlagsEj$w$vQinWC2G8U6PoHHu4
0001:0004604c* __ZThn40_N10HelpDialogD1Ev$w$vQinWC2G8U6PoHHu4
0001:00046208* __ZThn40_N10HelpDialogD0Ev$w$vQinWC2G8U6PoHHu4
0001:00045cc0* __ZTV15SearchValidator$w$vQinWC2G8U6PoHHu4
0001:00045e54* __ZNK15SearchValidator10metaObjectEv$w$vQinWC2G8U6PoHHu4
0001:00045e60* __ZN15SearchValidatorD1Ev$w$vQinWC2G8U6PoHHu4
0001:00045e7c* __ZN15SearchValidatorD0Ev$w$vQinWC2G8U6PoHHu4
0001:00045d40* __ZTV6QGList$w$vQinWC2G8U6PoHHu4
0001:00045de8* __ZNK6QGList5countEv$w$vQinWC2G8U6PoHHu4
0001:00046380* __ZTV5QDictI10QValueListI11ContentItemEE$w$vQinWC2G8U6PoHHu4
0001:000462b0* __ZN11QMapPrivateI7QStringS0_E5clearEv$w$vQinWC2G8U6PoHHu4
0001:00046220* __ZN17QValueListPrivateI7QStringED1Ev$w$vQinWC2G8U6PoHHu4
0001:000462ec* __ZN11QMapPrivateI7QStringS0_E5clearEP8QMapNodeIS0_S0_E$w$vQinWC2G8U6PoHHu4
0001:0004640c* __ZNK5QDictI10QValueListI11ContentItemEE5countEv$w$vQinWC2G8U6PoHHu4
0001:000463d0* __ZN5QDictI10QValueListI11ContentItemEE5clearEv$w$vQinWC2G8U6PoHHu4
0001:000463a8* __ZN5QDictI10QValueListI11ContentItemEED1Ev$w$vQinWC2G8U6PoHHu4
0001:000463dc* __ZN5QDictI10QValueListI11ContentItemEED0Ev$w$vQinWC2G8U6PoHHu4
0001:00046418* __ZN5QDictI10QValueListI11ContentItemEE10deleteItemEPv$w$vQinWC2G8U6PoHHu4
0001:00046464* __ZN17QValueListPrivateI11ContentItemED1Ev$w$vQinWC2G8U6PoHHu4
Module: C:\200\trunk\tools\assistant\tmp\obj\release_mt_shared\moc_settingsdialogimpl.obj(moc_settingsdialogimpl.obj)
0001:00046590* __ZNK14SettingsDialog9classNameEv
0001:0004659c  __ZN14SettingsDialog2trEPKcS1_
0001:000465dc* __ZN14SettingsDialog6trUtf8EPKcS1_
0001:00046768* __ZN14SettingsDialog16staticMetaObjectEv
0001:000467c4* __ZN14SettingsDialog7qt_castEPKc
0001:0004681c* __ZN14SettingsDialog9qt_invokeEiP8QUObject
0001:000468d8* __ZN14SettingsDialog7qt_emitEiP8QUObject
0001:000468f4* __ZN14SettingsDialog11qt_propertyEiiP8QVariant
0001:00046910* __ZN14SettingsDialog18qt_static_propertyEP7QObjectiiP8QVariant
0002:00000530* __ZN14SettingsDialog7metaObjE
0001:00046920* __ZTV14SettingsDialog$w$1rJpNH2G8U6rM1Qu1
0001:00046c4c* __ZNK14SettingsDialog10metaObjectEv$w$1rJpNH2G8U6rM1Qu1
0001:00046bec* __ZN14SettingsDialogD1Ev$w$1rJpNH2G8U6rM1Qu1
0001:00046c18* __ZN14SettingsDialogD0Ev$w$1rJpNH2G8U6rM1Qu1
0001:00046bc4* __ZN7QWidget9setWStateEj$w$1rJpNH2G8U6rM1Qu1
0001:00046bd8* __ZN7QWidget9setWFlagsEj$w$1rJpNH2G8U6rM1Qu1
0001:00046c10* __ZThn40_N14SettingsDialogD1Ev$w$1rJpNH2G8U6rM1Qu1
0001:00046c44* __ZThn40_N14SettingsDialogD0Ev$w$1rJpNH2G8U6rM1Qu1
0001:00046b40* __ZTV6QGList$w$1rJpNH2G8U6rM1Qu1
0001:00046bb8* __ZNK6QGList5countEv$w$1rJpNH2G8U6rM1Qu1
Module: C:\200\trunk\tools\assistant\tmp\obj\release_mt_shared\moc_index.obj(moc_index.obj)
0001:00046ca8* __ZNK5Index9classNameEv
0001:00046cb4  __ZN5Index2trEPKcS1_
0001:00046cf4* __ZN5Index6trUtf8EPKcS1_
0001:00046dc8* __ZN5Index16staticMetaObjectEv
0001:00046e24* __ZN5Index7qt_castEPKc
0001:00046e7c  __ZN5Index16indexingProgressEi
0001:00046e9c* __ZN5Index9qt_invokeEiP8QUObject
0001:00046edc* __ZN5Index7qt_emitEiP8QUObject
0001:00046f24* __ZN5Index11qt_propertyEiiP8QVariant
0001:00046f40* __ZN5Index18qt_static_propertyEP7QObjectiiP8QVariant
0002:00000550* __ZN5Index7metaObjE
0001:00046f60* __ZTV5Index$w$RRZ13M2G8U62vUYU3
0001:0004720c* __ZNK5Index10metaObjectEv$w$RRZ13M2G8U62vUYU3
0001:00047044* __ZN5IndexD1Ev$w$RRZ13M2G8U62vUYU3
0001:00047124* __ZN5IndexD0Ev$w$RRZ13M2G8U62vUYU3
0001:00046fc0* __ZTV6QGList$w$RRZ13M2G8U62vUYU3
0001:00047038* __ZNK6QGList5countEv$w$RRZ13M2G8U62vUYU3
0001:000472c0* __ZTV5QDictIN5Index8PosEntryEE$w$RRZ13M2G8U62vUYU3
0001:00047300* __ZTV5QDictIN5Index5EntryEE$w$RRZ13M2G8U62vUYU3
0001:00047218* __ZN17QValueListPrivateI7QStringED1Ev$w$RRZ13M2G8U62vUYU3
0001:000473f0* __ZNK5QDictIN5Index8PosEntryEE5countEv$w$RRZ13M2G8U62vUYU3
0001:000473b4* __ZN5QDictIN5Index8PosEntryEE5clearEv$w$RRZ13M2G8U62vUYU3
0001:00047350* __ZN5QDictIN5Index8PosEntryEED1Ev$w$RRZ13M2G8U62vUYU3
0001:000473c0* __ZN5QDictIN5Index8PosEntryEED0Ev$w$RRZ13M2G8U62vUYU3
0001:000473fc* __ZN5QDictIN5Index8PosEntryEE10deleteItemEPv$w$RRZ13M2G8U62vUYU3
0001:00047448* __ZNK5QDictIN5Index5EntryEE5countEv$w$RRZ13M2G8U62vUYU3
0001:00047378* __ZN5QDictIN5Index5EntryEE5clearEv$w$RRZ13M2G8U62vUYU3
0001:00047328* __ZN5QDictIN5Index5EntryEED1Ev$w$RRZ13M2G8U62vUYU3
0001:00047384* __ZN5QDictIN5Index5EntryEED0Ev$w$RRZ13M2G8U62vUYU3
0001:00047454* __ZN5QDictIN5Index5EntryEE10deleteItemEPv$w$RRZ13M2G8U62vUYU3
0001:000474dc* __ZN17QValueListPrivateIjED1Ev$w$RRZ13M2G8U62vUYU3
0001:000474a0* __ZN17QValueListPrivateI8DocumentED1Ev$w$RRZ13M2G8U62vUYU3
Module: C:\200\trunk\tools\assistant\tmp\obj\release_mt_shared\moc_mainwindow.obj(moc_mainwindow.obj)
0001:0004756c* __ZNK10MainWindow9classNameEv
0001:00047578  __ZN10MainWindow2trEPKcS1_
0001:000475b8* __ZN10MainWindow6trUtf8EPKcS1_
0001:00047e00* __ZN10MainWindow16staticMetaObjectEv
0001:00047e5c* __ZN10MainWindow7qt_castEPKc
0001:00047eb4* __ZN10MainWindow9qt_invokeEiP8QUObject
0001:000481b4* __ZN10MainWindow7qt_emitEiP8QUObject
0001:000481d0* __ZN10MainWindow11qt_propertyEiiP8QVariant
0001:000481ec* __ZN10MainWindow18qt_static_propertyEP7QObjectiiP8QVariant
0002:00000570* __ZN10MainWindow7metaObjE
0001:00048200* __ZTV10MainWindow$w$5ZJDER2G8U6Fyhih3
0001:000485c4* __ZNK10MainWindow10metaObjectEv$w$5ZJDER2G8U6Fyhih3
0001:00048564* __ZN7QWidget11setGeometryERK5QRect$w$5ZJDER2G8U6Fyhih3
0001:0004859c* __ZN7QWidget9setWStateEj$w$5ZJDER2G8U6Fyhih3
0001:000485b0* __ZN7QWidget9setWFlagsEj$w$5ZJDER2G8U6Fyhih3
0001:000484e0* __ZTV6QGList$w$5ZJDER2G8U6Fyhih3
0001:00048558* __ZNK6QGList5countEv$w$5ZJDER2G8U6Fyhih3
Module: C:\200\trunk\tools\assistant\tmp\obj\release_mt_shared\moc_topicchooser.obj(moc_topicchooser.obj)
0001:00048614* __ZNK16TopicChooserBase9classNameEv
0001:00048620  __ZN16TopicChooserBase2trEPKcS1_
0001:00048660* __ZN16TopicChooserBase6trUtf8EPKcS1_
0001:00048744  __ZN16TopicChooserBase16staticMetaObjectEv
0001:000487a0  __ZN16TopicChooserBase7qt_castEPKc
0001:000487f8  __ZN16TopicChooserBase9qt_invokeEiP8QUObject
0001:0004886c  __ZN16TopicChooserBase7qt_emitEiP8QUObject
0001:00048888  __ZN16TopicChooserBase11qt_propertyEiiP8QVariant
0001:000488a4* __ZN16TopicChooserBase18qt_static_propertyEP7QObjectiiP8QVariant
0002:00000590* __ZN16TopicChooserBase7metaObjE
0001:000488c0* __ZTV16TopicChooserBase$w$H6QbzV2G8U64NRpb1
0001:00048b8c* __ZNK16TopicChooserBase10metaObjectEv$w$H6QbzV2G8U64NRpb1
0001:00048b64* __ZN7QWidget9setWStateEj$w$H6QbzV2G8U64NRpb1
0001:00048b78* __ZN7QWidget9setWFlagsEj$w$H6QbzV2G8U64NRpb1
0001:00048ae0* __ZTV6QGList$w$H6QbzV2G8U64NRpb1
0001:00048b58* __ZNK6QGList5countEv$w$H6QbzV2G8U64NRpb1
Module: C:\200\trunk\tools\assistant\tmp\obj\release_mt_shared\moc_finddialog.obj(moc_finddialog.obj)
0001:00048bec* __ZNK10FindDialog9classNameEv
0001:00048bf8  __ZN10FindDialog2trEPKcS1_
0001:00048c38* __ZN10FindDialog6trUtf8EPKcS1_
0001:00048dc8* __ZN10FindDialog16staticMetaObjectEv
0001:00048e24* __ZN10FindDialog7qt_castEPKc
0001:00048e7c* __ZN10FindDialog9qt_invokeEiP8QUObject
0001:00048f44* __ZN10FindDialog7qt_emitEiP8QUObject
0001:00048f60* __ZN10FindDialog11qt_propertyEiiP8QVariant
0001:00048f7c* __ZN10FindDialog18qt_static_propertyEP7QObjectiiP8QVariant
0002:000005b0* __ZN10FindDialog7metaObjE
0001:00048fa0* __ZTV10FindDialog$w$jeWJtZ2G8U6n9uaV1
0001:0004926c* __ZNK10FindDialog10metaObjectEv$w$jeWJtZ2G8U6n9uaV1
0001:00049244* __ZN7QWidget9setWStateEj$w$jeWJtZ2G8U6n9uaV1
0001:00049258* __ZN7QWidget9setWFlagsEj$w$jeWJtZ2G8U6n9uaV1
0001:000491c0* __ZTV6QGList$w$jeWJtZ2G8U6n9uaV1
0001:00049238* __ZNK6QGList5countEv$w$jeWJtZ2G8U6n9uaV1
Module: C:\200\trunk\tools\assistant\tmp\obj\release_mt_shared\moc_helpdialog.obj(moc_helpdialog.obj)
0001:000492d0* __ZNK14HelpDialogBase9classNameEv
0001:000492dc  __ZN14HelpDialogBase2trEPKcS1_
0001:0004931c* __ZN14HelpDialogBase6trUtf8EPKcS1_
0001:000498f8  __ZN14HelpDialogBase16staticMetaObjectEv
0001:00049954  __ZN14HelpDialogBase7qt_castEPKc
0001:000499ac  __ZN14HelpDialogBase9qt_invokeEiP8QUObject
0001:00049b80  __ZN14HelpDialogBase7qt_emitEiP8QUObject
0001:00049b9c  __ZN14HelpDialogBase11qt_propertyEiiP8QVariant
0001:00049bb8* __ZN14HelpDialogBase18qt_static_propertyEP7QObjectiiP8QVariant
0002:000005d0* __ZN14HelpDialogBase7metaObjE
0001:00049bc0* __ZTV14HelpDialogBase$w$Rn4Mv33G8U6v33Ol2
0001:00049ee4* __ZNK14HelpDialogBase10metaObjectEv$w$Rn4Mv33G8U6v33Ol2
0001:00049e84* __ZN7QWidget11setGeometryERK5QRect$w$Rn4Mv33G8U6v33Ol2
0001:00049ebc* __ZN7QWidget9setWStateEj$w$Rn4Mv33G8U6v33Ol2
0001:00049ed0* __ZN7QWidget9setWFlagsEj$w$Rn4Mv33G8U6v33Ol2
0001:00049e00* __ZTV6QGList$w$Rn4Mv33G8U6v33Ol2
0001:00049e78* __ZNK6QGList5countEv$w$Rn4Mv33G8U6v33Ol2
Module: C:\200\trunk\tools\assistant\tmp\obj\release_mt_shared\moc_settingsdialog.obj(moc_settingsdialog.obj)
0001:00049f34* __ZNK18SettingsDialogBase9classNameEv
0001:00049f40  __ZN18SettingsDialogBase2trEPKcS1_
0001:00049f80* __ZN18SettingsDialogBase6trUtf8EPKcS1_
0001:0004a0fc  __ZN18SettingsDialogBase16staticMetaObjectEv
0001:0004a158  __ZN18SettingsDialogBase7qt_castEPKc
0001:0004a1b0  __ZN18SettingsDialogBase9qt_invokeEiP8QUObject
0001:0004a254  __ZN18SettingsDialogBase7qt_emitEiP8QUObject
0001:0004a270  __ZN18SettingsDialogBase11qt_propertyEiiP8QVariant
0001:0004a28c* __ZN18SettingsDialogBase18qt_static_propertyEP7QObjectiiP8QVariant
0002:000005f0* __ZN18SettingsDialogBase7metaObjE
0001:0004a2a0* __ZTV18SettingsDialogBase$w$roNLp73G8U6PNdp73
0001:0004a56c* __ZNK18SettingsDialogBase10metaObjectEv$w$roNLp73G8U6PNdp73
0001:0004a544* __ZN7QWidget9setWStateEj$w$roNLp73G8U6PNdp73
0001:0004a558* __ZN7QWidget9setWFlagsEj$w$roNLp73G8U6PNdp73
0001:0004a4c0* __ZTV6QGList$w$roNLp73G8U6PNdp73
0001:0004a538* __ZNK6QGList5countEv$w$roNLp73G8U6PNdp73
Module: C:\200\trunk\tools\assistant\tmp\obj\release_mt_shared\moc_tabbedbrowser.obj(moc_tabbedbrowser.obj)
0001:0004a5d0* __ZNK13TabbedBrowser9classNameEv
0001:0004a5dc  __ZN13TabbedBrowser2trEPKcS1_
0001:0004a61c* __ZN13TabbedBrowser6trUtf8EPKcS1_
0001:0004ab1c* __ZN13TabbedBrowser16staticMetaObjectEv
0001:0004ab78* __ZN13TabbedBrowser7qt_castEPKc
0001:0004abd0* __ZN13TabbedBrowser9qt_invokeEiP8QUObject
0001:0004add0* __ZN13TabbedBrowser7qt_emitEiP8QUObject
0001:0004adec* __ZN13TabbedBrowser11qt_propertyEiiP8QVariant
0001:0004ae08* __ZN13TabbedBrowser18qt_static_propertyEP7QObjectiiP8QVariant
0002:00000610* __ZN13TabbedBrowser7metaObjE
0001:0004ae20* __ZTV13TabbedBrowser$w$zADMBb3G8U6mM1z33
0001:0004b164* __ZNK13TabbedBrowser10metaObjectEv$w$zADMBb3G8U6mM1z33
0001:0004b104* __ZN7QWidget11setGeometryERK5QRect$w$zADMBb3G8U6mM1z33
0001:0004b13c* __ZN7QWidget9setWStateEj$w$zADMBb3G8U6mM1z33
0001:0004b150* __ZN7QWidget9setWFlagsEj$w$zADMBb3G8U6mM1z33
0001:0004b080* __ZTV6QGList$w$zADMBb3G8U6mM1z33
0001:0004b0f8* __ZNK6QGList5countEv$w$zADMBb3G8U6mM1z33
Module: C:\usr\lib\libend.lib(src/libend/386/end.asm)
0001:0004b290* _etext
0001:0004b290* __etext
0000:00000000* WEAK$ZERO
0002:00000650  __end
0002:000003c0  __edata
Module: C:\usr\lib\gcc-lib\i386-pc-os2-emx\3.3.5\libgcc_so_d.lib(__main.obj)
0001:0004b1a0* ___do_global_dtors
0001:0004b1a6* ___do_global_ctors
0001:0004b1b6* ___POST$__do_global_ctors
0001:0004b1b8  ___main
0001:0004b1c2* ___POST$__main
Module: C:\usr\lib\gcc-lib\i386-pc-os2-emx\3.3.5\libgcc_so_d.lib(emx-ctordtor.obj)
0001:0004b1d0  ___ctordtorInit
0001:0004b1da* ___POST$__ctordtorInit
0001:0004b1fe  ___ctordtorTerm
0001:0004b208* ___POST$__ctordtorTerm


                        +----------------------+
                        |   Imported Symbols   |
                        +----------------------+

Symbol                              Module
======                              ======

___init_app                         libc064
__CRT_init                          libc064
__ZN7QSocketC2EP7QObjectPKc         myqt
__ZN7QObject7connectEPKS_PKcS1_S3_  myqt
__ZN7QSocket9setSocketEi            myqt
__ZN7QString4nullE                  myqt
__ZN7QStringC1ERKS_                 myqt
__ZNK7QSocket11canReadLineEv        myqt
__ZN7QStringaSERKS_                 myqt
__ZN7QString11shared_nullE          myqt
__ZN11QStringData10deleteSelfEv     myqt
__ZN7QStringC1EPKc                  myqt
__ZN7QString7replaceERKS_S1_        myqt
__ZN12QHostAddressC1Ej              myqt
__ZN13QServerSocketC2ERK12QHostAddresstiP7QObjectPKc myqt
__ZN12QHostAddressD1Ev              myqt
__ZNK13QServerSocket2okEv           myqt
__ZNK13QServerSocket4portEv         myqt
__ZNK7QString3argEyii               myqt
__ZN11QMessageBox8criticalEP7QWidgetRK7QStringS4_S4_S4_S4_ii myqt
__Znwj                              libc064
__alloca                            libc064
__ZN12QApplicationC1ERiPPcb         myqt
__ZNK7QString5lowerEv               myqt
__ZeqRK7QStringPKc                  myqt
__ZN7QStringaSEPKc                  myqt
__ZN11QTranslatorC1EP7QObjectPKc    myqt
__ZN10QTextCodec6localeEv           myqt
__ZN7QString9fromAsciiEPKci         myqt
__ZN7QStringpLERKS_                 myqt
__ZN11QTranslator4loadERK7QStringS2_S2_S2_ myqt
__ZN12QApplication17installTranslatorEP11QTranslator myqt
__ZN18QGuardedPtrPrivateC1EP7QObject myqt
__ZN12QApplication4execEv           myqt
__ZN11QTranslatorD1Ev               myqt
__ZN12QApplicationD1Ev              myqt
__ZdlPv                             libc064
___stdoutp                          libc064
__ZNK7QString6latin1Ev              myqt
___stderrp                          libc064
__Z24qInstallPathTranslationsv      myqt
__ZN11QMessageBox11informationEP7QWidgetRK7QStringS4_S4_S4_S4_ii myqt
__ZN4QDirC1ERK7QStringS2_ii         myqt
__ZNK4QDir6existsEv                 myqt
__ZNK4QDir7absPathEv                myqt
__ZN4QDirD1Ev                       myqt
__ZNK11QStringList4grepERK7QStringb myqt
__ZN9QFileInfoC1ERK7QString         myqt
__ZNK9QFileInfo6existsEv            myqt
__ZNK9QFileInfo11absFilePathEv      myqt
__ZN9QFileInfoD1Ev                  myqt
__ZN5QFileC1ERK7QString             myqt
__ZN5QFileD1Ev                      myqt
__ZN7QString14makeSharedNullEv      myqt
_qApp                               myqt
__ZNK12QApplication9translateEPKcS1_S1_NS_8EncodingE myqt
__ZN7QString10fromLatin1EPKci       myqt
__ZN7QString8fromUtf8EPKci          myqt
_static_QUType_QString              myqt
__ZN7QSocket16staticMetaObjectEv    myqt
__ZN11QMetaObject14new_metaobjectEPKcPS_PK9QMetaDataiS5_iPK13QMetaPropertyiPK9QMetaEnumiPK10QClassInfoi myqt
__ZN18QMetaObjectCleanUp13setMetaObjectERP11QMetaObject myqt
__ZN7QSocket7qt_castEPKc            myqt
__ZN7QObject15activate_signalEi7QString myqt
__ZN7QSocket9qt_invokeEiP8QUObject  myqt
__ZN7QSocket7qt_emitEiP8QUObject    myqt
__ZN7QSocket11qt_propertyEiiP8QVariant myqt
__ZN13QServerSocket16staticMetaObjectEv myqt
__ZN13QServerSocket7qt_castEPKc     myqt
__ZN7QObject15activate_signalEi     myqt
__ZN13QServerSocket9qt_invokeEiP8QUObject myqt
__ZN13QServerSocket7qt_emitEiP8QUObject myqt
__ZN13QServerSocket11qt_propertyEiiP8QVariant myqt
__Z8qWarningPKcz                    myqt
__ZN7QObject5eventEP6QEvent         myqt
__ZN7QObject11eventFilterEPS_P6QEvent myqt
__ZN7QObject7setNameEPKc            myqt
__ZN7QObject11insertChildEPS_       myqt
__ZN7QObject11removeChildEPS_       myqt
__ZN7QObject11setPropertyEPKcRK8QVariant myqt
__ZNK7QObject8propertyEPKc          myqt
__ZN7QObject10timerEventEP11QTimerEvent myqt
__ZN7QObject10childEventEP11QChildEvent myqt
__ZN7QObject11customEventEP12QCustomEvent myqt
__ZN7QObject13connectNotifyEPKc     myqt
__ZN7QObject16disconnectNotifyEPKc  myqt
__ZN7QObject16checkConnectArgsEPKcPKS_S1_ myqt
__ZN13QServerSocket9setSocketEi     myqt
__ZN7QSocket15setSocketDeviceEP13QSocketDevice myqt
__ZN7QSocket13connectToHostERK7QStringt myqt
__ZN7QSocket4openEi                 myqt
__ZN7QSocket5closeEv                myqt
__ZN7QSocket5flushEv                myqt
__ZNK7QSocket4sizeEv                myqt
__ZNK7QSocket2atEv                  myqt
__ZN7QSocket2atEm                   myqt
__ZNK7QSocket5atEndEv               myqt
__ZN7QSocket9readBlockEPcm          myqt
__ZN7QSocket10writeBlockEPKcm       myqt
__ZN7QSocket8readLineEPcm           myqt
__ZN7QSocket5getchEv                myqt
__ZN7QSocket5putchEi                myqt
__ZN7QSocket7ungetchEi              myqt
__ZN7QSocket8readLineEv             myqt
__ZN7QSocket7sn_readEb              myqt
__ZN7QSocket8sn_writeEv             myqt
__ZThn40_N7QSocket4openEi           myqt
__ZThn40_N7QSocket5closeEv          myqt
__ZThn40_N7QSocket5flushEv          myqt
__ZThn40_NK7QSocket4sizeEv          myqt
__ZThn40_NK7QSocket2atEv            myqt
__ZThn40_N7QSocket2atEm             myqt
__ZThn40_NK7QSocket5atEndEv         myqt
__ZThn40_N7QSocket9readBlockEPcm    myqt
__ZThn40_N7QSocket10writeBlockEPKcm myqt
__ZThn40_N7QSocket8readLineEPcm     myqt
__ZN9QIODevice7readAllEv            myqt
__ZThn40_N7QSocket5getchEv          myqt
__ZThn40_N7QSocket5putchEi          myqt
__ZThn40_N7QSocket7ungetchEi        myqt
__ZN6QGList5clearEv                 myqt
__ZN6QGListD1Ev                     myqt
__ZN6QGListD0Ev                     myqt
__ZN14QPtrCollection7newItemEPv     myqt
___cxa_pure_virtual                 libc064
__ZN6QGList12compareItemsEPvS0_     myqt
__ZN6QGList4readER11QDataStreamRPv  myqt
__ZNK6QGList5writeER11QDataStreamPv myqt
__ZN18QMetaObjectCleanUpD1Ev        myqt
__ZN18QMetaObjectCleanUpC1EPKcPFP11QMetaObjectvE myqt
__ZN7QSocketD2Ev                    myqt
__ZN13QServerSocketD2Ev             myqt
__ZN12QTextBrowserC2EP7QWidgetPKc   myqt
__ZNK12QTextBrowser6sourceEv        myqt
__ZNK9QFileInfo10isRelativeEv       myqt
__ZNK7QWidget11isMaximizedEv        myqt
__ZNK9QFileInfo7dirPathEb           myqt
__ZNK7QString4leftEj                myqt
__ZN8QProcessC1EP7QObjectPKc        myqt
__ZNK7QString5rightEj               myqt
__ZNK7QString3argERKS_i             myqt
__ZNK9QTextEdit7contextEv           myqt
__ZN4QUrlC1ERK7QString              myqt
__ZN4QUrlC1ERKS_RK7QStringb         myqt
__ZN4QUrlD1Ev                       myqt
__ZNK4QUrl11isLocalFileEv           myqt
__ZNK7QWidget22paletteBackgroundColorEv myqt
__ZNK6QColor4nameEv                 myqt
__ZN12QTextBrowser9setSourceERK7QString myqt
__ZN10QPopupMenuC1EP7QWidgetPKc     myqt
__ZN9QTextEdit8anchorAtERK6QPoint   myqt
__ZN5QChar4nullE                    myqt
__ZN12QKeySequenceC1Ei              myqt
__ZN9QMenuData10insertItemERK7QStringPK7QObjectPKcRK12QKeySequenceii myqt
__ZN12QKeySequenceD1Ev              myqt
__ZN9QMenuData15insertSeparatorEi   myqt
__ZNK7QString4findE5QCharib         myqt
__ZN9QTextEdit19ensureCursorVisibleEv myqt
__ZN9QTextEdit23contentsMousePressEventEP11QMouseEvent myqt
__ZN12QTextBrowser13keyPressEventEP9QKeyEvent myqt
__ZNK9QTextEdit10textFormatEv       myqt
__ZN9QTextEdit4copyEv               myqt
__ZNK9QTextEdit12selectedTextEv     myqt
__ZN12QApplication9clipboardEv      myqt
__ZNK10QClipboard17supportsSelectionEv myqt
__ZN10QClipboard7setTextERK7QStringNS_4ModeE myqt
__ZN8QListBox16insertStringListERK11QStringListi myqt
__ZNK8QListBox9firstItemEv          myqt
__ZNK8QListBox11currentItemEv       myqt
__ZNK8QListBox4textEi               myqt
__ZN7QDialog4execEv                 myqt
__ZeqRK7QStringS1_                  myqt
__ZrsR11QDataStreamR7QString        myqt
__ZN11QDataStreamrsERi              myqt
__ZlsR11QDataStreamRK7QString       myqt
__ZN11QDataStreamlsEi               myqt
__ZN5QFile4openEi                   myqt
__ZNK7QRegExp7isValidEv             myqt
__ZN5QFile8readLineER7QStringm      myqt
__ZNK7QRegExp6searchERK7QStringi    myqt
__ZN7QRegExp3capEi                  myqt
__ZNK7QString5toIntEPbi             myqt
__ZN7QRegExpC1ERK7QStringbb         myqt
__ZN15QXmlInputSourceC1EP9QIODevice myqt
__ZN16QXmlSimpleReaderC1Ev          myqt
__ZN16QXmlSimpleReader17setContentHandlerEP18QXmlContentHandler myqt
__ZN16QXmlSimpleReader15setErrorHandlerEP16QXmlErrorHandler myqt
__ZN9QFileInfoC1ERK5QFile           myqt
__ZN16QXmlSimpleReader5parseERK15QXmlInputSource myqt
__ZN16QXmlSimpleReaderD1Ev          myqt
__ZN15QXmlInputSourceD1Ev           myqt
__ZN6QGListC2ERKS_                  myqt
__ZN4QDir9separatorEv               myqt
__ZN7QStringpLEc                    myqt
__ZNK14QXmlAttributes5valueERK7QString myqt
__ZNK7QString18simplifyWhiteSpaceEv myqt
__ZN6QGList6appendEPv               myqt
__ZNK18QXmlParseException7messageEv myqt
__ZNK18QXmlParseException10lineNumberEv myqt
__ZNK7QString3argExii               myqt
__ZNK18QXmlParseException12columnNumberEv myqt
__ZN18QXmlDefaultHandler10fatalErrorERK18QXmlParseException myqt
__ZltRK7QStringS1_                  myqt
__ZN15QMapPrivateBase9rebalanceEP12QMapNodeBaseRS1_ myqt
__ZN18QXmlDefaultHandler18setDocumentLocatorEP11QXmlLocator myqt
__ZN18QXmlDefaultHandler11endDocumentEv myqt
__ZN18QXmlDefaultHandler18startPrefixMappingERK7QStringS2_ myqt
__ZN18QXmlDefaultHandler16endPrefixMappingERK7QString myqt
__ZN18QXmlDefaultHandler19ignorableWhitespaceERK7QString myqt
__ZN18QXmlDefaultHandler21processingInstructionERK7QStringS2_ myqt
__ZN18QXmlDefaultHandler13skippedEntityERK7QString myqt
__ZN18QXmlDefaultHandler11errorStringEv myqt
__ZN18QXmlDefaultHandler7warningERK18QXmlParseException myqt
__ZN18QXmlDefaultHandler5errorERK18QXmlParseException myqt
__ZN18QXmlDefaultHandler12notationDeclERK7QStringS2_S2_ myqt
__ZN18QXmlDefaultHandler18unparsedEntityDeclERK7QStringS2_S2_S2_ myqt
__ZN18QXmlDefaultHandler13resolveEntityERK7QStringS2_RP15QXmlInputSource myqt
__ZN18QXmlDefaultHandler8startDTDERK7QStringS2_S2_ myqt
__ZN18QXmlDefaultHandler6endDTDEv   myqt
__ZN18QXmlDefaultHandler11startEntityERK7QString myqt
__ZN18QXmlDefaultHandler9endEntityERK7QString myqt
__ZN18QXmlDefaultHandler10startCDATAEv myqt
__ZN18QXmlDefaultHandler8endCDATAEv myqt
__ZN18QXmlDefaultHandler7commentERK7QString myqt
__ZN18QXmlDefaultHandler13attributeDeclERK7QStringS2_S2_S2_S2_ myqt
__ZN18QXmlDefaultHandler18internalEntityDeclERK7QStringS2_ myqt
__ZN18QXmlDefaultHandler18externalEntityDeclERK7QStringS2_S2_ myqt
__ZThn4_N18QXmlDefaultHandler7warningERK18QXmlParseException myqt
__ZThn4_N18QXmlDefaultHandler5errorERK18QXmlParseException myqt
__ZThn4_N18QXmlDefaultHandler11errorStringEv myqt
__ZThn8_N18QXmlDefaultHandler12notationDeclERK7QStringS2_S2_ myqt
__ZThn8_N18QXmlDefaultHandler18unparsedEntityDeclERK7QStringS2_S2_S2_ myqt
__ZThn8_N18QXmlDefaultHandler11errorStringEv myqt
__ZThn12_N18QXmlDefaultHandler13resolveEntityERK7QStringS2_RP15QXmlInputSource myqt
__ZThn12_N18QXmlDefaultHandler11errorStringEv myqt
__ZThn16_N18QXmlDefaultHandler8startDTDERK7QStringS2_S2_ myqt
__ZThn16_N18QXmlDefaultHandler6endDTDEv myqt
__ZThn16_N18QXmlDefaultHandler11startEntityERK7QString myqt
__ZThn16_N18QXmlDefaultHandler9endEntityERK7QString myqt
__ZThn16_N18QXmlDefaultHandler10startCDATAEv myqt
__ZThn16_N18QXmlDefaultHandler8endCDATAEv myqt
__ZThn16_N18QXmlDefaultHandler7commentERK7QString myqt
__ZThn16_N18QXmlDefaultHandler11errorStringEv myqt
__ZThn20_N18QXmlDefaultHandler13attributeDeclERK7QStringS2_S2_S2_S2_ myqt
__ZThn20_N18QXmlDefaultHandler18internalEntityDeclERK7QStringS2_ myqt
__ZThn20_N18QXmlDefaultHandler18externalEntityDeclERK7QStringS2_S2_ myqt
__ZThn20_N18QXmlDefaultHandler11errorStringEv myqt
__ZN18QXmlDefaultHandler13startDocumentEv myqt
__ZN18QXmlDefaultHandler12startElementERK7QStringS2_S2_RK14QXmlAttributes myqt
__ZN18QXmlDefaultHandler10endElementERK7QStringS2_S2_ myqt
__ZN18QXmlDefaultHandler10charactersERK7QString myqt
__ZThn4_N18QXmlDefaultHandler10fatalErrorERK18QXmlParseException myqt
__ZN6QGListC2Ev                     myqt
__ZN6QGListD2Ev                     myqt
__ZTV18QXmlDefaultHandler           myqt
__ZN7QRegExpD1Ev                    myqt
__ZN7QString7replaceE5QCharRKS_b    myqt
__ZN4QDirC1Ev                       myqt
__ZNK4QDir5mkdirERK7QStringb        myqt
__ZNK9QFileInfo5isDirEv             myqt
__ZNK5QChar16isLetterOrNumberEv     myqt
__ZN12QListBoxTextC2EP8QListBoxRK7QString myqt
__ZN13QListViewItemC2EP9QListViewPS_ myqt
__ZN13QListViewItemC2EPS_S0_        myqt
__ZN6QGDictC2EjNS_7KeyTypeEbb       myqt
__ZN4QDir11homeDirPathEv            myqt
__ZN7QObject18installEventFilterEPKS_ myqt
__ZNK9QListView6headerEv            myqt
__ZN10QValidatorC2EP7QObjectPKc     myqt
__ZN9QMenuData10insertItemERK7QStringii myqt
__ZN6QGDict5clearEv                 myqt
__ZN12QApplication9eventLoopEv      myqt
__ZN5QFile6existsERK7QString        myqt
__ZN5QFile6removeEv                 myqt
__ZN7QWidget16setWindowOpacityEd    myqt
__ZN12QApplication4quitEv           myqt
__ZN2Qt10waitCursorE                myqt
__ZN11QDataStreamC1EP9QIODevice     myqt
__ZN5QFile5closeEv                  myqt
__ZN11QMessageBox7warningEP7QWidgetRK7QStringS4_S4_S4_S4_ii myqt
__ZN11QDataStreamD1Ev               myqt
__ZN11QDataStream9setDeviceEP9QIODevice myqt
__ZN8QListBox5clearEv               myqt
__ZneRK7QStringS1_                  myqt
__ZNK7QString7findRevE5QCharib      myqt
__ZN2Qt11arrowCursorE               myqt
__ZNK9QFileInfo12lastModifiedEv     myqt
__ZNK9QDateTime8toTime_tEv          myqt
__ZNK9QFileInfo4sizeEv              myqt
__ZNK5QFile6existsEv                myqt
__ZNK7QString5asciiEv               myqt
__ZN14QGListIteratorC2ERK6QGList    myqt
__ZN14QGListIteratorppEv            myqt
__ZN14QGListIteratorD2Ev            myqt
__ZN14QGDictIteratorC2ERK6QGDict    myqt
__ZNK7QString15stripWhiteSpaceEv    myqt
__ZN14QGDictIteratorppEv            myqt
__ZN14QGDictIteratorD2Ev            myqt
__ZN6QGDict11look_stringERK7QStringPvi myqt
__ZN5QFile6removeERK7QString        myqt
__ZNK7QString8containsERKS_b        myqt
__ZN6QTimer10singleShotEiP7QObjectPKc myqt
__ZNK11QMainWindow9statusBarEv      myqt
__ZN10QStatusBar7messageERK7QStringi myqt
__ZNK10QTabWidget11currentPageEv    myqt
__ZNK10QTabWidget8tabLabelEP7QWidget myqt
__ZNK8QListBox4itemEi               myqt
__ZN7QObject12blockSignalsEb        myqt
__ZNK12QListBoxItem4nextEv          myqt
__ZNK8QListBox5indexEPK12QListBoxItem myqt
__ZN7QString6removeEjj              myqt
__ZNK8QListBox5countEv              myqt
__ZNK4QUrl4pathEb                   myqt
__ZNK9QTextEdit13documentTitleEv    myqt
__ZNK9QListView11currentItemEv      myqt
__ZNK9QListView10firstChildEv       myqt
__ZN11QTextStreamC1EP9QIODevice     myqt
__ZN11QTextStream8readLineEv        myqt
__ZN11QTextStreamD1Ev               myqt
__ZN21QListViewItemIteratorC1EP9QListView myqt
__ZNK21QListViewItemIterator7currentEv myqt
__ZN11QTextStreamlsERK7QString      myqt
__Z4endlR11QTextStream              myqt
__ZN21QListViewItemIteratorppEv     myqt
__ZN21QListViewItemIteratorD1Ev     myqt
__ZN6QGList9takeFirstEv             myqt
__ZN6QGList8insertAtEjPv            myqt
__ZN7QPixmap14fromMimeSourceERK7QString myqt
__ZN7QPixmapD1Ev                    myqt
__ZNK10QTabWidget16currentPageIndexEv myqt
__ZN10QTabWidget14setCurrentPageEi  myqt
__ZNK7QWidget8hasFocusEv            myqt
__ZN10QStatusBar5clearEv            myqt
__ZN12QProgressBar5resetEv          myqt
__ZN10QStatusBar7messageERK7QString myqt
__ZNK9QLineEdit4textEv              myqt
__ZN7QString7replaceERK7QRegExpRKS_ myqt
__ZN11QStringList5splitERK7QStringS2_b myqt
__ZNK7QString8containsE5QCharb      myqt
__ZN8QListBox10insertItemERK7QStringi myqt
__ZN7QStringpLE5QChar               myqt
__ZNK7QString3midEjj                myqt
__ZN11QStringList5splitERK5QCharRK7QStringb myqt
__ZN10QPopupMenu4execERK6QPointi    myqt
__Znaj                              libc064
__ZdaPv                             libc064
__ZN6QGDict4readER11QDataStreamRPv  myqt
__ZNK6QGDict5writeER11QDataStreamPv myqt
__ZN13QListViewItem10insertItemEPS_ myqt
__ZN13QListViewItem8takeItemEPS_    myqt
__ZN13QListViewItem16invalidateHeightEv myqt
__ZNK13QListViewItem5widthERK12QFontMetricsPK9QListViewi myqt
__ZN13QListViewItem7setTextEiRK7QString myqt
__ZNK13QListViewItem4textEi         myqt
__ZN13QListViewItem9setPixmapEiRK7QPixmap myqt
__ZNK13QListViewItem6pixmapEi       myqt
__ZNK13QListViewItem3keyEib         myqt
__ZNK13QListViewItem7compareEPS_ib  myqt
__ZN13QListViewItem14sortChildItemsEib myqt
__ZN13QListViewItem7setOpenEb       myqt
__ZN13QListViewItem5setupEv         myqt
__ZN13QListViewItem11setSelectedEb  myqt
__ZN13QListViewItem9paintCellEP8QPainterRK11QColorGroupiii myqt
__ZN13QListViewItem13paintBranchesEP8QPainterRK11QColorGroupiii myqt
__ZN13QListViewItem10paintFocusEP8QPainterRK11QColorGroupRK5QRect myqt
__ZN13QListViewItem13setSelectableEb myqt
__ZN13QListViewItem13setExpandableEb myqt
__ZN13QListViewItem4sortEv          myqt
__ZN13QListViewItem14setDragEnabledEb myqt
__ZN13QListViewItem14setDropEnabledEb myqt
__ZNK13QListViewItem10acceptDropEPK11QMimeSource myqt
__ZN13QListViewItem16setRenameEnabledEib myqt
__ZN13QListViewItem11startRenameEi  myqt
__ZN13QListViewItem10setEnabledEb   myqt
__ZNK13QListViewItem4rttiEv         myqt
__ZN13QListViewItem20setMultiLinesEnabledEb myqt
__ZNK13QListViewItem16enforceSortOrderEv myqt
__ZN13QListViewItem9setHeightEi     myqt
__ZN13QListViewItem8activateEv      myqt
__ZN13QListViewItem7droppedEP10QDropEvent myqt
__ZN13QListViewItem11dragEnteredEv  myqt
__ZN13QListViewItem8dragLeftEv      myqt
__ZN13QListViewItem8okRenameEi      myqt
__ZN13QListViewItem12cancelRenameEi myqt
__ZNK12QListBoxItem4textEv          myqt
__ZNK12QListBoxItem6pixmapEv        myqt
__ZNK12QListBoxText6heightEPK8QListBox myqt
__ZNK12QListBoxText5widthEPK8QListBox myqt
__ZNK12QListBoxText4rttiEv          myqt
__ZN12QListBoxText5paintEP8QPainter myqt
__ZN12QListBoxTextD2Ev              myqt
__ZN13QListViewItemD2Ev             myqt
__ZN6QGDictD2Ev                     myqt
__ZN12QColorDialog8getColorERK6QColorP7QWidgetPKc myqt
__ZN11QFileDialogC1EP7QWidgetPKcb   myqt
__ZN11QFileDialog7setModeENS_4ModeE myqt
__ZN11QFileDialog6setDirERK7QString myqt
__ZNK11QFileDialog12selectedFileEv  myqt
__ZN11QDataStreamrsERs              myqt
__ZN11QDataStreamlsEs               myqt
__ZN7QObjectC2EPS_PKc               myqt
__ZNK4QDir9entryListERK7QStringii   myqt
__ZN11QTextStream4readEv            myqt
__ZN7QStringC1EPK5QCharj            myqt
__ZNK5QChar5lowerEv                 myqt
__ZlsR11QDataStreamRK11QStringList  myqt
__ZrsR11QDataStreamR11QStringList   myqt
__ZN6QGList4sortEv                  myqt
__ZN6QGList5firstEv                 myqt
__ZN6QGList6removeEPv               myqt
__ZN6QGList4nextEv                  myqt
__ZNK7QString4findERKS_ib           myqt
__ZNK7QString7findRevERKS_ib        myqt
__ZN6QGList4lastEv                  myqt
__Z16qInstallPathDocsv              myqt
__ZN15QMapPrivateBase18removeAndRebalanceEP12QMapNodeBaseRS1_S2_S2_ myqt
__ZN12QApplication4fontEPK7QWidget  myqt
__ZNK5QFont9pointSizeEv             myqt
__ZN5QFontD1Ev                      myqt
__ZN7QString6numberEii              myqt
__ZN9QSettingsC1Ev                  myqt
__ZN9QSettings16insertSearchPathENS_6SystemERK7QString myqt
__ZN9QSettings9readEntryERK7QStringS2_Pb myqt
__ZN9QSettings13readBoolEntryERK7QStringbPb myqt
__ZN9QSettings13readListEntryERK7QStringPb myqt
__ZN9QSettings12readNumEntryERK7QStringiPb myqt
__ZNK12QApplication4typeEv          myqt
__ZNK9QSettings9entryListERK7QString myqt
__ZN9QSettingsD1Ev                  myqt
__ZNK5QFont6familyEv                myqt
__ZN12QApplication7desktopEv        myqt
__ZNK14QDesktopWidget17availableGeometryEi myqt
__ZN5QRect7setRectEiiii             myqt
__ZN9QSettings10writeEntryERK7QStringS2_ myqt
__ZN9QSettings10writeEntryERK7QStringb myqt
__ZN9QSettings10writeEntryERK7QStringRK11QStringList myqt
__ZN9QSettings10writeEntryERK7QStringi myqt
__ZN4QDir17convertSeparatorsERK7QString myqt
__ZNK9QFileInfo8fileNameEv          myqt
__ZN11QDockWindowC1ENS_5PlaceEP7QWidgetPKcj myqt
__ZN11QTextStreamC1EP7QStringi      myqt
__ZrsR11QTextStreamR11QMainWindow   myqt
__ZN7QCursorC1Ei                    myqt
__ZN12QApplication17setOverrideCursorERK7QCursorb myqt
__ZN7QCursorD1Ev                    myqt
__ZN6QAccelC1EP7QWidgetP7QObjectPKc myqt
__ZN6QAccel11stringToKeyERK7QString myqt
__ZN6QAccel10insertItemERK12QKeySequencei myqt
__ZN6QAccel11connectItemEiPK7QObjectPKc myqt
__ZNK11QMainWindow20createDockWindowMenuENS_11DockWindowsE myqt
__ZN9QMenuData10insertItemERK7QStringP10QPopupMenuii myqt
__ZN12QApplication21restoreOverrideCursorEv myqt
__ZN8QIconSetC1ERK7QPixmapNS_4SizeE myqt
__ZN7QActionC1ERK7QStringRK8QIconSetS2_12QKeySequenceP7QObjectPKcb myqt
__ZN8QIconSetD1Ev                   myqt
__ZN8QToolBar12addSeparatorEv       myqt
__ZN7QWidget5closeEb                myqt
__ZN6QGList9removeRefEPv            myqt
__ZN11QMessageBoxC1EP7QWidgetPKc    myqt
__ZN11QMessageBox7setTextERK7QString myqt
__ZN7QWidget10setCaptionERK7QString myqt
__ZN11QMessageBox7setIconENS_4IconE myqt
__ZN11QMessageBoxD1Ev               myqt
__ZN7QStringC1ERK9QMemArrayIcE      myqt
__ZN7QGArrayD2Ev                    myqt
__ZN11QMessageBox7aboutQtEP7QWidgetRK7QString myqt
__ZNK9QComboBox8lineEditEv          myqt
__ZN18QGuardedPtrPrivate9reconnectEP7QObject myqt
__ZN9QMenuData5clearEv              myqt
__ZNK7QWidget11windowStateEv        myqt
__ZN7QWidget14setWindowStateEj      myqt
__ZN7QWidget5raiseEv                myqt
__ZN7QObject10startTimerEi          myqt
__ZN7QObject9killTimerEi            myqt
__ZN13QFontDatabaseC1Ev             myqt
__ZN9QComboBox5clearEv              myqt
__ZNK13QFontDatabase8familiesEv     myqt
__ZN9QComboBox16insertStringListERK11QStringListi myqt
__ZN11QStyleSheet4itemERK7QString   myqt
__ZNK15QStyleSheetItem10fontFamilyEv myqt
__ZNK8QPalette5colorENS_10ColorGroupEN11QColorGroup9ColorRoleE myqt
__ZNK7QObject3isAEPKc               myqt
__ZN6QGList4prevEv                  myqt
__ZNK9QComboBox11currentTextEv      myqt
__ZN5QFont9setFamilyERK7QString     myqt
__ZN8QPaletteC1ERKS_                myqt
__ZN6QColorC1ERKS_                  myqt
__ZN8QPalette8setColorENS_10ColorGroupEN11QColorGroup9ColorRoleERK6QColor myqt
__ZN15QStyleSheetItem13setFontFamilyERK7QString myqt
__ZNK9QTextEdit4textEv              myqt
__ZN8QPaletteD1Ev                   myqt
__ZN11QMainWindow4hideEv            myqt
__ZNK9QTextEdit4fontEv              myqt
__ZNK7QWidget1xEv                   myqt
__ZNK7QWidget1yEv                   myqt
__ZlsR11QTextStreamRK11QMainWindow  myqt
__ZNK11QScrollView8viewportEv       myqt
__ZN2Qt3redE                        myqt
__ZN11QScrollView14updateContentsEv myqt
__ZN7QObject6senderEv               myqt
__ZnePKcRK7QString                  myqt
__ZN11QMainWindowC2EP7QWidgetPKcj   myqt
__ZN7QActionC1EP7QObjectPKc         myqt
__ZN8QToolBarC1ERK7QStringP11QMainWindowN2Qt4DockEbPKc myqt
__ZN8QMenuBarC1EP7QWidgetPKc        myqt
__ZNK11QMainWindow15minimumSizeHintEv myqt
__ZN7QWidget7setNameEPKc            myqt
__ZN11QMainWindowD2Ev               myqt
__ZN12QKeySequenceC1ERK7QString     myqt
__ZNK9QMenuData8findItemEi          myqt
__ZN7QGArray7newDataEv              myqt
__ZN7QGArray10deleteDataEPNS_10array_dataE myqt
__ZN7QGArray9duplicateERKS_         myqt
__ZN7QDialogC2EP7QWidgetPKcbj       myqt
__ZN7QDialog18setSizeGripEnabledEb  myqt
__ZN11QVBoxLayoutC1EP7QWidgetiiPKc  myqt
__ZN6QLabelC1EP7QWidgetPKcj         myqt
__ZN10QBoxLayout9addWidgetEP7QWidgetii myqt
__ZN8QListBoxC1EP7QWidgetPKcj       myqt
__ZN11QHBoxLayoutC1EP7QWidgetiiPKc  myqt
__ZTV11QSpacerItem                  myqt
__ZN11QPushButtonC1EP7QWidgetPKc    myqt
__ZN10QBoxLayout9addLayoutEP7QLayouti myqt
__ZNK7QDialog15minimumSizeHintEv    myqt
__ZN7QDialog6resizeERK5QSize        myqt
__ZN7QDialogD2Ev                    myqt
__ZN10QWhatsThis3addEP7QWidgetRK7QString myqt
__ZN10QStatusBarC1EP7QWidgetPKc     myqt
__ZNK9QTextEdit15hasSelectedTextEv  myqt
__ZN11QGridLayoutC1EP7QWidgetiiiiPKc myqt
__ZN12QButtonGroupC1EP7QWidgetPKc   myqt
__ZN11QVBoxLayoutC1EP7QLayoutiPKc   myqt
__ZN12QRadioButtonC1EP7QWidgetPKc   myqt
__ZN11QGridLayout18addMultiCellWidgetEP7QWidgetiiiii myqt
__ZN9QComboBoxC1EbP7QWidgetPKc      myqt
__ZN9QComboBox11setEditableEb       myqt
__ZN9QComboBox20setDuplicatesEnabledEb myqt
__ZN11QGridLayout18addMultiCellLayoutEP7QLayoutiiiii myqt
__ZN11QGridLayout7addItemEP11QLayoutItemii myqt
__ZN11QGridLayout9addWidgetEP7QWidgetiii myqt
__ZN9QCheckBoxC1EP7QWidgetPKc       myqt
__ZN7QWidget11setTabOrderEPS_S0_    myqt
__ZN7QWidgetC2EPS_PKcj              myqt
__ZN10QTabWidgetC1EP7QWidgetPKcj    myqt
__ZN7QWidgetC1EPS_PKcj              myqt
__ZN9QListViewC1EP7QWidgetPKcj      myqt
__ZN9QLineEditC1EP7QWidgetPKc       myqt
__ZN11QGridLayout9addLayoutEP7QLayoutii myqt
__ZN6QFrameC1EP7QWidgetPKcj         myqt
__ZN12QProgressBarC1EP7QWidgetPKcj  myqt
__ZNK7QWidget15minimumSizeHintEv    myqt
__ZN7QWidgetD2Ev                    myqt
__ZN10QTabWidget9changeTabEP7QWidgetRK7QString myqt
__ZN8QToolTip3addEP7QWidgetRK7QString myqt
__ZN11QToolButtonC1EP7QWidgetPKc    myqt
__ZN6QColor6setRgbEiii              myqt
__ZN7QStringpLEPKc                  myqt
__ZNK10QTabWidget5countEv           myqt
__ZNK10QTabWidget12cornerWidgetEN2Qt6CornerE myqt
__ZN11QStyleSheet12defaultSheetEv   myqt
__ZN11QStyleSheetC1EP7QObjectPKc    myqt
__ZNK10QTabWidget4pageEi            myqt
__ZN18QMimeSourceFactoryC1Ev        myqt
__ZN7QObject5childEPKcS1_b          myqt
__ZNK7QWidget5styleEv               myqt
__ZN10QTabWidget15setCornerWidgetEP7QWidgetN2Qt6CornerE myqt
__ZN11QToolButton12setAutoRaiseEb   myqt
__ZN7QWidget12setFixedSizeEii       myqt
__ZN8QIconSet9setPixmapERK7QPixmapNS_4SizeENS_4ModeENS_5StateE myqt
__ZN5QFontC1ERKS_                   myqt
__ZN9QFontInfoC1ERK5QFont           myqt
__ZN5QFont12setPointSizeEi          myqt
__ZN6QColorC1ERK7QString            myqt
__ZN9QFontInfoD1Ev                  myqt
__ZNK5QFonteqERKS_                  myqt
__ZN5QFontaSERKS_                   myqt
__ZNK8QPaletteeqERKS_               myqt
__ZN7QWidget10setPaletteERK8QPalette myqt
__ZN10QTabWidget11setTabLabelEP7QWidgetRK7QString myqt
__ZN5QFontC1Ev                      myqt
__Z14qt_inheritedByP11QMetaObjectPK7QObject myqt
__ZN6QImageC1Ev                     myqt
__ZN7QGArrayC2Ev                    myqt
__Z11qUncompressPKhi                myqt
__ZN7QGArray6assignERKS_            myqt
__ZN6QImageC1EPhiiiPjiNS_6EndianE   myqt
__ZNK6QImage4copyEv                 myqt
__ZN6QImageaSERKS_                  myqt
__ZN6QImageD1Ev                     myqt
__ZN6QImageC1ERKS_                  myqt
__ZN6QImage14setAlphaBufferEb       myqt
__ZN18QMimeSourceFactoryC2Ev        myqt
__ZN18QMimeSourceFactory14defaultFactoryEv myqt
__ZN18QMimeSourceFactory10addFactoryEPS_ myqt
__ZN18QMimeSourceFactory13removeFactoryEPS_ myqt
__ZNK18QMimeSourceFactory12makeAbsoluteERK7QStringS2_ myqt
__ZN18QMimeSourceFactory7setTextERK7QStringS2_ myqt
__ZN18QMimeSourceFactory8setImageERK7QStringRK6QImage myqt
__ZN18QMimeSourceFactory9setPixmapERK7QStringRK7QPixmap myqt
__ZN18QMimeSourceFactory7setDataERK7QStringP11QMimeSource myqt
__ZN18QMimeSourceFactory11setFilePathERK11QStringList myqt
__ZNK18QMimeSourceFactory8filePathEv myqt
__ZN18QMimeSourceFactory16setExtensionTypeERK7QStringPKc myqt
__ZN18QMimeSourceFactoryD2Ev        myqt
__ZNK18QMimeSourceFactory4dataERK7QString myqt
_static_QUType_bool                 myqt
__ZN12QTextBrowser16staticMetaObjectEv myqt
__ZN12QTextBrowser7qt_castEPKc      myqt
__ZN12QTextBrowser9qt_invokeEiP8QUObject myqt
__ZN12QTextBrowser7qt_emitEiP8QUObject myqt
__ZN12QTextBrowser11qt_propertyEiiP8QVariant myqt
__ZN9QTextEdit5eventEP6QEvent       myqt
__ZN9QTextEdit11eventFilterEP7QObjectP6QEvent myqt
__ZN11QScrollView11removeChildEP7QObject myqt
__ZN9QTextEdit10setEnabledEb        myqt
__ZN7QWidget14setMinimumSizeEii     myqt
__ZN7QWidget14setMaximumSizeEii     myqt
__ZN7QWidget16setSizeIncrementEii   myqt
__ZN7QWidget17setBackgroundModeEN2Qt14BackgroundModeE myqt
__ZN7QWidget13setEraseColorERK6QColor myqt
__ZN7QWidget14setErasePixmapERK7QPixmap myqt
__ZN9QTextEdit10setPaletteERK8QPalette myqt
__ZN7QWidget25setPaletteBackgroundColorERK6QColor myqt
__ZN7QWidget26setPaletteBackgroundPixmapERK7QPixmap myqt
__ZN9QTextEdit7setFontERK5QFont     myqt
__ZN7QWidget9setCursorERK7QCursor   myqt
__ZN7QWidget11unsetCursorEv         myqt
__ZN7QWidget7setMaskERK7QBitmap     myqt
__ZN7QWidget7setMaskERK7QRegion     myqt
__ZN7QWidget18setBackgroundColorERK6QColor myqt
__ZN7QWidget19setBackgroundPixmapERK7QPixmap myqt
__ZN7QWidget7setIconERK7QPixmap     myqt
__ZN7QWidget11setIconTextERK7QString myqt
__ZN7QWidget16setMouseTrackingEb    myqt
__ZN7QWidget8setFocusEv             myqt
__ZN7QWidget15setActiveWindowEv     myqt
__ZN7QWidget14setFocusPolicyENS_11FocusPolicyE myqt
__ZN7QWidget13setFocusProxyEPS_     myqt
__ZN7QWidget17setUpdatesEnabledEb   myqt
__ZN11QScrollView4showEv            myqt
__ZN7QWidget4hideEv                 myqt
__ZN7QWidget13showMinimizedEv       myqt
__ZN7QWidget13showMaximizedEv       myqt
__ZN7QWidget10showNormalEv          myqt
__ZN9QTextEdit6polishEv             myqt
__ZN7QWidget4moveEii                myqt
__ZN11QScrollView6resizeEii         myqt
__ZN7QWidget11setGeometryEiiii      myqt
__ZNK9QTextEdit8sizeHintEv          myqt
__ZNK11QScrollView15minimumSizeHintEv myqt
__ZNK7QWidget10sizePolicyEv         myqt
__ZN7QWidget13setSizePolicyE11QSizePolicy myqt
__ZNK9QTextEdit14heightForWidthEi   myqt
__ZN7QWidget10adjustSizeEv          myqt
__ZN7QWidget8reparentEPS_jRK6QPointb myqt
__ZN7QWidget14setAcceptDropsEb      myqt
__ZN7QWidget11setAutoMaskEb         myqt
__ZN7QWidget19setBackgroundOriginENS_16BackgroundOriginE myqt
__ZNK7QWidget15customWhatsThisEv    myqt
__ZN11QScrollView15mousePressEventEP11QMouseEvent myqt
__ZN11QScrollView17mouseReleaseEventEP11QMouseEvent myqt
__ZN11QScrollView21mouseDoubleClickEventEP11QMouseEvent myqt
__ZN11QScrollView14mouseMoveEventEP11QMouseEvent myqt
__ZN11QScrollView10wheelEventEP11QWheelEvent myqt
__ZN7QWidget15keyReleaseEventEP9QKeyEvent myqt
__ZN7QWidget12focusInEventEP11QFocusEvent myqt
__ZN7QWidget13focusOutEventEP11QFocusEvent myqt
__ZN7QWidget10enterEventEP6QEvent   myqt
__ZN7QWidget10leaveEventEP6QEvent   myqt
__ZN6QFrame10paintEventEP11QPaintEvent myqt
__ZN7QWidget9moveEventEP10QMoveEvent myqt
__ZN9QTextEdit11resizeEventEP12QResizeEvent myqt
__ZN7QWidget10closeEventEP11QCloseEvent myqt
__ZN11QScrollView16contextMenuEventEP17QContextMenuEvent myqt
__ZN9QTextEdit12imStartEventEP8QIMEvent myqt
__ZN9QTextEdit14imComposeEventEP8QIMEvent myqt
__ZN9QTextEdit10imEndEventEP8QIMEvent myqt
__ZN7QWidget11tabletEventEP12QTabletEvent myqt
__ZN7QWidget14dragEnterEventEP15QDragEnterEvent myqt
__ZN7QWidget13dragMoveEventEP14QDragMoveEvent myqt
__ZN7QWidget14dragLeaveEventEP15QDragLeaveEvent myqt
__ZN7QWidget9dropEventEP10QDropEvent myqt
__ZN7QWidget9showEventEP10QShowEvent myqt
__ZN7QWidget9hideEventEP10QHideEvent myqt
__ZN7QWidget7pmEventEP5_QMSG        myqt
__ZN7QWidget10updateMaskEv          myqt
__ZN11QScrollView11styleChangeER6QStyle myqt
__ZN7QWidget13enabledChangeEb       myqt
__ZN7QWidget13paletteChangeERK8QPalette myqt
__ZN11QScrollView10fontChangeERK5QFont myqt
__ZN9QTextEdit22windowActivationChangeEb myqt
__ZNK7QWidget6metricEi              myqt
__ZN7QWidget6createEmbb             myqt
__ZN7QWidget7destroyEbb             myqt
__ZN9QTextEdit18focusNextPrevChildEb myqt
__ZN7QWidget17setKeyCompressionEb   myqt
__ZN7QWidget17setMicroFocusHintEiiiibP5QFont myqt
__ZN6QFrame13setFrameStyleEi        myqt
__ZN6QFrame12setLineWidthEi         myqt
__ZN6QFrame9setMarginEi             myqt
__ZN6QFrame15setMidLineWidthEi      myqt
__ZN6QFrame12setFrameRectERK5QRect  myqt
__ZN6QFrame9drawFrameEP8QPainter    myqt
__ZN9QTextEdit12drawContentsEP8QPainter myqt
__ZN11QScrollView12frameChangedEv   myqt
__ZN11QScrollView15setResizePolicyENS_12ResizePolicyE myqt
__ZN11QScrollView8addChildEP7QWidgetii myqt
__ZN11QScrollView9moveChildEP7QWidgetii myqt
__ZN11QScrollView17setVScrollBarModeENS_13ScrollBarModeE myqt
__ZN11QScrollView17setHScrollBarModeENS_13ScrollBarModeE myqt
__ZN11QScrollView15setCornerWidgetEP7QWidget myqt
__ZN11QScrollView17setDragAutoScrollEb myqt
__ZN11QScrollView14resizeContentsEii myqt
__ZN11QScrollView14setContentsPosEii myqt
__ZN9QTextEdit12drawContentsEP8QPainteriiii myqt
__ZN11QScrollView18drawContentsOffsetEP8QPainteriiiiii myqt
__ZN9QTextEdit25contentsMouseReleaseEventEP11QMouseEvent myqt
__ZN9QTextEdit29contentsMouseDoubleClickEventEP11QMouseEvent myqt
__ZN9QTextEdit22contentsMouseMoveEventEP11QMouseEvent myqt
__ZN9QTextEdit22contentsDragEnterEventEP15QDragEnterEvent myqt
__ZN9QTextEdit21contentsDragMoveEventEP14QDragMoveEvent myqt
__ZN9QTextEdit22contentsDragLeaveEventEP15QDragLeaveEvent myqt
__ZN9QTextEdit17contentsDropEventEP10QDropEvent myqt
__ZN9QTextEdit18contentsWheelEventEP11QWheelEvent myqt
__ZN9QTextEdit24contentsContextMenuEventEP17QContextMenuEvent myqt
__ZN11QScrollView18viewportPaintEventEP11QPaintEvent myqt
__ZN9QTextEdit19viewportResizeEventEP12QResizeEvent myqt
__ZN11QScrollView23viewportMousePressEventEP11QMouseEvent myqt
__ZN11QScrollView25viewportMouseReleaseEventEP11QMouseEvent myqt
__ZN11QScrollView29viewportMouseDoubleClickEventEP11QMouseEvent myqt
__ZN11QScrollView22viewportMouseMoveEventEP11QMouseEvent myqt
__ZN11QScrollView22viewportDragEnterEventEP15QDragEnterEvent myqt
__ZN11QScrollView21viewportDragMoveEventEP14QDragMoveEvent myqt
__ZN11QScrollView22viewportDragLeaveEventEP15QDragLeaveEvent myqt
__ZN11QScrollView17viewportDropEventEP10QDropEvent myqt
__ZN11QScrollView18viewportWheelEventEP11QWheelEvent myqt
__ZN11QScrollView24viewportContextMenuEventEP17QContextMenuEvent myqt
__ZN11QScrollView10setMarginsEiiii  myqt
__ZN11QScrollView15setHBarGeometryER10QScrollBariiii myqt
__ZN11QScrollView15setVBarGeometryER10QScrollBariiii myqt
__ZN9QTextEdit4findERK7QStringbbbPiS3_ myqt
__ZN9QTextEdit9getFormatEiiP5QFontP6QColorPNS_17VerticalAlignmentE myqt
__ZN9QTextEdit18getParagraphFormatEiP5QFontP6QColorPNS_17VerticalAlignmentEPiPN15QStyleSheetItem11DisplayModeEPNS7_9ListStyleES6_ myqt
__ZN9QTextEdit20setMimeSourceFactoryEP18QMimeSourceFactory myqt
__ZN9QTextEdit13setStyleSheetEP11QStyleSheet myqt
__ZN9QTextEdit14scrollToAnchorERK7QString myqt
__ZN9QTextEdit8setPaperERK6QBrush   myqt
__ZN9QTextEdit16setLinkUnderlineEb  myqt
__ZN9QTextEdit11setWordWrapENS_8WordWrapE myqt
__ZN9QTextEdit20setWrapColumnOrWidthEi myqt
__ZN9QTextEdit13setWrapPolicyENS_10WrapPolicyE myqt
__ZN9QTextEdit6appendERK7QString    myqt
__ZN12QTextBrowser7setTextERK7QStringS2_ myqt
__ZN9QTextEdit13setTextFormatEN2Qt10TextFormatE myqt
__ZN9QTextEdit9selectAllEb          myqt
__ZN9QTextEdit15setTabStopWidthEi   myqt
__ZN9QTextEdit6zoomInEi             myqt
__ZN9QTextEdit7zoomOutEi            myqt
__ZN9QTextEdit6zoomToEi             myqt
__ZN9QTextEdit4syncEv               myqt
__ZN9QTextEdit11setReadOnlyEb       myqt
__ZN9QTextEdit4undoEv               myqt
__ZN9QTextEdit4redoEv               myqt
__ZN9QTextEdit3cutEv                myqt
__ZN9QTextEdit5pasteEv              myqt
__ZN9QTextEdit12pasteSubTypeERK8QCString myqt
__ZN9QTextEdit5clearEv              myqt
__ZN9QTextEdit3delEv                myqt
__ZN9QTextEdit6indentEv             myqt
__ZN9QTextEdit9setItalicEb          myqt
__ZN9QTextEdit7setBoldEb            myqt
__ZN9QTextEdit12setUnderlineEb      myqt
__ZN9QTextEdit9setFamilyERK7QString myqt
__ZN9QTextEdit12setPointSizeEi      myqt
__ZN9QTextEdit8setColorERK6QColor   myqt
__ZN9QTextEdit20setVerticalAlignmentENS_17VerticalAlignmentE myqt
__ZN9QTextEdit12setAlignmentEi      myqt
__ZN9QTextEdit12setParagTypeEN15QStyleSheetItem11DisplayModeENS0_9ListStyleE myqt
__ZN9QTextEdit17setCursorPositionEii myqt
__ZN9QTextEdit12setSelectionEiiiii  myqt
__ZN9QTextEdit22setSelectionAttributesEiRK6QColorb myqt
__ZN9QTextEdit11setModifiedEb       myqt
__ZN9QTextEdit11resetFormatEv       myqt
__ZN9QTextEdit12setUndoDepthEi      myqt
__ZN9QTextEdit9setFormatEP11QTextFormati myqt
__ZN9QTextEdit11placeCursorERK6QPointP11QTextCursor myqt
__ZN9QTextEdit10moveCursorENS_12CursorActionEb myqt
__ZN9QTextEdit16doKeyboardActionENS_14KeyboardActionE myqt
__ZN9QTextEdit18removeSelectedTextEi myqt
__ZN9QTextEdit15removeSelectionEi   myqt
__ZN9QTextEdit14scrollToBottomEv    myqt
__ZN9QTextEdit6insertERK7QStringbbb myqt
__ZN9QTextEdit8insertAtERK7QStringii myqt
__ZN9QTextEdit15removeParagraphEi   myqt
__ZN9QTextEdit15insertParagraphERK7QStringi myqt
__ZN9QTextEdit27setParagraphBackgroundColorEiRK6QColor myqt
__ZN9QTextEdit24clearParagraphBackgroundEi myqt
__ZN9QTextEdit18setUndoRedoEnabledEb myqt
__ZN9QTextEdit15createPopupMenuEv   myqt
__ZN9QTextEdit16doChangeIntervalEv  myqt
__ZN12QTextBrowser15emitHighlightedERK7QString myqt
__ZN12QTextBrowser15emitLinkClickedERK7QString myqt
__ZN12QTextBrowser8backwardEv       myqt
__ZN12QTextBrowser7forwardEv        myqt
__ZN12QTextBrowser4homeEv           myqt
__ZN12QTextBrowser6reloadEv         myqt
__ZN12QPaintDevice13setResolutionEi myqt
__ZNK12QPaintDevice10resolutionEv   myqt
__ZNK12QPaintDevice6handleEv        myqt
__ZN12QPaintDevice3cmdEiP8QPainterP13QPDevCmdParam myqt
__ZThn40_NK7QWidget6metricEi        myqt
__ZNK12QPaintDevice7fontMetEP5QFontiPKci myqt
__ZNK12QPaintDevice7fontInfEP5QFonti myqt
__ZN9QTextEdit15setFontInternalERK5QFont myqt
__ZN12QTextBrowserD2Ev              myqt
__ZN7QWidget5eventEP6QEvent         myqt
__ZN7QDialog11eventFilterEP7QObjectP6QEvent myqt
__ZN7QWidget10setEnabledEb          myqt
__ZN7QWidget7setFontERK5QFont       myqt
__ZN7QDialog4showEv                 myqt
__ZN7QDialog4hideEv                 myqt
__ZN7QWidget6polishEv               myqt
__ZN7QDialog4moveEii                myqt
__ZN7QDialog6resizeEii              myqt
__ZN7QDialog11setGeometryEiiii      myqt
__ZN7QDialog11setGeometryERK5QRect  myqt
__ZNK7QDialog8sizeHintEv            myqt
__ZNK7QWidget14heightForWidthEi     myqt
__ZN7QWidget15mousePressEventEP11QMouseEvent myqt
__ZN7QWidget17mouseReleaseEventEP11QMouseEvent myqt
__ZN7QWidget21mouseDoubleClickEventEP11QMouseEvent myqt
__ZN7QWidget14mouseMoveEventEP11QMouseEvent myqt
__ZN7QWidget10wheelEventEP11QWheelEvent myqt
__ZN7QDialog13keyPressEventEP9QKeyEvent myqt
__ZN7QWidget10paintEventEP11QPaintEvent myqt
__ZN7QDialog11resizeEventEP12QResizeEvent myqt
__ZN7QDialog10closeEventEP11QCloseEvent myqt
__ZN7QDialog16contextMenuEventEP17QContextMenuEvent myqt
__ZN7QWidget12imStartEventEP8QIMEvent myqt
__ZN7QWidget14imComposeEventEP8QIMEvent myqt
__ZN7QWidget10imEndEventEP8QIMEvent myqt
__ZN7QWidget11styleChangeER6QStyle  myqt
__ZN7QWidget10fontChangeERK5QFont   myqt
__ZN7QWidget22windowActivationChangeEb myqt
__ZN7QWidget18focusNextPrevChildEb  myqt
__ZN7QDialog4doneEi                 myqt
__ZN7QDialog6acceptEv               myqt
__ZN7QDialog6rejectEv               myqt
__ZN10QValidator16staticMetaObjectEv myqt
__ZN10QValidator7qt_castEPKc        myqt
__ZN10QValidator9qt_invokeEiP8QUObject myqt
__ZN10QValidator7qt_emitEiP8QUObject myqt
__ZN10QValidator11qt_propertyEiiP8QVariant myqt
_static_QUType_int                  myqt
_static_QUType_ptr                  myqt
_static_QUType_varptr               myqt
__ZNK7QObject9receiversEi           myqt
_static_QUType_Null                 myqt
__ZN14QUType_QString3setEP8QUObjectRK7QString myqt
__ZN13QUType_varptr3setEP8QUObjectPKv myqt
__ZN7QObject15activate_signalEP15QConnectionListP8QUObject myqt
__ZN7QWidget4showEv                 myqt
__ZN7QWidget6resizeEii              myqt
__ZNK7QWidget8sizeHintEv            myqt
__ZN7QWidget13keyPressEventEP9QKeyEvent myqt
__ZN7QWidget11resizeEventEP12QResizeEvent myqt
__ZN7QWidget16contextMenuEventEP17QContextMenuEvent myqt
__ZNK10QValidator5fixupER7QString   myqt
__ZN10QValidatorD2Ev                myqt
__ZN7QObject16staticMetaObjectEv    myqt
__ZN7QObject7qt_castEPKc            myqt
__ZN7QObject15activate_signalEii    myqt
__ZN7QObject9qt_invokeEiP8QUObject  myqt
__ZN7QObject7qt_emitEiP8QUObject    myqt
__ZN7QObject11qt_propertyEiiP8QVariant myqt
__ZN7QObjectD2Ev                    myqt
__ZN11QMainWindow16staticMetaObjectEv myqt
__ZN11QMainWindow7qt_castEPKc       myqt
__ZN10QUType_ptr3setEP8QUObjectPKv  myqt
__ZN11QMainWindow9qt_invokeEiP8QUObject myqt
__ZN11QMainWindow7qt_emitEiP8QUObject myqt
__ZN11QMainWindow11qt_propertyEiiP8QVariant myqt
__ZN11QMainWindow5eventEP6QEvent    myqt
__ZN11QMainWindow11eventFilterEP7QObjectP6QEvent myqt
__ZN11QMainWindow10childEventEP11QChildEvent myqt
__ZN11QMainWindow4showEv            myqt
__ZNK11QMainWindow8sizeHintEv       myqt
__ZN11QMainWindow10paintEventEP11QPaintEvent myqt
__ZN11QMainWindow11styleChangeER6QStyle myqt
__ZN11QMainWindow16setCentralWidgetEP7QWidget myqt
__ZN11QMainWindow14setDockEnabledEN2Qt4DockEb myqt
__ZN11QMainWindow14setDockEnabledEP11QDockWindowN2Qt4DockEb myqt
__ZN11QMainWindow13addDockWindowEP11QDockWindowN2Qt4DockEb myqt
__ZN11QMainWindow13addDockWindowEP11QDockWindowRK7QStringN2Qt4DockEb myqt
__ZN11QMainWindow14moveDockWindowEP11QDockWindowN2Qt4DockE myqt
__ZN11QMainWindow14moveDockWindowEP11QDockWindowN2Qt4DockEbii myqt
__ZN11QMainWindow16removeDockWindowEP11QDockWindow myqt
__ZN11QMainWindow11dockingAreaERK6QPoint myqt
__ZNK11QMainWindow14isCustomizableEv myqt
__ZN11QMainWindow21setRightJustificationEb myqt
__ZN11QMainWindow17setUsesBigPixmapsEb myqt
__ZN11QMainWindow16setUsesTextLabelEb myqt
__ZN11QMainWindow21setDockWindowsMovableEb myqt
__ZN11QMainWindow15setOpaqueMovingEb myqt
__ZN11QMainWindow18setDockMenuEnabledEb myqt
__ZN11QMainWindow9whatsThisEv       myqt
__ZN11QMainWindow14setAppropriateEP11QDockWindowb myqt
__ZN11QMainWindow9customizeEv       myqt
__ZN11QMainWindow11setUpLayoutEv    myqt
__ZN11QMainWindow12showDockMenuERK6QPoint myqt
__ZN11QMainWindow10setMenuBarEP8QMenuBar myqt
__ZN11QMainWindow12setStatusBarEP10QStatusBar myqt
__ZN11QMainWindow15setToolTipGroupEP13QToolTipGroup myqt
__ZN7QDialog16staticMetaObjectEv    myqt
__ZN7QDialog7qt_castEPKc            myqt
__ZN7QDialog9qt_invokeEiP8QUObject  myqt
__ZN7QDialog7qt_emitEiP8QUObject    myqt
__ZN7QDialog11qt_propertyEiiP8QVariant myqt
__ZN7QWidget16staticMetaObjectEv    myqt
__ZN7QWidget7qt_castEPKc            myqt
__ZN7QWidget9qt_invokeEiP8QUObject  myqt
__ZN7QWidget7qt_emitEiP8QUObject    myqt
__ZN7QWidget11qt_propertyEiiP8QVariant myqt
__std_exit                          libc064
__std_printf                        libc064
__std_fflush                        libc064
__std_fprintf                       libc064
__std_strcmp                        libc064
__std_atexit                        libc064
___ctordtorInit1                    libc064
___ctordtorTerm1                    libc064


                        +--------------------+
                        |   Libraries Used   |
                        +--------------------+

C:\200\trunk\lib\myqt.lib
C:\usr\lib\libc_dll.lib
C:\usr\lib\libc_alias.lib
C:\usr\lib\gcc-lib\i386-pc-os2-emx\3.3.5\libgcc_so_d.lib
C:\usr\lib\libend.lib


                        +-----------------------+
                        |   Linker Statistics   |
                        +-----------------------+

Stack size:  00800000 (8388608.)
Memory size:  0084b8e0 (8698080.)
Entry point address: 0001:00000000
Link time: 00:00.37
