** EXPERIMENTAL (HLL) ** Open Watcom Linker Version 1.6beta1 Limited Availability
Portions Copyright (c) 1985-2002 Sybase, Inc. All Rights Reserved.
Created on:       14/11/02 20:37:48
Executable Image: C:\200\trunk\bin\designer.exe
creating an OS/2 EMX executable


                        +------------+
                        |   Groups   |
                        +------------+

Group                           Address              Size
=====                           =======              ====

CGROUP                          0001:00000000        002121e0
DGROUP                          0002:00000000        00003a50



                        +--------------+
                        |   Segments   |
                        +--------------+

Segment                Class          Group          Address         Size
=======                =====          =====          =======         ====

TEXT32                 CODE           CGROUP         0001:00000000   002121e0
________TEXT           CODE           CGROUP         0001:002121e0   00000000
DATA32                 DATA           DGROUP         0002:00000000   00002020
SET1__os2dll           DATA           DGROUP         0002:00002020   00000004
SET2__os2dll           DATA           DGROUP         0002:00002024   00000000
SET3__os2dll           DATA           DGROUP         0002:00002024   00000004
SET1___CTOR_LIST__     DATA           DGROUP         0002:00002028   00000004
SET2___CTOR_LIST__     DATA           DGROUP         0002:0000202c   00000158
SET3___CTOR_LIST__     DATA           DGROUP         0002:00002184   00000004
SET1___DTOR_LIST__     DATA           DGROUP         0002:00002188   00000004
SET2___DTOR_LIST__     DATA           DGROUP         0002:0000218c   00000154
SET3___DTOR_LIST__     DATA           DGROUP         0002:000022e0   00000004
SET1___crtinit1__      DATA           DGROUP         0002:000022e4   00000004
SET2___crtinit1__      DATA           DGROUP         0002:000022e8   00000000
SET3___crtinit1__      DATA           DGROUP         0002:000022e8   00000004
SET1___crtexit1__      DATA           DGROUP         0002:000022ec   00000004
SET2___crtexit1__      DATA           DGROUP         0002:000022f0   00000000
SET3___crtexit1__      DATA           DGROUP         0002:000022f0   00000004
SET1___eh_frame__      DATA           DGROUP         0002:000022f4   00000004
SET2___eh_frame__      DATA           DGROUP         0002:000022f8   00000000
SET3___eh_frame__      DATA           DGROUP         0002:000022f8   00000004
SET1___eh_init__       DATA           DGROUP         0002:000022fc   00000004
SET2___eh_init__       DATA           DGROUP         0002:00002300   00000000
SET3___eh_init__       DATA           DGROUP         0002:00002300   00000004
SET1___eh_term__       DATA           DGROUP         0002:00002304   00000004
SET2___eh_term__       DATA           DGROUP         0002:00002308   00000000
SET3___eh_term__       DATA           DGROUP         0002:00002308   00000004
________DATA           DATA           DGROUP         0002:00002310   00000000
SET1___fork_child1__   DATA           DGROUP         0002:00002310   00000000
SET2___fork_child1__   DATA           DGROUP         0002:00002310   00000004
SET3___fork_child1__   DATA           DGROUP         0002:00002314   00000000
BSS32                  BSS            DGROUP         0002:00002320   00001730
c_common               BSS            DGROUP         0002:00003a50   00000000
________BSS            BSS            DGROUP         0002:00003a50   00000000
STACK                  STACK          AUTO           0003:00000000   00800000


                        +----------------+
                        |   Memory Map   |
                        +----------------+

* = unreferenced symbol
+ = symbol only referenced locally

Address        Symbol
=======        ======

Module: C:\usr\lib\crt0nofork.obj({standard input})
0001:00000000* __text
0002:00000000* __data
0002:00000000* ___data_start
0002:00002320* ___bss_start
0002:00002020+ __os2dll
0002:00002028  ___CTOR_LIST__
0002:00002188  ___DTOR_LIST__
0002:000022e4* ___crtinit1__
0002:000022ec* ___crtexit1__
0002:000022f4* ___eh_frame__
0002:000022fc  ___eh_init__
0002:00002304  ___eh_term__
Module: C:\200\trunk\tools\designer\app\tmp\obj\release_mt_shared\main.obj(main.obj)
0001:00000180  _main
0001:00000d60  __ZTV19DesignerApplication$w$JbCFqBUF8U67Cqo51
0001:00000cc8  __ZN17QValueListPrivateI7QStringED1Ev$w$JbCFqBUF8U67Cqo51
0001:00000e18  __ZNK12QApplication10metaObjectEv$w$JbCFqBUF8U67Cqo51
0001:00000e7c  __ZNK19DesignerApplication9classNameEv$w$JbCFqBUF8U67Cqo51
0001:00000e4c  __ZN19DesignerApplicationD1Ev$w$JbCFqBUF8U67Cqo51
0001:00000e24  __ZN19DesignerApplicationD0Ev$w$JbCFqBUF8U67Cqo51
0001:00000de0  __ZTV6QGList$w$JbCFqBUF8U67Cqo51
0001:00000e0c  __ZNK6QGList5countEv$w$JbCFqBUF8U67Cqo51
Module: C:\usr\lib\libend.lib(src/libend/386/end.asm)
0001:002121e0* _etext
0001:002121e0* __etext
0000:00000000  WEAK$ZERO
0002:00003a50  __end
0002:00002310  __edata
Module: C:\usr\lib\gcc-lib\i386-pc-os2-emx\3.3.5\libgcc_so_d.lib(__main.obj)
0001:00000ea0* ___do_global_dtors
0001:00000ea6* ___do_global_ctors
0001:00000eb6* ___POST$__do_global_ctors
0001:00000eb8  ___main
0001:00000ec2* ___POST$__main
Module: C:\200\trunk\lib\designercore.lib(designerapp.obj)
0001:00000ee4  __Z17set_splash_statusRK7QString
0001:00001038* __ZN19DesignerApplicationC2ERiPPc
0001:0000106c  __ZN19DesignerApplicationC1ERiPPc
0001:00001140  __ZN19DesignerApplication10showSplashEv
0001:00001628  __ZN19DesignerApplication11settingsKeyEv
0001:000015fc  __ZN19DesignerApplication11closeSplashEv
0001:00001800  __ZN19DesignerApplication14oldSettingsKeyEv
0001:000019d8* __ZN19DesignerApplication14setSettingsKeyERK7QString
0001:00001a30* __ZTV19DesignerApplication$w$PmGzvNFF8U6sY7uf1
0001:00001ae8* __ZNK12QApplication10metaObjectEv$w$PmGzvNFF8U6sY7uf1
0001:00001b4c* __ZNK19DesignerApplication9classNameEv$w$PmGzvNFF8U6sY7uf1
0001:00001af4* __ZN19DesignerApplicationD1Ev$w$PmGzvNFF8U6sY7uf1
0001:00001b10* __ZN19DesignerApplicationD0Ev$w$PmGzvNFF8U6sY7uf1
0001:00001ab0* __ZTV6QGList$w$PmGzvNFF8U6sY7uf1
0001:00001adc* __ZNK6QGList5countEv$w$PmGzvNFF8U6sY7uf1
Module: C:\200\trunk\lib\designercore.lib(qmake_image_collection.obj)
0001:00003034  __Z24qInitImages_designercorev
0001:00003084* __Z27qCleanupImages_designercorev
0001:00003160* __ZTV9QMemArrayIcE$w$VDbAjaOF8U6ycWDp0
0001:000030f0  __ZTV30MimeSourceFactory_designercore$w$VDbAjaOF8U6ycWDp0
0001:00003200  __ZN30MimeSourceFactory_designercoreD1Ev$w$VDbAjaOF8U6ycWDp0
0001:0000321c  __ZN30MimeSourceFactory_designercoreD0Ev$w$VDbAjaOF8U6ycWDp0
0001:00003244  __ZNK30MimeSourceFactory_designercore4dataERK7QString$w$VDbAjaOF8U6ycWDp0
0001:00003130* __ZTV6QGList$w$VDbAjaOF8U6ycWDp0
0001:000031cc* __ZNK6QGList5countEv$w$VDbAjaOF8U6ycWDp0
0001:000031b0* __ZN9QMemArrayIcED1Ev$w$VDbAjaOF8U6ycWDp0
0001:000031d8* __ZN9QMemArrayIcED0Ev$w$VDbAjaOF8U6ycWDp0
0001:0004d98c* __ZN9QMemArrayIcE6detachEv$w$VDbAjaOF8U6ycWDp0
Module: C:\200\trunk\lib\designercore.lib(mainwindow.obj)
0001:0004dab8* __Z13assistantPathv
0001:0004dd18* __ZN10MainWindowC2EbbRK7QString
0001:00050b54* __ZN10MainWindow8setupMDIEv
0001:00050cdc* __ZN10MainWindow12setupMenuBarEv
0001:00051b60* __ZN10MainWindow12setupToolboxEv
0001:00051168* __ZN10MainWindow17setupOutputWindowEv
0001:0005166c* __ZN10MainWindow14setupWorkspaceEv
0001:00051414* __ZN10MainWindow18setupHierarchyViewEv
0001:00051034* __ZN10MainWindow19setupPropertyEditorEv
0001:00051a0c* __ZN10MainWindow17setupActionEditorEv
0001:00051da4* __ZN10MainWindow13setupRMBMenusEv
0001:0005be68  __ZN10MainWindow16clipboardChangedEv
0001:0004e870  __ZN10MainWindowC1EbbRK7QString
0001:0004f3c8* __ZN10MainWindowD2Ev
0001:0004fb78  __ZN10MainWindowD1Ev
0001:00050334  __ZN10MainWindowD0Ev
0001:000520fc  __ZN10MainWindow12toolSelectedEP7QAction
0001:00055908  __ZN10MainWindow10formWindowEv
0001:00052150  __ZNK10MainWindow11currentToolEv
0001:000521c0  __ZN10MainWindow22runProjectPreconditionEv
0001:000545a8  __ZN10MainWindow9resetToolEv
0001:00052268  __ZN10MainWindow23runProjectPostconditionEP11QObjectList
0001:000522f8* __ZN10MainWindow19previewFormInternalEP6QStyleP8QPalette
0001:000529b8  __ZN10MainWindow11previewFormEv
0001:00052a10  __ZN10MainWindow11previewFormERK7QString
0001:000533f8  __ZN10MainWindow12helpContentsEv
0001:00053fdc  __ZN10MainWindow10helpManualEv
0001:000540b0  __ZN10MainWindow9helpAboutEv
0001:00054360  __ZN10MainWindow11helpAboutQtEv
0001:000543ac  __ZN10MainWindow12helpRegisterEv
0001:000543b4  __ZN10MainWindow14showPropertiesEP7QObject
0001:00055870  __ZNK10MainWindow18isAFormWindowChildEP7QObject
0001:000545cc  __ZN10MainWindow16updatePropertiesEP7QObject
0001:00054628  __ZN10MainWindow11eventFilterEP7QObjectP6QEvent
0001:000558c8  __ZNK10MainWindow15isAToolBarChildEP7QObject
0001:000573a0  __ZNK10MainWindow10qWorkspaceEv
0001:000559f8  __ZN10MainWindow18emitProjectSignalsEv
0001:00055df0  __ZN10MainWindow16insertFormWindowEP10FormWindow
0001:00056638  __ZN10MainWindow19activeWindowChangedEP7QWidget
0001:00056120  __ZN10MainWindow16createNewProjectERK7QString
0001:000564b4  __ZN10MainWindow16unregisterClientEP10FormWindow
0001:0005bfac  __ZN10MainWindow16selectionChangedEv
0001:00056f94  __ZN10MainWindow14updateUndoRedoEbbRK7QStringS2_
0001:000572f4  __ZN10MainWindow20updateEditorUndoRedoEv
0001:000573b0  __ZN10MainWindow19popupFormWindowMenuERK6QPointP10FormWindow
0001:00058b48* __ZN10MainWindow23setupRMBSpecialCommandsER10QValueListIjER4QMapI7QStringiEP10FormWindow
0001:0005777c* __ZN10MainWindow18setupRMBPropertiesER10QValueListIjER4QMapI7QStringiEP7QWidget
0001:000592d4* __ZN10MainWindow19handleRMBPropertiesEiR4QMapI7QStringiEP7QWidget
0001:0005b3a4* __ZN10MainWindow24handleRMBSpecialCommandsEiR4QMapI7QStringiEP10FormWindow
0001:0005755c  __ZN10MainWindow15popupWidgetMenuERK6QPointP10FormWindowP7QWidget
0001:00057fa4* __ZN10MainWindow23setupRMBSpecialCommandsER10QValueListIjER4QMapI7QStringiEP7QWidget
0001:0005a338* __ZN10MainWindow24handleRMBSpecialCommandsEiR4QMapI7QStringiEP7QWidget
0001:0005cbf0* __ZN10MainWindow11writeConfigEv
0001:0006a3c0* __ZN10MainWindow18setPluginDirectoryERK7QString
0001:000672e8* __ZN10MainWindow19setupPluginManagersEv
0001:00065cdc* __ZN10MainWindow18setupActionManagerEv
0001:0005f510* __ZN10MainWindow10readConfigEv
0001:000682bc* __ZN10MainWindow9enableAllEb
0001:00064c5c  __ZNK10MainWindow17documentationPathEv
0001:00062bec* __ZN10MainWindow10openEditorEP7QWidgetP10FormWindow
0001:00065188* __ZN10MainWindow14checkTempFilesEv
0001:00062b3c  __ZNK10MainWindow9workspaceEv
0001:000691f8  __ZN10MainWindow19openProjectSettingsEP7Project
0001:00067120  __ZN10MainWindow17addRecentlyOpenedERK7QStringR11QStringList
0001:00064d60  __ZN10MainWindow15projectSelectedEP7QAction
0001:00062340  __ZNK10MainWindow15objectHierarchyEv
0001:000643b8  __ZN10MainWindow22rebuildCustomWidgetGUIEv
0001:000648f0  __ZN10MainWindow31rebuildCommonWidgetsToolBoxPageEv
0001:00062368  __ZN10MainWindow24setupNormalHierarchyMenuEP7QWidget
0001:000623e8  __ZN10MainWindow27setupTabWidgetHierarchyMenuEP7QWidgetPKcS3_
0001:000625a0  __ZN10MainWindow10closeEventEP11QCloseEvent
0001:00062b64  __ZNK10MainWindow14propertyeditorEv
0001:00062b8c  __ZNK10MainWindow12actioneditorEv
0001:00066154  __ZN10MainWindow12editFunctionERK7QStringb
0001:000649f8  __ZN10MainWindow18isCustomWidgetUsedEPN12MetaDataBase12CustomWidgetE
0001:00064ac4  __ZN10MainWindow7setGridERK6QPoint
0001:00064b94  __ZN10MainWindow11setShowGridEb
0001:00064c3c  __ZN10MainWindow11setSnapGridEb
0001:00064cec  __ZN10MainWindow20windowsMenuActivatedEi
0001:00064e1c  __ZN10MainWindow11openProjectERK7QString
0001:000658e8  __ZN10MainWindow14showDialogHelpEv
0001:00066454  __ZN10MainWindow22setupRecentlyFilesMenuEv
0001:0006650c  __ZN10MainWindow25setupRecentlyProjectsMenuEv
0001:000665c4  __ZNK10MainWindow11projectListEv
0001:00066648  __ZNK10MainWindow12projectNamesEv
0001:0006673c  __ZNK10MainWindow16projectFileNamesEv
0001:00066874  __ZNK10MainWindow11findProjectERK7QString
0001:00066918  __ZN10MainWindow17setCurrentProjectEP7Project
0001:000669bc  __ZN10MainWindow27setCurrentProjectByFilenameERK7QString
0001:00066b20  __ZN10MainWindow26recentlyFilesMenuActivatedEi
0001:00066e5c  __ZN10MainWindow29recentlyProjectsMenuActivatedEi
0001:000672bc  __ZN10MainWindow23templateWizardInterfaceERK7QString
0001:00067a98* __ZN10MainWindow13addProjectTabEP7QWidgetRK7QStringP7QObjectPKcS8_
0001:000679bc* __ZN10MainWindow17addPreferencesTabEP7QWidgetRK7QStringP7QObjectPKcS8_
0001:00067b74  __ZN10MainWindow11setModifiedEbP7QWidget
0001:00067c4c  __ZN10MainWindow12editorClosedEP12SourceEditor
0001:00067c7c  __ZN10MainWindow16functionsChangedEv
0001:00067c9c  __ZN10MainWindow18doFunctionsChangedEv
0001:00067cec  __ZN10MainWindow18updateFunctionListEv
0001:00067e80* __ZN10MainWindow15updateWorkspaceEv
0001:00067e9c  __ZN10MainWindow13showDebugStepEP7QObjecti
0001:00068394  __ZN10MainWindow14showSourceLineEP7QObjectiNS_8LineModeE
0001:00067f00  __ZN10MainWindow14showStackFrameEP7QObjecti
0001:00067f28  __ZN10MainWindow16showErrorMessageEP7QObjectiRK7QString
0001:00068210  __ZN10MainWindow11finishedRunEv
0001:00068960  __ZN10MainWindow14findRealObjectEP7QObject
0001:00068bdc  __ZN10MainWindow15formNameChangedEP10FormWindow
0001:00068c6c  __ZN10MainWindow18breakPointsChangedEv
0001:00069010  __ZNK10MainWindow27currentLayoutDefaultSpacingEv
0001:0006904c  __ZNK10MainWindow26currentLayoutDefaultMarginEv
0001:00069088  __ZN10MainWindow18saveAllBreakPointsEv
0001:000690d4  __ZN10MainWindow16resetBreakPointsEv
0001:00069114  __ZN10MainWindow10sourceFileEv
0001:00069628  __ZN10MainWindow16popupProjectMenuERK6QPoint
0001:00069648  __ZNK10MainWindow15sourceTemplatesEv
0001:0006966c  __ZN10MainWindow23sourceTemplateInterfaceERK7QString
0001:000696b4  __ZN10MainWindow13whatsThisFromERK7QString
0001:0006987c* __ZN10MainWindow16setSingleProjectEP7Project
0001:00069c18* __ZN10MainWindow12shuttingDownEv
0001:00069c7c* __ZN10MainWindow12showGUIStuffEb
0001:0006a39c* __ZN10MainWindow18setEditorsReadOnlyEb
0001:0006a420* __ZN10MainWindow20toggleSignalHandlersEb
0002:00002380  __ZN10MainWindow4selfE
0001:00050328  __ZThn40_N10MainWindowD1Ev$w$JZBQ0YzF8U651yu50
0001:00050af0  __ZThn40_N10MainWindowD0Ev$w$JZBQ0YzF8U651yu50
0001:0006a450  __ZN11QMapPrivateIP7QActionP7ProjectEC1Ev$w$JZBQ0YzF8U651yu50
0001:0006cc90  __ZTV8QPtrListI8QToolBarE$w$JZBQ0YzF8U651yu50
0001:0006a4c8  __ZN11QMapPrivateI7QStringS0_EC1Ev$w$JZBQ0YzF8U651yu50
0001:0006cc50  __ZTV8QPtrListI12SourceEditorE$w$JZBQ0YzF8U651yu50
0001:0006a574  __ZN17QValueListPrivateI7QStringEC1Ev$w$JZBQ0YzF8U651yu50
0001:0006a650  __ZN17QValueListPrivateIN10MainWindow3TabEEC1Ev$w$JZBQ0YzF8U651yu50
0001:0006ccd0  __ZTV11QObjectList$w$JZBQ0YzF8U651yu50
0001:0006cc10  __ZTV8QPtrListI7QActionE$w$JZBQ0YzF8U651yu50
0001:0006a7d0  __ZN12QMapIteratorIP7QActionP7ProjectE3incEv$w$JZBQ0YzF8U651yu50
0001:0006a72c  __ZN4QMapIP7QActionP7ProjectE5clearEv$w$JZBQ0YzF8U651yu50
0001:0006cd10  __ZTV8QPtrListI7QObjectE$w$JZBQ0YzF8U651yu50
0001:0006a538  __ZN11QMapPrivateI7QStringS0_E5clearEv$w$JZBQ0YzF8U651yu50
0001:0006a48c  __ZN11QMapPrivateIP7QActionP7ProjectE5clearEv$w$JZBQ0YzF8U651yu50
0001:0006a5c0* __ZN17QValueListPrivateI7QStringED1Ev$w$JZBQ0YzF8U651yu50
0001:0006a69c  __ZN17QValueListPrivateIN10MainWindow3TabEED1Ev$w$JZBQ0YzF8U651yu50
0001:0006a7a0  __ZN4QMapIP7QActionP7ProjectE14detachInternalEv$w$JZBQ0YzF8U651yu50
0001:0006a770  __ZN10QValueListIN10MainWindow3TabEE14detachInternalEv$w$JZBQ0YzF8U651yu50
0001:0006a864  __ZNK17QValueListPrivateI7QStringE2atEj$w$JZBQ0YzF8U651yu50
0001:0006a8dc  __ZN17QValueListPrivateI7QStringE6insertE18QValueListIteratorIS0_ERKS0_$w$JZBQ0YzF8U651yu50
0001:0006a8ac  __ZN10QValueListI7QStringE14detachInternalEv$w$JZBQ0YzF8U651yu50
0001:0006ce80  __ZTV9QMemArrayIcE$w$JZBQ0YzF8U651yu50
0001:0006a938  __ZN17QValueListPrivateIN8Resource5ImageEEC1Ev$w$JZBQ0YzF8U651yu50
0001:0006a98c  __ZN17QValueListPrivateIN8Resource5ImageEED1Ev$w$JZBQ0YzF8U651yu50
0001:0006aa38  __ZN4QMapI7QStringS0_EixERKS0_$w$JZBQ0YzF8U651yu50
0001:0006aae8  __ZNK11QMapPrivateI7QStringS0_E4findERKS0_$w$JZBQ0YzF8U651yu50
0001:0006cd50  __ZTV11QWidgetList$w$JZBQ0YzF8U651yu50
0001:0006cd90  __ZTV8QPtrListI7QWidgetE$w$JZBQ0YzF8U651yu50
0001:0006ab6c  __Z7qt_castIP12SourceEditorET_PK7QObject$w$JZBQ0YzF8U651yu50
0001:0006ab88  __Z7qt_castIP13MenuBarEditorET_PK7QObject$w$JZBQ0YzF8U651yu50
0001:0006aba4  __Z7qt_castIP15PopupMenuEditorET_PK7QObject$w$JZBQ0YzF8U651yu50
0001:0006abc0  __Z7qt_castIP12PropertyListET_PK7QObject$w$JZBQ0YzF8U651yu50
0001:0006ac84  __Z7qt_castIP9QSizeGripET_PK7QObject$w$JZBQ0YzF8U651yu50
0001:0006aca0  __Z7qt_castIP10SizeHandleET_PK7QObject$w$JZBQ0YzF8U651yu50
0001:0006acbc  __Z7qt_castIP14OrderIndicatorET_PK7QObject$w$JZBQ0YzF8U651yu50
0001:0006ac14  __Z7qt_castIP11QToolButtonET_PK7QObject$w$JZBQ0YzF8U651yu50
0001:0006acf4  __Z7qt_castIP8QToolBarET_PK7QObject$w$JZBQ0YzF8U651yu50
0001:0006acd8  __Z7qt_castIP8QMenuBarET_PK7QObject$w$JZBQ0YzF8U651yu50
0001:0006ac68  __Z7qt_castIP10FormWindowET_PK7QObject$w$JZBQ0YzF8U651yu50
0001:0006abdc  __Z7qt_castIP16QDesignerToolBarET_PK7QObject$w$JZBQ0YzF8U651yu50
0001:0006abf8  __Z7qt_castIP9QComboBoxET_PK7QObject$w$JZBQ0YzF8U651yu50
0001:0006ac30  __Z7qt_castIP25QDesignerToolBarSeparatorET_PK7QObject$w$JZBQ0YzF8U651yu50
0001:0006ac4c  __Z7qt_castIP20QDesignerWidgetStackET_PK7QObject$w$JZBQ0YzF8U651yu50
0001:0006ad10  __Z7qt_castIP7QWizardET_PK7QObject$w$JZBQ0YzF8U651yu50
0001:0006ad2c  __Z7qt_castIP11QPushButtonET_PK7QObject$w$JZBQ0YzF8U651yu50
0001:0006ad48  __ZN4QMapIP7QActionP7ProjectE6insertERKS1_RKS3_b$w$JZBQ0YzF8U651yu50
0001:0006adac  __Z7qt_castIP11QMainWindowET_PK7QObject$w$JZBQ0YzF8U651yu50
0001:0006adc8  __ZN17QMapConstIteratorIP7QActionP7ProjectE3incEv$w$JZBQ0YzF8U651yu50
0001:0006ae14  __ZN17QValueListPrivateIjEC1Ev$w$JZBQ0YzF8U651yu50
0001:0006ae80  __ZN11QMapPrivateI7QStringiEC1Ev$w$JZBQ0YzF8U651yu50
0001:0006aed8  __ZN11QMapPrivateI7QStringiE5clearEv$w$JZBQ0YzF8U651yu50
0001:0006ae44  __ZN17QValueListPrivateIjED1Ev$w$JZBQ0YzF8U651yu50
0001:0006af14  __ZN10QValueListIjE14detachInternalEv$w$JZBQ0YzF8U651yu50
0001:0006afc4  __ZN17QValueListPrivateIjE6insertE18QValueListIteratorIjERKj$w$JZBQ0YzF8U651yu50
0001:0006af44  __ZN4QMapI7QStringiE6insertERKS0_RKib$w$JZBQ0YzF8U651yu50
0001:0006afa8  __Z7qt_castIP9QTextEditET_PK7QObject$w$JZBQ0YzF8U651yu50
0001:0006b014  __Z7qt_castIP10QTabWidgetET_PK7QObject$w$JZBQ0YzF8U651yu50
0001:0006b030  __Z7qt_castIP8QToolBoxET_PK7QObject$w$JZBQ0YzF8U651yu50
0001:0006b04c  __ZN4QMapI7QStringiEixERKS0_$w$JZBQ0YzF8U651yu50
0001:0006b0c0  __Z7qt_castIP6QLabelET_PK7QObject$w$JZBQ0YzF8U651yu50
0001:0006b0dc  __Z7qt_castIP9QTextViewET_PK7QObject$w$JZBQ0YzF8U651yu50
0001:0006b0f8  __Z7qt_castIP7QButtonET_PK7QObject$w$JZBQ0YzF8U651yu50
0001:0006b114  __Z7qt_castIP12QWidgetStackET_PK7QObject$w$JZBQ0YzF8U651yu50
0001:0006b190  __ZN10QValueListIN12MetaDataBase8PropertyEE14detachInternalEv$w$JZBQ0YzF8U651yu50
0001:0006b160  __ZN10QValueListIN12MetaDataBase8FunctionEE14detachInternalEv$w$JZBQ0YzF8U651yu50
0001:0006b130  __ZN10QValueListI8QCStringE14detachInternalEv$w$JZBQ0YzF8U651yu50
0001:0006b204  __ZN17QValueListPrivateI8QCStringE6insertE18QValueListIteratorIS0_ERKS0_$w$JZBQ0YzF8U651yu50
0001:0006b268  __ZN17QValueListPrivateIN12MetaDataBase8FunctionEE6insertE18QValueListIteratorIS1_ERKS1_$w$JZBQ0YzF8U651yu50
0001:0006b318  __ZN17QValueListPrivateIN12MetaDataBase8PropertyEE6insertE18QValueListIteratorIS1_ERKS1_$w$JZBQ0YzF8U651yu50
0001:0006b1c0  __ZN10QValueListI7QStringE5clearEv$w$JZBQ0YzF8U651yu50
0001:0006cdd0  __ZTV8QStrList$w$JZBQ0YzF8U651yu50
0001:0006ce10  __ZTV8QPtrListIcE$w$JZBQ0YzF8U651yu50
0001:0006b388  __ZNK11QMapPrivateIP7QActionP7ProjectE4findERKS1_$w$JZBQ0YzF8U651yu50
0001:0006b3d8  __Z7qt_castIP11NewFormBaseET_PK7QObject$w$JZBQ0YzF8U651yu50
0001:0006b3f4  __Z7qt_castIP15StartDialogBaseET_PK7QObject$w$JZBQ0YzF8U651yu50
0001:0006b410  __Z7qt_castIP14CreateTemplateET_PK7QObject$w$JZBQ0YzF8U651yu50
0001:0006b42c  __Z7qt_castIP17EditFunctionsBaseET_PK7QObject$w$JZBQ0YzF8U651yu50
0001:0006b448  __Z7qt_castIP16FormSettingsBaseET_PK7QObject$w$JZBQ0YzF8U651yu50
0001:0006b464  __Z7qt_castIP11PreferencesET_PK7QObject$w$JZBQ0YzF8U651yu50
0001:0006b480  __Z7qt_castIP22PixmapCollectionEditorET_PK7QObject$w$JZBQ0YzF8U651yu50
0001:0006b49c  __Z7qt_castIP19ProjectSettingsBaseET_PK7QObject$w$JZBQ0YzF8U651yu50
0001:0006b4b8  __Z7qt_castIP10FindDialogET_PK7QObject$w$JZBQ0YzF8U651yu50
0001:0006b4d4  __Z7qt_castIP13ReplaceDialogET_PK7QObject$w$JZBQ0YzF8U651yu50
0001:0006b4f0  __Z7qt_castIP14GotoLineDialogET_PK7QObject$w$JZBQ0YzF8U651yu50
0001:0006b50c  __Z7qt_castIP22CustomWidgetEditorBaseET_PK7QObject$w$JZBQ0YzF8U651yu50
0001:0006b528  __Z7qt_castIP17PaletteEditorBaseET_PK7QObject$w$JZBQ0YzF8U651yu50
0001:0006b544  __Z7qt_castIP17ListBoxEditorBaseET_PK7QObject$w$JZBQ0YzF8U651yu50
0001:0006b560  __Z7qt_castIP18ListViewEditorBaseET_PK7QObject$w$JZBQ0YzF8U651yu50
0001:0006b57c  __Z7qt_castIP18IconViewEditorBaseET_PK7QObject$w$JZBQ0YzF8U651yu50
0001:0006b598  __Z7qt_castIP15TableEditorBaseET_PK7QObject$w$JZBQ0YzF8U651yu50
0001:0006b5b4  __Z7qt_castIP15MultiLineEditorET_PK7QObject$w$JZBQ0YzF8U651yu50
0001:0006cbd0  __ZTV8QPtrListI15DesignerProjectE$w$JZBQ0YzF8U651yu50
0001:0006b5e0  __ZN17QValueListPrivateI7QStringE6removeE18QValueListIteratorIS0_E$w$JZBQ0YzF8U651yu50
0001:0006b668  __ZNK17QValueListPrivateI7QStringE4findEP14QValueListNodeIS0_ERKS0_$w$JZBQ0YzF8U651yu50
0001:0006b6c0  __ZN17QValueListPrivateI7QStringE6removeERKS0_$w$JZBQ0YzF8U651yu50
0001:0006b738  __ZN17QValueListPrivateIN10MainWindow3TabEE6insertE18QValueListIteratorIS1_ERKS1_$w$JZBQ0YzF8U651yu50
0001:0006b7b4  __ZN17QValueListPrivateIN17LanguageInterface10ConnectionEEC1Ev$w$JZBQ0YzF8U651yu50
0001:0006b82c  __ZN17QValueListPrivateIN17LanguageInterface10ConnectionEED1Ev$w$JZBQ0YzF8U651yu50
0001:0006b948  __Z7qt_castIP10SourceFileET_PK7QObject$w$JZBQ0YzF8U651yu50
0001:0006b964  __ZNK11QMapPrivateIP7QWidget7QStringE4findERKS1_$w$JZBQ0YzF8U651yu50
0001:0006b9b4  __ZN4QMapIP7QWidget7QStringE14detachInternalEv$w$JZBQ0YzF8U651yu50
0001:0006b9e4  __ZN11QMapPrivateIP7QActionP7ProjectE5clearEP8QMapNodeIS1_S3_E$w$JZBQ0YzF8U651yu50
0001:0006ba20  __ZN11QMapPrivateI7QStringS0_E5clearEP8QMapNodeIS0_S0_E$w$JZBQ0YzF8U651yu50
0001:0006baa4  __ZN17QValueListPrivateIN10MainWindow3TabEEC1ERKS2_$w$JZBQ0YzF8U651yu50
0001:0006bb38  __ZN11QMapPrivateIP7QActionP7ProjectEC1EPKS4_$w$JZBQ0YzF8U651yu50
0001:0006bbd0  __ZN17QValueListPrivateI7QStringEC1ERKS1_$w$JZBQ0YzF8U651yu50
0001:0006bc64  __ZN4QMapI7QStringS0_E6insertERKS0_S3_b$w$JZBQ0YzF8U651yu50
0001:0006bcd0  __ZN4QMapI7QStringS0_E14detachInternalEv$w$JZBQ0YzF8U651yu50
0001:0006bd00  __ZN11QMapPrivateIP7QActionP7ProjectE12insertSingleERKS1_$w$JZBQ0YzF8U651yu50
0001:0006bd9c  __ZN11QMapPrivateI7QStringiE5clearEP8QMapNodeIS0_iE$w$JZBQ0YzF8U651yu50
0001:0006be00  __ZN17QValueListPrivateIjEC1ERKS0_$w$JZBQ0YzF8U651yu50
0001:0006be7c  __ZN11QMapPrivateI7QStringiE12insertSingleERKS0_$w$JZBQ0YzF8U651yu50
0001:0006bf30  __ZN4QMapI7QStringiE14detachInternalEv$w$JZBQ0YzF8U651yu50
0001:0006bf60  __ZNK11QMapPrivateI7QStringiE4findERKS0_$w$JZBQ0YzF8U651yu50
0001:0006bfe4  __ZN17QValueListPrivateI8QCStringEC1ERKS1_$w$JZBQ0YzF8U651yu50
0001:0006c074  __ZN17QValueListPrivateIN12MetaDataBase8FunctionEEC1ERKS2_$w$JZBQ0YzF8U651yu50
0001:0006c188  __ZN17QValueListPrivateIN12MetaDataBase8PropertyEEC1ERKS2_$w$JZBQ0YzF8U651yu50
0001:0006c230  __ZN17QValueListPrivateI7QStringE5clearEv$w$JZBQ0YzF8U651yu50
0001:0006c294  __ZN11QMapPrivateIP7QWidget7QStringEC1EPKS3_$w$JZBQ0YzF8U651yu50
0001:0006c344  __ZN11QMapPrivateIP7QActionP7ProjectE4copyEP8QMapNodeIS1_S3_E$w$JZBQ0YzF8U651yu50
0001:0006c3cc  __ZN11QMapPrivateI7QStringS0_E12insertSingleERKS0_$w$JZBQ0YzF8U651yu50
0001:0006c480  __ZN11QMapPrivateI7QStringS0_EC1EPKS1_$w$JZBQ0YzF8U651yu50
0001:0006c54c  __ZN11QMapPrivateIP7QActionP7ProjectE6insertEP12QMapNodeBaseS6_RKS1_$w$JZBQ0YzF8U651yu50
0001:0006c5e0  __ZN12QMapIteratorIP7QActionP7ProjectE3decEv$w$JZBQ0YzF8U651yu50
0001:0006c638  __ZN11QMapPrivateI7QStringiE6insertEP12QMapNodeBaseS3_RKS0_$w$JZBQ0YzF8U651yu50
0001:0006c71c  __ZN12QMapIteratorI7QStringiE3decEv$w$JZBQ0YzF8U651yu50
0001:0006c774  __ZN11QMapPrivateI7QStringiEC1EPKS1_$w$JZBQ0YzF8U651yu50
0001:0006c824  __ZN11QMapPrivateIP7QWidget7QStringE4copyEP8QMapNodeIS1_S2_E$w$JZBQ0YzF8U651yu50
0001:0006c8d4  __ZN11QMapPrivateI7QStringS0_E6insertEP12QMapNodeBaseS3_RKS0_$w$JZBQ0YzF8U651yu50
0001:0006c9d8  __ZN12QMapIteratorI7QStringS0_E3decEv$w$JZBQ0YzF8U651yu50
0001:0006ca30  __ZN11QMapPrivateI7QStringS0_E4copyEP8QMapNodeIS0_S0_E$w$JZBQ0YzF8U651yu50
0001:0006cb10  __ZN11QMapPrivateI7QStringiE4copyEP8QMapNodeIS0_iE$w$JZBQ0YzF8U651yu50
0001:0006d440  __ZNK8QPtrListI15DesignerProjectE5countEv$w$JZBQ0YzF8U651yu50
0001:0006d404  __ZN8QPtrListI15DesignerProjectE5clearEv$w$JZBQ0YzF8U651yu50
0001:0006d3dc  __ZN8QPtrListI15DesignerProjectED1Ev$w$JZBQ0YzF8U651yu50
0001:0006d410  __ZN8QPtrListI15DesignerProjectED0Ev$w$JZBQ0YzF8U651yu50
0001:0006d44c  __ZN8QPtrListI15DesignerProjectE10deleteItemEPv$w$JZBQ0YzF8U651yu50
0001:0006cc00  __ZTV19QTextCommandHistory$w$JZBQ0YzF8U651yu50
0001:0006d10c  __ZN19QTextCommandHistoryD1Ev$w$JZBQ0YzF8U651yu50
0001:0006d150  __ZN19QTextCommandHistoryD0Ev$w$JZBQ0YzF8U651yu50
0001:0006d46c  __ZNK8QPtrListI7QActionE5countEv$w$JZBQ0YzF8U651yu50
0001:0006d2bc  __ZN8QPtrListI7QActionE5clearEv$w$JZBQ0YzF8U651yu50
0001:0006d0e4  __ZN8QPtrListI7QActionED1Ev$w$JZBQ0YzF8U651yu50
0001:0006d2c8  __ZN8QPtrListI7QActionED0Ev$w$JZBQ0YzF8U651yu50
0001:0006d478  __ZN8QPtrListI7QActionE10deleteItemEPv$w$JZBQ0YzF8U651yu50
0001:0006d4a0  __ZNK8QPtrListI12SourceEditorE5countEv$w$JZBQ0YzF8U651yu50
0001:0006d228  __ZN8QPtrListI12SourceEditorE5clearEv$w$JZBQ0YzF8U651yu50
0001:0006d1c4  __ZN8QPtrListI12SourceEditorED1Ev$w$JZBQ0YzF8U651yu50
0001:0006d234  __ZN8QPtrListI12SourceEditorED0Ev$w$JZBQ0YzF8U651yu50
0001:0006d4ac  __ZN8QPtrListI12SourceEditorE10deleteItemEPv$w$JZBQ0YzF8U651yu50
0001:0006d4d4  __ZNK8QPtrListI8QToolBarE5countEv$w$JZBQ0YzF8U651yu50
0001:0006d1ec  __ZN8QPtrListI8QToolBarE5clearEv$w$JZBQ0YzF8U651yu50
0001:0006d19c  __ZN8QPtrListI8QToolBarED1Ev$w$JZBQ0YzF8U651yu50
0001:0006d1f8  __ZN8QPtrListI8QToolBarED0Ev$w$JZBQ0YzF8U651yu50
0001:0006d4e0  __ZN8QPtrListI8QToolBarE10deleteItemEPv$w$JZBQ0YzF8U651yu50
0001:0006d508  __ZNK8QPtrListI7QObjectE5countEv$w$JZBQ0YzF8U651yu50
0001:0006d068  __ZN8QPtrListI7QObjectE5clearEv$w$JZBQ0YzF8U651yu50
0001:0006d074  __ZN11QObjectListD1Ev$w$JZBQ0YzF8U651yu50
0001:0006d0a8  __ZN11QObjectListD0Ev$w$JZBQ0YzF8U651yu50
0001:0006d514  __ZN8QPtrListI7QObjectE10deleteItemEPv$w$JZBQ0YzF8U651yu50
0001:0006d264  __ZN8QPtrListI7QObjectED1Ev$w$JZBQ0YzF8U651yu50
0001:0006d28c  __ZN8QPtrListI7QObjectED0Ev$w$JZBQ0YzF8U651yu50
0001:0006d53c  __ZNK8QPtrListI7QWidgetE5countEv$w$JZBQ0YzF8U651yu50
0001:0006cfec  __ZN8QPtrListI7QWidgetE5clearEv$w$JZBQ0YzF8U651yu50
0001:0006cff8  __ZN11QWidgetListD1Ev$w$JZBQ0YzF8U651yu50
0001:0006d02c  __ZN11QWidgetListD0Ev$w$JZBQ0YzF8U651yu50
0001:0006d548  __ZN8QPtrListI7QWidgetE10deleteItemEPv$w$JZBQ0YzF8U651yu50
0001:0006d320  __ZN8QPtrListI7QWidgetED1Ev$w$JZBQ0YzF8U651yu50
0001:0006d348  __ZN8QPtrListI7QWidgetED0Ev$w$JZBQ0YzF8U651yu50
0001:0006d378  __ZNK8QPtrListIcE5countEv$w$JZBQ0YzF8U651yu50
0001:0006cec4  __ZN8QPtrListIcE5clearEv$w$JZBQ0YzF8U651yu50
0001:0006ced0  __ZN8QStrListD1Ev$w$JZBQ0YzF8U651yu50
0001:0006cf04  __ZN8QStrListD0Ev$w$JZBQ0YzF8U651yu50
0001:0006cf40  __ZN8QStrList7newItemEPv$w$JZBQ0YzF8U651yu50
0001:0006cf64  __ZN8QStrList10deleteItemEPv$w$JZBQ0YzF8U651yu50
0001:0006cf84  __ZN8QStrList12compareItemsEPvS0_$w$JZBQ0YzF8U651yu50
0001:0006cfb8  __ZN8QStrList4readER11QDataStreamRPv$w$JZBQ0YzF8U651yu50
0001:0006cfd4  __ZNK8QStrList5writeER11QDataStreamPv$w$JZBQ0YzF8U651yu50
0001:0006d384  __ZN8QPtrListIcED1Ev$w$JZBQ0YzF8U651yu50
0001:0006d3ac  __ZN8QPtrListIcED0Ev$w$JZBQ0YzF8U651yu50
0001:0006d570  __ZN8QPtrListIcE10deleteItemEPv$w$JZBQ0YzF8U651yu50
0001:0006ce50* __ZTV6QGList$w$JZBQ0YzF8U651yu50
0001:0006ceb8* __ZNK6QGList5countEv$w$JZBQ0YzF8U651yu50
0001:0006ce9c  __ZN9QMemArrayIcED1Ev$w$JZBQ0YzF8U651yu50
0001:0006d2f8  __ZN9QMemArrayIcED0Ev$w$JZBQ0YzF8U651yu50
0001:0006d590  __ZN9QMemArrayIcE6detachEv$w$JZBQ0YzF8U651yu50
0001:0006d5b0  __ZTV8QPtrListI12QTextCommandE$w$JZBQ0YzF8U651yu50
0001:0006d610  __ZNK8QPtrListI12QTextCommandE5countEv$w$JZBQ0YzF8U651yu50
0001:0006d604  __ZN8QPtrListI12QTextCommandE5clearEv$w$JZBQ0YzF8U651yu50
0001:0006d5dc  __ZN8QPtrListI12QTextCommandED1Ev$w$JZBQ0YzF8U651yu50
0001:0006d61c  __ZN8QPtrListI12QTextCommandED0Ev$w$JZBQ0YzF8U651yu50
0001:0006d64c  __ZN8QPtrListI12QTextCommandE10deleteItemEPv$w$JZBQ0YzF8U651yu50
Module: C:\200\trunk\lib\designercore.lib(mainwindowactions.obj)
0001:0006dff0  __ZN10MainWindow16setupEditActionsEv
0001:00070188  __ZN10MainWindow18setupSearchActionsEv
0001:00070f34  __ZN10MainWindow18setupLayoutActionsEv
0001:00072b10  __ZN10MainWindow16setupToolActionsEv
0001:00075418  __ZN10MainWindow16setupFileActionsEv
0001:00077024  __ZN10MainWindow19setupProjectActionsEv
0001:00077d14  __ZN10MainWindow19setupPreviewActionsEv
0001:000787b4  __ZN10MainWindow18setupWindowActionsEv
0001:0007983c  __ZN10MainWindow16setupHelpActionsEv
0001:0007a3f0  __ZN10MainWindow7fileNewEv
0001:0007a58c  __ZN10MainWindow13fileNewDialogEv
0001:0007a96c  __ZN10MainWindow11fileNewFileEv
0001:0007aaec  __ZN10MainWindow8fileQuitEv
0001:0007ab28  __ZN10MainWindow9fileCloseEv
0001:0007ac0c  __ZN10MainWindow16fileCloseProjectEv
0001:0007b320  __ZN10MainWindow8fileOpenEv
0001:0007b588  __ZN10MainWindow8fileOpenERK7QStringS2_S2_b
0001:0007b3d4  __ZN10MainWindow17projectInsertFileEv
0001:0007cc04  __ZN10MainWindow14openFormWindowERK7QStringbP8FormFile
0001:0007d1dc  __ZN10MainWindow8fileSaveEv
0001:0007d378  __ZN10MainWindow15fileSaveProjectEv
0001:0007d218  __ZN10MainWindow12fileSaveFormEv
0001:0007d464  __ZN10MainWindow10fileSaveAsEv
0001:0007d520  __ZN10MainWindow11fileSaveAllEv
0001:0007d5e8  __ZN10MainWindow18fileCreateTemplateEv
0001:0007f684  __ZN10MainWindow10editSourceEP10SourceFile
0001:0007da14  __ZN10MainWindow17createNewTemplateEv
0001:0007e324  __ZN10MainWindow8editUndoEv
0001:0007e3b4  __ZN10MainWindow8editRedoEv
0001:0007e444  __ZN10MainWindow7editCutEv
0001:0007e4bc  __ZN10MainWindow8editCopyEv
0001:0007e920  __ZN10MainWindow10editDeleteEv
0001:0007e65c  __ZN10MainWindow9editPasteEv
0001:0007e958  __ZN10MainWindow13editSelectAllEv
0001:0007e9e8  __ZN10MainWindow9editLowerEv
0001:0007ea20  __ZN10MainWindow9editRaiseEv
0001:0007ea58  __ZN10MainWindow14editAdjustSizeEv
0001:0007ea90  __ZN10MainWindow20editLayoutHorizontalEv
0001:0007ece0  __ZN10MainWindow29editLayoutContainerHorizontalEv
0001:0007eae8  __ZN10MainWindow18editLayoutVerticalEv
0001:0007ec30  __ZN10MainWindow27editLayoutContainerVerticalEv
0001:0007eb40  __ZN10MainWindow25editLayoutHorizontalSplitEv
0001:0007eb8c  __ZN10MainWindow23editLayoutVerticalSplitEv
0001:0007ebd8  __ZN10MainWindow14editLayoutGridEv
0001:0007ed90  __ZN10MainWindow23editLayoutContainerGridEv
0001:0007ee40  __ZN10MainWindow15editBreakLayoutEv
0001:0007f02c  __ZN10MainWindow10editAccelsEv
0001:0007f088  __ZN10MainWindow13editFunctionsEv
0001:0007f240  __ZN10MainWindow15editConnectionsEv
0001:0007f2ec  __ZN10MainWindow10editSourceEv
0001:0007f3a8  __ZN10MainWindow16openSourceEditorEv
0001:0007f87c  __ZN10MainWindow18createSourceEditorEP7QObjectP7ProjectRK7QStringS6_b
0001:0007fa08  __ZN10MainWindow16editFormSettingsEv
0001:0007facc  __ZN10MainWindow19editProjectSettingsEv
0001:0007fafc  __ZN10MainWindow20editPixmapCollectionEv
0001:0007fb48  __ZN10MainWindow23editDatabaseConnectionsEv
0001:0007fbd8  __ZN10MainWindow15editPreferencesEv
0001:000806d4  __ZN10MainWindow10searchFindEv
0001:000808a8  __ZN10MainWindow24searchIncremetalFindMenuEv
0001:000808dc  __ZN10MainWindow20searchIncremetalFindEv
0001:00080984  __ZN10MainWindow24searchIncremetalFindNextEv
0001:00080a2c  __ZN10MainWindow13searchReplaceEv
0001:00080c04  __ZN10MainWindow14searchGotoLineEv
0001:00080e1c  __ZN10MainWindow17toolsCustomWidgetEv
0001:00080f44  __ZN10MainWindow14toolsConfigureEv
0001:00080f94  __ZN10MainWindow15showStartDialogEv
0001:00081110* __ZN4QMapIP7QActionP7ProjectE6insertERKS1_RKS3_b$w$tRRUqsAF8U6IGhu30
0001:00081174* __ZN17QValueListPrivateI7QStringED1Ev$w$tRRUqsAF8U6IGhu30
0001:00081204* __ZN10QValueListI7QStringE14detachInternalEv$w$tRRUqsAF8U6IGhu30
0001:00081234* __Z7qt_castIP10FormWindowET_PK7QObject$w$tRRUqsAF8U6IGhu30
0001:00081250* __Z7qt_castIP12SourceEditorET_PK7QObject$w$tRRUqsAF8U6IGhu30
0001:00081ff0* __ZTV11QWidgetList$w$tRRUqsAF8U6IGhu30
0001:00082030* __ZTV8QPtrListI7QWidgetE$w$tRRUqsAF8U6IGhu30
0001:00081f30  __ZTV8QPtrListI13QIconViewItemE$w$tRRUqsAF8U6IGhu30
0001:00081338* __ZN12QMapIteratorIP7QActionP7ProjectE3incEv$w$tRRUqsAF8U6IGhu30
0001:0008126c  __ZN4QMapIP7QActionP7ProjectE6removeERKS1_$w$tRRUqsAF8U6IGhu30
0001:00081308* __ZN4QMapIP7QActionP7ProjectE14detachInternalEv$w$tRRUqsAF8U6IGhu30
0001:00081418* __ZN17QValueListPrivateI7QStringEC1Ev$w$tRRUqsAF8U6IGhu30
0001:00081464* __ZN17QValueListPrivateI7QStringE6insertE18QValueListIteratorIS0_ERKS0_$w$tRRUqsAF8U6IGhu30
0001:00081384  __ZN10QValueListI7QStringEpLERKS1_$w$tRRUqsAF8U6IGhu30
0001:000814c0* __ZNK17QValueListPrivateI7QStringE4findEP14QValueListNodeIS0_ERKS0_$w$tRRUqsAF8U6IGhu30
0001:00081518  __ZN11QMapPrivateIP13QListViewItemiE5clearEv$w$tRRUqsAF8U6IGhu30
0001:00081554  __ZN17QValueListPrivateIN12MetaDataBase8FunctionEED1Ev$w$tRRUqsAF8U6IGhu30
0001:00081718  __ZN17QValueListPrivateIN13EditFunctions9FunctItemEED1Ev$w$tRRUqsAF8U6IGhu30
0001:000819b0* __ZN10QValueListIN10MainWindow3TabEE14detachInternalEv$w$tRRUqsAF8U6IGhu30
0001:00081f70* __ZTV11QObjectList$w$tRRUqsAF8U6IGhu30
0001:00081fb0* __ZTV8QPtrListI7QObjectE$w$tRRUqsAF8U6IGhu30
0001:000819e0  __ZN11QMapPrivateIP12QListBoxItemPN12MetaDataBase12CustomWidgetEE5clearEv$w$tRRUqsAF8U6IGhu30
0001:00081a1c* __ZN11QMapPrivateIP7QActionP7ProjectE12insertSingleERKS1_$w$tRRUqsAF8U6IGhu30
0001:00081ab8* __ZN17QValueListPrivateI7QStringEC1ERKS1_$w$tRRUqsAF8U6IGhu30
0001:00081b4c* __ZNK11QMapPrivateIP7QActionP7ProjectE4findERKS1_$w$tRRUqsAF8U6IGhu30
0001:00081b9c* __ZN11QMapPrivateIP7QActionP7ProjectEC1EPKS4_$w$tRRUqsAF8U6IGhu30
0001:00081c34  __ZN11QMapPrivateIP13QListViewItemiE5clearEP8QMapNodeIS1_iE$w$tRRUqsAF8U6IGhu30
0001:000821c4  __ZN7QStringD1Ev$w$tRRUqsAF8U6IGhu30
0001:00081c70* __ZN17QValueListPrivateIN10MainWindow3TabEEC1ERKS2_$w$tRRUqsAF8U6IGhu30
0001:00081d04  __ZN11QMapPrivateIP12QListBoxItemPN12MetaDataBase12CustomWidgetEE5clearEP8QMapNodeIS1_S4_E$w$tRRUqsAF8U6IGhu30
0001:00081d40* __ZN11QMapPrivateIP7QActionP7ProjectE6insertEP12QMapNodeBaseS6_RKS1_$w$tRRUqsAF8U6IGhu30
0001:00081dd4* __ZN12QMapIteratorIP7QActionP7ProjectE3decEv$w$tRRUqsAF8U6IGhu30
0001:00081e2c* __ZN11QMapPrivateIP7QActionP7ProjectE4copyEP8QMapNodeIS1_S3_E$w$tRRUqsAF8U6IGhu30
0001:00081eb4* __ZN17QValueListPrivateIN10MainWindow3TabEE6insertE18QValueListIteratorIS1_ERKS1_$w$tRRUqsAF8U6IGhu30
0001:00082410  __ZNK8QPtrListI13QIconViewItemE5countEv$w$tRRUqsAF8U6IGhu30
0001:0008237c  __ZN8QPtrListI13QIconViewItemE5clearEv$w$tRRUqsAF8U6IGhu30
0001:00082354  __ZN8QPtrListI13QIconViewItemED1Ev$w$tRRUqsAF8U6IGhu30
0001:00082388  __ZN8QPtrListI13QIconViewItemED0Ev$w$tRRUqsAF8U6IGhu30
0001:0008241c  __ZN8QPtrListI13QIconViewItemE10deleteItemEPv$w$tRRUqsAF8U6IGhu30
0001:00082444* __ZNK8QPtrListI7QObjectE5countEv$w$tRRUqsAF8U6IGhu30
0001:00082274* __ZN8QPtrListI7QObjectE5clearEv$w$tRRUqsAF8U6IGhu30
0001:00082280* __ZN11QObjectListD1Ev$w$tRRUqsAF8U6IGhu30
0001:000822b4* __ZN11QObjectListD0Ev$w$tRRUqsAF8U6IGhu30
0001:00082450* __ZN8QPtrListI7QObjectE10deleteItemEPv$w$tRRUqsAF8U6IGhu30
0001:000823b8* __ZN8QPtrListI7QObjectED1Ev$w$tRRUqsAF8U6IGhu30
0001:000823e0* __ZN8QPtrListI7QObjectED0Ev$w$tRRUqsAF8U6IGhu30
0001:000822f0* __ZNK8QPtrListI7QWidgetE5countEv$w$tRRUqsAF8U6IGhu30
0001:000821f8* __ZN8QPtrListI7QWidgetE5clearEv$w$tRRUqsAF8U6IGhu30
0001:00082204* __ZN11QWidgetListD1Ev$w$tRRUqsAF8U6IGhu30
0001:00082238* __ZN11QWidgetListD0Ev$w$tRRUqsAF8U6IGhu30
0001:00082478* __ZN8QPtrListI7QWidgetE10deleteItemEPv$w$tRRUqsAF8U6IGhu30
0001:000822fc* __ZN8QPtrListI7QWidgetED1Ev$w$tRRUqsAF8U6IGhu30
0001:00082324* __ZN8QPtrListI7QWidgetED0Ev$w$tRRUqsAF8U6IGhu30
0001:00082070* __ZTV6QGList$w$tRRUqsAF8U6IGhu30
0001:000821ec* __ZNK6QGList5countEv$w$tRRUqsAF8U6IGhu30
Module: C:\200\trunk\lib\designercore.lib(outputwindow.obj)
0001:000824e0* __ZN12OutputWindowC2EP7QWidget
0001:00082d0c* __ZN12OutputWindow10setupDebugEv
0001:00082820* __ZN12OutputWindow10setupErrorEv
0001:00082548  __ZN12OutputWindowC1EP7QWidget
0001:000825b0* __ZN12OutputWindowD2Ev
0001:00082618  __ZN12OutputWindowD1Ev
0001:00082688  __ZN12OutputWindowD0Ev
0001:000826fc  __ZN12OutputWindow12shuttingDownEv
0001:00082da8  __ZN12OutputWindow16setErrorMessagesERK11QStringListRK10QValueListIjEbS2_RK11QObjectList
0001:0008328c* __ZN9ErrorItemC1EP9QListViewP13QListViewItemRK7QStringiS6_P7QObject
0001:00082f24  __ZN12OutputWindow5iFaceEv
0001:00082f30  __ZN12OutputWindow11appendDebugERK7QString
0001:00082fc8  __ZN12OutputWindow18clearErrorMessagesEv
0001:00082fe4  __ZN12OutputWindow10clearDebugEv
0001:00083000  __ZN12OutputWindow12showDebugTabEv
0001:0008301c  __ZN12OutputWindow19currentErrorChangedEP13QListViewItem
0001:000830b0* __ZN9ErrorItemC2EP9QListViewP13QListViewItemRK7QStringiS6_P7QObject
0001:00083468* __ZN9ErrorItem9paintCellEP8QPainterRK11QColorGroupiii
0002:00002400  _debugToStderr
0002:00002404* __ZN12OutputWindow13oldMsgHandlerE
0001:00082680  __ZThn40_N12OutputWindowD1Ev$w$3CAQynHF8U6zEpUu1
0001:000826f4  __ZThn40_N12OutputWindowD0Ev$w$3CAQynHF8U6zEpUu1
0001:0008350c* __ZN17QValueListPrivateI7QStringED1Ev$w$3CAQynHF8U6zEpUu1
0001:00083670* __ZTV11QObjectList$w$3CAQynHF8U6zEpUu1
0001:000836b0* __ZTV8QPtrListI7QObjectE$w$3CAQynHF8U6zEpUu1
0001:000835b0  __ZTV9ErrorItem$w$3CAQynHF8U6zEpUu1
0001:00083740  __ZN9ErrorItemD1Ev$w$3CAQynHF8U6zEpUu1
0001:0008375c  __ZN9ErrorItemD0Ev$w$3CAQynHF8U6zEpUu1
0001:00083728* __ZN13QListViewItem10removeItemEPS_$w$3CAQynHF8U6zEpUu1
0001:00083858* __ZNK8QPtrListI7QObjectE5countEv$w$3CAQynHF8U6zEpUu1
0001:00083784* __ZN8QPtrListI7QObjectE5clearEv$w$3CAQynHF8U6zEpUu1
0001:00083790* __ZN11QObjectListD1Ev$w$3CAQynHF8U6zEpUu1
0001:000837c4* __ZN11QObjectListD0Ev$w$3CAQynHF8U6zEpUu1
0001:00083864* __ZN8QPtrListI7QObjectE10deleteItemEPv$w$3CAQynHF8U6zEpUu1
0001:00083800* __ZN8QPtrListI7QObjectED1Ev$w$3CAQynHF8U6zEpUu1
0001:00083828* __ZN8QPtrListI7QObjectED0Ev$w$3CAQynHF8U6zEpUu1
0001:000836f0* __ZTV6QGList$w$3CAQynHF8U6zEpUu1
0001:0008371c* __ZNK6QGList5countEv$w$3CAQynHF8U6zEpUu1
Module: C:\200\trunk\lib\qui.lib(qwidgetfactory.obj)
0001:000858ec  __ZN14QWidgetFactoryC2Ev
0001:00085a54* __ZN14QWidgetFactoryC1Ev
0001:00085bbc  __ZN14QWidgetFactoryD2Ev
0001:00085f3c* __ZN14QWidgetFactoryD1Ev
0001:000862bc* __ZN14QWidgetFactoryD0Ev
0001:00086648* __ZN14QWidgetFactory6createERK7QStringP7QObjectP7QWidgetPKc
0001:000867d8  __ZN14QWidgetFactory6createEP9QIODeviceP7QObjectP7QWidgetPKc
0001:00086c0c* __ZN14QWidgetFactory16createFromUiFileE12QDomDocumentP7QObjectP7QWidgetPKc
0001:0008a768* __ZN14QWidgetFactory17createFromUibFileER11QDataStreamP7QObjectP7QWidgetPKc
0001:0008bdd8* __ZN14QWidgetFactory20createWidgetInternalERK11QDomElementP7QWidgetP7QLayoutRK7QString
0001:00090134* __ZN14QWidgetFactory12loadTabOrderERK11QDomElement
0001:0008f154* __ZN14QWidgetFactory15loadConnectionsERK11QDomElementP7QObject
0001:00092d34* __ZN14QWidgetFactory11loadMenuBarERK11QDomElement
0001:00092684* __ZN14QWidgetFactory12loadToolBarsERK11QDomElement
0001:00092518* __ZN14QWidgetFactory11loadActionsERK11QDomElement
0001:0008ea18* __ZN14QWidgetFactory19loadImageCollectionERK11QDomElement
0001:00087cb0* __ZN14QWidgetFactory12unpackUInt16ER11QDataStreamRt
0001:00087cf0* __ZN14QWidgetFactory12unpackUInt32ER11QDataStreamRj
0001:00087d34* __ZN14QWidgetFactory15unpackByteArrayER11QDataStreamR9QMemArrayIcE
0001:00087d78* __ZN14QWidgetFactory13unpackCStringERK11UibStrTableR11QDataStreamR8QCString
0001:00087dcc* __ZN14QWidgetFactory12unpackStringERK11UibStrTableR11QDataStreamR7QString
0001:00087f0c* __ZN14QWidgetFactory17unpackStringSplitERK11UibStrTableR11QDataStreamR7QString
0001:00087f8c* __ZN14QWidgetFactory13unpackVariantERK11UibStrTableR11QDataStreamR8QVariant
0001:0008ee18* __ZN14QWidgetFactory10loadPixmapERK7QString
0001:0008ed6c* __ZN14QWidgetFactory18loadFromCollectionERK7QString
0001:000885cc* __ZN14QWidgetFactory11inputSpacerERK11UibStrTableR11QDataStreamP7QLayout
0001:000889f0* __ZN14QWidgetFactory16inputColumnOrRowERK11UibStrTableR11QDataStreamP7QObjectb
0001:000902ec* __ZN14QWidgetFactory20createListViewColumnEP9QListViewRK7QStringRK7QPixmapbb
0001:00090434* __ZN14QWidgetFactory22createTableColumnOrRowEP6QTableRK7QStringRK7QPixmapS4_b
0001:00088ed4* __ZN14QWidgetFactory9inputItemERK11UibStrTableR11QDataStreamP7QObjectP13QListViewItem
0001:000893f4* __ZN14QWidgetFactory13inputMenuItemEPP7QObjectRK11UibStrTableR11QDataStreamP8QMenuBar
0001:000895bc* __ZN14QWidgetFactory11inputObjectEPP7QObjectRiRK11UibStrTableR11QDataStreamP7QWidgetS1_8QCString
0001:0008d0c0* __ZN14QWidgetFactory11setPropertyEP7QObjectRK7QString8QVariant
0001:0008cd68* __ZN14QWidgetFactory12createLayoutEP7QWidgetP7QLayoutNS_10LayoutTypeEb
0001:0008b18c  __ZN14QWidgetFactory16addWidgetFactoryEPS_
0001:0008b1b8* __ZNK14QWidgetFactory12createWidgetERK7QStringP7QWidgetPKc
0001:0008bcec* __ZN14QWidgetFactory7widgetsEv
0001:0008bd10* __ZN14QWidgetFactory14supportsWidgetERK7QString
0001:0008d014* __ZNK14QWidgetFactory10layoutTypeEP7QLayout
0001:0008dfa0* __ZN14QWidgetFactory12createSpacerERK11QDomElementP7QLayout
0001:0008d888* __ZN14QWidgetFactory11setPropertyEP7QObjectRK7QStringRK11QDomElement
0001:00091574* __ZN14QWidgetFactory10createItemERK11QDomElementP7QWidgetP13QListViewItem
0001:00090804* __ZN14QWidgetFactory12createColumnERK11QDomElementP7QWidget
0001:0008ef1c* __ZN14QWidgetFactory14loadColorGroupERK11QDomElement
0001:0008ee98* __ZN14QWidgetFactory10loadPixmapERK11QDomElement
0001:00093730* __ZN14QWidgetFactory10findActionERK7QString
0001:0009124c* __ZN14QWidgetFactory8loadItemERK11QDomElementR7QPixmapR7QStringRb
0001:00091e60* __ZN14QWidgetFactory15loadChildActionEP7QObjectRK11QDomElement
0001:00093130* __ZN14QWidgetFactory13loadPopupMenuEP10QPopupMenuRK11QDomElement
0001:00093728* __ZN14QWidgetFactory13loadFunctionsERK11QDomElement
0001:000937ec* __ZN14QWidgetFactory10loadImagesERK7QString
0001:000939fc* __ZN14QWidgetFactory15loadExtraSourceEv
0001:00093be8* __ZN14QWidgetFactory9translateEPKcS1_
0001:00093b74* __ZN14QWidgetFactory9translateERK7QStringS2_
0002:00001f10  _qwf_execute_code
0002:00002420  _qwf_forms
0002:00002424* _qwf_language
0002:00002428* _qwf_stays_on_top
0002:0000242c* _qwf_currFileName
0002:00002430* _qwf_form_object
0002:00002434  _qwf_plugin_dir
0001:00093c80* __ZN17QValueListPrivateI7QStringEC1Ev$w$dN93JDxF8U63elij0
0001:00093d5c* __ZN17QValueListPrivateI7QStringE6insertE18QValueListIteratorIS0_ERKS0_$w$dN93JDxF8U63elij0
0001:00093db8* __ZN10QValueListI7QStringE14detachInternalEv$w$dN93JDxF8U63elij0
0001:00093de8* __ZN11QMapPrivateI7QStringbEC1Ev$w$dN93JDxF8U63elij0
0001:00093c1c* __ZN4QMapI7QStringbE6insertERKS0_RKbb$w$dN93JDxF8U63elij0
0001:00093ccc* __ZN17QValueListPrivateI7QStringED1Ev$w$dN93JDxF8U63elij0
0001:00095e20* __ZTV9QMemArrayIcE$w$dN93JDxF8U63elij0
0001:00095cc8  __ZTV14QWidgetFactory$w$dN93JDxF8U63elij0
0001:00093e40  __ZN17QValueListPrivateIN14QWidgetFactory5ImageEEC1Ev$w$dN93JDxF8U63elij0
0001:00095cf0  __ZTV5QDictIbE$w$dN93JDxF8U63elij0
0001:00093f40* __ZN11QMapPrivateI7QString11QStringListEC1Ev$w$dN93JDxF8U63elij0
0001:00093ff0  __ZN11QMapPrivateIP7QWidgetN14QWidgetFactory19SqlWidgetConnectionEEC1Ev$w$dN93JDxF8U63elij0
0001:0009409c* __ZN11QMapPrivateI7QStringS0_EC1Ev$w$dN93JDxF8U63elij0
0001:00094148  __ZN11QMapPrivateIP6QTable10QValueListIN14QWidgetFactory5FieldEEEC1Ev$w$dN93JDxF8U63elij0
0001:00095d30* __ZTV8QPtrListI7QActionE$w$dN93JDxF8U63elij0
0001:0009410c* __ZN11QMapPrivateI7QStringS0_E5clearEv$w$dN93JDxF8U63elij0
0001:000941a4  __ZN11QMapPrivateIP6QTable10QValueListIN14QWidgetFactory5FieldEEE5clearEv$w$dN93JDxF8U63elij0
0001:00094060  __ZN11QMapPrivateIP7QWidgetN14QWidgetFactory19SqlWidgetConnectionEE5clearEv$w$dN93JDxF8U63elij0
0001:00093fb4* __ZN11QMapPrivateI7QString11QStringListE5clearEv$w$dN93JDxF8U63elij0
0001:00093e94  __ZN17QValueListPrivateIN14QWidgetFactory5ImageEED1Ev$w$dN93JDxF8U63elij0
0001:000941e0  __ZN17QValueListPrivateIN14QWidgetFactory5FieldEED1Ev$w$dN93JDxF8U63elij0
0001:000942d8  __ZN4QMapIP7QWidget7QStringE6insertERKS1_RKS2_b$w$dN93JDxF8U63elij0
0001:00094344  __ZN11QMapPrivateIP7QWidget7QStringEC1Ev$w$dN93JDxF8U63elij0
0001:000943cc* __ZN12QMapIteratorI7QStringS0_E3incEv$w$dN93JDxF8U63elij0
0001:0009439c* __ZN4QMapI7QStringS0_E14detachInternalEv$w$dN93JDxF8U63elij0
0001:00094418* __ZN17QValueListPrivateI7QPixmapEC1Ev$w$dN93JDxF8U63elij0
0001:000944bc* __ZN17QValueListPrivateI7QPixmapE6insertE18QValueListIteratorIS0_ERKS0_$w$dN93JDxF8U63elij0
0001:00094518* __ZN10QValueListI7QPixmapE14detachInternalEv$w$dN93JDxF8U63elij0
0001:00094458* __ZN17QValueListPrivateI7QPixmapED1Ev$w$dN93JDxF8U63elij0
0001:00094548  __ZN17QValueListPrivateIN14QWidgetFactory5ImageEE6insertE18QValueListIteratorIS1_ERKS1_$w$dN93JDxF8U63elij0
0001:000945b4  __ZN10QValueListIN14QWidgetFactory5ImageEE14detachInternalEv$w$dN93JDxF8U63elij0
0001:000945e4* __ZNK11QMapPrivateI7QStringbE4findERKS0_$w$dN93JDxF8U63elij0
0001:00094668* __ZN4QMapI7QStringbE14detachInternalEv$w$dN93JDxF8U63elij0
0001:00095d70* __ZTV8QStrList$w$dN93JDxF8U63elij0
0001:00095db0* __ZTV8QPtrListIcE$w$dN93JDxF8U63elij0
0001:00094698* __ZN4QMapI7QStringS0_E6insertERKS0_S3_b$w$dN93JDxF8U63elij0
0001:00094868  __ZN17QValueListPrivateIN14QWidgetFactory5FieldEEC1Ev$w$dN93JDxF8U63elij0
0001:000948d8  __ZNK11QMapPrivateIP6QTable10QValueListIN14QWidgetFactory5FieldEEE4findERKS1_$w$dN93JDxF8U63elij0
0001:00094704  __ZN4QMapIP6QTable10QValueListIN14QWidgetFactory5FieldEEE6removeERKS1_$w$dN93JDxF8U63elij0
0001:00094958  __ZN17QValueListPrivateIN14QWidgetFactory5FieldEE6insertE18QValueListIteratorIS1_ERKS1_$w$dN93JDxF8U63elij0
0001:000947d4  __ZN4QMapIP6QTable10QValueListIN14QWidgetFactory5FieldEEE6insertERKS1_RKS5_b$w$dN93JDxF8U63elij0
0001:000949d4  __ZN10QValueListIN14QWidgetFactory5FieldEE14detachInternalEv$w$dN93JDxF8U63elij0
0001:00094928  __ZN4QMapIP6QTable10QValueListIN14QWidgetFactory5FieldEEE14detachInternalEv$w$dN93JDxF8U63elij0
0001:00094a4c* __ZNK17QValueListPrivateI7QStringE2atEj$w$dN93JDxF8U63elij0
0001:00094a94* __ZNK17QValueListPrivateI7QPixmapE2atEj$w$dN93JDxF8U63elij0
0001:00094adc* __ZN11QMapPrivateI7QStringbE12insertSingleERKS0_$w$dN93JDxF8U63elij0
0001:00094b90* __ZN17QValueListPrivateI7QStringEC1ERKS1_$w$dN93JDxF8U63elij0
0001:00094c24* __ZN11QMapPrivateI7QString11QStringListE5clearEP8QMapNodeIS0_S1_E$w$dN93JDxF8U63elij0
0001:00094cb0  __ZN11QMapPrivateIP7QWidgetN14QWidgetFactory19SqlWidgetConnectionEE5clearEP8QMapNodeIS1_S3_E$w$dN93JDxF8U63elij0
0001:00094d3c* __ZN11QMapPrivateI7QStringS0_E5clearEP8QMapNodeIS0_S0_E$w$dN93JDxF8U63elij0
0001:00094dc0  __ZN11QMapPrivateIP6QTable10QValueListIN14QWidgetFactory5FieldEEE5clearEP8QMapNodeIS1_S5_E$w$dN93JDxF8U63elij0
0001:00094e2c  __ZN11QMapPrivateIP7QWidget7QStringE12insertSingleERKS1_$w$dN93JDxF8U63elij0
0001:00094ec8* __ZN4QMapIP7QWidget7QStringE14detachInternalEv$w$dN93JDxF8U63elij0
0001:00094ef8* __ZN11QMapPrivateI7QStringS0_EC1EPKS1_$w$dN93JDxF8U63elij0
0001:00094fc4* __ZN17QValueListPrivateI7QPixmapEC1ERKS1_$w$dN93JDxF8U63elij0
0001:00095050  __ZN17QValueListPrivateIN14QWidgetFactory5ImageEEC1ERKS2_$w$dN93JDxF8U63elij0
0001:000950f0* __ZN11QMapPrivateI7QStringbEC1EPKS1_$w$dN93JDxF8U63elij0
0001:000951a0* __ZN11QMapPrivateI7QStringS0_E12insertSingleERKS0_$w$dN93JDxF8U63elij0
0001:00095254  __ZN11QMapPrivateIP6QTable10QValueListIN14QWidgetFactory5FieldEEE12insertSingleERKS1_$w$dN93JDxF8U63elij0
0001:000952f0  __ZN11QMapPrivateIP6QTable10QValueListIN14QWidgetFactory5FieldEEEC1EPKS6_$w$dN93JDxF8U63elij0
0001:000953a4  __ZN17QValueListPrivateIN14QWidgetFactory5FieldEEC1ERKS2_$w$dN93JDxF8U63elij0
0001:00095464* __ZN11QMapPrivateI7QStringbE6insertEP12QMapNodeBaseS3_RKS0_$w$dN93JDxF8U63elij0
0001:00095548* __ZN12QMapIteratorI7QStringbE3decEv$w$dN93JDxF8U63elij0
0001:000955a0  __ZN11QMapPrivateIP7QWidget7QStringE6insertEP12QMapNodeBaseS5_RKS1_$w$dN93JDxF8U63elij0
0001:00095648  __ZN12QMapIteratorIP7QWidget7QStringE3decEv$w$dN93JDxF8U63elij0
0001:000956a0* __ZN11QMapPrivateIP7QWidget7QStringEC1EPKS3_$w$dN93JDxF8U63elij0
0001:00095750* __ZN11QMapPrivateI7QStringS0_E4copyEP8QMapNodeIS0_S0_E$w$dN93JDxF8U63elij0
0001:00095830* __ZN11QMapPrivateI7QStringbE4copyEP8QMapNodeIS0_bE$w$dN93JDxF8U63elij0
0001:000958e0* __ZN11QMapPrivateI7QStringS0_E6insertEP12QMapNodeBaseS3_RKS0_$w$dN93JDxF8U63elij0
0001:000959e4* __ZN12QMapIteratorI7QStringS0_E3decEv$w$dN93JDxF8U63elij0
0001:00095a3c  __ZN11QMapPrivateIP6QTable10QValueListIN14QWidgetFactory5FieldEEE6insertEP12QMapNodeBaseS8_RKS1_$w$dN93JDxF8U63elij0
0001:00095af4  __ZN12QMapIteratorIP6QTable10QValueListIN14QWidgetFactory5FieldEEE3decEv$w$dN93JDxF8U63elij0
0001:00095b4c  __ZN11QMapPrivateIP6QTable10QValueListIN14QWidgetFactory5FieldEEE4copyEP8QMapNodeIS1_S5_E$w$dN93JDxF8U63elij0
0001:00095c18* __ZN11QMapPrivateIP7QWidget7QStringE4copyEP8QMapNodeIS1_S2_E$w$dN93JDxF8U63elij0
0001:0009618c  __ZNK5QDictIbE5countEv$w$dN93JDxF8U63elij0
0001:000960bc  __ZN5QDictIbE5clearEv$w$dN93JDxF8U63elij0
0001:0009606c  __ZN5QDictIbED1Ev$w$dN93JDxF8U63elij0
0001:000960c8  __ZN5QDictIbED0Ev$w$dN93JDxF8U63elij0
0001:00096198  __ZN5QDictIbE10deleteItemEPv$w$dN93JDxF8U63elij0
0001:000961b8* __ZNK8QPtrListI7QActionE5countEv$w$dN93JDxF8U63elij0
0001:000960f8* __ZN8QPtrListI7QActionE5clearEv$w$dN93JDxF8U63elij0
0001:00096094* __ZN8QPtrListI7QActionED1Ev$w$dN93JDxF8U63elij0
0001:00096104* __ZN8QPtrListI7QActionED0Ev$w$dN93JDxF8U63elij0
0001:000961c4* __ZN8QPtrListI7QActionE10deleteItemEPv$w$dN93JDxF8U63elij0
0001:000961ec* __ZNK8QPtrListIcE5countEv$w$dN93JDxF8U63elij0
0001:00095f1c* __ZN8QPtrListIcE5clearEv$w$dN93JDxF8U63elij0
0001:00095f28* __ZN8QStrListD1Ev$w$dN93JDxF8U63elij0
0001:00095f5c* __ZN8QStrListD0Ev$w$dN93JDxF8U63elij0
0001:00095f98* __ZN8QStrList7newItemEPv$w$dN93JDxF8U63elij0
0001:00095fbc* __ZN8QStrList10deleteItemEPv$w$dN93JDxF8U63elij0
0001:00095fdc* __ZN8QStrList12compareItemsEPvS0_$w$dN93JDxF8U63elij0
0001:00096010* __ZN8QStrList4readER11QDataStreamRPv$w$dN93JDxF8U63elij0
0001:0009602c* __ZNK8QStrList5writeER11QDataStreamPv$w$dN93JDxF8U63elij0
0001:00096134* __ZN8QPtrListIcED1Ev$w$dN93JDxF8U63elij0
0001:0009615c* __ZN8QPtrListIcED0Ev$w$dN93JDxF8U63elij0
0001:000961f8* __ZN8QPtrListIcE10deleteItemEPv$w$dN93JDxF8U63elij0
0001:00095df0* __ZTV6QGList$w$dN93JDxF8U63elij0
0001:00095f10* __ZNK6QGList5countEv$w$dN93JDxF8U63elij0
0001:00095ef4* __ZN9QMemArrayIcED1Ev$w$dN93JDxF8U63elij0
0001:00096044* __ZN9QMemArrayIcED0Ev$w$dN93JDxF8U63elij0
0001:00096218* __ZN9QMemArrayIcE6detachEv$w$dN93JDxF8U63elij0
0001:00096230  __ZTV8QPtrListI14QWidgetFactoryE$w$dN93JDxF8U63elij0
0001:000962c0  __ZNK8QPtrListI14QWidgetFactoryE5countEv$w$dN93JDxF8U63elij0
0001:00096284  __ZN8QPtrListI14QWidgetFactoryE5clearEv$w$dN93JDxF8U63elij0
0001:0009625c  __ZN8QPtrListI14QWidgetFactoryED1Ev$w$dN93JDxF8U63elij0
0001:00096290  __ZN8QPtrListI14QWidgetFactoryED0Ev$w$dN93JDxF8U63elij0
0001:000962cc  __ZN8QPtrListI14QWidgetFactoryE10deleteItemEPv$w$dN93JDxF8U63elij0
Module: C:\200\trunk\lib\designercore.lib(moc_hierarchyview.obj)
0001:00096340* __ZNK13HierarchyList9classNameEv
0001:0009634c  __ZN13HierarchyList2trEPKcS1_
0001:0009638c* __ZN13HierarchyList6trUtf8EPKcS1_
0001:0009658c  __ZN13HierarchyList16staticMetaObjectEv
0001:000965e8  __ZN13HierarchyList7qt_castEPKc
0001:00096640  __ZN13HierarchyList9qt_invokeEiP8QUObject
0001:000966f0  __ZN13HierarchyList7qt_emitEiP8QUObject
0001:0009670c  __ZN13HierarchyList11qt_propertyEiiP8QVariant
0001:00096728* __ZN13HierarchyList18qt_static_propertyEP7QObjectiiP8QVariant
0001:00096744* __ZNK18FormDefinitionView9classNameEv
0001:00096750  __ZN18FormDefinitionView2trEPKcS1_
0001:00096790* __ZN18FormDefinitionView6trUtf8EPKcS1_
0001:00096894* __ZN18FormDefinitionView16staticMetaObjectEv
0001:000968f0* __ZN18FormDefinitionView7qt_castEPKc
0001:00096948* __ZN18FormDefinitionView9qt_invokeEiP8QUObject
0001:000969c8* __ZN18FormDefinitionView7qt_emitEiP8QUObject
0001:000969e4* __ZN18FormDefinitionView11qt_propertyEiiP8QVariant
0001:00096a00* __ZN18FormDefinitionView18qt_static_propertyEP7QObjectiiP8QVariant
0001:00096a18* __ZNK13HierarchyView9classNameEv
0001:00096a24  __ZN13HierarchyView2trEPKcS1_
0001:00096a64* __ZN13HierarchyView6trUtf8EPKcS1_
0001:00096bb8* __ZN13HierarchyView16staticMetaObjectEv
0001:00096c14* __ZN13HierarchyView7qt_castEPKc
0001:00096c6c  __ZN13HierarchyView6hiddenEv
0001:00096c8c* __ZN13HierarchyView9qt_invokeEiP8QUObject
0001:00096cf0* __ZN13HierarchyView7qt_emitEiP8QUObject
0001:00096d30* __ZN13HierarchyView11qt_propertyEiiP8QVariant
0001:00096d4c* __ZN13HierarchyView18qt_static_propertyEP7QObjectiiP8QVariant
0002:000024a0* __ZN13HierarchyList7metaObjE
0002:000024a4* __ZN18FormDefinitionView7metaObjE
0002:000024a8* __ZN13HierarchyView7metaObjE
0001:00096d70  __ZTV13HierarchyView$w$BXY5rkPF8U6WOSJS0
0001:000978d4  __ZNK13HierarchyView10metaObjectEv$w$BXY5rkPF8U6WOSJS0
0001:000976f8* __ZN7QWidget11setGeometryERK5QRect$w$BXY5rkPF8U6WOSJS0
0001:00097730* __ZN7QWidget9setWStateEj$w$BXY5rkPF8U6WOSJS0
0001:00097744* __ZN7QWidget9setWFlagsEj$w$BXY5rkPF8U6WOSJS0
0001:00096f90  __ZTV18FormDefinitionView$w$BXY5rkPF8U6WOSJS0
0001:000978c8  __ZNK18FormDefinitionView10metaObjectEv$w$BXY5rkPF8U6WOSJS0
0001:00097868  __ZN18FormDefinitionViewD1Ev$w$BXY5rkPF8U6WOSJS0
0001:00097894  __ZN18FormDefinitionViewD0Ev$w$BXY5rkPF8U6WOSJS0
0001:000977e0* __ZN13HierarchyList18drawContentsOffsetEP8QPainteriiiiii$w$BXY5rkPF8U6WOSJS0
0001:00097758* __ZN9QListView10removeItemEP13QListViewItem$w$BXY5rkPF8U6WOSJS0
0001:0009788c  __ZThn40_N18FormDefinitionViewD1Ev$w$BXY5rkPF8U6WOSJS0
0001:000978c0  __ZThn40_N18FormDefinitionViewD0Ev$w$BXY5rkPF8U6WOSJS0
0001:000972d0  __ZTV13HierarchyList$w$BXY5rkPF8U6WOSJS0
0001:000977d4  __ZNK13HierarchyList10metaObjectEv$w$BXY5rkPF8U6WOSJS0
0001:00097774  __ZN13HierarchyListD1Ev$w$BXY5rkPF8U6WOSJS0
0001:000977a0  __ZN13HierarchyListD0Ev$w$BXY5rkPF8U6WOSJS0
0001:00097798  __ZThn40_N13HierarchyListD1Ev$w$BXY5rkPF8U6WOSJS0
0001:000977cc  __ZThn40_N13HierarchyListD0Ev$w$BXY5rkPF8U6WOSJS0
0001:00097610* __ZTV6QGList$w$BXY5rkPF8U6WOSJS0
0001:000976ec* __ZNK6QGList5countEv$w$BXY5rkPF8U6WOSJS0
Module: C:\200\trunk\lib\designercore.lib(project.obj)
0001:00097910  __ZNK7Project7isDummyEv
0001:00097940* __ZN7ProjectC2ERK7QStringS2_P14QPluginManagerI24ProjectSettingsInterfaceEbS2_
0001:00099164  __ZN7Project11setFileNameERK7QStringb
0001:00097cc4  __ZN7ProjectC1ERK7QStringS2_P14QPluginManagerI24ProjectSettingsInterfaceEbS2_
0001:00098048* __ZN7ProjectD2Ev
0001:000a0110* __ZNK7Project17singleProjectModeEv
0001:0009f0d0* __ZN7Project17removeTempProjectEv
0001:000985e8  __ZN7ProjectD1Ev
0001:00098b88  __ZN7ProjectD0Ev
0001:00099130  __ZN7Project11setModifiedEb
0001:0009dbd0  __ZNK7Project8languageEv
0001:0009b5bc* __ZN7Project5clearEv
0001:0009a414* __ZN7Project5parseEv
0001:0009b6d0  __ZN7Project12makeAbsoluteERK7QString
0001:00099b20  __ZNK7Project8fileNameEb
0001:00099b54  __ZNK7Project19databaseDescriptionEv
0001:00099b74  __ZNK7Project11projectNameEv
0001:00099cec* __Z20parse_multiline_partRK7QStringS1_Pi
0001:0009e15c* __ZN7Project20readPlatformSettingsERK7QStringS2_R4QMapIS0_S0_E
0001:0009dc64* __ZN7Project20updateCustomSettingsEv
0001:0009da1c* __ZN7Project15loadConnectionsEv
0001:0009b5fc  __ZN7Project16removeSourceFileEP10SourceFile
0001:0009b65c  __ZN7Project22setDatabaseDescriptionERK7QString
0001:0009b670* __ZN7Project14setDescriptionERK7QString
0001:0009b684* __ZNK7Project11descriptionEv
0001:0009b6a4  __ZNK7Project7isValidEv
0001:0009b7a4  __ZN7Project12makeRelativeERK7QString
0001:0009be40  __ZN7Project4saveEb
0001:0009e578* __ZN7Project21writePlatformSettingsER7QStringRKS0_RK4QMapIS0_S0_E
0001:000a0130* __ZNK7Project16messageBoxParentEv
0001:0009e400* __ZN7Project22removePlatformSettingsER7QStringRKS0_
0001:0009da14* __ZN7Project15saveConnectionsEv
0001:0009da24  __ZN7Project12openDatabaseERK7QStringb
0001:0009da2c  __ZN7Project13closeDatabaseERK7QString
0001:0009da3c  __ZNK7Project8formListEb
0001:0009efac  __ZNK7Project17objectForFakeFormEP10FormWindow
0001:0009f050  __ZNK7Project21objectForFakeFormFileEP8FormFile
0001:0009db3c  __ZN7Project5iFaceEv
0001:0009db74  __ZN7Project11setLanguageERK7QString
0001:0009dbf0  __ZN7Project16setCustomSettingERK7QStringS2_
0001:0009dc30  __ZNK7Project13customSettingERK7QString
0001:0009dd24  __ZN7Project9setActiveEb
0001:0009dd40  __ZN7Project13addSourceFileEP10SourceFile
0001:0009dd74  __ZNK7Project14findSourceFileERK7QStringP10SourceFile
0001:0009de40  __ZNK7Project12findFormFileERK7QStringP8FormFile
0001:0009df0c  __ZN7Project14setIncludePathERK7QStringS2_
0001:0009df78  __ZN7Project7setLibsERK7QStringS2_
0001:0009dfb4  __ZN7Project10setDefinesERK7QStringS2_
0001:0009dff0  __ZN7Project9setConfigERK7QStringS2_
0001:0009e02c  __ZNK7Project6configERK7QString
0001:0009e064  __ZNK7Project4libsERK7QString
0001:0009e09c  __ZNK7Project7definesERK7QString
0001:0009e0d4  __ZNK7Project11includePathERK7QString
0001:0009e10c  __ZNK7Project7templteEv
0001:0009e130  __ZN7Project11setTemplateERK7QString
0001:0009e950  __ZN7Project11addFormFileEP8FormFile
0001:0009e984  __ZN7Project14removeFormFileEP8FormFile
0001:0009ea7c* __ZN7Project9addObjectEP7QObject
0001:000a05cc* __ZNK7Project6hasGUIEv
0001:0009eea8* __ZN7Project10setObjectsERK11QObjectList
0001:0009ef04* __ZN7Project12removeObjectEP7QObject
0001:0009ef60  __ZNK7Project7objectsEv
0001:0009ef8c  __ZNK7Project15fakeFormFileForEP7QObject
0001:0009f6f0* __ZN7Project18addAndEditFunctionERK7QStringS2_b
0001:0009ff84  __ZN7Project15hasParentObjectEP7QObject
0001:0009fff4  __ZN7Project13qualifiedNameEP7QObject
0001:000a013c  __ZN7Project15designerCreatedEv
0001:000a0224  __ZN7Project10formOpenedEP10FormWindow
0001:000a0278  __ZN7Project16locationOfObjectEP7QObject
0001:000a0658* __ZN11QMapPrivateI7QStringS0_EC1Ev$w$lVV4gUGF8U6LHddi3
0001:000a0704* __ZN17QValueListPrivateI7QStringEC1Ev$w$lVV4gUGF8U6LHddi3
0001:000a2270  __ZTV8QPtrListI10SourceFileE$w$lVV4gUGF8U6LHddi3
0001:000a2230  __ZTV8QPtrListI8FormFileE$w$lVV4gUGF8U6LHddi3
0001:000a22b0* __ZTV11QObjectList$w$lVV4gUGF8U6LHddi3
0001:000a21f0  __ZTV8QPtrDictI8FormFileE$w$lVV4gUGF8U6LHddi3
0001:000a05ec* __ZN4QMapI7QStringS0_E6insertERKS0_S3_b$w$lVV4gUGF8U6LHddi3
0001:000a22f0* __ZTV8QPtrListI7QObjectE$w$lVV4gUGF8U6LHddi3
0001:000a06c8* __ZN11QMapPrivateI7QStringS0_E5clearEv$w$lVV4gUGF8U6LHddi3
0001:000a0750* __ZN17QValueListPrivateI7QStringED1Ev$w$lVV4gUGF8U6LHddi3
0001:000a07e0* __ZN17QValueListPrivateI7QStringE6insertE18QValueListIteratorIS0_ERKS0_$w$lVV4gUGF8U6LHddi3
0001:000a083c* __ZN10QValueListI7QStringE14detachInternalEv$w$lVV4gUGF8U6LHddi3
0001:000a086c* __ZN10QValueListI7QStringEpLERKS1_$w$lVV4gUGF8U6LHddi3
0001:000a0900  __ZN4QMapI7QStringS0_E6removeERKS0_$w$lVV4gUGF8U6LHddi3
0001:000a0a3c* __ZNK17QValueListPrivateI7QStringE2atEj$w$lVV4gUGF8U6LHddi3
0001:000a0b38* __ZN11QMapPrivateI7QString11QStringListEC1Ev$w$lVV4gUGF8U6LHddi3
0001:000a0a84  __ZN4QMapI7QString11QStringListEixERKS0_$w$lVV4gUGF8U6LHddi3
0001:000a0be8  __ZN4QMapI7QString11QStringListE6removeERKS0_$w$lVV4gUGF8U6LHddi3
0001:000a0cdc* __ZN4QMapI7QString11QStringListE6insertERKS0_RKS1_b$w$lVV4gUGF8U6LHddi3
0001:000a0da0  __ZN12QMapIteratorI7QString11QStringListE3incEv$w$lVV4gUGF8U6LHddi3
0001:000a0f0c* __ZNK11QMapPrivateI7QStringS0_E4findERKS0_$w$lVV4gUGF8U6LHddi3
0001:000a0f90* __ZN4QMapI7QStringS0_E14detachInternalEv$w$lVV4gUGF8U6LHddi3
0001:000a0edc  __ZN10QValueListIN16PixmapCollection6PixmapEE14detachInternalEv$w$lVV4gUGF8U6LHddi3
0001:000a0dec  __ZN17QValueListPrivateIN16PixmapCollection6PixmapEED1Ev$w$lVV4gUGF8U6LHddi3
0001:000a0bac* __ZN11QMapPrivateI7QString11QStringListE5clearEv$w$lVV4gUGF8U6LHddi3
0001:000a0d70* __ZN4QMapI7QString11QStringListE14detachInternalEv$w$lVV4gUGF8U6LHddi3
0001:000a0fc0  __ZN4QMapI7QStringS0_E5clearEv$w$lVV4gUGF8U6LHddi3
0001:000a1004* __ZN4QMapI7QStringS0_EixERKS0_$w$lVV4gUGF8U6LHddi3
0001:000a10b4* __ZN17QValueListPrivateIN17LanguageInterface8FunctionEEC1Ev$w$lVV4gUGF8U6LHddi3
0001:000a1158* __ZN17QValueListPrivateIN17LanguageInterface8FunctionEED1Ev$w$lVV4gUGF8U6LHddi3
0001:000a12fc* __ZN10QValueListIN17LanguageInterface8FunctionEE14detachInternalEv$w$lVV4gUGF8U6LHddi3
0001:000a132c* __Z7qt_castIP10FormWindowET_PK7QObject$w$lVV4gUGF8U6LHddi3
0001:000a1348* __Z7qt_castIP12SourceEditorET_PK7QObject$w$lVV4gUGF8U6LHddi3
0001:000a2330* __ZTV11QWidgetList$w$lVV4gUGF8U6LHddi3
0001:000a2370* __ZTV8QPtrListI7QWidgetE$w$lVV4gUGF8U6LHddi3
0001:000a1364* __Z7qt_castIP10SourceFileET_PK7QObject$w$lVV4gUGF8U6LHddi3
0001:000a1380* __ZNK11QMapPrivateIP7QWidget7QStringE4findERKS1_$w$lVV4gUGF8U6LHddi3
0001:000a13d0* __ZN4QMapIP7QWidget7QStringE14detachInternalEv$w$lVV4gUGF8U6LHddi3
0001:000a1400* __ZN11QMapPrivateI7QStringS0_E12insertSingleERKS0_$w$lVV4gUGF8U6LHddi3
0001:000a14b4* __ZN11QMapPrivateI7QStringS0_E5clearEP8QMapNodeIS0_S0_E$w$lVV4gUGF8U6LHddi3
0001:000a1538* __ZN17QValueListPrivateI7QStringEC1ERKS1_$w$lVV4gUGF8U6LHddi3
0001:000a15cc  __ZNK11QMapPrivateI7QString11QStringListE4findERKS0_$w$lVV4gUGF8U6LHddi3
0001:000a1650* __ZN11QMapPrivateI7QString11QStringListE5clearEP8QMapNodeIS0_S1_E$w$lVV4gUGF8U6LHddi3
0001:000a16dc* __ZN11QMapPrivateI7QString11QStringListE12insertSingleERKS0_$w$lVV4gUGF8U6LHddi3
0001:000a1790* __ZN11QMapPrivateI7QString11QStringListEC1EPKS2_$w$lVV4gUGF8U6LHddi3
0001:000a1860  __ZN17QValueListPrivateIN16PixmapCollection6PixmapEEC1ERKS2_$w$lVV4gUGF8U6LHddi3
0001:000a1918* __ZN11QMapPrivateI7QStringS0_EC1EPKS1_$w$lVV4gUGF8U6LHddi3
0001:000a19e4* __ZN17QValueListPrivateIN17LanguageInterface8FunctionEEC1ERKS2_$w$lVV4gUGF8U6LHddi3
0001:000a1ae0* __ZN11QMapPrivateIP7QWidget7QStringEC1EPKS3_$w$lVV4gUGF8U6LHddi3
0001:000a1b90* __ZN11QMapPrivateI7QStringS0_E6insertEP12QMapNodeBaseS3_RKS0_$w$lVV4gUGF8U6LHddi3
0001:000a1c94* __ZN12QMapIteratorI7QStringS0_E3decEv$w$lVV4gUGF8U6LHddi3
0001:000a1cec* __ZN11QMapPrivateI7QString11QStringListE6insertEP12QMapNodeBaseS4_RKS0_$w$lVV4gUGF8U6LHddi3
0001:000a1de8* __ZN12QMapIteratorI7QString11QStringListE3decEv$w$lVV4gUGF8U6LHddi3
0001:000a1e40* __ZN11QMapPrivateI7QString11QStringListE4copyEP8QMapNodeIS0_S1_E$w$lVV4gUGF8U6LHddi3
0001:000a1f40  __ZN17QValueListPrivateIN16PixmapCollection6PixmapEE6insertE18QValueListIteratorIS1_ERKS1_$w$lVV4gUGF8U6LHddi3
0001:000a1fbc* __ZN11QMapPrivateI7QStringS0_E4copyEP8QMapNodeIS0_S0_E$w$lVV4gUGF8U6LHddi3
0001:000a209c* __ZN17QValueListPrivateIN17LanguageInterface8FunctionEE6insertE18QValueListIteratorIS1_ERKS1_$w$lVV4gUGF8U6LHddi3
0001:000a2140* __ZN11QMapPrivateIP7QWidget7QStringE4copyEP8QMapNodeIS1_S2_E$w$lVV4gUGF8U6LHddi3
0001:000a26bc  __ZNK8QPtrDictI8FormFileE5countEv$w$lVV4gUGF8U6LHddi3
0001:000a2628  __ZN8QPtrDictI8FormFileE5clearEv$w$lVV4gUGF8U6LHddi3
0001:000a2530  __ZN8QPtrDictI8FormFileED1Ev$w$lVV4gUGF8U6LHddi3
0001:000a2634  __ZN8QPtrDictI8FormFileED0Ev$w$lVV4gUGF8U6LHddi3
0001:000a26c8  __ZN8QPtrDictI8FormFileE10deleteItemEPv$w$lVV4gUGF8U6LHddi3
0001:000a26f0  __ZNK8QPtrListI8FormFileE5countEv$w$lVV4gUGF8U6LHddi3
0001:000a2594  __ZN8QPtrListI8FormFileE5clearEv$w$lVV4gUGF8U6LHddi3
0001:000a2508  __ZN8QPtrListI8FormFileED1Ev$w$lVV4gUGF8U6LHddi3
0001:000a25a0  __ZN8QPtrListI8FormFileED0Ev$w$lVV4gUGF8U6LHddi3
0001:000a26fc  __ZN8QPtrListI8FormFileE10deleteItemEPv$w$lVV4gUGF8U6LHddi3
0001:000a2724  __ZNK8QPtrListI10SourceFileE5countEv$w$lVV4gUGF8U6LHddi3
0001:000a2558  __ZN8QPtrListI10SourceFileE5clearEv$w$lVV4gUGF8U6LHddi3
0001:000a24e0  __ZN8QPtrListI10SourceFileED1Ev$w$lVV4gUGF8U6LHddi3
0001:000a2564  __ZN8QPtrListI10SourceFileED0Ev$w$lVV4gUGF8U6LHddi3
0001:000a2730  __ZN8QPtrListI10SourceFileE10deleteItemEPv$w$lVV4gUGF8U6LHddi3
0001:000a2758* __ZNK8QPtrListI7QObjectE5countEv$w$lVV4gUGF8U6LHddi3
0001:000a2464* __ZN8QPtrListI7QObjectE5clearEv$w$lVV4gUGF8U6LHddi3
0001:000a2470* __ZN11QObjectListD1Ev$w$lVV4gUGF8U6LHddi3
0001:000a24a4* __ZN11QObjectListD0Ev$w$lVV4gUGF8U6LHddi3
0001:000a2764* __ZN8QPtrListI7QObjectE10deleteItemEPv$w$lVV4gUGF8U6LHddi3
0001:000a25d0* __ZN8QPtrListI7QObjectED1Ev$w$lVV4gUGF8U6LHddi3
0001:000a25f8* __ZN8QPtrListI7QObjectED0Ev$w$lVV4gUGF8U6LHddi3
0001:000a278c* __ZNK8QPtrListI7QWidgetE5countEv$w$lVV4gUGF8U6LHddi3
0001:000a23e8* __ZN8QPtrListI7QWidgetE5clearEv$w$lVV4gUGF8U6LHddi3
0001:000a23f4* __ZN11QWidgetListD1Ev$w$lVV4gUGF8U6LHddi3
0001:000a2428* __ZN11QWidgetListD0Ev$w$lVV4gUGF8U6LHddi3
0001:000a2798* __ZN8QPtrListI7QWidgetE10deleteItemEPv$w$lVV4gUGF8U6LHddi3
0001:000a2664* __ZN8QPtrListI7QWidgetED1Ev$w$lVV4gUGF8U6LHddi3
0001:000a268c* __ZN8QPtrListI7QWidgetED0Ev$w$lVV4gUGF8U6LHddi3
0001:000a23b0* __ZTV6QGList$w$lVV4gUGF8U6LHddi3
0001:000a23dc* __ZNK6QGList5countEv$w$lVV4gUGF8U6LHddi3
Module: C:\200\trunk\lib\designercore.lib(designerappiface.obj)
0001:000a27d0* __ZN21DesignerInterfaceImplC2EP10MainWindow
0001:000a27ec  __ZN21DesignerInterfaceImplC1EP10MainWindow
0001:000a2808* __ZN21DesignerInterfaceImpl14queryInterfaceERK5QUuidPP17QUnknownInterface
0001:000a2970* __ZNK21DesignerInterfaceImpl14currentProjectEv
0001:000a2988* __ZNK21DesignerInterfaceImpl11currentFormEv
0001:000a29c4* __ZNK21DesignerInterfaceImpl17currentSourceFileEv
0001:000a2a00* __ZNK21DesignerInterfaceImpl11projectListEv
0001:000a2a20* __ZNK21DesignerInterfaceImpl17showStatusMessageERK7QStringi
0001:000a2a9c* __ZNK21DesignerInterfaceImpl10createDockEv
0001:000a2aa4* __ZNK21DesignerInterfaceImpl10outputDockEv
0001:000a2ac4* __ZN21DesignerInterfaceImpl11setModifiedEbP7QWidget
0001:000a2ae0* __ZN21DesignerInterfaceImpl18updateFunctionListEv
0001:000a2b38* __ZN21DesignerInterfaceImpl15onProjectChangeEP7QObjectPKc
0001:000a2b80* __ZN21DesignerInterfaceImpl12onFormChangeEP7QObjectPKc
0001:000a2bbc* __ZNK21DesignerInterfaceImpl17singleProjectModeEv
0001:000a2bd0* __ZN21DesignerInterfaceImpl9showErrorEP7QWidgetiRK7QString
0001:000a2be4* __ZN21DesignerInterfaceImpl11runFinishedEv
0001:000a2bf8* __ZN21DesignerInterfaceImpl14showStackFrameEP7QWidgeti
0001:000a2c0c* __ZN21DesignerInterfaceImpl13showDebugStepEP7QWidgeti
0001:000a2c20* __ZN21DesignerInterfaceImpl22runProjectPreconditionEv
0001:000a2c34* __ZN21DesignerInterfaceImpl23runProjectPostconditionEP11QObjectList
0001:000a2c48* __ZN19DesignerProjectImplC2EP7Project
0001:000a2c5c  __ZN19DesignerProjectImplC1EP7Project
0001:000a2c70* __ZNK19DesignerProjectImpl8formListEv
0001:000a2d38* __ZNK19DesignerProjectImpl12formFileNameERK7QString
0001:000a2e10* __ZNK19DesignerProjectImpl9formNamesEv
0001:000a2f0c* __ZN19DesignerProjectImpl7addFormEP18DesignerFormWindow
0001:000a2f14* __ZN19DesignerProjectImpl10removeFormEP18DesignerFormWindow
0001:000a2f1c* __ZNK19DesignerProjectImpl8fileNameEv
0001:000a2f40* __ZN19DesignerProjectImpl11setFileNameERK7QString
0001:000a2f48* __ZNK19DesignerProjectImpl11projectNameEv
0001:000a2f68* __ZN19DesignerProjectImpl14setProjectNameERK7QString
0001:000a2f70* __ZNK19DesignerProjectImpl12databaseFileEv
0001:000a2f90* __ZN19DesignerProjectImpl15setDatabaseFileERK7QString
0001:000a2f98* __ZNK19DesignerProjectImpl14setupDatabasesEv
0001:000a2fac* __ZNK19DesignerProjectImpl19databaseConnectionsEv
0001:000a2fd0* __ZN19DesignerProjectImpl11addDatabaseEP16DesignerDatabase
0001:000a2fd8* __ZN19DesignerProjectImpl14removeDatabaseEP16DesignerDatabase
0001:000a2fe0* __ZNK19DesignerProjectImpl4saveEv
0001:000a2fe8* __ZN19DesignerProjectImpl11setLanguageERK7QString
0001:000a2ffc* __ZNK19DesignerProjectImpl8languageEv
0001:000a301c* __ZN19DesignerProjectImpl16setCustomSettingERK7QStringS2_
0001:000a3054* __ZNK19DesignerProjectImpl13customSettingERK7QString
0001:000a3180* __ZNK19DesignerProjectImpl16pixmapCollectionEv
0001:000a31ac* __ZNK19DesignerProjectImpl11breakPointsER4QMapI7QString10QValueListIjEE
0001:000a34f0* __ZNK19DesignerProjectImpl19breakPointConditionEP7QObjecti
0001:000a3520* __ZN19DesignerProjectImpl22setBreakPointConditionEP7QObjectiRK7QString
0001:000a3550* __ZNK19DesignerProjectImpl19clearAllBreakpointsEv
0001:000a366c* __ZN19DesignerProjectImpl14setIncludePathERK7QStringS2_
0001:000a3680* __ZN19DesignerProjectImpl7setLibsERK7QStringS2_
0001:000a3694* __ZN19DesignerProjectImpl10setDefinesERK7QStringS2_
0001:000a36a8* __ZN19DesignerProjectImpl9setConfigERK7QStringS2_
0001:000a36bc* __ZN19DesignerProjectImpl11setTemplateERK7QString
0001:000a36d0* __ZNK19DesignerProjectImpl6configERK7QString
0001:000a36f4* __ZNK19DesignerProjectImpl4libsERK7QString
0001:000a3718* __ZNK19DesignerProjectImpl7definesERK7QString
0001:000a373c* __ZNK19DesignerProjectImpl11includePathERK7QString
0001:000a3760* __ZNK19DesignerProjectImpl7templteEv
0001:000a3780* __ZNK19DesignerProjectImpl15isGenericObjectEP7QObject
0001:000a37a4* __ZN28DesignerPixmapCollectionImplC2EP16PixmapCollection
0001:000a37b8  __ZN28DesignerPixmapCollectionImplC1EP16PixmapCollection
0001:000a37cc* __ZN28DesignerPixmapCollectionImpl9addPixmapERK7QPixmapRK7QStringb
0001:000a38e0* __ZNK28DesignerPixmapCollectionImpl6pixmapERK7QString
0001:000a3904* __ZN22DesignerFormWindowImplC2EP10FormWindow
0001:000a3918  __ZN22DesignerFormWindowImplC1EP10FormWindow
0001:000a392c* __ZNK22DesignerFormWindowImpl4nameEv
0001:000a3954* __ZN22DesignerFormWindowImpl7setNameERK7QString
0001:000a397c* __ZNK22DesignerFormWindowImpl8fileNameEv
0001:000a39a0* __ZN22DesignerFormWindowImpl11setFileNameERK7QString
0001:000a39a8* __ZNK22DesignerFormWindowImpl4saveEv
0001:000a39b0* __ZNK22DesignerFormWindowImpl10isModifiedEv
0001:000a39d4* __ZN22DesignerFormWindowImpl12insertWidgetEP7QWidget
0001:000a39dc* __ZN22DesignerFormWindowImpl6createEPKcP7QWidgetS1_
0001:000a3a64* __ZN22DesignerFormWindowImpl12removeWidgetEP7QWidget
0001:000a3a6c* __ZNK22DesignerFormWindowImpl7widgetsEv
0001:000a3a90* __ZN22DesignerFormWindowImpl4undoEv
0001:000a3a98* __ZN22DesignerFormWindowImpl4redoEv
0001:000a3aa0* __ZN22DesignerFormWindowImpl3cutEv
0001:000a3aa8* __ZN22DesignerFormWindowImpl4copyEv
0001:000a3ab0* __ZN22DesignerFormWindowImpl5pasteEv
0001:000a3ab8* __ZN22DesignerFormWindowImpl10adjustSizeEv
0001:000a3ac0* __ZN22DesignerFormWindowImpl15editConnectionsEv
0001:000a3ac8* __ZN22DesignerFormWindowImpl11checkAccelsEv
0001:000a3ad0* __ZN22DesignerFormWindowImpl7layoutHEv
0001:000a3aec* __ZN22DesignerFormWindowImpl7layoutVEv
0001:000a3af4* __ZN22DesignerFormWindowImpl12layoutHSplitEv
0001:000a3afc* __ZN22DesignerFormWindowImpl12layoutVSplitEv
0001:000a3b04* __ZN22DesignerFormWindowImpl7layoutGEv
0001:000a3b20* __ZN22DesignerFormWindowImpl16layoutHContainerEP7QWidget
0001:000a3b40* __ZN22DesignerFormWindowImpl16layoutVContainerEP7QWidget
0001:000a3b60* __ZN22DesignerFormWindowImpl16layoutGContainerEP7QWidget
0001:000a3b80* __ZN22DesignerFormWindowImpl11breakLayoutEv
0001:000a3b88* __ZN22DesignerFormWindowImpl12selectWidgetEP7QWidget
0001:000a3bac* __ZN22DesignerFormWindowImpl9selectAllEv
0001:000a3bb4* __ZN22DesignerFormWindowImpl14clearSelectionEv
0001:000a3bd4* __ZNK22DesignerFormWindowImpl16isWidgetSelectedEP7QWidget
0001:000a3bdc* __ZNK22DesignerFormWindowImpl15selectedWidgetsEv
0001:000a3c00* __ZNK22DesignerFormWindowImpl13currentWidgetEv
0001:000a3c18* __ZNK22DesignerFormWindowImpl4formEv
0001:000a3c24* __ZN22DesignerFormWindowImpl16setCurrentWidgetEP7QWidget
0001:000a3c2c* __ZNK22DesignerFormWindowImpl10actionListEv
0001:000a3c50* __ZN22DesignerFormWindowImpl12createActionERK7QStringRK8QIconSetS2_iP7QObjectPKcb
0001:000a3d80* __ZN22DesignerFormWindowImpl9addActionEP7QAction
0001:000a3ec0* __ZN22DesignerFormWindowImpl12removeActionEP7QAction
0001:000a3ee0* __ZNK22DesignerFormWindowImpl7previewEv
0001:000a3ee8* __ZN22DesignerFormWindowImpl13addConnectionEP7QObjectPKcS1_S3_
0001:000a3f44* __ZN22DesignerFormWindowImpl11addFunctionERK8QCStringRK7QStringS5_S5_S5_S5_
0001:000a3f88* __ZN22DesignerFormWindowImpl11setPropertyEP7QObjectPKcRK8QVariant
0001:000a4030* __ZNK22DesignerFormWindowImpl8propertyEP7QObjectPKc
0001:000a40cc* __ZN22DesignerFormWindowImpl18setPropertyChangedEP7QObjectPKcb
0001:000a4120* __ZNK22DesignerFormWindowImpl17isPropertyChangedEP7QObjectPKc
0001:000a416c* __ZN22DesignerFormWindowImpl15setColumnFieldsEP7QObjectRK4QMapI7QStringS3_E
0001:000a41a0* __ZNK22DesignerFormWindowImpl22implementationIncludesEv
0001:000a43f4* __ZNK22DesignerFormWindowImpl19declarationIncludesEv
0001:000a4658* __ZN22DesignerFormWindowImpl25setImplementationIncludesERK11QStringList
0001:000a4d78* __ZN22DesignerFormWindowImpl22setDeclarationIncludesERK11QStringList
0001:000a5488* __ZNK22DesignerFormWindowImpl19forwardDeclarationsEv
0001:000a54a8* __ZN22DesignerFormWindowImpl22setForwardDeclarationsERK11QStringList
0001:000a54ec* __ZNK22DesignerFormWindowImpl10signalListEv
0001:000a550c* __ZN22DesignerFormWindowImpl13setSignalListERK11QStringList
0001:000a557c* __ZN22DesignerFormWindowImpl20onModificationChangeEP7QObjectPKc
0001:000a55b4* __ZN22DesignerFormWindowImpl7addMenuERK7QStringS2_
0001:000a5724* __ZN22DesignerFormWindowImpl13addMenuActionERK7QStringP7QAction
0001:000a57b0* __ZN22DesignerFormWindowImpl16addMenuSeparatorERK7QString
0001:000a5844* __ZN22DesignerFormWindowImpl10addToolBarERK7QStringS2_
0001:000a5924* __ZN22DesignerFormWindowImpl16addToolBarActionERK7QStringP7QAction
0001:000a59a0* __ZN22DesignerFormWindowImpl19addToolBarSeparatorERK7QString
0001:000a5a2c* __ZN16DesignerDockImplC2Ev
0001:000a5a3c* __ZN16DesignerDockImplC1Ev
0001:000a5a4c* __ZNK16DesignerDockImpl10dockWindowEv
0001:000a5a54* __ZN22DesignerOutputDockImplC2EP12OutputWindow
0001:000a5a68  __ZN22DesignerOutputDockImplC1EP12OutputWindow
0001:000a5a7c* __ZN22DesignerOutputDockImpl7addViewERK7QString
0001:000a5abc* __ZN22DesignerOutputDockImpl11appendDebugERK7QString
0001:000a5ad0* __ZN22DesignerOutputDockImpl10clearDebugEv
0001:000a5ad8* __ZN22DesignerOutputDockImpl11appendErrorERK7QStringi
0001:000a5cd4* __ZN22DesignerOutputDockImpl10clearErrorEv
0001:000a5cdc* __ZN22DesignerSourceFileImplC2EP10SourceFile
0001:000a5cf0  __ZN22DesignerSourceFileImplC1EP10SourceFile
0001:000a5d04* __ZNK22DesignerSourceFileImpl8fileNameEv
0001:000a6b10  __ZTV21DesignerInterfaceImpl$w$76F954GF8U6uJ3hP3
0001:000a6a30  __ZTV19DesignerProjectImpl$w$76F954GF8U6uJ3hP3
0001:000a6ad0  __ZTV8QPtrListI18DesignerFormWindowE$w$76F954GF8U6uJ3hP3
0001:000a5d48* __Z7qt_castIP10FormWindowET_PK7QObject$w$76F954GF8U6uJ3hP3
0001:000a5d64* __ZN17QValueListPrivateI7QStringEC1Ev$w$76F954GF8U6uJ3hP3
0001:000a5e40* __ZN17QValueListPrivateI7QStringE6insertE18QValueListIteratorIS0_ERKS0_$w$76F954GF8U6uJ3hP3
0001:000a5e9c* __ZN10QValueListI7QStringE14detachInternalEv$w$76F954GF8U6uJ3hP3
0001:000a69f0  __ZTV8QPtrListI16DesignerDatabaseE$w$76F954GF8U6uJ3hP3
0001:000a5ecc  __ZN4QMapI7QString10QValueListIjEE6insertERKS0_RKS2_b$w$76F954GF8U6uJ3hP3
0001:000a5f60* __ZN17QValueListPrivateIjED1Ev$w$76F954GF8U6uJ3hP3
0001:000a5f9c* __ZN17QValueListPrivateIjEC1Ev$w$76F954GF8U6uJ3hP3
0001:000a69d0  __ZTV28DesignerPixmapCollectionImpl$w$76F954GF8U6uJ3hP3
0001:000a68d0  __ZTV22DesignerFormWindowImpl$w$76F954GF8U6uJ3hP3
0001:000a6c30* __ZTV11QWidgetList$w$76F954GF8U6uJ3hP3
0001:000a6b70* __ZTV8QPtrListI7QActionE$w$76F954GF8U6uJ3hP3
0001:000a5d2c* __Z7qt_castIP12QActionGroupET_PK7QObject$w$76F954GF8U6uJ3hP3
0001:000a5fcc* __ZN17QValueListPrivateIN12MetaDataBase7IncludeEED1Ev$w$76F954GF8U6uJ3hP3
0001:000a60e8* __ZN10QValueListIN12MetaDataBase7IncludeEE14detachInternalEv$w$76F954GF8U6uJ3hP3
0001:000a6118* __ZN17QValueListPrivateIN12MetaDataBase7IncludeEEC1Ev$w$76F954GF8U6uJ3hP3
0001:000a618c* __ZN17QValueListPrivateIN12MetaDataBase7IncludeEE6insertE18QValueListIteratorIS1_ERKS1_$w$76F954GF8U6uJ3hP3
0001:000a6208* __Z7qt_castIP11QMainWindowET_PK7QObject$w$76F954GF8U6uJ3hP3
0001:000a68b0  __ZTV16DesignerDockImpl$w$76F954GF8U6uJ3hP3
0001:000a6890  __ZTV22DesignerOutputDockImpl$w$76F954GF8U6uJ3hP3
0001:000a6224* __ZN17QValueListPrivateIjE6insertE18QValueListIteratorIjERKj$w$76F954GF8U6uJ3hP3
0001:000a6bb0* __ZTV11QObjectList$w$76F954GF8U6uJ3hP3
0001:000a6bf0* __ZTV8QPtrListI7QObjectE$w$76F954GF8U6uJ3hP3
0001:000a5db0* __ZN17QValueListPrivateI7QStringED1Ev$w$76F954GF8U6uJ3hP3
0001:000a6274* __ZN10QValueListIjE14detachInternalEv$w$76F954GF8U6uJ3hP3
0001:000a6880  __ZTV22DesignerSourceFileImpl$w$76F954GF8U6uJ3hP3
0001:000a62a4* __ZN17QValueListPrivateI7QStringEC1ERKS1_$w$76F954GF8U6uJ3hP3
0001:000a6338  __ZN11QMapPrivateI7QString10QValueListIjEE12insertSingleERKS0_$w$76F954GF8U6uJ3hP3
0001:000a63ec  __ZN4QMapI7QString10QValueListIjEE14detachInternalEv$w$76F954GF8U6uJ3hP3
0001:000a641c* __ZN17QValueListPrivateIN12MetaDataBase7IncludeEEC1ERKS2_$w$76F954GF8U6uJ3hP3
0001:000a64e0* __ZN17QValueListPrivateIjEC1ERKS0_$w$76F954GF8U6uJ3hP3
0001:000a655c  __ZN11QMapPrivateI7QString10QValueListIjEE6insertEP12QMapNodeBaseS5_RKS0_$w$76F954GF8U6uJ3hP3
0001:000a6658  __ZN12QMapIteratorI7QString10QValueListIjEE3decEv$w$76F954GF8U6uJ3hP3
0001:000a66b0  __ZN11QMapPrivateI7QString10QValueListIjEEC1EPKS3_$w$76F954GF8U6uJ3hP3
0001:000a6780  __ZN11QMapPrivateI7QString10QValueListIjEE4copyEP8QMapNodeIS0_S2_E$w$76F954GF8U6uJ3hP3
0001:000a6f60  __ZNK8QPtrListI16DesignerDatabaseE5countEv$w$76F954GF8U6uJ3hP3
0001:000a6e90  __ZN8QPtrListI16DesignerDatabaseE5clearEv$w$76F954GF8U6uJ3hP3
0001:000a6e68  __ZN8QPtrListI16DesignerDatabaseED1Ev$w$76F954GF8U6uJ3hP3
0001:000a6e9c  __ZN8QPtrListI16DesignerDatabaseED0Ev$w$76F954GF8U6uJ3hP3
0001:000a6f6c  __ZN8QPtrListI16DesignerDatabaseE10deleteItemEPv$w$76F954GF8U6uJ3hP3
0001:000a6f8c  __ZNK8QPtrListI18DesignerFormWindowE5countEv$w$76F954GF8U6uJ3hP3
0001:000a6e2c  __ZN8QPtrListI18DesignerFormWindowE5clearEv$w$76F954GF8U6uJ3hP3
0001:000a6e04  __ZN8QPtrListI18DesignerFormWindowED1Ev$w$76F954GF8U6uJ3hP3
0001:000a6e38  __ZN8QPtrListI18DesignerFormWindowED0Ev$w$76F954GF8U6uJ3hP3
0001:000a6f98  __ZN8QPtrListI18DesignerFormWindowE10deleteItemEPv$w$76F954GF8U6uJ3hP3
0001:000a6da0  __ZN21DesignerInterfaceImpl6addRefEv$w$76F954GF8U6uJ3hP3
0001:000a6db4  __ZN21DesignerInterfaceImpl7releaseEv$w$76F954GF8U6uJ3hP3
0001:000a6fb8* __ZNK8QPtrListI7QActionE5countEv$w$76F954GF8U6uJ3hP3
0001:000a6ecc* __ZN8QPtrListI7QActionE5clearEv$w$76F954GF8U6uJ3hP3
0001:000a6ddc* __ZN8QPtrListI7QActionED1Ev$w$76F954GF8U6uJ3hP3
0001:000a6ed8* __ZN8QPtrListI7QActionED0Ev$w$76F954GF8U6uJ3hP3
0001:000a6fc4* __ZN8QPtrListI7QActionE10deleteItemEPv$w$76F954GF8U6uJ3hP3
0001:000a6fec* __ZNK8QPtrListI7QObjectE5countEv$w$76F954GF8U6uJ3hP3
0001:000a6d24* __ZN8QPtrListI7QObjectE5clearEv$w$76F954GF8U6uJ3hP3
0001:000a6d30* __ZN11QObjectListD1Ev$w$76F954GF8U6uJ3hP3
0001:000a6d64* __ZN11QObjectListD0Ev$w$76F954GF8U6uJ3hP3
0001:000a6ff8* __ZN8QPtrListI7QObjectE10deleteItemEPv$w$76F954GF8U6uJ3hP3
0001:000a6f08* __ZN8QPtrListI7QObjectED1Ev$w$76F954GF8U6uJ3hP3
0001:000a6f30* __ZN8QPtrListI7QObjectED0Ev$w$76F954GF8U6uJ3hP3
0001:000a7020* __ZNK8QPtrListI7QWidgetE5countEv$w$76F954GF8U6uJ3hP3
0001:000a6ca8* __ZN8QPtrListI7QWidgetE5clearEv$w$76F954GF8U6uJ3hP3
0001:000a6cb4* __ZN11QWidgetListD1Ev$w$76F954GF8U6uJ3hP3
0001:000a6ce8* __ZN11QWidgetListD0Ev$w$76F954GF8U6uJ3hP3
0001:000a702c* __ZN8QPtrListI7QWidgetE10deleteItemEPv$w$76F954GF8U6uJ3hP3
0001:000a6c70* __ZTV6QGList$w$76F954GF8U6uJ3hP3
0001:000a6c9c* __ZNK6QGList5countEv$w$76F954GF8U6uJ3hP3
0001:000a7070* __ZTV8QPtrListI7QWidgetE$w$76F954GF8U6uJ3hP3
0001:000a709c* __ZN8QPtrListI7QWidgetED1Ev$w$76F954GF8U6uJ3hP3
0001:000a70c4* __ZN8QPtrListI7QWidgetED0Ev$w$76F954GF8U6uJ3hP3
Module: C:\200\trunk\lib\designercore.lib(widgetfactory.obj)
0001:000a7110* __Z15find_formwindowP7QWidget
0001:000a7144  __ZN13QLayoutWidget10paintEventEP11QPaintEvent
0001:000a71c8* __ZN18QDesignerTabWidgetC2EP7QWidgetPKc
0001:000a725c* __ZN18QDesignerTabWidgetC1EP7QWidgetPKc
0001:000a72f0  __ZNK18QDesignerTabWidget11currentPageEv
0001:000a730c  __ZN18QDesignerTabWidget14setCurrentPageEi
0001:000a7330  __ZNK18QDesignerTabWidget9pageTitleEv
0001:000a735c  __ZN18QDesignerTabWidget12setPageTitleERK7QString
0001:000a7384  __ZN18QDesignerTabWidget11setPageNameERK8QCString
0001:000a73c4  __ZNK18QDesignerTabWidget8pageNameEv
0001:000a7414  __ZNK18QDesignerTabWidget5countEv
0001:000a743c  __ZN18QDesignerTabWidget11eventFilterEP7QObjectP6QEvent
0001:000a7c48* __ZN20QDesignerWidgetStackC2EP7QWidgetPKc
0001:000a7ef8  __ZN20QDesignerWidgetStack13updateButtonsEv
0001:000a7da0* __ZN20QDesignerWidgetStackC1EP7QWidgetPKc
0001:000a7f90  __ZN20QDesignerWidgetStack8prevPageEv
0001:000a7fd8  __ZNK20QDesignerWidgetStack11currentPageEv
0001:000a8004  __ZN20QDesignerWidgetStack14setCurrentPageEi
0001:000a7fb4  __ZN20QDesignerWidgetStack8nextPageEv
0001:000a812c  __ZNK20QDesignerWidgetStack5countEv
0001:000a809c  __ZNK20QDesignerWidgetStack8pageNameEv
0001:000a80ec  __ZN20QDesignerWidgetStack11setPageNameERK8QCString
0001:000a813c  __ZNK20QDesignerWidgetStack4pageEi
0001:000a8184  __ZN20QDesignerWidgetStack10insertPageEP7QWidgeti
0001:000a8208  __ZN20QDesignerWidgetStack10removePageEP7QWidget
0001:000a8260  __ZNK15QDesignerWizard14currentPageNumEv
0001:000a82b0  __ZN15QDesignerWizard14setCurrentPageEi
0001:000a8344  __ZNK15QDesignerWizard9pageTitleEv
0001:000a8370  __ZN15QDesignerWizard12setPageTitleERK7QString
0001:000a8398  __ZN15QDesignerWizard11setPageNameERK8QCString
0001:000a83d8  __ZNK15QDesignerWizard8pageNameEv
0001:000a8428  __ZN15QDesignerWizard7pageNumEP7QWidget
0001:000a8474  __ZN15QDesignerWizard7addPageEP7QWidgetRK7QString
0001:000a84b8  __ZN15QDesignerWizard10removePageEP7QWidget
0001:000a84e8  __ZN15QDesignerWizard10insertPageEP7QWidgetRK7QStringi
0001:000a853c  __ZN13WidgetFactory21saveDefaultPropertiesEP7QObjecti
0001:000a8848  __ZN13WidgetFactory21saveChangedPropertiesEP7QObjecti
0001:000a88a0  __ZN13WidgetFactory6createEiP7QWidgetPKcbPK5QRectN2Qt11OrientationE
0001:000a92dc* __ZN13WidgetFactory12createWidgetERK7QStringP7QWidgetPKcbPK5QRectN2Qt11OrientationE
0001:000acf0c* __ZN13WidgetFactory18createCustomWidgetEP7QWidgetPKcPN12MetaDataBase12CustomWidgetE
0001:000a8b10  __ZN13WidgetFactory12createLayoutEP7QWidgetP7QLayoutNS_10LayoutTypeE
0001:000ab79c  __ZN13WidgetFactory11classNameOfEP7QObject
0001:000a8f98  __ZN13WidgetFactory12deleteLayoutEP7QWidget
0001:000ab460  __ZN13WidgetFactory17widgetOfContainerEP7QWidget
0001:000ad9f8* __ZN16QDesignerToolBoxC1EP7QWidgetPKc
0001:000ab160  __ZN13WidgetFactory10layoutTypeEP7QWidgetRP7QLayout
0001:000ab320  __ZN13WidgetFactory10layoutTypeEP7QLayout
0001:000ab370  __ZN13WidgetFactory10layoutTypeEP7QWidget
0001:000ab38c  __ZN13WidgetFactory12layoutParentEP7QLayout
0001:000ab3b4  __ZN13WidgetFactory17containerOfWidgetEP7QWidget
0001:000ab558  __ZN13WidgetFactory19isPassiveInteractorEP7QObject
0001:000aba8c  __ZN13WidgetFactory13defaultSignalEP7QObject
0001:000abd68  __ZN13WidgetFactory21initChangedPropertiesEP7QObject
0001:000ac4dc  __ZN13WidgetFactory16hasSpecialEditorEiP7QObject
0001:000ac5e4  __ZN13WidgetFactory8hasItemsEiP7QObject
0001:000ac6b4  __ZN13WidgetFactory10editWidgetEiP7QWidgetS1_P10FormWindow
0001:000ac944  __ZN13WidgetFactory16canResetPropertyEP7QObjectRK7QString
0001:000aca4c  __ZN13WidgetFactory13resetPropertyEP7QObjectRK7QString
0001:000acaf0  __ZN13WidgetFactory12defaultValueEP7QObjectRK7QString
0001:000acd5c  __ZN13WidgetFactory18defaultCurrentItemEP7QObjectRK7QString
0001:000acfa8  __ZN13WidgetFactory8propertyEP7QObjectPKc
0001:000ad044  __ZN14QDesignerLabel11updateBuddyEv
0001:000ad0c0  __ZN15QDesignerWidget11resizeEventEP12QResizeEvent
0001:000ad170  __ZN15QDesignerWidget10paintEventEP11QPaintEvent
0001:000ad234  __ZN15QDesignerDialog10paintEventEP11QPaintEvent
0001:000ad250  __ZNK13QLayoutWidget10sizePolicyEv
0001:000ad25c  __ZN13QLayoutWidget5eventEP6QEvent
0001:000ad2a8  __ZN13QLayoutWidget16updateSizePolicyEv
0001:000ad734  __ZN12CustomWidget10paintEventEP11QPaintEvent
0001:000ad910* __ZN19CustomWidgetFactoryC2Ev
0001:000ad930  __ZN19CustomWidgetFactoryC1Ev
0001:000ad950* __ZNK19CustomWidgetFactory12createWidgetERK7QStringP7QWidgetPKc
0001:000ad994  __ZN20QDesignerRadioButton14setFocusPolicyEN7QWidget11FocusPolicyE
0001:000ad9cc* __ZN16QDesignerToolBoxC2EP7QWidgetPKc
0001:000ada24  __ZNK16QDesignerToolBox9itemLabelEv
0001:000ada50  __ZN16QDesignerToolBox12setItemLabelERK7QString
0001:000ada78  __ZNK16QDesignerToolBox8itemNameEv
0001:000adac0  __ZN16QDesignerToolBox11setItemNameERK8QCString
0001:000adb00  __ZNK16QDesignerToolBox18itemBackgroundModeEv
0001:000adb40  __ZN16QDesignerToolBox21setItemBackgroundModeEN2Qt14BackgroundModeE
0001:000adb90  __ZN16QDesignerToolBox12itemInsertedEi
0002:000024f0* _defaultProperties
0002:000024f4* _changedProperties
0002:000024f8* __ZN13WidgetFactory25lastWasAPassiveInteractorE
0002:000024fc* __ZN13WidgetFactory21lastPassiveInteractorE
0001:000adbf0* __Z7qt_castIP10FormWindowET_PK7QObject$w$rCcr4cDF8U6i0gdk0
0001:000af510* __ZTV8QPtrListI7QWidgetE$w$rCcr4cDF8U6i0gdk0
0001:000adc0c* __ZN11QMapPrivateI7QString8QVariantEC1Ev$w$rCcr4cDF8U6i0gdk0
0001:000adcac  __ZN4QMapI7QString8QVariantE6removeERKS0_$w$rCcr4cDF8U6i0gdk0
0001:000add84* __ZN4QMapI7QString8QVariantE6insertERKS0_RKS1_b$w$rCcr4cDF8U6i0gdk0
0001:000addf0  __ZN4QMapIiS_I7QString8QVariantEE6removeERKi$w$rCcr4cDF8U6i0gdk0
0001:000adf10  __ZN4QMapIiS_I7QString8QVariantEE6insertERKiRKS2_b$w$rCcr4cDF8U6i0gdk0
0001:000af550* __ZTV8QStrList$w$rCcr4cDF8U6i0gdk0
0001:000af590* __ZTV8QPtrListIcE$w$rCcr4cDF8U6i0gdk0
0001:000adc70* __ZN11QMapPrivateI7QString8QVariantE5clearEv$w$rCcr4cDF8U6i0gdk0
0001:000adf7c  __ZN4QMapIi11QStringListE6insertERKiRKS0_b$w$rCcr4cDF8U6i0gdk0
0001:000ae010* __ZN17QValueListPrivateI7QStringED1Ev$w$rCcr4cDF8U6i0gdk0
0001:000ae0a0* __Z7qt_castIP11QScrollViewET_PK7QObject$w$rCcr4cDF8U6i0gdk0
0001:000ae174  __ZNK11QMapPrivateIi4QMapI7QString8QVariantEE4findERKi$w$rCcr4cDF8U6i0gdk0
0001:000ae1c4  __ZNK11QMapPrivateIi11QStringListE4findERKi$w$rCcr4cDF8U6i0gdk0
0001:000ae0bc  __ZN11QMapPrivateIi4QMapI7QString8QVariantEEC1Ev$w$rCcr4cDF8U6i0gdk0
0001:000ae118  __ZN11QMapPrivateIi11QStringListEC1Ev$w$rCcr4cDF8U6i0gdk0
0001:000ae214* __Z7qt_castIP13QLayoutWidgetET_PK7QObject$w$rCcr4cDF8U6i0gdk0
0001:000ae2d8  __ZN11QMapPrivateIP7QWidgetN19QDesignerGridLayout4ItemEEC1Ev$w$rCcr4cDF8U6i0gdk0
0001:000ae2bc* __Z7qt_castIP9QGroupBoxET_PK7QObject$w$rCcr4cDF8U6i0gdk0
0001:000ae230* __Z7qt_castIP10QTabWidgetET_PK7QObject$w$rCcr4cDF8U6i0gdk0
0001:000ae24c* __Z7qt_castIP7QWizardET_PK7QObject$w$rCcr4cDF8U6i0gdk0
0001:000ae268* __Z7qt_castIP11QMainWindowET_PK7QObject$w$rCcr4cDF8U6i0gdk0
0001:000ae284* __Z7qt_castIP12QWidgetStackET_PK7QObject$w$rCcr4cDF8U6i0gdk0
0001:000ae2a0* __Z7qt_castIP8QToolBoxET_PK7QObject$w$rCcr4cDF8U6i0gdk0
0001:000ae334  __Z7qt_castIP7QDialogET_PK7QObject$w$rCcr4cDF8U6i0gdk0
0001:000af4d0  __ZTV8QPtrDictI7QWidgetE$w$rCcr4cDF8U6i0gdk0
0001:000ae350* __Z7qt_castIP9QSplitterET_PK7QObject$w$rCcr4cDF8U6i0gdk0
0001:000ae36c  __Z7qt_castIP11QHBoxLayoutET_PK7QObject$w$rCcr4cDF8U6i0gdk0
0001:000ae388  __Z7qt_castIP11QVBoxLayoutET_PK7QObject$w$rCcr4cDF8U6i0gdk0
0001:000ae3a4  __Z7qt_castIP11QGridLayoutET_PK7QObject$w$rCcr4cDF8U6i0gdk0
0001:000ae3c0  __Z7qt_castIP7QTabBarET_PK7QObject$w$rCcr4cDF8U6i0gdk0
0001:000ae3dc* __Z7qt_castIP9QSizeGripET_PK7QObject$w$rCcr4cDF8U6i0gdk0
0001:000ae3f8* __Z7qt_castIP7QButtonET_PK7QObject$w$rCcr4cDF8U6i0gdk0
0001:000ae414* __Z7qt_castIP11QPushButtonET_PK7QObject$w$rCcr4cDF8U6i0gdk0
0001:000ae430* __Z7qt_castIP8QMenuBarET_PK7QObject$w$rCcr4cDF8U6i0gdk0
0001:000ae44c  __Z7qt_castIP18QDesignerTabWidgetET_PK7QObject$w$rCcr4cDF8U6i0gdk0
0001:000ae468* __Z7qt_castIP20QDesignerWidgetStackET_PK7QObject$w$rCcr4cDF8U6i0gdk0
0001:000ae484  __Z7qt_castIP15QDesignerDialogET_PK7QObject$w$rCcr4cDF8U6i0gdk0
0001:000ae4a0  __Z7qt_castIP15QDesignerWidgetET_PK7QObject$w$rCcr4cDF8U6i0gdk0
0001:000ae4bc  __Z7qt_castIP14QDesignerLabelET_PK7QObject$w$rCcr4cDF8U6i0gdk0
0001:000ae4d8  __Z7qt_castIP15QDesignerWizardET_PK7QObject$w$rCcr4cDF8U6i0gdk0
0001:000ae4f4  __Z7qt_castIP19QDesignerPushButtonET_PK7QObject$w$rCcr4cDF8U6i0gdk0
0001:000ae510  __Z7qt_castIP19QDesignerToolButtonET_PK7QObject$w$rCcr4cDF8U6i0gdk0
0001:000ae52c  __Z7qt_castIP20QDesignerRadioButtonET_PK7QObject$w$rCcr4cDF8U6i0gdk0
0001:000ae548  __Z7qt_castIP17QDesignerCheckBoxET_PK7QObject$w$rCcr4cDF8U6i0gdk0
0001:000ae564* __Z7qt_castIP13MenuBarEditorET_PK7QObject$w$rCcr4cDF8U6i0gdk0
0001:000ae580* __Z7qt_castIP16QDesignerToolBarET_PK7QObject$w$rCcr4cDF8U6i0gdk0
0001:000ae59c* __Z7qt_castIP15QDesignerActionET_PK7QObject$w$rCcr4cDF8U6i0gdk0
0001:000ae5b8* __Z7qt_castIP20QDesignerActionGroupET_PK7QObject$w$rCcr4cDF8U6i0gdk0
0001:000ae5d4* __Z7qt_castIP15PopupMenuEditorET_PK7QObject$w$rCcr4cDF8U6i0gdk0
0001:000ae5f0  __Z7qt_castIP16QDesignerToolBoxET_PK7QObject$w$rCcr4cDF8U6i0gdk0
0001:000ae60c  __Z7qt_castIP12QRadioButtonET_PK7QObject$w$rCcr4cDF8U6i0gdk0
0001:000ae628  __Z7qt_castIP9QCheckBoxET_PK7QObject$w$rCcr4cDF8U6i0gdk0
0001:000ae644* __Z7qt_castIP12QButtonGroupET_PK7QObject$w$rCcr4cDF8U6i0gdk0
0001:000ae660  __Z7qt_castIP12QTextBrowserET_PK7QObject$w$rCcr4cDF8U6i0gdk0
0001:000ae67c* __Z7qt_castIP9QLineEditET_PK7QObject$w$rCcr4cDF8U6i0gdk0
0001:000ae698* __Z7qt_castIP9QTextEditET_PK7QObject$w$rCcr4cDF8U6i0gdk0
0001:000ae6b4* __Z7qt_castIP9QListViewET_PK7QObject$w$rCcr4cDF8U6i0gdk0
0001:000ae6d0* __Z7qt_castIP9QIconViewET_PK7QObject$w$rCcr4cDF8U6i0gdk0
0001:000ae6ec* __Z7qt_castIP8QListBoxET_PK7QObject$w$rCcr4cDF8U6i0gdk0
0001:000ae708* __Z7qt_castIP6QTableET_PK7QObject$w$rCcr4cDF8U6i0gdk0
0001:000ae724  __Z7qt_castIP8QSpinBoxET_PK7QObject$w$rCcr4cDF8U6i0gdk0
0001:000ae740  __Z7qt_castIP7QSliderET_PK7QObject$w$rCcr4cDF8U6i0gdk0
0001:000ae75c  __Z7qt_castIP10QScrollBarET_PK7QObject$w$rCcr4cDF8U6i0gdk0
0001:000ae778  __Z7qt_castIP9QDateEditET_PK7QObject$w$rCcr4cDF8U6i0gdk0
0001:000ae794  __Z7qt_castIP9QTimeEditET_PK7QObject$w$rCcr4cDF8U6i0gdk0
0001:000ae7b0  __Z7qt_castIP13QDateTimeEditET_PK7QObject$w$rCcr4cDF8U6i0gdk0
0001:000ae7cc  __Z7qt_castIP5QDialET_PK7QObject$w$rCcr4cDF8U6i0gdk0
0001:000ae7e8* __Z7qt_castIP9QComboBoxET_PK7QObject$w$rCcr4cDF8U6i0gdk0
0001:000ae804* __Z7qt_castIP11QToolButtonET_PK7QObject$w$rCcr4cDF8U6i0gdk0
0001:000ae850* __ZNK17QValueListPrivateI7QStringE9findIndexEP14QValueListNodeIS0_ERKS0_$w$rCcr4cDF8U6i0gdk0
0001:000ae820  __ZN4QMapIi11QStringListE14detachInternalEv$w$rCcr4cDF8U6i0gdk0
0001:000ae8a8* __ZNK11QMapPrivateI7QString8QVariantE4findERKS0_$w$rCcr4cDF8U6i0gdk0
0001:000ae95c* __ZN4QMapI7QString8QVariantE14detachInternalEv$w$rCcr4cDF8U6i0gdk0
0001:000ae92c  __ZN4QMapIiS_I7QString8QVariantEE14detachInternalEv$w$rCcr4cDF8U6i0gdk0
0001:000af4a0  __ZTV19CustomWidgetFactory$w$rCcr4cDF8U6i0gdk0
0001:000ae9d8* __ZN11QMapPrivateI7QString8QVariantE5clearEP8QMapNodeIS0_S1_E$w$rCcr4cDF8U6i0gdk0
0001:000aea48* __ZN11QMapPrivateI7QString8QVariantE12insertSingleERKS0_$w$rCcr4cDF8U6i0gdk0
0001:000aeafc  __ZN11QMapPrivateIi4QMapI7QString8QVariantEE12insertSingleERKi$w$rCcr4cDF8U6i0gdk0
0001:000aeb98  __ZN4QMapI7QString8QVariantEaSERKS2_$w$rCcr4cDF8U6i0gdk0
0001:000aec24  __ZN11QMapPrivateIi11QStringListE12insertSingleERKi$w$rCcr4cDF8U6i0gdk0
0001:000ae98c* __ZN17QValueListPrivateI7QStringEC1Ev$w$rCcr4cDF8U6i0gdk0
0001:000aecc0  __ZN11QMapPrivateIi11QStringListEC1EPKS1_$w$rCcr4cDF8U6i0gdk0
0001:000aed74  __ZN11QMapPrivateIi4QMapI7QString8QVariantEEC1EPKS4_$w$rCcr4cDF8U6i0gdk0
0001:000aee28* __ZN11QMapPrivateI7QString8QVariantEC1EPKS2_$w$rCcr4cDF8U6i0gdk0
0001:000aeee0* __ZN11QMapPrivateI7QString8QVariantE6insertEP12QMapNodeBaseS4_RKS0_$w$rCcr4cDF8U6i0gdk0
0001:000aefd0* __ZN12QMapIteratorI7QString8QVariantE3decEv$w$rCcr4cDF8U6i0gdk0
0001:000af028  __ZN11QMapPrivateIi4QMapI7QString8QVariantEE6insertEP12QMapNodeBaseS6_RKi$w$rCcr4cDF8U6i0gdk0
0001:000af0e0  __ZN12QMapIteratorIi4QMapI7QString8QVariantEE3decEv$w$rCcr4cDF8U6i0gdk0
0001:000af138  __ZN11QMapPrivateIi11QStringListE6insertEP12QMapNodeBaseS3_RKi$w$rCcr4cDF8U6i0gdk0
0001:000af1f0  __ZN12QMapIteratorIi11QStringListE3decEv$w$rCcr4cDF8U6i0gdk0
0001:000af248  __ZN11QMapPrivateIi11QStringListE4copyEP8QMapNodeIiS0_E$w$rCcr4cDF8U6i0gdk0
0001:000af314  __ZN11QMapPrivateIi4QMapI7QString8QVariantEE4copyEP8QMapNodeIiS3_E$w$rCcr4cDF8U6i0gdk0
0001:000af3d0* __ZN11QMapPrivateI7QString8QVariantE4copyEP8QMapNodeIS0_S1_E$w$rCcr4cDF8U6i0gdk0
0001:000af78c  __ZN19CustomWidgetFactoryD1Ev$w$rCcr4cDF8U6i0gdk0
0001:000af7a8  __ZN19CustomWidgetFactoryD0Ev$w$rCcr4cDF8U6i0gdk0
0001:000af4b8* __ZTV19QTextCommandHistory$w$rCcr4cDF8U6i0gdk0
0001:000af7f8* __ZN19QTextCommandHistoryD1Ev$w$rCcr4cDF8U6i0gdk0
0001:000af83c* __ZN19QTextCommandHistoryD0Ev$w$rCcr4cDF8U6i0gdk0
0001:000af98c  __ZNK8QPtrDictI7QWidgetE5countEv$w$rCcr4cDF8U6i0gdk0
0001:000af950  __ZN8QPtrDictI7QWidgetE5clearEv$w$rCcr4cDF8U6i0gdk0
0001:000af7d0  __ZN8QPtrDictI7QWidgetED1Ev$w$rCcr4cDF8U6i0gdk0
0001:000af95c  __ZN8QPtrDictI7QWidgetED0Ev$w$rCcr4cDF8U6i0gdk0
0001:000af998  __ZN8QPtrDictI7QWidgetE10deleteItemEPv$w$rCcr4cDF8U6i0gdk0
0001:000af8e0* __ZNK8QPtrListI7QWidgetE5countEv$w$rCcr4cDF8U6i0gdk0
0001:000af780* __ZN8QPtrListI7QWidgetE5clearEv$w$rCcr4cDF8U6i0gdk0
0001:000af888* __ZN8QPtrListI7QWidgetED1Ev$w$rCcr4cDF8U6i0gdk0
0001:000af8b0* __ZN8QPtrListI7QWidgetED0Ev$w$rCcr4cDF8U6i0gdk0
0001:000af9c0* __ZN8QPtrListI7QWidgetE10deleteItemEPv$w$rCcr4cDF8U6i0gdk0
0001:000af8ec* __ZNK8QPtrListIcE5countEv$w$rCcr4cDF8U6i0gdk0
0001:000af658* __ZN8QPtrListIcE5clearEv$w$rCcr4cDF8U6i0gdk0
0001:000af664* __ZN8QStrListD1Ev$w$rCcr4cDF8U6i0gdk0
0001:000af698* __ZN8QStrListD0Ev$w$rCcr4cDF8U6i0gdk0
0001:000af6d4* __ZN8QStrList7newItemEPv$w$rCcr4cDF8U6i0gdk0
0001:000af6f8* __ZN8QStrList10deleteItemEPv$w$rCcr4cDF8U6i0gdk0
0001:000af718* __ZN8QStrList12compareItemsEPvS0_$w$rCcr4cDF8U6i0gdk0
0001:000af74c* __ZN8QStrList4readER11QDataStreamRPv$w$rCcr4cDF8U6i0gdk0
0001:000af768* __ZNK8QStrList5writeER11QDataStreamPv$w$rCcr4cDF8U6i0gdk0
0001:000af8f8* __ZN8QPtrListIcED1Ev$w$rCcr4cDF8U6i0gdk0
0001:000af920* __ZN8QPtrListIcED0Ev$w$rCcr4cDF8U6i0gdk0
0001:000af9e8* __ZN8QPtrListIcE10deleteItemEPv$w$rCcr4cDF8U6i0gdk0
0001:000af5d0* __ZTV6QGList$w$rCcr4cDF8U6i0gdk0
0001:000af64c* __ZNK6QGList5countEv$w$rCcr4cDF8U6i0gdk0
0001:000afa10* __ZTV8QPtrListI12QTextCommandE$w$rCcr4cDF8U6i0gdk0
0001:000afa70* __ZNK8QPtrListI12QTextCommandE5countEv$w$rCcr4cDF8U6i0gdk0
0001:000afa64* __ZN8QPtrListI12QTextCommandE5clearEv$w$rCcr4cDF8U6i0gdk0
0001:000afa3c* __ZN8QPtrListI12QTextCommandED1Ev$w$rCcr4cDF8U6i0gdk0
0001:000afa7c* __ZN8QPtrListI12QTextCommandED0Ev$w$rCcr4cDF8U6i0gdk0
0001:000afaac* __ZN8QPtrListI12QTextCommandE10deleteItemEPv$w$rCcr4cDF8U6i0gdk0
Module: C:\200\trunk\lib\designercore.lib(metadatabase.obj)
0001:000afaf0* __ZN12MetaDataBaseC2Ev
0001:000afaf8* __ZN12MetaDataBaseC1Ev
0001:000afb00  __ZN12MetaDataBase13clearDataBaseEv
0001:000afb50  __ZN12MetaDataBase8addEntryEP7QObject
0001:000afc38  __ZN12MetaDataBase11removeEntryEP7QObject
0001:000afd24  __ZN12MetaDataBase18setPropertyChangedEP7QObjectRK7QStringb
0001:000b01dc  __ZN12MetaDataBase17isPropertyChangedEP7QObjectRK7QString
0001:000b02e4  __ZN12MetaDataBase17changedPropertiesEP7QObject
0001:000b03ec  __ZN12MetaDataBase18setPropertyCommentEP7QObjectRK7QStringS4_
0001:000b04f0  __ZN12MetaDataBase15propertyCommentEP7QObjectRK7QString
0001:000b0620  __ZN12MetaDataBase15setFakePropertyEP7QObjectRK7QStringRK8QVariant
0001:000b073c  __ZN12MetaDataBase12fakePropertyEP7QObjectRK7QString
0001:000b08c8  __ZN12MetaDataBase14fakePropertiesEP7QObject
0001:000b0988  __ZN12MetaDataBase10setSpacingEP7QObjecti
0001:000b0adc  __ZN12MetaDataBase7spacingEP7QObject
0001:000b0bdc  __ZN12MetaDataBase9setMarginEP7QObjecti
0001:000b0df0  __ZN12MetaDataBase6marginEP7QObject
0001:000b0ef0  __ZN12MetaDataBase13setResizeModeEP7QObjectRK7QString
0001:000b0fe0  __ZN12MetaDataBase10resizeModeEP7QObject
0001:000b1104  __ZN12MetaDataBase13addConnectionEP7QObjectS1_RK8QCStringS1_S4_b
0001:000b149c  __ZN12MetaDataBase16removeConnectionEP7QObjectS1_RK8QCStringS1_S4_
0001:000b18ac  __ZN12MetaDataBase16setupConnectionsEP7QObjectRK10QValueListIN17LanguageInterface10ConnectionEE
0001:000b1c3c  __ZN12MetaDataBase13hasConnectionEP7QObjectS1_RK8QCStringS1_S4_
0001:000b1e8c  __ZN12MetaDataBase11connectionsEP7QObject
0001:000b1f74  __ZN12MetaDataBase11connectionsEP7QObjectS1_S1_
0001:000b2170  __ZN12MetaDataBase11connectionsEP7QObjectS1_
0001:000b2374* __ZN12MetaDataBase13doConnectionsEP7QObject
0001:000b2930  __ZN12MetaDataBase7hasSlotEP7QObjectRK8QCStringb
0001:000b8c6c  __ZN12MetaDataBase17normalizeFunctionERK7QString
0001:000b3024  __ZN12MetaDataBase10isSlotUsedEP7QObjectRK8QCString
0001:000b31d8  __ZN12MetaDataBase11addFunctionEP7QObjectRK8QCStringRK7QStringS7_S7_S7_S7_
0001:000b3694  __ZN12MetaDataBase15setFunctionListEP7QObjectRK10QValueListINS_8FunctionEE
0001:000b3790  __ZN12MetaDataBase14removeFunctionEP7QObjectRK8QCStringRK7QStringS7_S7_S7_S7_
0001:000b3c40* __ZN12MetaDataBase14removeFunctionEP7QObjectRK7QString
0001:000b3fb8  __ZN12MetaDataBase12functionListEP7QObjectb
0001:000b41d4  __ZN12MetaDataBase8slotListEP7QObject
0001:000b43d8  __ZN12MetaDataBase14changeFunctionEP7QObjectRK7QStringS4_S4_
0001:000b4828  __ZN12MetaDataBase24changeFunctionAttributesEP7QObjectRK7QStringS4_S4_S4_S4_S4_S4_
0001:000b4c98  __ZN12MetaDataBase11hasFunctionEP7QObjectRK8QCStringb
0001:000b5330* __ZN12MetaDataBase18languageOfFunctionEP7QObjectRK8QCString
0001:000b556c  __ZN12MetaDataBase15addCustomWidgetEPNS_12CustomWidgetE
0001:000b79f4* __ZNK12MetaDataBase12CustomWidgeteqERKS0_
0001:000b7b48  __ZNK12MetaDataBase12CustomWidget9hasSignalERK8QCString
0001:000b7d38  __ZNK12MetaDataBase12CustomWidget7hasSlotERK8QCString
0001:000b7fbc  __ZNK12MetaDataBase12CustomWidget11hasPropertyERK8QCString
0001:000b5be4  __ZN12MetaDataBase18removeCustomWidgetEPNS_12CustomWidgetE
0001:000b5c00  __ZN12MetaDataBase13customWidgetsEv
0001:000b5c78  __ZN12MetaDataBase12customWidgetEi
0001:000b5cb8  __ZN12MetaDataBase16isWidgetNameUsedEPNS_12CustomWidgetE
0001:000b5d0c  __ZN12MetaDataBase15hasCustomWidgetERK7QString
0001:000b5d5c  __ZN12MetaDataBase11setTabOrderEP7QWidgetRK11QWidgetList
0001:000b5e28  __ZN12MetaDataBase8tabOrderEP7QWidget
0001:000b5f0c  __ZN12MetaDataBase11setIncludesEP7QObjectRK10QValueListINS_7IncludeEE
0001:000b6008  __ZN12MetaDataBase8includesEP7QObject
0001:000b60f0  __ZN12MetaDataBase11setForwardsEP7QObjectRK11QStringList
0001:000b61ec  __ZN12MetaDataBase8forwardsEP7QObject
0001:000b62d4  __ZN12MetaDataBase12setVariablesEP7QObjectRK10QValueListINS_8VariableEE
0001:000b63d0  __ZN12MetaDataBase11addVariableEP7QObjectRK7QStringS4_
0001:000b6590  __ZN12MetaDataBase14removeVariableEP7QObjectRK7QString
0001:000b6700  __ZN12MetaDataBase9variablesEP7QObject
0001:000b67e8  __ZN12MetaDataBase11hasVariableEP7QObjectRK7QString
0001:000b69a4  __ZN12MetaDataBase19extractVariableNameERK7QString
0001:000b6c58  __ZN12MetaDataBase13setSignalListEP7QObjectRK11QStringList
0001:000b6fd8  __ZN12MetaDataBase10signalListEP7QObject
0001:000b70c0  __ZN12MetaDataBase11setMetaInfoEP7QObjectNS_8MetaInfoE
0001:000b71c0  __ZN12MetaDataBase8metaInfoEP7QObject
0001:000b733c* __ZN12MetaDataBase12CustomWidgetC2Ev
0001:000b7488  __ZN12MetaDataBase12CustomWidgetC1Ev
0001:000b75d4* __ZN12MetaDataBase12CustomWidgetC2ERKS0_
0001:000b76f0* __ZN12MetaDataBase12CustomWidgetC1ERKS0_
0001:000b780c  __ZN12MetaDataBase9setCursorEP7QWidgetRK7QCursor
0001:000b790c  __ZN12MetaDataBase6cursorEP7QWidget
0001:000b7a0c* __ZN12MetaDataBase12CustomWidgetaSERKS0_
0001:000b80d0  __ZN12MetaDataBase17setPixmapArgumentEP7QObjectiRK7QString
0001:000b81c0  __ZN12MetaDataBase14pixmapArgumentEP7QObjecti
0001:000b82dc  __ZN12MetaDataBase20clearPixmapArgumentsEP7QObject
0001:000b83b0  __ZN12MetaDataBase12setPixmapKeyEP7QObjectiRK7QString
0001:000b84c4  __ZN12MetaDataBase9pixmapKeyEP7QObjecti
0001:000b86dc  __ZN12MetaDataBase15clearPixmapKeysEP7QObject
0001:000b87b0  __ZN12MetaDataBase15setColumnFieldsEP7QObjectRK4QMapI7QStringS3_E
0001:000b888c  __ZN12MetaDataBase12columnFieldsEP7QObject
0001:000b897c  __ZN12MetaDataBase9setEditorERK11QStringList
0001:000b89c0  __ZN12MetaDataBase9hasEditorERK7QString
0001:000b8a38  __ZN12MetaDataBase22setupInterfaceManagersERK7QString
0001:000b8c58  __ZN12MetaDataBase9languagesEv
0001:000b8c88  __ZN12MetaDataBase17languageInterfaceERK7QString
0001:000b8cb0  __ZN12MetaDataBase5clearEP7QObject
0001:000b8da0  __ZN12MetaDataBase14setBreakPointsEP7QObjectRK10QValueListIjE
0001:000b908c  __ZN12MetaDataBase11breakPointsEP7QObject
0001:000b917c  __ZN12MetaDataBase22setBreakPointConditionEP7QObjectiRK7QString
0001:000b926c  __ZN12MetaDataBase19breakPointConditionEP7QObjecti
0001:000b93b8  __ZN12MetaDataBase14setExportMacroEP7QObjectRK7QString
0001:000b94c4  __ZN12MetaDataBase11exportMacroEP7QObject
0001:000b95d4* __ZN12MetaDataBase9hasObjectEP7QObject
0001:000bc1f0  __ZTV8QPtrDictI18MetaDataBaseRecordE$w$r49E9PAF8U6qm9JK2
0001:000bc1b0  __ZTV8QPtrListIN12MetaDataBase12CustomWidgetEE$w$r49E9PAF8U6qm9JK2
0001:000bc590  __ZN18MetaDataBaseRecordC1Ev$w$r49E9PAF8U6qm9JK2
0001:000b95fc  __ZNK17QValueListPrivateI7QStringE9findIndexEP14QValueListNodeIS0_ERKS0_$w$r49E9PAF8U6qm9JK2
0001:000b9654* __ZN17QValueListPrivateI7QStringE6insertE18QValueListIteratorIS0_ERKS0_$w$r49E9PAF8U6qm9JK2
0001:000b96b0* __ZN10QValueListI7QStringE14detachInternalEv$w$r49E9PAF8U6qm9JK2
0001:000b96e0* __ZN17QValueListPrivateI7QStringE6removeERKS0_$w$r49E9PAF8U6qm9JK2
0001:000b97a4* __ZN17QValueListPrivateI7QStringED1Ev$w$r49E9PAF8U6qm9JK2
0001:000b9758* __ZN17QValueListPrivateI7QStringEC1Ev$w$r49E9PAF8U6qm9JK2
0001:000b9834* __ZN4QMapI7QStringS0_E6insertERKS0_S3_b$w$r49E9PAF8U6qm9JK2
0001:000b98a0* __ZNK11QMapPrivateI7QStringS0_E4findERKS0_$w$r49E9PAF8U6qm9JK2
0001:000b9924* __ZN4QMapI7QStringS0_E14detachInternalEv$w$r49E9PAF8U6qm9JK2
0001:000b9954  __ZN4QMapI7QString8QVariantEixERKS0_$w$r49E9PAF8U6qm9JK2
0001:000b99e0  __ZNK11QMapPrivateI7QString8QVariantE4findERKS0_$w$r49E9PAF8U6qm9JK2
0001:000b9a64  __ZN4QMapI7QString8QVariantE14detachInternalEv$w$r49E9PAF8U6qm9JK2
0001:000b9a94* __Z7qt_castIP11QMainWindowET_PK7QObject$w$r49E9PAF8U6qm9JK2
0001:000b9ab0  __Z7qt_castIP13QLayoutWidgetET_PK7QObject$w$r49E9PAF8U6qm9JK2
0001:000b9acc* __Z7qt_castIP10FormWindowET_PK7QObject$w$r49E9PAF8U6qm9JK2
0001:000b9b04  __ZN17QValueListPrivateIN12MetaDataBase10ConnectionEE6insertE18QValueListIteratorIS1_ERKS1_$w$r49E9PAF8U6qm9JK2
0001:000b9ae8  __Z7qt_castIP8FormFileET_PK7QObject$w$r49E9PAF8U6qm9JK2
0001:000b9b8c  __ZN10QValueListIN12MetaDataBase10ConnectionEE14detachInternalEv$w$r49E9PAF8U6qm9JK2
0001:000b9c08  __ZN17QValueListPrivateIN12MetaDataBase10ConnectionEE6removeE18QValueListIteratorIS1_E$w$r49E9PAF8U6qm9JK2
0001:000b9c84  __ZN10QValueListIN12MetaDataBase10ConnectionEE5clearEv$w$r49E9PAF8U6qm9JK2
0001:000b9cc8  __ZN17QValueListPrivateIN12MetaDataBase10ConnectionEEC1Ev$w$r49E9PAF8U6qm9JK2
0001:000b9d20  __ZN17QValueListPrivateIN12MetaDataBase10ConnectionEED1Ev$w$r49E9PAF8U6qm9JK2
0001:000bc270* __ZTV8QStrList$w$r49E9PAF8U6qm9JK2
0001:000bc2b0* __ZTV8QPtrListIcE$w$r49E9PAF8U6qm9JK2
0001:000b9d9c* __ZN10QValueListIN12MetaDataBase8FunctionEE14detachInternalEv$w$r49E9PAF8U6qm9JK2
0001:000b9dcc  __ZNK17QValueListPrivateIN12MetaDataBase8FunctionEE4findEP14QValueListNodeIS1_ERKS1_$w$r49E9PAF8U6qm9JK2
0001:000b9ec4  __ZN17QValueListPrivateIN12MetaDataBase8FunctionEE6removeE18QValueListIteratorIS1_E$w$r49E9PAF8U6qm9JK2
0001:000b9ff4* __ZN17QValueListPrivateIN12MetaDataBase8FunctionEE6insertE18QValueListIteratorIS1_ERKS1_$w$r49E9PAF8U6qm9JK2
0001:000ba0a4* __ZN17QValueListPrivateIN12MetaDataBase8FunctionEED1Ev$w$r49E9PAF8U6qm9JK2
0001:000ba268  __ZN17QValueListPrivateIN12MetaDataBase8FunctionEEC1Ev$w$r49E9PAF8U6qm9JK2
0001:000ba358* __ZN17QValueListPrivateI8QCStringE6insertE18QValueListIteratorIS0_ERKS0_$w$r49E9PAF8U6qm9JK2
0001:000ba328* __ZN10QValueListI8QCStringE14detachInternalEv$w$r49E9PAF8U6qm9JK2
0001:000ba3ec* __ZN17QValueListPrivateIN12MetaDataBase8PropertyEE6insertE18QValueListIteratorIS1_ERKS1_$w$r49E9PAF8U6qm9JK2
0001:000ba3bc* __ZN10QValueListIN12MetaDataBase8PropertyEE14detachInternalEv$w$r49E9PAF8U6qm9JK2
0001:000ba45c  __ZN17QValueListPrivateI8QCStringED1Ev$w$r49E9PAF8U6qm9JK2
0001:000ba4c0  __ZN17QValueListPrivateIN12MetaDataBase8PropertyEED1Ev$w$r49E9PAF8U6qm9JK2
0001:000bc230* __ZTV11QWidgetList$w$r49E9PAF8U6qm9JK2
0001:000ba56c  __ZN17QValueListPrivateIN12MetaDataBase7IncludeEED1Ev$w$r49E9PAF8U6qm9JK2
0001:000ba69c  __ZN17QValueListPrivateIN12MetaDataBase7IncludeEEC1Ev$w$r49E9PAF8U6qm9JK2
0001:000ba710  __ZN17QValueListPrivateIN12MetaDataBase8VariableEED1Ev$w$r49E9PAF8U6qm9JK2
0001:000ba7e8  __ZN17QValueListPrivateIN12MetaDataBase8VariableEE6insertE18QValueListIteratorIS1_ERKS1_$w$r49E9PAF8U6qm9JK2
0001:000ba854  __ZN10QValueListIN12MetaDataBase8VariableEE14detachInternalEv$w$r49E9PAF8U6qm9JK2
0001:000ba884  __ZN17QValueListPrivateIN12MetaDataBase8VariableEE6removeE18QValueListIteratorIS1_E$w$r49E9PAF8U6qm9JK2
0001:000ba938  __ZN17QValueListPrivateIN12MetaDataBase8VariableEEC1Ev$w$r49E9PAF8U6qm9JK2
0001:000ba998* __ZN10QValueListI7QStringE5clearEv$w$r49E9PAF8U6qm9JK2
0001:000ba9dc  __ZN17QValueListPrivateI8QCStringEC1Ev$w$r49E9PAF8U6qm9JK2
0001:000baa24  __ZN17QValueListPrivateIN12MetaDataBase8PropertyEEC1Ev$w$r49E9PAF8U6qm9JK2
0001:000baa80  __ZN4QMapIi7QStringE6removeERKi$w$r49E9PAF8U6qm9JK2
0001:000bab50  __ZN4QMapIi7QStringE6insertERKiRKS0_b$w$r49E9PAF8U6qm9JK2
0001:000babbc  __ZNK11QMapPrivateIi7QStringE4findERKi$w$r49E9PAF8U6qm9JK2
0001:000bac0c  __ZN4QMapIi7QStringE14detachInternalEv$w$r49E9PAF8U6qm9JK2
0001:000bac3c  __ZN4QMapIi7QStringE5clearEv$w$r49E9PAF8U6qm9JK2
0001:000bac80  __ZN4QMapI7QStringS0_EaSERKS1_$w$r49E9PAF8U6qm9JK2
0001:000bad24* __ZN11QMapPrivateI7QStringS0_EC1Ev$w$r49E9PAF8U6qm9JK2
0001:000badd0* __ZNK17QValueListPrivateI7QStringE4findEP14QValueListNodeIS0_ERKS0_$w$r49E9PAF8U6qm9JK2
0001:000bae64  __ZN12QMapIteratorIi7QStringE3incEv$w$r49E9PAF8U6qm9JK2
0001:000baeb0  __ZNK17QValueListPrivateIjE4findEP14QValueListNodeIjERKj$w$r49E9PAF8U6qm9JK2
0001:000baeec* __ZN10QValueListIjE14detachInternalEv$w$r49E9PAF8U6qm9JK2
0001:000bae28* __ZN17QValueListPrivateIjED1Ev$w$r49E9PAF8U6qm9JK2
0001:000baf1c* __ZN17QValueListPrivateIjEC1Ev$w$r49E9PAF8U6qm9JK2
0001:000bafa4* __ZN17QValueListPrivateI7QStringEC1ERKS1_$w$r49E9PAF8U6qm9JK2
0001:000bb038* __ZN17QValueListPrivateI7QStringE6removeE18QValueListIteratorIS0_E$w$r49E9PAF8U6qm9JK2
0001:000bb0c0* __ZN11QMapPrivateI7QStringS0_E12insertSingleERKS0_$w$r49E9PAF8U6qm9JK2
0001:000bb174* __ZN11QMapPrivateI7QStringS0_EC1EPKS1_$w$r49E9PAF8U6qm9JK2
0001:000bb240  __ZN4QMapI7QString8QVariantE6insertERKS0_RKS1_b$w$r49E9PAF8U6qm9JK2
0001:000bb2ac  __ZN11QMapPrivateI7QString8QVariantEC1EPKS2_$w$r49E9PAF8U6qm9JK2
0001:000bb364  __ZN17QValueListPrivateIN12MetaDataBase10ConnectionEEC1ERKS2_$w$r49E9PAF8U6qm9JK2
0001:000bb408  __ZN17QValueListPrivateIN12MetaDataBase10ConnectionEE5clearEv$w$r49E9PAF8U6qm9JK2
0001:000bb460* __ZN17QValueListPrivateIN12MetaDataBase8FunctionEEC1ERKS2_$w$r49E9PAF8U6qm9JK2
0001:000bb574* __ZN17QValueListPrivateI8QCStringEC1ERKS1_$w$r49E9PAF8U6qm9JK2
0001:000bb604* __ZN17QValueListPrivateIN12MetaDataBase8PropertyEEC1ERKS2_$w$r49E9PAF8U6qm9JK2
0001:000bb6ac  __ZN17QValueListPrivateIN12MetaDataBase8VariableEEC1ERKS2_$w$r49E9PAF8U6qm9JK2
0001:000bb758* __ZN17QValueListPrivateI7QStringE5clearEv$w$r49E9PAF8U6qm9JK2
0001:000bb7bc  __ZN11QMapPrivateIi7QStringE12insertSingleERKi$w$r49E9PAF8U6qm9JK2
0001:000bb858  __ZN11QMapPrivateIi7QStringEC1EPKS1_$w$r49E9PAF8U6qm9JK2
0001:000baf4c  __ZN11QMapPrivateIi7QStringEC1Ev$w$r49E9PAF8U6qm9JK2
0001:000bb908  __ZN11QMapPrivateIi7QStringE5clearEv$w$r49E9PAF8U6qm9JK2
0001:000bad94* __ZN11QMapPrivateI7QStringS0_E5clearEv$w$r49E9PAF8U6qm9JK2
0001:000bb944* __ZN11QMapPrivateI7QStringS0_E5clearEP8QMapNodeIS0_S0_E$w$r49E9PAF8U6qm9JK2
0001:000bb9c8* __ZN17QValueListPrivateIjEC1ERKS0_$w$r49E9PAF8U6qm9JK2
0001:000bba44* __ZN11QMapPrivateI7QStringS0_E6insertEP12QMapNodeBaseS3_RKS0_$w$r49E9PAF8U6qm9JK2
0001:000bbb48* __ZN12QMapIteratorI7QStringS0_E3decEv$w$r49E9PAF8U6qm9JK2
0001:000bbba0* __ZN11QMapPrivateI7QStringS0_E4copyEP8QMapNodeIS0_S0_E$w$r49E9PAF8U6qm9JK2
0001:000bbc80  __ZN11QMapPrivateI7QString8QVariantE12insertSingleERKS0_$w$r49E9PAF8U6qm9JK2
0001:000bbd34  __ZN11QMapPrivateI7QString8QVariantE4copyEP8QMapNodeIS0_S1_E$w$r49E9PAF8U6qm9JK2
0001:000bbe00  __ZN11QMapPrivateIi7QStringE6insertEP12QMapNodeBaseS3_RKi$w$r49E9PAF8U6qm9JK2
0001:000bbea8  __ZN12QMapIteratorIi7QStringE3decEv$w$r49E9PAF8U6qm9JK2
0001:000bbf00  __ZN11QMapPrivateIi7QStringE4copyEP8QMapNodeIiS0_E$w$r49E9PAF8U6qm9JK2
0001:000bbfb0  __ZN11QMapPrivateIi7QStringE5clearEP8QMapNodeIiS0_E$w$r49E9PAF8U6qm9JK2
0001:000bc014* __ZN17QValueListPrivateIjE6insertE18QValueListIteratorIjERKj$w$r49E9PAF8U6qm9JK2
0001:000bc064  __ZN11QMapPrivateI7QString8QVariantE6insertEP12QMapNodeBaseS4_RKS0_$w$r49E9PAF8U6qm9JK2
0001:000bc154  __ZN12QMapIteratorI7QString8QVariantE3decEv$w$r49E9PAF8U6qm9JK2
0001:000bc93c  __ZNK8QPtrListIN12MetaDataBase12CustomWidgetEE5countEv$w$r49E9PAF8U6qm9JK2
0001:000bc8a4  __ZN8QPtrListIN12MetaDataBase12CustomWidgetEE5clearEv$w$r49E9PAF8U6qm9JK2
0001:000bc8b0  __ZN8QPtrListIN12MetaDataBase12CustomWidgetEED1Ev$w$r49E9PAF8U6qm9JK2
0001:000bc7e8  __ZN8QPtrListIN12MetaDataBase12CustomWidgetEED0Ev$w$r49E9PAF8U6qm9JK2
0001:000bc948  __ZN8QPtrListIN12MetaDataBase12CustomWidgetEE10deleteItemEPv$w$r49E9PAF8U6qm9JK2
0001:000bca58  __ZNK8QPtrDictI18MetaDataBaseRecordE5countEv$w$r49E9PAF8U6qm9JK2
0001:000bc870  __ZN8QPtrDictI18MetaDataBaseRecordE5clearEv$w$r49E9PAF8U6qm9JK2
0001:000bc87c  __ZN8QPtrDictI18MetaDataBaseRecordED1Ev$w$r49E9PAF8U6qm9JK2
0001:000bc7b8  __ZN8QPtrDictI18MetaDataBaseRecordED0Ev$w$r49E9PAF8U6qm9JK2
0001:000bca64  __ZN8QPtrDictI18MetaDataBaseRecordE10deleteItemEPv$w$r49E9PAF8U6qm9JK2
0001:000bca9c* __ZNK8QPtrListI7QWidgetE5countEv$w$r49E9PAF8U6qm9JK2
0001:000bc514* __ZN8QPtrListI7QWidgetE5clearEv$w$r49E9PAF8U6qm9JK2
0001:000bc520* __ZN11QWidgetListD1Ev$w$r49E9PAF8U6qm9JK2
0001:000bc554* __ZN11QWidgetListD0Ev$w$r49E9PAF8U6qm9JK2
0001:000bcaa8* __ZN8QPtrListI7QWidgetE10deleteItemEPv$w$r49E9PAF8U6qm9JK2
0001:000bcad0* __ZNK8QPtrListIcE5countEv$w$r49E9PAF8U6qm9JK2
0001:000bc3ec* __ZN8QPtrListIcE5clearEv$w$r49E9PAF8U6qm9JK2
0001:000bc3f8* __ZN8QStrListD1Ev$w$r49E9PAF8U6qm9JK2
0001:000bc42c* __ZN8QStrListD0Ev$w$r49E9PAF8U6qm9JK2
0001:000bc468* __ZN8QStrList7newItemEPv$w$r49E9PAF8U6qm9JK2
0001:000bc48c* __ZN8QStrList10deleteItemEPv$w$r49E9PAF8U6qm9JK2
0001:000bc4ac* __ZN8QStrList12compareItemsEPvS0_$w$r49E9PAF8U6qm9JK2
0001:000bc4e0* __ZN8QStrList4readER11QDataStreamRPv$w$r49E9PAF8U6qm9JK2
0001:000bc4fc* __ZNK8QStrList5writeER11QDataStreamPv$w$r49E9PAF8U6qm9JK2
0001:000bc818* __ZN8QPtrListIcED1Ev$w$r49E9PAF8U6qm9JK2
0001:000bc840* __ZN8QPtrListIcED0Ev$w$r49E9PAF8U6qm9JK2
0001:000bcadc* __ZN8QPtrListIcE10deleteItemEPv$w$r49E9PAF8U6qm9JK2
0001:000bc2f0* __ZTV6QGList$w$r49E9PAF8U6qm9JK2
0001:000bc3e0* __ZNK6QGList5countEv$w$r49E9PAF8U6qm9JK2
0001:000bcb10* __ZTV8QPtrListI7QWidgetE$w$r49E9PAF8U6qm9JK2
0001:000bc8d8  __ZN11QMapPrivateI7QString8QVariantEC1Ev$w$r49E9PAF8U6qm9JK2
0001:000bcb3c  __ZN18MetaDataBaseRecordD1Ev$w$r49E9PAF8U6qm9JK2
0001:000bcfe0* __ZN8QPtrListI7QWidgetED1Ev$w$r49E9PAF8U6qm9JK2
0001:000bd008* __ZN8QPtrListI7QWidgetED0Ev$w$r49E9PAF8U6qm9JK2
0001:000bd038  __ZN11QMapPrivateI7QString8QVariantE5clearEv$w$r49E9PAF8U6qm9JK2
0001:000bd074  __ZN11QMapPrivateI7QString8QVariantE5clearEP8QMapNodeIS0_S1_E$w$r49E9PAF8U6qm9JK2
Module: C:\200\trunk\lib\designercore.lib(command.obj)
0001:000bd130* __ZN14CommandHistoryC2Ei
0001:000bd188  __ZN14CommandHistoryC1Ei
0001:000bd1e0  __ZN14CommandHistory10addCommandEP7Commandb
0001:000bd6c4  __ZN14CommandHistory22checkCompressedCommandEv
0001:000bd4c0  __ZN14CommandHistory12emitUndoRedoEv
0001:000bd3bc  __ZN14CommandHistory4undoEv
0001:000bd430  __ZN14CommandHistory4redoEv
0001:000bd820* __ZNK7Command4nameEv
0001:000bd690  __ZN14CommandHistory11setModifiedEb
0001:000bd6b8  __ZNK14CommandHistory10isModifiedEv
0001:000bf1e4* __ZN18SetPropertyCommand13checkPropertyEv
0001:000bd724* __ZN7CommandC2ERK7QStringP10FormWindow
0001:000bd750* __ZN7CommandC1ERK7QStringP10FormWindow
0001:000bd77c  __ZN7CommandD2Ev
0001:000bd7b0* __ZN7CommandD1Ev
0001:000bd7e4* __ZN7CommandD0Ev
0001:000bd840* __ZNK7Command10formWindowEv
0001:000bd84c  __ZN7Command5mergeEPS_
0001:000bd854  __ZN7Command8canMergeEPS_
0001:000bd85c* __ZN13ResizeCommandC2ERK7QStringP10FormWindowP7QWidgetRK5QRectS9_
0001:000bd8c0  __ZN13ResizeCommandC1ERK7QStringP10FormWindowP7QWidgetRK5QRectS9_
0001:000bd924* __ZN13ResizeCommand7executeEv
0001:000bd99c* __ZN13ResizeCommand9unexecuteEv
0001:000bda14* __ZN13InsertCommandC2ERK7QStringP10FormWindowP7QWidgetRK5QRect
0001:000bda5c  __ZN13InsertCommandC1ERK7QStringP10FormWindowP7QWidgetRK5QRect
0001:000bdaa4* __ZN13InsertCommand7executeEv
0001:000bdcc0* __ZN13InsertCommand9unexecuteEv
0001:000bdd40* __ZN11MoveCommandC2ERK7QStringP10FormWindowRK11QWidgetList10QValueListI6QPointESA_P7QWidgetSC_
0001:000bdda0  __ZN11MoveCommandC1ERK7QStringP10FormWindowRK11QWidgetList10QValueListI6QPointESA_P7QWidgetSC_
0001:000bde00* __ZN11MoveCommand5mergeEP7Command
0001:000bde48* __ZN11MoveCommand8canMergeEP7Command
0001:000bde6c* __ZN11MoveCommand7executeEv
0001:000be034* __ZN11MoveCommand9unexecuteEv
0001:000be204* __ZN13DeleteCommandC2ERK7QStringP10FormWindowRK11QWidgetList
0001:000be388  __ZN13DeleteCommandC1ERK7QStringP10FormWindowRK11QWidgetList
0001:000be51c* __ZN13DeleteCommand7executeEv
0001:000be758* __ZN13DeleteCommand9unexecuteEv
0001:000bea24* __ZN18SetPropertyCommandC2ERK7QStringP10FormWindowP7QObjectP14PropertyEditorS2_RK8QVariantSB_S2_S2_b
0001:000beb18  __ZN18SetPropertyCommandC1ERK7QStringP10FormWindowP7QObjectP14PropertyEditorS2_RK8QVariantSB_S2_S2_b
0001:000bec0c* __ZN18SetPropertyCommand7executeEv
0001:000bf6c8* __ZN18SetPropertyCommand11setPropertyERK8QVariantRK7QStringb
0001:000beddc* __ZN18SetPropertyCommand9unexecuteEv
0001:000bee6c* __ZN18SetPropertyCommand8canMergeEP7Command
0001:000bf0d8* __ZN18SetPropertyCommand5mergeEP7Command
0001:000c0828* __ZN23LayoutHorizontalCommandC2ERK7QStringP10FormWindowP7QWidgetS6_RK11QWidgetList
0001:000c0868  __ZN23LayoutHorizontalCommandC1ERK7QStringP10FormWindowP7QWidgetS6_RK11QWidgetList
0001:000c08a8* __ZN23LayoutHorizontalCommand7executeEv
0001:000c08fc* __ZN23LayoutHorizontalCommand9unexecuteEv
0001:000c0950* __ZN28LayoutHorizontalSplitCommandC2ERK7QStringP10FormWindowP7QWidgetS6_RK11QWidgetList
0001:000c0990  __ZN28LayoutHorizontalSplitCommandC1ERK7QStringP10FormWindowP7QWidgetS6_RK11QWidgetList
0001:000c09d0* __ZN28LayoutHorizontalSplitCommand7executeEv
0001:000c0a24* __ZN28LayoutHorizontalSplitCommand9unexecuteEv
0001:000c0a78* __ZN21LayoutVerticalCommandC2ERK7QStringP10FormWindowP7QWidgetS6_RK11QWidgetList
0001:000c0ab8  __ZN21LayoutVerticalCommandC1ERK7QStringP10FormWindowP7QWidgetS6_RK11QWidgetList
0001:000c0af8* __ZN21LayoutVerticalCommand7executeEv
0001:000c0b4c* __ZN21LayoutVerticalCommand9unexecuteEv
0001:000c0ba0* __ZN26LayoutVerticalSplitCommandC2ERK7QStringP10FormWindowP7QWidgetS6_RK11QWidgetList
0001:000c0be0  __ZN26LayoutVerticalSplitCommandC1ERK7QStringP10FormWindowP7QWidgetS6_RK11QWidgetList
0001:000c0c20* __ZN26LayoutVerticalSplitCommand7executeEv
0001:000c0c74* __ZN26LayoutVerticalSplitCommand9unexecuteEv
0001:000c0cc8* __ZN17LayoutGridCommandC2ERK7QStringP10FormWindowP7QWidgetS6_RK11QWidgetListii
0001:000c0d30  __ZN17LayoutGridCommandC1ERK7QStringP10FormWindowP7QWidgetS6_RK11QWidgetListii
0001:000c0d98* __ZN17LayoutGridCommand7executeEv
0001:000c0dec* __ZN17LayoutGridCommand9unexecuteEv
0001:000c0e40* __ZN18BreakLayoutCommandC2ERK7QStringP10FormWindowP7QWidgetRK11QWidgetList
0001:000c0fe8  __ZN18BreakLayoutCommandC1ERK7QStringP10FormWindowP7QWidgetRK11QWidgetList
0001:000c1190* __ZN18BreakLayoutCommand7executeEv
0001:000c124c* __ZN18BreakLayoutCommand9unexecuteEv
0001:000c12d4* __ZN12MacroCommandC2ERK7QStringP10FormWindowRK8QPtrListI7CommandE
0001:000c1310  __ZN12MacroCommandC1ERK7QStringP10FormWindowRK8QPtrListI7CommandE
0001:000c134c* __ZN12MacroCommand7executeEv
0001:000c1388* __ZN12MacroCommand9unexecuteEv
0001:000c13e0* __ZN17AddTabPageCommandC2ERK7QStringP10FormWindowP10QTabWidgetS2_
0001:000c14bc  __ZN17AddTabPageCommandC1ERK7QStringP10FormWindowP10QTabWidgetS2_
0001:000c1598* __ZN17AddTabPageCommand7executeEv
0001:000c1640* __ZN17AddTabPageCommand9unexecuteEv
0001:000c16bc* __ZN18MoveTabPageCommandC2ERK7QStringP10FormWindowP10QTabWidgetP7QWidgetS2_ii
0001:000c1708  __ZN18MoveTabPageCommandC1ERK7QStringP10FormWindowP10QTabWidgetP7QWidgetS2_ii
0001:000c1754* __ZN18MoveTabPageCommand7executeEv
0001:000c17f0* __ZN18MoveTabPageCommand9unexecuteEv
0001:000c188c* __ZN20DeleteTabPageCommandC2ERK7QStringP10FormWindowP10QTabWidgetP7QWidget
0001:000c192c  __ZN20DeleteTabPageCommandC1ERK7QStringP10FormWindowP10QTabWidgetP7QWidget
0001:000c19cc* __ZN20DeleteTabPageCommand7executeEv
0001:000c1a48* __ZN20DeleteTabPageCommand9unexecuteEv
0001:000c1adc* __ZN25AddWidgetStackPageCommandC2ERK7QStringP10FormWindowP20QDesignerWidgetStack
0001:000c1ba8  __ZN25AddWidgetStackPageCommandC1ERK7QStringP10FormWindowP20QDesignerWidgetStack
0001:000c1c74* __ZN25AddWidgetStackPageCommand7executeEv
0001:000c1ce0* __ZN25AddWidgetStackPageCommand9unexecuteEv
0001:000c1d58* __ZN28DeleteWidgetStackPageCommandC2ERK7QStringP10FormWindowP20QDesignerWidgetStackP7QWidget
0001:000c1d90  __ZN28DeleteWidgetStackPageCommandC1ERK7QStringP10FormWindowP20QDesignerWidgetStackP7QWidget
0001:000c1dc8* __ZN28DeleteWidgetStackPageCommand7executeEv
0001:000c1e40* __ZN28DeleteWidgetStackPageCommand9unexecuteEv
0001:000c1ec8* __ZN20AddWizardPageCommandC2ERK7QStringP10FormWindowP7QWizardS2_ib
0001:000c1fb4  __ZN20AddWizardPageCommandC1ERK7QStringP10FormWindowP7QWizardS2_ib
0001:000c20a0* __ZN20AddWizardPageCommand7executeEv
0001:000c2160* __ZN20AddWizardPageCommand9unexecuteEv
0001:000c21dc* __ZN23DeleteWizardPageCommandC2ERK7QStringP10FormWindowP7QWizardib
0001:000c222c  __ZN23DeleteWizardPageCommandC1ERK7QStringP10FormWindowP7QWizardib
0001:000c227c* __ZN23DeleteWizardPageCommand7executeEv
0001:000c234c* __ZN23DeleteWizardPageCommand9unexecuteEv
0001:000c23ec* __ZN23RenameWizardPageCommandC2ERK7QStringP10FormWindowP7QWizardiS2_
0001:000c242c  __ZN23RenameWizardPageCommandC1ERK7QStringP10FormWindowP7QWizardiS2_
0001:000c246c* __ZN23RenameWizardPageCommand7executeEv
0001:000c24fc* __ZN23RenameWizardPageCommand9unexecuteEv
0001:000c2510* __ZN22SwapWizardPagesCommandC2ERK7QStringP10FormWindowP7QWizardii
0001:000c2548  __ZN22SwapWizardPagesCommandC1ERK7QStringP10FormWindowP7QWizardii
0001:000c2580* __ZN22SwapWizardPagesCommand7executeEv
0001:000c26a8* __ZN22SwapWizardPagesCommand9unexecuteEv
0001:000c26bc* __ZN21MoveWizardPageCommandC2ERK7QStringP10FormWindowP7QWizardii
0001:000c26f4  __ZN21MoveWizardPageCommandC1ERK7QStringP10FormWindowP7QWizardii
0001:000c272c* __ZN21MoveWizardPageCommand7executeEv
0001:000c27ec* __ZN21MoveWizardPageCommand9unexecuteEv
0001:000c28ac* __ZN20AddConnectionCommandC2ERK7QStringP10FormWindowN12MetaDataBase10ConnectionE
0001:000c290c  __ZN20AddConnectionCommandC1ERK7QStringP10FormWindowN12MetaDataBase10ConnectionE
0001:000c296c* __ZN20AddConnectionCommand7executeEv
0001:000c29e0* __ZN20AddConnectionCommand9unexecuteEv
0001:000c2a50* __ZN23RemoveConnectionCommandC2ERK7QStringP10FormWindowN12MetaDataBase10ConnectionE
0001:000c2ab0  __ZN23RemoveConnectionCommandC1ERK7QStringP10FormWindowN12MetaDataBase10ConnectionE
0001:000c2b10* __ZN23RemoveConnectionCommand7executeEv
0001:000c2b80* __ZN23RemoveConnectionCommand9unexecuteEv
0001:000c2bf4* __ZN18AddFunctionCommandC2ERK7QStringP10FormWindowRK8QCStringS2_S2_S2_S2_S2_
0001:000c2c74  __ZN18AddFunctionCommandC1ERK7QStringP10FormWindowRK8QCStringS2_S2_S2_S2_S2_
0001:000c2cf4* __ZN18AddFunctionCommand7executeEv
0001:000c2d80* __ZN18AddFunctionCommand9unexecuteEv
0001:000c2e0c* __ZN27ChangeFunctionAttribCommandC2ERK7QStringP10FormWindowN12MetaDataBase8FunctionES2_S2_S2_S2_S2_S2_
0001:000c2fc0  __ZN27ChangeFunctionAttribCommandC1ERK7QStringP10FormWindowN12MetaDataBase8FunctionES2_S2_S2_S2_S2_S2_
0001:000c3174* __ZN27ChangeFunctionAttribCommand7executeEv
0001:000c3244* __ZN27ChangeFunctionAttribCommand9unexecuteEv
0001:000c3314* __ZN21RemoveFunctionCommandC2ERK7QStringP10FormWindowRK8QCStringS2_S2_S2_S2_S2_
0001:000c35b0  __ZN21RemoveFunctionCommandC1ERK7QStringP10FormWindowRK8QCStringS2_S2_S2_S2_S2_
0001:000c384c* __ZN21RemoveFunctionCommand7executeEv
0001:000c38d8* __ZN21RemoveFunctionCommand9unexecuteEv
0001:000c3980* __ZN18AddVariableCommandC2ERK7QStringP10FormWindowS2_S2_
0001:000c39c0  __ZN18AddVariableCommandC1ERK7QStringP10FormWindowS2_S2_
0001:000c3a00* __ZN18AddVariableCommand7executeEv
0001:000c3a84* __ZN18AddVariableCommand9unexecuteEv
0001:000c3b04* __ZN19SetVariablesCommandC2ERK7QStringP10FormWindow10QValueListIN12MetaDataBase8VariableEE
0001:000c3bb8  __ZN19SetVariablesCommandC1ERK7QStringP10FormWindow10QValueListIN12MetaDataBase8VariableEE
0001:000c3c6c* __ZN19SetVariablesCommand7executeEv
0001:000c3cec* __ZN19SetVariablesCommand9unexecuteEv
0001:000c3d6c* __ZN21RemoveVariableCommandC2ERK7QStringP10FormWindowS2_
0001:000c3e8c  __ZN21RemoveVariableCommandC1ERK7QStringP10FormWindowS2_
0001:000c3fac* __ZN21RemoveVariableCommand7executeEv
0001:000c402c* __ZN21RemoveVariableCommand9unexecuteEv
0001:000c40b0* __ZN22EditDefinitionsCommandC2ERK7QStringP10FormWindowP17LanguageInterfaceS2_RK11QStringList
0001:000c4190  __ZN22EditDefinitionsCommandC1ERK7QStringP10FormWindowP17LanguageInterfaceS2_RK11QStringList
0001:000c4270* __ZN22EditDefinitionsCommand7executeEv
0001:000c4314* __ZN22EditDefinitionsCommand9unexecuteEv
0001:000c43b8* __ZN12LowerCommandC2ERK7QStringP10FormWindowRK11QWidgetList
0001:000c43f4  __ZN12LowerCommandC1ERK7QStringP10FormWindowRK11QWidgetList
0001:000c4430* __ZN12LowerCommand7executeEv
0001:000c4488* __ZN12LowerCommand9unexecuteEv
0001:000c44e0* __ZN12RaiseCommandC2ERK7QStringP10FormWindowRK11QWidgetList
0001:000c451c  __ZN12RaiseCommandC1ERK7QStringP10FormWindowRK11QWidgetList
0001:000c4558* __ZN12RaiseCommand7executeEv
0001:000c45b0* __ZN12RaiseCommand9unexecuteEv
0001:000c4608* __ZN12PasteCommandC2ERK7QStringP10FormWindowRK11QWidgetList
0001:000c4644  __ZN12PasteCommandC1ERK7QStringP10FormWindowRK11QWidgetList
0001:000c4680* __ZN12PasteCommand7executeEv
0001:000c4720* __ZN12PasteCommand9unexecuteEv
0001:000c47c0* __ZN15TabOrderCommandC2ERK7QStringP10FormWindowRK11QWidgetListS7_
0001:000c4810  __ZN15TabOrderCommandC1ERK7QStringP10FormWindowRK11QWidgetListS7_
0001:000c4860* __ZN15TabOrderCommand5mergeEP7Command
0001:000c4880* __ZN15TabOrderCommand8canMergeEP7Command
0001:000c488c* __ZN15TabOrderCommand7executeEv
0001:000c48ac* __ZN15TabOrderCommand9unexecuteEv
0001:000c48cc* __ZN22PopulateListBoxCommandC2ERK7QStringP10FormWindowP8QListBoxRK10QValueListINS_4ItemEE
0001:000c4a64  __ZN22PopulateListBoxCommandC1ERK7QStringP10FormWindowP8QListBoxRK10QValueListINS_4ItemEE
0001:000c4bfc* __ZN22PopulateListBoxCommand7executeEv
0001:000c4d44* __ZN22PopulateListBoxCommand9unexecuteEv
0001:000c4e8c* __ZN23PopulateIconViewCommandC2ERK7QStringP10FormWindowP9QIconViewRK10QValueListINS_4ItemEE
0001:000c5024  __ZN23PopulateIconViewCommandC1ERK7QStringP10FormWindowP9QIconViewRK10QValueListINS_4ItemEE
0001:000c51bc* __ZN23PopulateIconViewCommand7executeEv
0001:000c52b0* __ZN23PopulateIconViewCommand9unexecuteEv
0001:000c53a4* __ZN23PopulateListViewCommandC2ERK7QStringP10FormWindowP9QListViewS6_
0001:000c552c  __ZN23PopulateListViewCommand13transferItemsEP9QListViewS1_
0001:000c543c  __ZN23PopulateListViewCommandC1ERK7QStringP10FormWindowP9QListViewS6_
0001:000c54d4* __ZN23PopulateListViewCommand7executeEv
0001:000c5500* __ZN23PopulateListViewCommand9unexecuteEv
0001:000c5d1c* __ZN28PopulateMultiLineEditCommandC2ERK7QStringP10FormWindowP9QTextEditS2_
0001:000c5df4  __ZN28PopulateMultiLineEditCommandC1ERK7QStringP10FormWindowP9QTextEditS2_
0001:000c5ecc* __ZN28PopulateMultiLineEditCommand7executeEv
0001:000c5f54* __ZN28PopulateMultiLineEditCommand9unexecuteEv
0001:000c5fdc* __ZN20PopulateTableCommandC2ERK7QStringP10FormWindowP6QTableRK10QValueListINS_3RowEERKS7_INS_6ColumnEE
0001:000c64e0  __ZN20PopulateTableCommandC1ERK7QStringP10FormWindowP6QTableRK10QValueListINS_3RowEERKS7_INS_6ColumnEE
0001:000c69e4* __ZN20PopulateTableCommand7executeEv
0001:000c6c88* __ZN20PopulateTableCommand9unexecuteEv
0001:000c6f2c  __ZN25AddActionToToolBarCommandC2ERK7QStringP10FormWindowP7QActionP16QDesignerToolBari
0001:000c6f64  __ZN25AddActionToToolBarCommandC1ERK7QStringP10FormWindowP7QActionP16QDesignerToolBari
0001:000c6fb8  __ZN25AddActionToToolBarCommand7executeEv
0001:000c73b4  __ZN25AddActionToToolBarCommand9unexecuteEv
0001:000c7580  __ZN17AddToolBarCommandC2ERK7QStringP10FormWindowP11QMainWindow
0001:000c75b4  __ZN17AddToolBarCommandC1ERK7QStringP10FormWindowP11QMainWindow
0001:000c75f0  __ZN17AddToolBarCommand7executeEv
0001:000c775c  __ZN17AddToolBarCommand9unexecuteEv
0001:000c77fc* __ZN23AddActionToPopupCommandC2ERK7QStringP10FormWindowP15PopupMenuEditorP19PopupMenuEditorItemi
0001:000c7834  __ZN23AddActionToPopupCommandC1ERK7QStringP10FormWindowP15PopupMenuEditorP19PopupMenuEditorItemi
0001:000c786c* __ZN23AddActionToPopupCommand7executeEv
0001:000c78b0* __ZN23AddActionToPopupCommand9unexecuteEv
0001:000c7908* __ZN28RemoveActionFromPopupCommandC2ERK7QStringP10FormWindowP15PopupMenuEditori
0001:000c7948  __ZN28RemoveActionFromPopupCommandC1ERK7QStringP10FormWindowP15PopupMenuEditori
0001:000c7988* __ZN28RemoveActionFromPopupCommand7executeEv
0001:000c7994* __ZN28RemoveActionFromPopupCommand9unexecuteEv
0001:000c79a0* __ZN28ExchangeActionInPopupCommandC2ERK7QStringP10FormWindowP15PopupMenuEditorii
0001:000c79d8  __ZN28ExchangeActionInPopupCommandC1ERK7QStringP10FormWindowP15PopupMenuEditorii
0001:000c7a10* __ZN28ExchangeActionInPopupCommand7executeEv
0001:000c7a2c* __ZN28ExchangeActionInPopupCommand9unexecuteEv
0001:000c7a50* __ZN13ActionCommand12actionEditorEv
0001:000c7a7c* __ZN19RenameActionCommandC2ERK7QStringP10FormWindowP7QActionP15PopupMenuEditorS0_
0001:000c7b14  __ZN19RenameActionCommandC1ERK7QStringP10FormWindowP7QActionP15PopupMenuEditorS0_
0001:000c7bb0  __ZN19RenameActionCommand7executeEv
0001:000c7cdc* __ZN19RenameActionCommand9unexecuteEv
0001:000c7d2c* __ZN21SetActionIconsCommandC2ERK7QStringP10FormWindowP7QActionP15PopupMenuEditorR8QIconSet
0001:000c7d98  __ZN21SetActionIconsCommandC1ERK7QStringP10FormWindowP7QActionP15PopupMenuEditorR8QIconSet
0001:000c7e04* __ZN21SetActionIconsCommand7executeEv
0001:000c7e88* __ZN21SetActionIconsCommand9unexecuteEv
0001:000c7f0c* __ZN14AddMenuCommandC2ERK7QStringP10FormWindowP13MenuBarEditorP17MenuBarEditorItemi
0001:000c7f50  __ZN14AddMenuCommandC1ERK7QStringP10FormWindowP13MenuBarEditorP17MenuBarEditorItemi
0001:000c7fa4* __ZN14AddMenuCommandC2ERK7QStringP10FormWindowP11QMainWindowS2_
0001:000c8008  __ZN14AddMenuCommandC1ERK7QStringP10FormWindowP11QMainWindowS2_
0001:000c807c  __ZN14AddMenuCommand7executeEv
0001:000c82cc* __ZN14AddMenuCommand9unexecuteEv
0001:000c8364* __ZN17RemoveMenuCommandC2ERK7QStringP10FormWindowP13MenuBarEditori
0001:000c83a4  __ZN17RemoveMenuCommandC1ERK7QStringP10FormWindowP13MenuBarEditori
0001:000c83e4* __ZN17RemoveMenuCommand7executeEv
0001:000c8408* __ZN17RemoveMenuCommand9unexecuteEv
0001:000c8414* __ZN19ExchangeMenuCommandC2ERK7QStringP10FormWindowP13MenuBarEditorii
0001:000c844c  __ZN19ExchangeMenuCommandC1ERK7QStringP10FormWindowP13MenuBarEditorii
0001:000c8484* __ZN19ExchangeMenuCommand7executeEv
0001:000c84a0* __ZN19ExchangeMenuCommand9unexecuteEv
0001:000c84b4* __ZN15MoveMenuCommandC2ERK7QStringP10FormWindowP13MenuBarEditorii
0001:000c84ec  __ZN15MoveMenuCommandC1ERK7QStringP10FormWindowP13MenuBarEditorii
0001:000c8524* __ZN15MoveMenuCommand7executeEv
0001:000c8578* __ZN15MoveMenuCommand9unexecuteEv
0001:000c85d0* __ZN17RenameMenuCommandC2ERK7QStringP10FormWindowP13MenuBarEditorS0_P17MenuBarEditorItem
0001:000c8644  __ZN17RenameMenuCommandC1ERK7QStringP10FormWindowP13MenuBarEditorS0_P17MenuBarEditorItem
0001:000c86b8  __ZN17RenameMenuCommand9makeLegalERK7QString
0001:000c87b4  __ZN17RenameMenuCommand7executeEv
0001:000c888c* __ZN17RenameMenuCommand9unexecuteEv
0001:000c8930* __ZN21AddToolBoxPageCommandC2ERK7QStringP10FormWindowP8QToolBoxS2_
0001:000c8a0c  __ZN21AddToolBoxPageCommandC1ERK7QStringP10FormWindowP8QToolBoxS2_
0001:000c8ae8* __ZN21AddToolBoxPageCommand7executeEv
0001:000c8b90* __ZN21AddToolBoxPageCommand9unexecuteEv
0001:000c8c04* __ZN24DeleteToolBoxPageCommandC2ERK7QStringP10FormWindowP8QToolBoxP7QWidget
0001:000c8cb0  __ZN24DeleteToolBoxPageCommandC1ERK7QStringP10FormWindowP8QToolBoxP7QWidget
0001:000c8d5c* __ZN24DeleteToolBoxPageCommand7executeEv
0001:000c8dd0* __ZN24DeleteToolBoxPageCommand9unexecuteEv
0001:000cbf70* __ZTV8QPtrListI7CommandE$w$bAfPcAyF8U69clrY2
0001:000cbf30  __ZTV7Command$w$bAfPcAyF8U69clrY2
0001:000cbef0  __ZTV13ResizeCommand$w$bAfPcAyF8U69clrY2
0001:000cbeb0  __ZTV13InsertCommand$w$bAfPcAyF8U69clrY2
0001:000cbe70  __ZTV11MoveCommand$w$bAfPcAyF8U69clrY2
0001:000cbfb0* __ZTV11QWidgetList$w$bAfPcAyF8U69clrY2
0001:000c8ef8  __ZN17QValueListPrivateI6QPointED1Ev$w$bAfPcAyF8U69clrY2
0001:000c8f7c  __ZNK17QValueListPrivateI6QPointE2atEj$w$bAfPcAyF8U69clrY2
0001:000c8fc4  __ZN10QValueListI6QPointE14detachInternalEv$w$bAfPcAyF8U69clrY2
0001:000cbe30  __ZTV13DeleteCommand$w$bAfPcAyF8U69clrY2
0001:000c8ff4  __ZN11QMapPrivateIP7QWidget10QValueListIN12MetaDataBase10ConnectionEEEC1Ev$w$bAfPcAyF8U69clrY2
0001:000cbff0* __ZTV8QPtrListI7QWidgetE$w$bAfPcAyF8U69clrY2
0001:000c90cc  __ZN4QMapIP7QWidget10QValueListIN12MetaDataBase10ConnectionEEE5clearEv$w$bAfPcAyF8U69clrY2
0001:000c9110  __ZN4QMapIP7QWidget10QValueListIN12MetaDataBase10ConnectionEEE6insertERKS1_RKS5_b$w$bAfPcAyF8U69clrY2
0001:000c9050* __ZN17QValueListPrivateIN12MetaDataBase10ConnectionEED1Ev$w$bAfPcAyF8U69clrY2
0001:000c91a4* __ZN10QValueListIN12MetaDataBase10ConnectionEE14detachInternalEv$w$bAfPcAyF8U69clrY2
0001:000c91d4  __ZNK11QMapPrivateIP7QWidget10QValueListIN12MetaDataBase10ConnectionEEE4findERKS1_$w$bAfPcAyF8U69clrY2
0001:000c9224  __ZN4QMapIP7QWidget10QValueListIN12MetaDataBase10ConnectionEEE14detachInternalEv$w$bAfPcAyF8U69clrY2
0001:000cbdf0  __ZTV18SetPropertyCommand$w$bAfPcAyF8U69clrY2
0001:000c9254  __Z7qt_castIP12CustomWidgetET_PK7QObject$w$bAfPcAyF8U69clrY2
0001:000c9270* __ZN10QValueListIN12MetaDataBase8PropertyEE14detachInternalEv$w$bAfPcAyF8U69clrY2
0001:000c92a0* __Z7qt_castIP10FormWindowET_PK7QObject$w$bAfPcAyF8U69clrY2
0001:000cc030* __ZTV8QStrList$w$bAfPcAyF8U69clrY2
0001:000cc070* __ZTV8QPtrListIcE$w$bAfPcAyF8U69clrY2
0001:000c92f4* __ZN17QValueListPrivateI7QStringED1Ev$w$bAfPcAyF8U69clrY2
0001:000c9384* __ZN10QValueListI7QStringE14detachInternalEv$w$bAfPcAyF8U69clrY2
0001:000c92bc* __Z7qt_castIP7QActionET_PK7QObject$w$bAfPcAyF8U69clrY2
0001:000c92d8* __Z7qt_castIP11QMainWindowET_PK7QObject$w$bAfPcAyF8U69clrY2
0001:000cbdb0  __ZTV23LayoutHorizontalCommand$w$bAfPcAyF8U69clrY2
0001:000cbd70  __ZTV28LayoutHorizontalSplitCommand$w$bAfPcAyF8U69clrY2
0001:000cbd30  __ZTV21LayoutVerticalCommand$w$bAfPcAyF8U69clrY2
0001:000cbcf0  __ZTV26LayoutVerticalSplitCommand$w$bAfPcAyF8U69clrY2
0001:000cbcb0  __ZTV17LayoutGridCommand$w$bAfPcAyF8U69clrY2
0001:000cbc70  __ZTV18BreakLayoutCommand$w$bAfPcAyF8U69clrY2
0001:000c93b4* __Z7qt_castIP9QSplitterET_PK7QObject$w$bAfPcAyF8U69clrY2
0001:000cbc30  __ZTV12MacroCommand$w$bAfPcAyF8U69clrY2
0001:000cbbf0  __ZTV17AddTabPageCommand$w$bAfPcAyF8U69clrY2
0001:000cbbb0  __ZTV18MoveTabPageCommand$w$bAfPcAyF8U69clrY2
0001:000cbb70  __ZTV20DeleteTabPageCommand$w$bAfPcAyF8U69clrY2
0001:000cbb30  __ZTV25AddWidgetStackPageCommand$w$bAfPcAyF8U69clrY2
0001:000cbaf0  __ZTV28DeleteWidgetStackPageCommand$w$bAfPcAyF8U69clrY2
0001:000cbab0  __ZTV20AddWizardPageCommand$w$bAfPcAyF8U69clrY2
0001:000cba70  __ZTV23DeleteWizardPageCommand$w$bAfPcAyF8U69clrY2
0001:000cba30  __ZTV23RenameWizardPageCommand$w$bAfPcAyF8U69clrY2
0001:000cb9f0  __ZTV22SwapWizardPagesCommand$w$bAfPcAyF8U69clrY2
0001:000cb9b0  __ZTV21MoveWizardPageCommand$w$bAfPcAyF8U69clrY2
0001:000cb970  __ZTV20AddConnectionCommand$w$bAfPcAyF8U69clrY2
0001:000cb930  __ZTV23RemoveConnectionCommand$w$bAfPcAyF8U69clrY2
0001:000cb8f0  __ZTV18AddFunctionCommand$w$bAfPcAyF8U69clrY2
0001:000cb8b0  __ZTV27ChangeFunctionAttribCommand$w$bAfPcAyF8U69clrY2
0001:000cb870  __ZTV21RemoveFunctionCommand$w$bAfPcAyF8U69clrY2
0001:000c93d0* __ZN17QValueListPrivateIN12MetaDataBase8FunctionEED1Ev$w$bAfPcAyF8U69clrY2
0001:000c9594* __ZN10QValueListIN12MetaDataBase8FunctionEE14detachInternalEv$w$bAfPcAyF8U69clrY2
0001:000cb830  __ZTV18AddVariableCommand$w$bAfPcAyF8U69clrY2
0001:000cb7f0  __ZTV19SetVariablesCommand$w$bAfPcAyF8U69clrY2
0001:000c95c4* __ZN17QValueListPrivateIN12MetaDataBase8VariableEEC1Ev$w$bAfPcAyF8U69clrY2
0001:000c9624* __ZN17QValueListPrivateIN12MetaDataBase8VariableEED1Ev$w$bAfPcAyF8U69clrY2
0001:000cb7b0  __ZTV21RemoveVariableCommand$w$bAfPcAyF8U69clrY2
0001:000c96fc* __ZN10QValueListIN12MetaDataBase8VariableEE14detachInternalEv$w$bAfPcAyF8U69clrY2
0001:000cb770  __ZTV22EditDefinitionsCommand$w$bAfPcAyF8U69clrY2
0001:000c972c* __ZN17QValueListPrivateI7QStringEC1Ev$w$bAfPcAyF8U69clrY2
0001:000cb730  __ZTV12LowerCommand$w$bAfPcAyF8U69clrY2
0001:000cb6f0  __ZTV12RaiseCommand$w$bAfPcAyF8U69clrY2
0001:000cb6b0  __ZTV12PasteCommand$w$bAfPcAyF8U69clrY2
0001:000cb670  __ZTV15TabOrderCommand$w$bAfPcAyF8U69clrY2
0001:000cb630  __ZTV22PopulateListBoxCommand$w$bAfPcAyF8U69clrY2
0001:000c9778* __ZN17QValueListPrivateIN22PopulateListBoxCommand4ItemEEC1Ev$w$bAfPcAyF8U69clrY2
0001:000c97d0* __ZN17QValueListPrivateIN22PopulateListBoxCommand4ItemEE6insertE18QValueListIteratorIS1_ERKS1_$w$bAfPcAyF8U69clrY2
0001:000c983c* __ZN10QValueListIN22PopulateListBoxCommand4ItemEE14detachInternalEv$w$bAfPcAyF8U69clrY2
0001:000cb5f0  __ZTV23PopulateIconViewCommand$w$bAfPcAyF8U69clrY2
0001:000c986c* __ZN17QValueListPrivateIN23PopulateIconViewCommand4ItemEEC1Ev$w$bAfPcAyF8U69clrY2
0001:000c98c4* __ZN17QValueListPrivateIN23PopulateIconViewCommand4ItemEE6insertE18QValueListIteratorIS1_ERKS1_$w$bAfPcAyF8U69clrY2
0001:000c9930* __ZN10QValueListIN23PopulateIconViewCommand4ItemEE14detachInternalEv$w$bAfPcAyF8U69clrY2
0001:000cb5b0  __ZTV23PopulateListViewCommand$w$bAfPcAyF8U69clrY2
0001:000cb570  __ZTV9QPtrStackI13QListViewItemE$w$bAfPcAyF8U69clrY2
0001:000cb530  __ZTV28PopulateMultiLineEditCommand$w$bAfPcAyF8U69clrY2
0001:000cb4f0  __ZTV20PopulateTableCommand$w$bAfPcAyF8U69clrY2
0001:000c9960* __ZN17QValueListPrivateIN20PopulateTableCommand3RowEEC1Ev$w$bAfPcAyF8U69clrY2
0001:000c99b8* __ZN17QValueListPrivateIN20PopulateTableCommand6ColumnEEC1Ev$w$bAfPcAyF8U69clrY2
0001:000c9a64* __ZNK11QMapPrivateI7QStringS0_E4findERKS0_$w$bAfPcAyF8U69clrY2
0001:000c9b18* __ZN17QValueListPrivateIN20PopulateTableCommand6ColumnEE6insertE18QValueListIteratorIS1_ERKS1_$w$bAfPcAyF8U69clrY2
0001:000c9b94* __ZN10QValueListIN20PopulateTableCommand6ColumnEE14detachInternalEv$w$bAfPcAyF8U69clrY2
0001:000c9ae8* __ZN4QMapI7QStringS0_E14detachInternalEv$w$bAfPcAyF8U69clrY2
0001:000c9bc4* __ZN17QValueListPrivateIN20PopulateTableCommand3RowEE6insertE18QValueListIteratorIS1_ERKS1_$w$bAfPcAyF8U69clrY2
0001:000c9c30* __ZN10QValueListIN20PopulateTableCommand3RowEE14detachInternalEv$w$bAfPcAyF8U69clrY2
0001:000c9a28* __ZN11QMapPrivateI7QStringS0_E5clearEv$w$bAfPcAyF8U69clrY2
0001:000c9ccc* __ZN11QMapPrivateI7QStringS0_EC1Ev$w$bAfPcAyF8U69clrY2
0001:000c9c60* __ZN4QMapI7QStringS0_E6insertERKS0_S3_b$w$bAfPcAyF8U69clrY2
0001:000cb4b0  __ZTV25AddActionToToolBarCommand$w$bAfPcAyF8U69clrY2
0001:000c9d3c* __Z7qt_castIP15QDesignerActionET_PK7QObject$w$bAfPcAyF8U69clrY2
0001:000c8e94* __ZN4QMapIP7QWidgetP7QActionE6insertERKS1_RKS3_b$w$bAfPcAyF8U69clrY2
0001:000c8e78* __Z7qt_castIP12QActionGroupET_PK7QObject$w$bAfPcAyF8U69clrY2
0001:000c9d58* __Z7qt_castIP20QDesignerActionGroupET_PK7QObject$w$bAfPcAyF8U69clrY2
0001:000c9d74* __Z7qt_castIP16QSeparatorActionET_PK7QObject$w$bAfPcAyF8U69clrY2
0001:000cb470  __ZTV17AddToolBarCommand$w$bAfPcAyF8U69clrY2
0001:000cb430  __ZTV23AddActionToPopupCommand$w$bAfPcAyF8U69clrY2
0001:000cb3f0  __ZTV28RemoveActionFromPopupCommand$w$bAfPcAyF8U69clrY2
0001:000cb3b0  __ZTV28ExchangeActionInPopupCommand$w$bAfPcAyF8U69clrY2
0001:000cb370  __ZTV19RenameActionCommand$w$bAfPcAyF8U69clrY2
0001:000cb330  __ZTV21SetActionIconsCommand$w$bAfPcAyF8U69clrY2
0001:000cb2f0  __ZTV14AddMenuCommand$w$bAfPcAyF8U69clrY2
0001:000cb2b0  __ZTV17RemoveMenuCommand$w$bAfPcAyF8U69clrY2
0001:000cb270  __ZTV19ExchangeMenuCommand$w$bAfPcAyF8U69clrY2
0001:000cb230  __ZTV15MoveMenuCommand$w$bAfPcAyF8U69clrY2
0001:000cb1f0  __ZTV17RenameMenuCommand$w$bAfPcAyF8U69clrY2
0001:000cb1b0  __ZTV21AddToolBoxPageCommand$w$bAfPcAyF8U69clrY2
0001:000cb170  __ZTV24DeleteToolBoxPageCommand$w$bAfPcAyF8U69clrY2
0001:000c9d90* __ZN11QMapPrivateIP7QWidgetP7QActionE12insertSingleERKS1_$w$bAfPcAyF8U69clrY2
0001:000c9e2c* __ZN4QMapIP7QWidgetP7QActionE14detachInternalEv$w$bAfPcAyF8U69clrY2
0001:000c9e5c  __ZN17QValueListPrivateI6QPointEC1ERKS1_$w$bAfPcAyF8U69clrY2
0001:000c9ee8* __ZN17QValueListPrivateIN12MetaDataBase10ConnectionEEC1Ev$w$bAfPcAyF8U69clrY2
0001:000c9f40  __ZN11QMapPrivateIP7QWidget10QValueListIN12MetaDataBase10ConnectionEEE12insertSingleERKS1_$w$bAfPcAyF8U69clrY2
0001:000c9fdc* __ZN17QValueListPrivateIN12MetaDataBase10ConnectionEEC1ERKS2_$w$bAfPcAyF8U69clrY2
0001:000ca080  __ZN11QMapPrivateIP7QWidget10QValueListIN12MetaDataBase10ConnectionEEEC1EPKS6_$w$bAfPcAyF8U69clrY2
0001:000ca134* __ZN17QValueListPrivateIN12MetaDataBase8PropertyEEC1ERKS2_$w$bAfPcAyF8U69clrY2
0001:000ca1dc* __ZN17QValueListPrivateI7QStringEC1ERKS1_$w$bAfPcAyF8U69clrY2
0001:000ca270* __ZN17QValueListPrivateIN12MetaDataBase8FunctionEEC1ERKS2_$w$bAfPcAyF8U69clrY2
0001:000ca384* __ZN17QValueListPrivateIN12MetaDataBase8VariableEEC1ERKS2_$w$bAfPcAyF8U69clrY2
0001:000ca430* __ZN17QValueListPrivateIN22PopulateListBoxCommand4ItemEEC1ERKS2_$w$bAfPcAyF8U69clrY2
0001:000ca4d4* __ZN17QValueListPrivateIN23PopulateIconViewCommand4ItemEEC1ERKS2_$w$bAfPcAyF8U69clrY2
0001:000ca578* __ZN11QMapPrivateI7QStringS0_E5clearEP8QMapNodeIS0_S0_E$w$bAfPcAyF8U69clrY2
0001:000ca5fc* __ZN11QMapPrivateI7QStringS0_EC1EPKS1_$w$bAfPcAyF8U69clrY2
0001:000ca6c8* __ZN17QValueListPrivateIN20PopulateTableCommand6ColumnEEC1ERKS2_$w$bAfPcAyF8U69clrY2
0001:000ca788* __ZN17QValueListPrivateIN20PopulateTableCommand3RowEEC1ERKS2_$w$bAfPcAyF8U69clrY2
0001:000ca82c* __ZN11QMapPrivateI7QStringS0_E12insertSingleERKS0_$w$bAfPcAyF8U69clrY2
0001:000ca8e0* __ZN11QMapPrivateIP7QWidgetP7QActionE6insertEP12QMapNodeBaseS6_RKS1_$w$bAfPcAyF8U69clrY2
0001:000ca974* __ZN12QMapIteratorIP7QWidgetP7QActionE3decEv$w$bAfPcAyF8U69clrY2
0001:000ca9cc* __ZN11QMapPrivateIP7QWidgetP7QActionEC1EPKS4_$w$bAfPcAyF8U69clrY2
0001:000caa64  __ZN17QValueListPrivateI6QPointE6insertE18QValueListIteratorIS0_ERKS0_$w$bAfPcAyF8U69clrY2
0001:000caab8  __ZN11QMapPrivateIP7QWidget10QValueListIN12MetaDataBase10ConnectionEEE6insertEP12QMapNodeBaseS8_RKS1_$w$bAfPcAyF8U69clrY2
0001:000cab70  __ZN12QMapIteratorIP7QWidget10QValueListIN12MetaDataBase10ConnectionEEE3decEv$w$bAfPcAyF8U69clrY2
0001:000cabc8* __ZN17QValueListPrivateIN12MetaDataBase10ConnectionEE6insertE18QValueListIteratorIS1_ERKS1_$w$bAfPcAyF8U69clrY2
0001:000cac50  __ZN11QMapPrivateIP7QWidget10QValueListIN12MetaDataBase10ConnectionEEE4copyEP8QMapNodeIS1_S5_E$w$bAfPcAyF8U69clrY2
0001:000cad1c* __ZN17QValueListPrivateIN12MetaDataBase8PropertyEE6insertE18QValueListIteratorIS1_ERKS1_$w$bAfPcAyF8U69clrY2
0001:000cad8c* __ZN17QValueListPrivateIN12MetaDataBase8FunctionEE6insertE18QValueListIteratorIS1_ERKS1_$w$bAfPcAyF8U69clrY2
0001:000cae3c* __ZN17QValueListPrivateIN12MetaDataBase8VariableEE6insertE18QValueListIteratorIS1_ERKS1_$w$bAfPcAyF8U69clrY2
0001:000caea8* __ZN11QMapPrivateI7QStringS0_E4copyEP8QMapNodeIS0_S0_E$w$bAfPcAyF8U69clrY2
0001:000caf88* __ZN11QMapPrivateI7QStringS0_E6insertEP12QMapNodeBaseS3_RKS0_$w$bAfPcAyF8U69clrY2
0001:000cb08c* __ZN12QMapIteratorI7QStringS0_E3decEv$w$bAfPcAyF8U69clrY2
0001:000cb0e4* __ZN11QMapPrivateIP7QWidgetP7QActionE4copyEP8QMapNodeIS1_S3_E$w$bAfPcAyF8U69clrY2
0001:000cd0d8  __ZN23DeleteWizardPageCommandD1Ev$w$bAfPcAyF8U69clrY2
0001:000cd11c  __ZN23DeleteWizardPageCommandD0Ev$w$bAfPcAyF8U69clrY2
0001:000cd040  __ZN20AddWizardPageCommandD1Ev$w$bAfPcAyF8U69clrY2
0001:000cd084  __ZN20AddWizardPageCommandD0Ev$w$bAfPcAyF8U69clrY2
0001:000cd0cc  __ZNK20AddWizardPageCommand4typeEv$w$bAfPcAyF8U69clrY2
0001:000ccff0  __ZN28DeleteWidgetStackPageCommandD1Ev$w$bAfPcAyF8U69clrY2
0001:000cd00c  __ZN28DeleteWidgetStackPageCommandD0Ev$w$bAfPcAyF8U69clrY2
0001:000cd034  __ZNK28DeleteWidgetStackPageCommand4typeEv$w$bAfPcAyF8U69clrY2
0001:000ccfa0  __ZN25AddWidgetStackPageCommandD1Ev$w$bAfPcAyF8U69clrY2
0001:000ccfbc  __ZN25AddWidgetStackPageCommandD0Ev$w$bAfPcAyF8U69clrY2
0001:000ccfe4  __ZNK25AddWidgetStackPageCommand4typeEv$w$bAfPcAyF8U69clrY2
0001:000cce70  __ZN20DeleteTabPageCommandD1Ev$w$bAfPcAyF8U69clrY2
0001:000cceb4  __ZN20DeleteTabPageCommandD0Ev$w$bAfPcAyF8U69clrY2
0001:000ccefc  __ZNK20DeleteTabPageCommand4typeEv$w$bAfPcAyF8U69clrY2
0001:000ccf08  __ZN18MoveTabPageCommandD1Ev$w$bAfPcAyF8U69clrY2
0001:000ccf4c  __ZN18MoveTabPageCommandD0Ev$w$bAfPcAyF8U69clrY2
0001:000ccf94  __ZNK18MoveTabPageCommand4typeEv$w$bAfPcAyF8U69clrY2
0001:000ccdd8  __ZN17AddTabPageCommandD1Ev$w$bAfPcAyF8U69clrY2
0001:000cce1c  __ZN17AddTabPageCommandD0Ev$w$bAfPcAyF8U69clrY2
0001:000cce64  __ZNK17AddTabPageCommand4typeEv$w$bAfPcAyF8U69clrY2
0001:000ccd4c  __ZN12MacroCommandD1Ev$w$bAfPcAyF8U69clrY2
0001:000ccd88  __ZN12MacroCommandD0Ev$w$bAfPcAyF8U69clrY2
0001:000ccdcc  __ZNK12MacroCommand4typeEv$w$bAfPcAyF8U69clrY2
0001:000ccce4  __ZN18BreakLayoutCommandD1Ev$w$bAfPcAyF8U69clrY2
0001:000ccd10  __ZN18BreakLayoutCommandD0Ev$w$bAfPcAyF8U69clrY2
0001:000ccd40  __ZNK18BreakLayoutCommand4typeEv$w$bAfPcAyF8U69clrY2
0001:000ccc7c  __ZN17LayoutGridCommandD1Ev$w$bAfPcAyF8U69clrY2
0001:000ccca8  __ZN17LayoutGridCommandD0Ev$w$bAfPcAyF8U69clrY2
0001:000cccd8  __ZNK17LayoutGridCommand4typeEv$w$bAfPcAyF8U69clrY2
0001:000ccb1c  __ZN26LayoutVerticalSplitCommandD1Ev$w$bAfPcAyF8U69clrY2
0001:000ccbc4  __ZN26LayoutVerticalSplitCommandD0Ev$w$bAfPcAyF8U69clrY2
0001:000ccc70  __ZNK26LayoutVerticalSplitCommand4typeEv$w$bAfPcAyF8U69clrY2
0001:000cc9bc  __ZN21LayoutVerticalCommandD1Ev$w$bAfPcAyF8U69clrY2
0001:000cca64  __ZN21LayoutVerticalCommandD0Ev$w$bAfPcAyF8U69clrY2
0001:000ccb10  __ZNK21LayoutVerticalCommand4typeEv$w$bAfPcAyF8U69clrY2
0001:000cc85c  __ZN28LayoutHorizontalSplitCommandD1Ev$w$bAfPcAyF8U69clrY2
0001:000cc904  __ZN28LayoutHorizontalSplitCommandD0Ev$w$bAfPcAyF8U69clrY2
0001:000cc9b0  __ZNK28LayoutHorizontalSplitCommand4typeEv$w$bAfPcAyF8U69clrY2
0001:000cc6fc  __ZN23LayoutHorizontalCommandD1Ev$w$bAfPcAyF8U69clrY2
0001:000cc7a4  __ZN23LayoutHorizontalCommandD0Ev$w$bAfPcAyF8U69clrY2
0001:000cc850  __ZNK23LayoutHorizontalCommand4typeEv$w$bAfPcAyF8U69clrY2
0001:000cc568  __ZN18SetPropertyCommandD1Ev$w$bAfPcAyF8U69clrY2
0001:000cc628  __ZN18SetPropertyCommandD0Ev$w$bAfPcAyF8U69clrY2
0001:000cc6f0  __ZNK18SetPropertyCommand4typeEv$w$bAfPcAyF8U69clrY2
0001:000cc424  __ZN13DeleteCommandD1Ev$w$bAfPcAyF8U69clrY2
0001:000cc4bc  __ZN13DeleteCommandD0Ev$w$bAfPcAyF8U69clrY2
0001:000cc55c  __ZNK13DeleteCommand4typeEv$w$bAfPcAyF8U69clrY2
0001:000cc328  __ZN11MoveCommandD1Ev$w$bAfPcAyF8U69clrY2
0001:000cc39c  __ZN11MoveCommandD0Ev$w$bAfPcAyF8U69clrY2
0001:000cc418  __ZNK11MoveCommand4typeEv$w$bAfPcAyF8U69clrY2
0001:000cc2d8  __ZN13InsertCommandD1Ev$w$bAfPcAyF8U69clrY2
0001:000cc2f4  __ZN13InsertCommandD0Ev$w$bAfPcAyF8U69clrY2
0001:000cc31c  __ZNK13InsertCommand4typeEv$w$bAfPcAyF8U69clrY2
0001:000cc28c  __ZN13ResizeCommandD1Ev$w$bAfPcAyF8U69clrY2
0001:000cc2a8  __ZN13ResizeCommandD0Ev$w$bAfPcAyF8U69clrY2
0001:000cc2d0  __ZNK13ResizeCommand4typeEv$w$bAfPcAyF8U69clrY2
0001:000cc210* __ZN8QPtrListI7QWidgetE5clearEv$w$bAfPcAyF8U69clrY2
0001:000cc21c* __ZN11QWidgetListD1Ev$w$bAfPcAyF8U69clrY2
0001:000cc250* __ZN11QWidgetListD0Ev$w$bAfPcAyF8U69clrY2
0001:000cc0e8* __ZN8QPtrListIcE5clearEv$w$bAfPcAyF8U69clrY2
0001:000cc0f4* __ZN8QStrListD1Ev$w$bAfPcAyF8U69clrY2
0001:000cc128* __ZN8QStrListD0Ev$w$bAfPcAyF8U69clrY2
0001:000cc164* __ZN8QStrList7newItemEPv$w$bAfPcAyF8U69clrY2
0001:000cc188* __ZN8QStrList10deleteItemEPv$w$bAfPcAyF8U69clrY2
0001:000cc1a8* __ZN8QStrList12compareItemsEPvS0_$w$bAfPcAyF8U69clrY2
0001:000cc1dc* __ZN8QStrList4readER11QDataStreamRPv$w$bAfPcAyF8U69clrY2
0001:000cc1f8* __ZNK8QStrList5writeER11QDataStreamPv$w$bAfPcAyF8U69clrY2
0001:000cc0b0* __ZTV6QGList$w$bAfPcAyF8U69clrY2
0001:000cc0dc* __ZNK6QGList5countEv$w$bAfPcAyF8U69clrY2
0001:000ceca4  __ZN11QMapPrivateIP7QWidget10QValueListIN12MetaDataBase10ConnectionEEE5clearEv$w$bAfPcAyF8U69clrY2
0001:000cf024* __ZN17QValueListPrivateI7QStringE6insertE18QValueListIteratorIS0_ERKS0_$w$bAfPcAyF8U69clrY2
0001:000cea88  __ZN24DeleteToolBoxPageCommandD1Ev$w$bAfPcAyF8U69clrY2
0001:000ceacc  __ZN24DeleteToolBoxPageCommandD0Ev$w$bAfPcAyF8U69clrY2
0001:000ceb14  __ZNK24DeleteToolBoxPageCommand4typeEv$w$bAfPcAyF8U69clrY2
0001:000ce9f0  __ZN21AddToolBoxPageCommandD1Ev$w$bAfPcAyF8U69clrY2
0001:000cea34  __ZN21AddToolBoxPageCommandD0Ev$w$bAfPcAyF8U69clrY2
0001:000cea7c  __ZNK21AddToolBoxPageCommand4typeEv$w$bAfPcAyF8U69clrY2
0001:000ce918  __ZN17RenameMenuCommandD1Ev$w$bAfPcAyF8U69clrY2
0001:000ce97c  __ZN17RenameMenuCommandD0Ev$w$bAfPcAyF8U69clrY2
0001:000ce9e4  __ZNK17RenameMenuCommand4typeEv$w$bAfPcAyF8U69clrY2
0001:000ce8c8  __ZN15MoveMenuCommandD1Ev$w$bAfPcAyF8U69clrY2
0001:000ce8e4  __ZN15MoveMenuCommandD0Ev$w$bAfPcAyF8U69clrY2
0001:000ce90c  __ZNK15MoveMenuCommand4typeEv$w$bAfPcAyF8U69clrY2
0001:000ce878  __ZN19ExchangeMenuCommandD1Ev$w$bAfPcAyF8U69clrY2
0001:000ce894  __ZN19ExchangeMenuCommandD0Ev$w$bAfPcAyF8U69clrY2
0001:000ce8bc  __ZNK19ExchangeMenuCommand4typeEv$w$bAfPcAyF8U69clrY2
0001:000ce7e0  __ZN17RemoveMenuCommandD1Ev$w$bAfPcAyF8U69clrY2
0001:000ce824  __ZN17RemoveMenuCommandD0Ev$w$bAfPcAyF8U69clrY2
0001:000ce86c  __ZNK17RemoveMenuCommand4typeEv$w$bAfPcAyF8U69clrY2
0001:000ce790  __ZN14AddMenuCommandD1Ev$w$bAfPcAyF8U69clrY2
0001:000ce748  __ZN14AddMenuCommandD0Ev$w$bAfPcAyF8U69clrY2
0001:000ce7d4  __ZNK14AddMenuCommand4typeEv$w$bAfPcAyF8U69clrY2
0001:000ce6bc  __ZN21SetActionIconsCommandD1Ev$w$bAfPcAyF8U69clrY2
0001:000ce6f8  __ZN21SetActionIconsCommandD0Ev$w$bAfPcAyF8U69clrY2
0001:000ce73c  __ZNK21SetActionIconsCommand4typeEv$w$bAfPcAyF8U69clrY2
0001:000ce5d8  __ZN19RenameActionCommandD1Ev$w$bAfPcAyF8U69clrY2
0001:000ce640  __ZN19RenameActionCommandD0Ev$w$bAfPcAyF8U69clrY2
0001:000ce6b0  __ZNK19RenameActionCommand4typeEv$w$bAfPcAyF8U69clrY2
0001:000ce588  __ZN28ExchangeActionInPopupCommandD1Ev$w$bAfPcAyF8U69clrY2
0001:000ce5a4  __ZN28ExchangeActionInPopupCommandD0Ev$w$bAfPcAyF8U69clrY2
0001:000ce5cc  __ZNK28ExchangeActionInPopupCommand4typeEv$w$bAfPcAyF8U69clrY2
0001:000ce538  __ZN28RemoveActionFromPopupCommandD1Ev$w$bAfPcAyF8U69clrY2
0001:000ce554  __ZN28RemoveActionFromPopupCommandD0Ev$w$bAfPcAyF8U69clrY2
0001:000ce57c  __ZNK28RemoveActionFromPopupCommand4typeEv$w$bAfPcAyF8U69clrY2
0001:000ce510  __ZN23AddActionToPopupCommandD1Ev$w$bAfPcAyF8U69clrY2
0001:000ce4e8  __ZN23AddActionToPopupCommandD0Ev$w$bAfPcAyF8U69clrY2
0001:000ce52c  __ZNK23AddActionToPopupCommand4typeEv$w$bAfPcAyF8U69clrY2
0001:000ce4c0  __ZN17AddToolBarCommandD1Ev$w$bAfPcAyF8U69clrY2
0001:000ce498  __ZN17AddToolBarCommandD0Ev$w$bAfPcAyF8U69clrY2
0001:000ce4dc  __ZNK17AddToolBarCommand4typeEv$w$bAfPcAyF8U69clrY2
0001:000ce470  __ZN25AddActionToToolBarCommandD1Ev$w$bAfPcAyF8U69clrY2
0001:000ce448  __ZN25AddActionToToolBarCommandD0Ev$w$bAfPcAyF8U69clrY2
0001:000ce48c  __ZNK25AddActionToToolBarCommand4typeEv$w$bAfPcAyF8U69clrY2
0001:000ce2c0  __ZN20PopulateTableCommandD1Ev$w$bAfPcAyF8U69clrY2
0001:000ce37c  __ZN20PopulateTableCommandD0Ev$w$bAfPcAyF8U69clrY2
0001:000ce43c  __ZNK20PopulateTableCommand4typeEv$w$bAfPcAyF8U69clrY2
0001:000ce1e8  __ZN28PopulateMultiLineEditCommandD1Ev$w$bAfPcAyF8U69clrY2
0001:000ce24c  __ZN28PopulateMultiLineEditCommandD0Ev$w$bAfPcAyF8U69clrY2
0001:000ce2b4  __ZNK28PopulateMultiLineEditCommand4typeEv$w$bAfPcAyF8U69clrY2
0001:000cf150  __ZNK9QPtrStackI13QListViewItemE5countEv$w$bAfPcAyF8U69clrY2
0001:000cec68  __ZN9QPtrStackI13QListViewItemE5clearEv$w$bAfPcAyF8U69clrY2
0001:000cec40  __ZN9QPtrStackI13QListViewItemED1Ev$w$bAfPcAyF8U69clrY2
0001:000cec74  __ZN9QPtrStackI13QListViewItemED0Ev$w$bAfPcAyF8U69clrY2
0001:000cf15c  __ZN9QPtrStackI13QListViewItemE10deleteItemEPv$w$bAfPcAyF8U69clrY2
0001:000ce198  __ZN23PopulateListViewCommandD1Ev$w$bAfPcAyF8U69clrY2
0001:000ce1b4  __ZN23PopulateListViewCommandD0Ev$w$bAfPcAyF8U69clrY2
0001:000ce1dc  __ZNK23PopulateListViewCommand4typeEv$w$bAfPcAyF8U69clrY2
0001:000ce0b0  __ZN23PopulateIconViewCommandD1Ev$w$bAfPcAyF8U69clrY2
0001:000ce11c  __ZN23PopulateIconViewCommandD0Ev$w$bAfPcAyF8U69clrY2
0001:000ce18c  __ZNK23PopulateIconViewCommand4typeEv$w$bAfPcAyF8U69clrY2
0001:000cdfc8  __ZN22PopulateListBoxCommandD1Ev$w$bAfPcAyF8U69clrY2
0001:000ce034  __ZN22PopulateListBoxCommandD0Ev$w$bAfPcAyF8U69clrY2
0001:000ce0a4  __ZNK22PopulateListBoxCommand4typeEv$w$bAfPcAyF8U69clrY2
0001:000cdf4c  __ZN15TabOrderCommandD1Ev$w$bAfPcAyF8U69clrY2
0001:000cdf80  __ZN15TabOrderCommandD0Ev$w$bAfPcAyF8U69clrY2
0001:000cdfbc  __ZNK15TabOrderCommand4typeEv$w$bAfPcAyF8U69clrY2
0001:000cdee4  __ZN12PasteCommandD1Ev$w$bAfPcAyF8U69clrY2
0001:000cdf10  __ZN12PasteCommandD0Ev$w$bAfPcAyF8U69clrY2
0001:000cdf40  __ZNK12PasteCommand4typeEv$w$bAfPcAyF8U69clrY2
0001:000cde7c  __ZN12RaiseCommandD1Ev$w$bAfPcAyF8U69clrY2
0001:000cdea8  __ZN12RaiseCommandD0Ev$w$bAfPcAyF8U69clrY2
0001:000cded8  __ZNK12RaiseCommand4typeEv$w$bAfPcAyF8U69clrY2
0001:000cde14  __ZN12LowerCommandD1Ev$w$bAfPcAyF8U69clrY2
0001:000cde40  __ZN12LowerCommandD0Ev$w$bAfPcAyF8U69clrY2
0001:000cde70  __ZNK12LowerCommand4typeEv$w$bAfPcAyF8U69clrY2
0001:000cdce8  __ZN22EditDefinitionsCommandD1Ev$w$bAfPcAyF8U69clrY2
0001:000cdd74  __ZN22EditDefinitionsCommandD0Ev$w$bAfPcAyF8U69clrY2
0001:000cde08  __ZNK22EditDefinitionsCommand4typeEv$w$bAfPcAyF8U69clrY2
0001:000cdc10  __ZN21RemoveVariableCommandD1Ev$w$bAfPcAyF8U69clrY2
0001:000cdc74  __ZN21RemoveVariableCommandD0Ev$w$bAfPcAyF8U69clrY2
0001:000cdcdc  __ZNK21RemoveVariableCommand4typeEv$w$bAfPcAyF8U69clrY2
0001:000cdb28  __ZN19SetVariablesCommandD1Ev$w$bAfPcAyF8U69clrY2
0001:000cdb94  __ZN19SetVariablesCommandD0Ev$w$bAfPcAyF8U69clrY2
0001:000cdc04  __ZNK19SetVariablesCommand4typeEv$w$bAfPcAyF8U69clrY2
0001:000cda50  __ZN18AddVariableCommandD1Ev$w$bAfPcAyF8U69clrY2
0001:000cdab4  __ZN18AddVariableCommandD0Ev$w$bAfPcAyF8U69clrY2
0001:000cdb1c  __ZNK18AddVariableCommand4typeEv$w$bAfPcAyF8U69clrY2
0001:000cd8a4  __ZN21RemoveFunctionCommandD1Ev$w$bAfPcAyF8U69clrY2
0001:000cd970  __ZN21RemoveFunctionCommandD0Ev$w$bAfPcAyF8U69clrY2
0001:000cda44  __ZNK21RemoveFunctionCommand4typeEv$w$bAfPcAyF8U69clrY2
0001:000cd54c  __ZN27ChangeFunctionAttribCommandD1Ev$w$bAfPcAyF8U69clrY2
0001:000cd6f0  __ZN27ChangeFunctionAttribCommandD0Ev$w$bAfPcAyF8U69clrY2
0001:000cd898  __ZNK27ChangeFunctionAttribCommand4typeEv$w$bAfPcAyF8U69clrY2
0001:000cd3a0  __ZN18AddFunctionCommandD1Ev$w$bAfPcAyF8U69clrY2
0001:000cd46c  __ZN18AddFunctionCommandD0Ev$w$bAfPcAyF8U69clrY2
0001:000cd540  __ZNK18AddFunctionCommand4typeEv$w$bAfPcAyF8U69clrY2
0001:000cd324  __ZN23RemoveConnectionCommandD1Ev$w$bAfPcAyF8U69clrY2
0001:000cd358  __ZN23RemoveConnectionCommandD0Ev$w$bAfPcAyF8U69clrY2
0001:000cd394  __ZNK23RemoveConnectionCommand4typeEv$w$bAfPcAyF8U69clrY2
0001:000cd2a8  __ZN20AddConnectionCommandD1Ev$w$bAfPcAyF8U69clrY2
0001:000cd2dc  __ZN20AddConnectionCommandD0Ev$w$bAfPcAyF8U69clrY2
0001:000cd318  __ZNK20AddConnectionCommand4typeEv$w$bAfPcAyF8U69clrY2
0001:000cd258  __ZN21MoveWizardPageCommandD1Ev$w$bAfPcAyF8U69clrY2
0001:000cd274  __ZN21MoveWizardPageCommandD0Ev$w$bAfPcAyF8U69clrY2
0001:000cd29c  __ZNK21MoveWizardPageCommand4typeEv$w$bAfPcAyF8U69clrY2
0001:000cd208  __ZN22SwapWizardPagesCommandD1Ev$w$bAfPcAyF8U69clrY2
0001:000cd224  __ZN22SwapWizardPagesCommandD0Ev$w$bAfPcAyF8U69clrY2
0001:000cd24c  __ZNK22SwapWizardPagesCommand4typeEv$w$bAfPcAyF8U69clrY2
0001:000cd170  __ZN23RenameWizardPageCommandD1Ev$w$bAfPcAyF8U69clrY2
0001:000cd1b4  __ZN23RenameWizardPageCommandD0Ev$w$bAfPcAyF8U69clrY2
0001:000cd1fc  __ZNK23RenameWizardPageCommand4typeEv$w$bAfPcAyF8U69clrY2
0001:000cd164  __ZNK23DeleteWizardPageCommand4typeEv$w$bAfPcAyF8U69clrY2
0001:000ceb84* __ZNK8QPtrListI7CommandE5countEv$w$bAfPcAyF8U69clrY2
0001:000ceb48* __ZN8QPtrListI7CommandE5clearEv$w$bAfPcAyF8U69clrY2
0001:000ceb20* __ZN8QPtrListI7CommandED1Ev$w$bAfPcAyF8U69clrY2
0001:000ceb54* __ZN8QPtrListI7CommandED0Ev$w$bAfPcAyF8U69clrY2
0001:000cf184* __ZN8QPtrListI7CommandE10deleteItemEPv$w$bAfPcAyF8U69clrY2
0001:000cf1ac* __ZNK8QPtrListI7QWidgetE5countEv$w$bAfPcAyF8U69clrY2
0001:000cf1b8* __ZN8QPtrListI7QWidgetE10deleteItemEPv$w$bAfPcAyF8U69clrY2
0001:000ceb90* __ZN8QPtrListI7QWidgetED1Ev$w$bAfPcAyF8U69clrY2
0001:000cebb8* __ZN8QPtrListI7QWidgetED0Ev$w$bAfPcAyF8U69clrY2
0001:000cf1e0* __ZNK8QPtrListIcE5countEv$w$bAfPcAyF8U69clrY2
0001:000cebe8* __ZN8QPtrListIcED1Ev$w$bAfPcAyF8U69clrY2
0001:000cec10* __ZN8QPtrListIcED0Ev$w$bAfPcAyF8U69clrY2
0001:000cf1ec* __ZN8QPtrListIcE10deleteItemEPv$w$bAfPcAyF8U69clrY2
0001:000cece0* __ZN11QMapPrivateI11QGuardedPtrI7QWidgetE5QRectE5clearEv$w$bAfPcAyF8U69clrY2
0001:000ced1c* __ZN17QValueListPrivateIN22PopulateListBoxCommand4ItemEED1Ev$w$bAfPcAyF8U69clrY2
0001:000cedcc* __ZN17QValueListPrivateIN23PopulateIconViewCommand4ItemEED1Ev$w$bAfPcAyF8U69clrY2
0001:000cee7c* __ZN17QValueListPrivateIN20PopulateTableCommand3RowEED1Ev$w$bAfPcAyF8U69clrY2
0001:000cef2c* __ZN17QValueListPrivateIN20PopulateTableCommand6ColumnEED1Ev$w$bAfPcAyF8U69clrY2
0001:000cf210* __ZTV13ActionCommand$w$bAfPcAyF8U69clrY2
0001:000cf080  __ZN11QMapPrivateIP7QWidget10QValueListIN12MetaDataBase10ConnectionEEE5clearEP8QMapNodeIS1_S5_E$w$bAfPcAyF8U69clrY2
0001:000cf0ec* __ZN11QMapPrivateI11QGuardedPtrI7QWidgetE5QRectE5clearEP8QMapNodeIS2_S3_E$w$bAfPcAyF8U69clrY2
0001:000cf25c* __ZN13ActionCommandD1Ev$w$bAfPcAyF8U69clrY2
0001:000cf234* __ZN13ActionCommandD0Ev$w$bAfPcAyF8U69clrY2
Module: C:\200\trunk\lib\designercore.lib(moc_paletteeditoradvanced.obj)
0001:000cf2ac* __ZNK25PaletteEditorAdvancedBase9classNameEv
0001:000cf2b8  __ZN25PaletteEditorAdvancedBase2trEPKcS1_
0001:000cf2f8* __ZN25PaletteEditorAdvancedBase6trUtf8EPKcS1_
0001:000cf6ac  __ZN25PaletteEditorAdvancedBase16staticMetaObjectEv
0001:000cf708  __ZN25PaletteEditorAdvancedBase7qt_castEPKc
0001:000cf760  __ZN25PaletteEditorAdvancedBase9qt_invokeEiP8QUObject
0001:000cf8c0  __ZN25PaletteEditorAdvancedBase7qt_emitEiP8QUObject
0001:000cf8dc  __ZN25PaletteEditorAdvancedBase11qt_propertyEiiP8QVariant
0001:000cf8f8* __ZN25PaletteEditorAdvancedBase18qt_static_propertyEP7QObjectiiP8QVariant
0002:00002550* __ZN25PaletteEditorAdvancedBase7metaObjE
0001:000cf910  __ZTV25PaletteEditorAdvancedBase$w$xhiQwQTF8U6mzcN00
0001:000cfbfc  __ZNK25PaletteEditorAdvancedBase10metaObjectEv$w$xhiQwQTF8U6mzcN00
0001:000cfbd4* __ZN7QWidget9setWStateEj$w$xhiQwQTF8U6mzcN00
0001:000cfbe8* __ZN7QWidget9setWFlagsEj$w$xhiQwQTF8U6mzcN00
0001:000cfb50* __ZTV6QGList$w$xhiQwQTF8U6mzcN00
0001:000cfbc8* __ZNK6QGList5countEv$w$xhiQwQTF8U6mzcN00
Module: C:\200\trunk\lib\designercore.lib(moc_editfunctionsimpl.obj)
0001:000cfc60* __ZNK13EditFunctions9classNameEv
0001:000cfc6c  __ZN13EditFunctions2trEPKcS1_
0001:000cfcac* __ZN13EditFunctions6trUtf8EPKcS1_
0001:000d0118* __ZN13EditFunctions16staticMetaObjectEv
0001:000d0174* __ZN13EditFunctions7qt_castEPKc
0001:000d01cc  __ZN13EditFunctions11itemRenamedERK7QString
0001:000d0220* __ZN13EditFunctions9qt_invokeEiP8QUObject
0001:000d0348* __ZN13EditFunctions7qt_emitEiP8QUObject
0001:000d0390* __ZN13EditFunctions11qt_propertyEiiP8QVariant
0001:000d03ac* __ZN13EditFunctions18qt_static_propertyEP7QObjectiiP8QVariant
0002:00002570* __ZN13EditFunctions7metaObjE
0001:000d03d0  __ZTV13EditFunctions$w$NvpWWMRF8U6jpvMi3
0001:000d08d0  __ZNK13EditFunctions10metaObjectEv$w$NvpWWMRF8U6jpvMi3
0001:000d06bc  __ZN13EditFunctionsD1Ev$w$NvpWWMRF8U6jpvMi3
0001:000d07c0  __ZN13EditFunctionsD0Ev$w$NvpWWMRF8U6jpvMi3
0001:000d0694* __ZN7QWidget9setWStateEj$w$NvpWWMRF8U6jpvMi3
0001:000d06a8* __ZN7QWidget9setWFlagsEj$w$NvpWWMRF8U6jpvMi3
0001:000d08e0  __ZN13EditFunctions11functionAddEv$w$NvpWWMRF8U6jpvMi3
0001:000d07b4  __ZThn40_N13EditFunctionsD1Ev$w$NvpWWMRF8U6jpvMi3
0001:000d08c4  __ZThn40_N13EditFunctionsD0Ev$w$NvpWWMRF8U6jpvMi3
0001:000d0610* __ZTV6QGList$w$NvpWWMRF8U6jpvMi3
0001:000d0688* __ZNK6QGList5countEv$w$NvpWWMRF8U6jpvMi3
0001:000d0b88* __ZN11QMapPrivateIP13QListViewItemiE5clearEv$w$NvpWWMRF8U6jpvMi3
0001:000d0934* __ZN17QValueListPrivateI7QStringED1Ev$w$NvpWWMRF8U6jpvMi3
0001:000d09c4* __ZN17QValueListPrivateIN12MetaDataBase8FunctionEED1Ev$w$NvpWWMRF8U6jpvMi3
0001:000d0bc4* __ZN17QValueListPrivateIN13EditFunctions9FunctItemEED1Ev$w$NvpWWMRF8U6jpvMi3
0001:000d0e5c* __ZN11QMapPrivateIP13QListViewItemiE5clearEP8QMapNodeIS1_iE$w$NvpWWMRF8U6jpvMi3
0001:000d0e98* __ZN7QStringD1Ev$w$NvpWWMRF8U6jpvMi3
Module: C:\200\trunk\lib\designercore.lib(moc_asciivalidator.obj)
0001:000d0f00* __ZNK14AsciiValidator9classNameEv
0001:000d0f0c* __ZN14AsciiValidator2trEPKcS1_
0001:000d0f4c* __ZN14AsciiValidator6trUtf8EPKcS1_
0001:000d0f8c* __ZN14AsciiValidator16staticMetaObjectEv
0001:000d0fe4* __ZN14AsciiValidator7qt_castEPKc
0001:000d103c* __ZN14AsciiValidator9qt_invokeEiP8QUObject
0001:000d1058* __ZN14AsciiValidator7qt_emitEiP8QUObject
0001:000d1074* __ZN14AsciiValidator11qt_propertyEiiP8QVariant
0001:000d1090* __ZN14AsciiValidator18qt_static_propertyEP7QObjectiiP8QVariant
0002:00002590* __ZN14AsciiValidator7metaObjE
0001:000d10b0  __ZTV14AsciiValidator$w$fA6zYbQF8U6x7gb80
0001:000d11b4  __ZNK14AsciiValidator10metaObjectEv$w$fA6zYbQF8U6x7gb80
0001:000d1130* __ZTV6QGList$w$fA6zYbQF8U6x7gb80
0001:000d11a8* __ZNK6QGList5countEv$w$fA6zYbQF8U6x7gb80
Module: C:\200\trunk\lib\designercore.lib(moc_projectsettings.obj)
0001:000d1204* __ZNK19ProjectSettingsBase9classNameEv
0001:000d1210  __ZN19ProjectSettingsBase2trEPKcS1_
0001:000d1250* __ZN19ProjectSettingsBase6trUtf8EPKcS1_
0001:000d1470  __ZN19ProjectSettingsBase16staticMetaObjectEv
0001:000d14cc  __ZN19ProjectSettingsBase7qt_castEPKc
0001:000d1524  __ZN19ProjectSettingsBase9qt_invokeEiP8QUObject
0001:000d1604  __ZN19ProjectSettingsBase7qt_emitEiP8QUObject
0001:000d1620  __ZN19ProjectSettingsBase11qt_propertyEiiP8QVariant
0001:000d163c* __ZN19ProjectSettingsBase18qt_static_propertyEP7QObjectiiP8QVariant
0002:000025b0* __ZN19ProjectSettingsBase7metaObjE
0001:000d1650  __ZTV19ProjectSettingsBase$w$BzumSrTF8U6Cdo304
0001:000d191c  __ZNK19ProjectSettingsBase10metaObjectEv$w$BzumSrTF8U6Cdo304
0001:000d18f4* __ZN7QWidget9setWStateEj$w$BzumSrTF8U6Cdo304
0001:000d1908* __ZN7QWidget9setWFlagsEj$w$BzumSrTF8U6Cdo304
0001:000d1870* __ZTV6QGList$w$BzumSrTF8U6Cdo304
0001:000d18e8* __ZNK6QGList5countEv$w$BzumSrTF8U6Cdo304
Module: C:\200\trunk\lib\designercore.lib(createtemplate.obj)
0001:000d1a00* __ZN14CreateTemplateC2EP7QWidgetPKcbj
0001:000d2350  __ZN14CreateTemplate14languageChangeEv
0001:000d1dd8  __ZN14CreateTemplateC1EP7QWidgetPKcbj
0001:000d21b0* __ZN14CreateTemplateD2Ev
0001:000d21d4  __ZN14CreateTemplateD1Ev
0001:000d2200  __ZN14CreateTemplateD0Ev
0001:000d21f8  __ZThn40_N14CreateTemplateD1Ev$w$3KWbfcMF8U66sE4p0
0001:000d222c  __ZThn40_N14CreateTemplateD0Ev$w$3KWbfcMF8U66sE4p0
0001:000d2650* __ZTV6QGList$w$3KWbfcMF8U66sE4p0
0001:000d267c* __ZNK6QGList5countEv$w$3KWbfcMF8U66sE4p0
Module: C:\200\trunk\lib\designercore.lib(tableeditorimpl.obj)
0001:000d26b0* __ZN11TableEditorC2EP7QWidgetS1_P10FormWindowPKcbj
0001:000d49e8* __ZN11TableEditor13readFromTableEv
0001:000d282c  __ZN11TableEditorC1EP7QWidgetS1_P10FormWindowPKcbj
0001:000d29a8* __ZN11TableEditorD2Ev
0001:000d2a94  __ZN11TableEditorD1Ev
0001:000d2b8c  __ZN11TableEditorD0Ev
0001:000d2c8c  __ZN11TableEditor17columnDownClickedEv
0001:000d52a8* __ZN11TableEditor12saveFieldMapEv
0001:000d5080* __ZN11TableEditor11readColumnsEv
0001:000d5370* __ZN11TableEditor15restoreFieldMapEv
0001:000d2d7c  __ZN11TableEditor17columnTextChangedERK7QString
0001:000d2e9c  __ZN11TableEditor15columnUpClickedEv
0001:000d2f68  __ZN11TableEditor20currentColumnChangedEP12QListBoxItem
0001:000d3070  __ZN11TableEditor19currentFieldChangedERK7QString
0001:000d3200  __ZN11TableEditor17currentRowChangedEP12QListBoxItem
0001:000d3308  __ZN11TableEditor19deleteColumnClickedEv
0001:000d33e4  __ZN11TableEditor16deleteRowClickedEv
0001:000d5194* __ZN11TableEditor8readRowsEv
0001:000d34c0  __ZN11TableEditor16newColumnClickedEv
0001:000d379c  __ZN11TableEditor13newRowClickedEv
0001:000d3a50  __ZN11TableEditor9okClickedEv
0001:000d3a78  __ZN11TableEditor14rowDownClickedEv
0001:000d3b48  __ZN11TableEditor14rowTextChangedERK7QString
0001:000d3c68  __ZN11TableEditor12rowUpClickedEv
0001:000d3d38  __ZN11TableEditor12applyClickedEv
0001:000d42d8  __ZN11TableEditor22chooseRowPixmapClickedEv
0001:000d4514  __ZN11TableEditor22deleteRowPixmapClickedEv
0001:000d4660  __ZN11TableEditor22chooseColPixmapClickedEv
0001:000d489c  __ZN11TableEditor22deleteColPixmapClickedEv
0001:000d5438* __ZN11QMapPrivateIi7QStringEC1Ev$w$jy0JIMKF8U6rYBLH2
0001:000d54cc  __ZN11QMapPrivateIP12QListBoxItem7QStringEC1Ev$w$jy0JIMKF8U6rYBLH2
0001:000d5524  __ZN11QMapPrivateIP12QListBoxItem7QStringE5clearEv$w$jy0JIMKF8U6rYBLH2
0001:000d5490* __ZN11QMapPrivateIi7QStringE5clearEv$w$jy0JIMKF8U6rYBLH2
0001:000d2b80  __ZThn40_N11TableEditorD1Ev$w$jy0JIMKF8U6rYBLH2
0001:000d2c80  __ZThn40_N11TableEditorD0Ev$w$jy0JIMKF8U6rYBLH2
0001:000d5560* __ZN4QMapIi7QStringE6removeERKi$w$jy0JIMKF8U6rYBLH2
0001:000d5630* __ZN4QMapIi7QStringE6insertERKiRKS0_b$w$jy0JIMKF8U6rYBLH2
0001:000d5700* __ZN11QMapPrivateI7QStringbEC1Ev$w$jy0JIMKF8U6rYBLH2
0001:000d569c* __ZN4QMapI7QStringbE6insertERKS0_RKbb$w$jy0JIMKF8U6rYBLH2
0001:000d5794* __ZNK11QMapPrivateI7QStringbE4findERKS0_$w$jy0JIMKF8U6rYBLH2
0001:000d5758* __ZN11QMapPrivateI7QStringbE5clearEv$w$jy0JIMKF8U6rYBLH2
0001:000d5818* __ZN4QMapI7QStringbE14detachInternalEv$w$jy0JIMKF8U6rYBLH2
0001:000d5848  __ZN17QValueListPrivateIN20PopulateTableCommand3RowEEC1Ev$w$jy0JIMKF8U6rYBLH2
0001:000d5950  __ZN17QValueListPrivateIN20PopulateTableCommand6ColumnEEC1Ev$w$jy0JIMKF8U6rYBLH2
0001:000d5ab8* __ZNK11QMapPrivateIi7QStringE4findERKi$w$jy0JIMKF8U6rYBLH2
0001:000d5b38  __ZN17QValueListPrivateIN20PopulateTableCommand6ColumnEE6insertE18QValueListIteratorIS1_ERKS1_$w$jy0JIMKF8U6rYBLH2
0001:000d5bb4  __ZN10QValueListIN20PopulateTableCommand6ColumnEE14detachInternalEv$w$jy0JIMKF8U6rYBLH2
0001:000d5b08* __ZN4QMapIi7QStringE14detachInternalEv$w$jy0JIMKF8U6rYBLH2
0001:000d5be4  __ZN17QValueListPrivateIN20PopulateTableCommand3RowEE6insertE18QValueListIteratorIS1_ERKS1_$w$jy0JIMKF8U6rYBLH2
0001:000d5c50  __ZN10QValueListIN20PopulateTableCommand3RowEE14detachInternalEv$w$jy0JIMKF8U6rYBLH2
0001:000d58a0  __ZN17QValueListPrivateIN20PopulateTableCommand3RowEED1Ev$w$jy0JIMKF8U6rYBLH2
0001:000d59c0  __ZN17QValueListPrivateIN20PopulateTableCommand6ColumnEED1Ev$w$jy0JIMKF8U6rYBLH2
0001:000d5cbc* __ZNK11QMapPrivateI7QStringS0_E4findERKS0_$w$jy0JIMKF8U6rYBLH2
0001:000d5d40* __ZN4QMapI7QStringS0_E14detachInternalEv$w$jy0JIMKF8U6rYBLH2
0001:000d5c80* __ZN11QMapPrivateI7QStringS0_E5clearEv$w$jy0JIMKF8U6rYBLH2
0001:000d5d70  __ZN4QMapIP12QListBoxItem7QStringE5clearEv$w$jy0JIMKF8U6rYBLH2
0001:000d5db4  __ZN4QMapIP12QListBoxItem7QStringE6insertERKS1_RKS2_b$w$jy0JIMKF8U6rYBLH2
0001:000d5e20* __ZN12QMapIteratorIi7QStringE3incEv$w$jy0JIMKF8U6rYBLH2
0001:000d5e6c* __ZN4QMapIi7QStringE5clearEv$w$jy0JIMKF8U6rYBLH2
0001:000d5ee0  __ZN12QMapIteratorIP12QListBoxItem7QStringE3incEv$w$jy0JIMKF8U6rYBLH2
0001:000d5eb0  __ZN4QMapIP12QListBoxItem7QStringE14detachInternalEv$w$jy0JIMKF8U6rYBLH2
0001:000d5f2c* __ZN11QMapPrivateIi7QStringE5clearEP8QMapNodeIiS0_E$w$jy0JIMKF8U6rYBLH2
0001:000d5f90  __ZN11QMapPrivateIP12QListBoxItem7QStringE5clearEP8QMapNodeIS1_S2_E$w$jy0JIMKF8U6rYBLH2
0001:000d5ff4* __ZN11QMapPrivateIi7QStringE12insertSingleERKi$w$jy0JIMKF8U6rYBLH2
0001:000d6090* __ZN11QMapPrivateI7QStringbE12insertSingleERKS0_$w$jy0JIMKF8U6rYBLH2
0001:000d6144* __ZN11QMapPrivateI7QStringbE5clearEP8QMapNodeIS0_bE$w$jy0JIMKF8U6rYBLH2
0001:000d61a8* __ZN11QMapPrivateI7QStringbEC1EPKS1_$w$jy0JIMKF8U6rYBLH2
0001:000d6258* __ZN11QMapPrivateIi7QStringEC1EPKS1_$w$jy0JIMKF8U6rYBLH2
0001:000d6308  __ZN17QValueListPrivateIN20PopulateTableCommand6ColumnEEC1ERKS2_$w$jy0JIMKF8U6rYBLH2
0001:000d63c8  __ZN17QValueListPrivateIN20PopulateTableCommand3RowEEC1ERKS2_$w$jy0JIMKF8U6rYBLH2
0001:000d646c* __ZN11QMapPrivateI7QStringS0_E5clearEP8QMapNodeIS0_S0_E$w$jy0JIMKF8U6rYBLH2
0001:000d64f0* __ZN11QMapPrivateI7QStringS0_EC1EPKS1_$w$jy0JIMKF8U6rYBLH2
0001:000d65bc  __ZN11QMapPrivateIP12QListBoxItem7QStringE12insertSingleERKS1_$w$jy0JIMKF8U6rYBLH2
0001:000d6658  __ZN11QMapPrivateIP12QListBoxItem7QStringEC1EPKS3_$w$jy0JIMKF8U6rYBLH2
0001:000d6708* __ZN11QMapPrivateIi7QStringE6insertEP12QMapNodeBaseS3_RKi$w$jy0JIMKF8U6rYBLH2
0001:000d67b0* __ZN12QMapIteratorIi7QStringE3decEv$w$jy0JIMKF8U6rYBLH2
0001:000d6808* __ZN11QMapPrivateI7QStringbE6insertEP12QMapNodeBaseS3_RKS0_$w$jy0JIMKF8U6rYBLH2
0001:000d68ec* __ZN12QMapIteratorI7QStringbE3decEv$w$jy0JIMKF8U6rYBLH2
0001:000d6944* __ZN11QMapPrivateI7QStringbE4copyEP8QMapNodeIS0_bE$w$jy0JIMKF8U6rYBLH2
0001:000d69f4* __ZN11QMapPrivateIi7QStringE4copyEP8QMapNodeIiS0_E$w$jy0JIMKF8U6rYBLH2
0001:000d6aa4* __ZN11QMapPrivateI7QStringS0_E4copyEP8QMapNodeIS0_S0_E$w$jy0JIMKF8U6rYBLH2
0001:000d6b84  __ZN11QMapPrivateIP12QListBoxItem7QStringE6insertEP12QMapNodeBaseS5_RKS1_$w$jy0JIMKF8U6rYBLH2
0001:000d6c2c  __ZN12QMapIteratorIP12QListBoxItem7QStringE3decEv$w$jy0JIMKF8U6rYBLH2
0001:000d6c84  __ZN11QMapPrivateIP12QListBoxItem7QStringE4copyEP8QMapNodeIS1_S2_E$w$jy0JIMKF8U6rYBLH2
0001:000d6d50* __ZTV6QGList$w$jy0JIMKF8U6rYBLH2
0001:000d6d7c* __ZNK6QGList5countEv$w$jy0JIMKF8U6rYBLH2
Module: C:\200\trunk\lib\designercore.lib(listviewdnd.obj)
0001:000d6d90* __ZN11ListViewDndC2EP9QListViewPKc
0001:000d6dc8  __ZN11ListViewDndC1EP9QListViewPKc
0001:000d6e00  __ZN11ListViewDnd11confirmDropEP13QListViewItem
0001:000d6e0c  __ZN11ListViewDnd9dropEventEP10QDropEvent
0001:000d73d8* __ZN11ListViewDnd6itemAtE6QPoint
0001:000d7530* __ZN11ListViewDnd9dropDepthEP13QListViewItem6QPoint
0001:000d77e4* __ZN16ListViewItemDrag6decodeEP10QDropEventP9QListViewP13QListViewItemNS_12DropRelationE
0001:000d6f28  __ZN11ListViewDnd14mouseMoveEventEP11QMouseEvent
0001:000d7098* __ZN11ListViewDnd13buildFlatListER8QPtrListI13QListViewItemE
0001:000d76c8* __ZN16ListViewItemDragC1ER8QPtrListI13QListViewItemEP7QWidgetPKc
0001:000d7284* __ZN11ListViewDnd15setVisibleItemsEb
0001:000d71e8* __ZN11ListViewDnd13buildTreeListER8QPtrListI13QListViewItemE
0001:000d72dc  __ZN11ListViewDnd10updateLineERK6QPoint
0001:000d75a4  __ZN11ListViewDnd9canDecodeEP15QDragEnterEvent
0001:000d77c8* __ZN16ListViewItemDrag9canDecodeEP14QDragMoveEvent
0001:000d75c8* __ZN16ListViewItemDragC2ER8QPtrListI13QListViewItemEP7QWidgetPKc
0001:000d794c* __ZlsR11QDataStreamRK13QListViewItem
0001:000d7bac* __ZrsR11QDataStreamR13QListViewItem
0001:000d7f10  __ZTV8QPtrListI13QListViewItemE$w$viFlJPJF8U6PGnEW2
0001:000d7e70  __ZTV16ListViewItemDrag$w$viFlJPJF8U6PGnEW2
0001:000d7f40* __ZTV9QMemArrayIcE$w$viFlJPJF8U6PGnEW2
0001:000d7fc4  __ZNK11QStoredDrag10metaObjectEv$w$viFlJPJF8U6PGnEW2
0001:000d7fd0  __ZN16ListViewItemDragD1Ev$w$viFlJPJF8U6PGnEW2
0001:000d7ffc  __ZN16ListViewItemDragD0Ev$w$viFlJPJF8U6PGnEW2
0001:000d7ff4  __ZThn40_N16ListViewItemDragD1Ev$w$viFlJPJF8U6PGnEW2
0001:000d8028  __ZThn40_N16ListViewItemDragD0Ev$w$viFlJPJF8U6PGnEW2
0001:000d8094  __ZNK8QPtrListI13QListViewItemE5countEv$w$viFlJPJF8U6PGnEW2
0001:000d8058  __ZN8QPtrListI13QListViewItemE5clearEv$w$viFlJPJF8U6PGnEW2
0001:000d8030  __ZN8QPtrListI13QListViewItemED1Ev$w$viFlJPJF8U6PGnEW2
0001:000d8064  __ZN8QPtrListI13QListViewItemED0Ev$w$viFlJPJF8U6PGnEW2
0001:000d80c8  __ZN8QPtrListI13QListViewItemE10deleteItemEPv$w$viFlJPJF8U6PGnEW2
0001:000d7fa8* __ZN9QMemArrayIcED1Ev$w$viFlJPJF8U6PGnEW2
0001:000d80a0* __ZN9QMemArrayIcED0Ev$w$viFlJPJF8U6PGnEW2
0001:000d80f0* __ZN9QMemArrayIcE6detachEv$w$viFlJPJF8U6PGnEW2
0001:000d7f70* __ZTV6QGList$w$viFlJPJF8U6PGnEW2
0001:000d7f9c* __ZNK6QGList5countEv$w$viFlJPJF8U6PGnEW2
Module: C:\200\trunk\lib\designercore.lib(propertyobject.obj)
0001:000d8140* __ZN14PropertyObjectC2ERK11QWidgetList
0001:000d8394  __ZN14PropertyObjectC1ERK11QWidgetList
0001:000d85e8* __ZN14PropertyObject11setPropertyEPKcRK8QVariant
0001:000d8634* __ZNK14PropertyObject8propertyEPKc
0001:000d8660  __ZN14PropertyObject17mdPropertyChangedERK7QStringb
0001:000d86a8  __ZN14PropertyObject19mdIsPropertyChangedERK7QString
0001:000d86fc  __ZN14PropertyObject20mdSetPropertyCommentERK7QStringS2_
0001:000d8740  __ZN14PropertyObject17mdPropertyCommentERK7QString
0001:000d876c  __ZN14PropertyObject17mdSetFakePropertyERK7QStringRK8QVariant
0001:000d87b0  __ZN14PropertyObject14mdFakePropertyERK7QString
0001:000d87dc  __ZN14PropertyObject11mdSetCursorERK7QCursor
0001:000d8834  __ZN14PropertyObject8mdCursorEv
0001:000d885c  __ZN14PropertyObject14mdSetPixmapKeyEiRK7QString
0001:000d88a0  __ZN14PropertyObject11mdPixmapKeyEi
0001:000d88cc  __ZN14PropertyObject16mdSetExportMacroERK7QString
0001:000d890c  __ZN14PropertyObject13mdExportMacroEv
0001:000d8950  __ZTV14PropertyObject$w$3EpolQIF8U6o3q8j0
0001:000d8a30* __ZTV11QWidgetList$w$3EpolQIF8U6o3q8j0
0001:000d89f0  __ZTV10QPtrVectorI8QPtrListI11QMetaObjectEE$w$3EpolQIF8U6o3q8j0
0001:000d89b0  __ZTV8QPtrListI11QMetaObjectE$w$3EpolQIF8U6o3q8j0
0001:000d8b80  __ZNK14PropertyObject10metaObjectEv$w$3EpolQIF8U6o3q8j0
0001:000d8b9c  __ZNK14PropertyObject9classNameEv$w$3EpolQIF8U6o3q8j0
0001:000d8b24  __ZN14PropertyObjectD1Ev$w$3EpolQIF8U6o3q8j0
0001:000d8b50  __ZN14PropertyObjectD0Ev$w$3EpolQIF8U6o3q8j0
0001:000d8be8  __ZNK8QPtrListI11QMetaObjectE5countEv$w$3EpolQIF8U6o3q8j0
0001:000d8c30  __ZN8QPtrListI11QMetaObjectE5clearEv$w$3EpolQIF8U6o3q8j0
0001:000d8c3c  __ZN8QPtrListI11QMetaObjectED1Ev$w$3EpolQIF8U6o3q8j0
0001:000d8c64  __ZN8QPtrListI11QMetaObjectED0Ev$w$3EpolQIF8U6o3q8j0
0001:000d8c94  __ZN8QPtrListI11QMetaObjectE10deleteItemEPv$w$3EpolQIF8U6o3q8j0
0001:000d8bdc  __ZNK10QPtrVectorI8QPtrListI11QMetaObjectEE5countEv$w$3EpolQIF8U6o3q8j0
0001:000d8bf4  __ZN10QPtrVectorI8QPtrListI11QMetaObjectEE5clearEv$w$3EpolQIF8U6o3q8j0
0001:000d8ba8  __ZN10QPtrVectorI8QPtrListI11QMetaObjectEED1Ev$w$3EpolQIF8U6o3q8j0
0001:000d8c00  __ZN10QPtrVectorI8QPtrListI11QMetaObjectEED0Ev$w$3EpolQIF8U6o3q8j0
0001:000d8cbc  __ZN10QPtrVectorI8QPtrListI11QMetaObjectEE10deleteItemEPv$w$3EpolQIF8U6o3q8j0
0001:000d8bd0* __ZNK8QPtrListI7QWidgetE5countEv$w$3EpolQIF8U6o3q8j0
0001:000d8aa8* __ZN8QPtrListI7QWidgetE5clearEv$w$3EpolQIF8U6o3q8j0
0001:000d8ab4* __ZN11QWidgetListD1Ev$w$3EpolQIF8U6o3q8j0
0001:000d8ae8* __ZN11QWidgetListD0Ev$w$3EpolQIF8U6o3q8j0
0001:000d8ce4* __ZN8QPtrListI7QWidgetE10deleteItemEPv$w$3EpolQIF8U6o3q8j0
0001:000d8a70* __ZTV6QGList$w$3EpolQIF8U6o3q8j0
0001:000d8a9c* __ZNK6QGList5countEv$w$3EpolQIF8U6o3q8j0
0001:000d8d10* __ZTV8QPtrListI7QWidgetE$w$3EpolQIF8U6o3q8j0
0001:000d8d3c* __ZN8QPtrListI7QWidgetED1Ev$w$3EpolQIF8U6o3q8j0
0001:000d8d64* __ZN8QPtrListI7QWidgetED0Ev$w$3EpolQIF8U6o3q8j0
Module: C:\200\trunk\lib\designercore.lib(listvieweditorimpl.obj)
0001:000d8f58* __ZN14ListViewEditorC2EP7QWidgetP9QListViewP10FormWindow
0001:000db2c4* __ZN14ListViewEditor12setupColumnsEv
0001:000db5c4* __ZN14ListViewEditor10setupItemsEv
0001:000d9340  __ZN14ListViewEditorC1EP7QWidgetP9QListViewP10FormWindow
0001:000d974c  __ZN14ListViewEditor12applyClickedEv
0001:000d9864  __ZN14ListViewEditor9okClickedEv
0001:000d988c  __ZN14ListViewEditor15columnClickableEb
0001:000db7bc* __ZN14ListViewEditor10findColumnEP12QListBoxItem
0001:000d98d0  __ZN14ListViewEditor17columnDownClickedEv
0001:000d99ac  __ZN14ListViewEditor18columnPixmapChosenEv
0001:000d9b7c  __ZN14ListViewEditor19columnPixmapDeletedEv
0001:000d9ce4  __ZN14ListViewEditor15columnResizableEb
0001:000d9d28  __ZN14ListViewEditor17columnTextChangedERK7QString
0001:000d9e20  __ZN14ListViewEditor15columnUpClickedEv
0001:000d9ed4  __ZN14ListViewEditor20currentColumnChangedEP12QListBoxItem
0001:000da194  __ZN14ListViewEditor16newColumnClickedEv
0001:000da368  __ZN14ListViewEditor19deleteColumnClickedEv
0001:000da4c0  __ZN14ListViewEditor18currentItemChangedEP13QListViewItem
0001:000da600* __ZN14ListViewEditor11displayItemEP13QListViewItemi
0001:000da724  __ZN14ListViewEditor14itemColChangedEi
0001:000da7ac  __ZN14ListViewEditor17itemDeleteClickedEv
0001:000da840  __ZN14ListViewEditor15itemDownClickedEv
0001:000da8fc  __ZN14ListViewEditor14itemNewClickedEv
0001:000da9d4  __ZN14ListViewEditor17itemNewSubClickedEv
0001:000daad0  __ZN14ListViewEditor17itemPixmapChoosenEv
0001:000dac18  __ZN14ListViewEditor17itemPixmapDeletedEv
0001:000dace0  __ZN14ListViewEditor15itemTextChangedERK7QString
0001:000dad24  __ZN14ListViewEditor13itemUpClickedEv
0001:000dadc8  __ZN14ListViewEditor16itemRightClickedEv
0001:000db05c  __ZN14ListViewEditor15itemLeftClickedEv
0001:000db848  __ZN14ListViewEditor11initTabPageERK7QString
0001:000db984  __ZN14ListViewEditor15emitItemRenamedEP13QListViewItemiRK7QString
0001:000db994  __ZN17QValueListPrivateIN14ListViewEditor6ColumnEEC1Ev$w$vcgSVoEF8U6EjvKj3
0001:000db9ec  __ZN17QValueListPrivateIN14ListViewEditor6ColumnEE6insertE18QValueListIteratorIS1_ERKS1_$w$vcgSVoEF8U6EjvKj3
0001:000dba70  __ZN10QValueListIN14ListViewEditor6ColumnEE14detachInternalEv$w$vcgSVoEF8U6EjvKj3
0001:000dbaec  __ZN17QValueListPrivateIN14ListViewEditor6ColumnEE6removeE18QValueListIteratorIS1_E$w$vcgSVoEF8U6EjvKj3
0001:000dbb88  __ZN17QValueListPrivateIN14ListViewEditor6ColumnEEC1ERKS2_$w$vcgSVoEF8U6EjvKj3
0001:000dbc30* __ZTV6QGList$w$vcgSVoEF8U6EjvKj3
0001:000dbc5c* __ZNK6QGList5countEv$w$vcgSVoEF8U6EjvKj3
Module: C:\200\trunk\lib\designercore.lib(hierarchyview.obj)
0001:000dbd38* __ZN13HierarchyItemC2ENS_4TypeEP13QListViewItemS2_RK7QStringS5_S5_
0001:000dbf28  __ZN13HierarchyItemC1ENS_4TypeEP13QListViewItemS2_RK7QStringS5_S5_
0001:000dc118* __ZN13HierarchyItemC2ENS_4TypeEP9QListViewP13QListViewItemRK7QStringS7_S7_
0001:000dc308  __ZN13HierarchyItemC1ENS_4TypeEP9QListViewP13QListViewItemRK7QStringS7_S7_
0001:000dc528* __ZN13HierarchyItem9paintCellEP8QPainterRK11QColorGroupiii
0001:000dc9dc* __ZN13HierarchyItem15backgroundColorEv
0001:000dca08* __ZN13HierarchyItem15updateBackColorEv
0001:000dcb24* __ZN13HierarchyItem9setObjectEP7QObject
0001:000dcb34* __ZNK13HierarchyItem6objectEv
0001:000dcb40* __ZN13HierarchyItem8okRenameEi
0001:000dcb64* __ZN13HierarchyItem12cancelRenameEi
0001:000dcd10  __ZN13HierarchyListC2EP7QWidgetP10FormWindowb
0001:000dcf00* __ZN13HierarchyListC1EP7QWidgetP10FormWindowb
0001:000dd0f0  __ZN13HierarchyList13keyPressEventEP9QKeyEvent
0001:000dd12c  __ZN13HierarchyList15keyReleaseEventEP9QKeyEvent
0001:000dd140  __ZN13HierarchyList23viewportMousePressEventEP11QMouseEvent
0001:000dd178  __ZN13HierarchyList25viewportMouseReleaseEventEP11QMouseEvent
0001:000dd198* __ZN13HierarchyList17handleObjectClickEP13QListViewItem
0001:000dd4b8* __ZN13HierarchyList10findObjectEP13QListViewItem
0001:000dd3c8  __ZN13HierarchyList19objectDoubleClickedEP13QListViewItem
0001:000dd454  __ZN13HierarchyList13objectClickedEP13QListViewItem
0001:000dd4c8* __ZN13HierarchyList8findItemEP7QObject
0001:000dd544* __ZNK13HierarchyList7currentEv
0001:000dd57c* __ZN13HierarchyList12changeNameOfEP7QObjectRK7QString
0001:000dd5a8* __ZN13HierarchyList16changeDatabaseOfEP7QObjectRK7QString
0001:000dd5b0  __ZN13HierarchyList5setupEv
0001:000dd70c* __ZN13HierarchyList12insertObjectEP7QObjectP13QListViewItem
0001:000dd648  __ZN13HierarchyList7setOpenEP13QListViewItemb
0001:000de3b4  __ZN13HierarchyList10setCurrentEP7QObject
0001:000de470  __ZN13HierarchyList11showRMBMenuEP13QListViewItemRK6QPoint
0001:000de5a8  __ZN13HierarchyList10addTabPageEv
0001:000de878  __ZN13HierarchyList13removeTabPageEv
0001:000dec1c* __ZN18FormDefinitionViewC2EP7QWidgetP10FormWindow
0001:000dec7c* __ZN18FormDefinitionViewC1EP7QWidgetP10FormWindow
0001:000decf0  __ZN18FormDefinitionView5setupEv
0001:000df0dc* __ZN18FormDefinitionView14setupVariablesEv
0001:000df614  __ZN18FormDefinitionView7refreshEv
0001:000dffac* __ZN18FormDefinitionView10setCurrentEP7QWidget
0001:000dffb4  __ZN18FormDefinitionView13objectClickedEP13QListViewItem
0001:000e0138  __ZN13HierarchyList11insertEntryEP13QListViewItemRK7QPixmapRK7QString
0001:000e0220  __ZN18FormDefinitionView29contentsMouseDoubleClickEventEP11QMouseEvent
0001:000e0518* __ZN18FormDefinitionView18execFunctionDialogERK7QStringS2_b
0001:000e073c  __ZN18FormDefinitionView11showRMBMenuEP13QListViewItemRK6QPoint
0001:000e1a88* __ZN18FormDefinitionView4saveEP13QListViewItemS1_
0001:000e3670  __ZN13HierarchyView24updateFormDefinitionViewEv
0001:000e1a00  __ZN18FormDefinitionView7renamedEP13QListViewItem
0001:000e1fc8* __ZN18FormDefinitionView11addVariableERK7QStringS2_
0001:000e216c* __ZN13HierarchyViewC2EP7QWidget
0001:000e34c8  __ZNK13HierarchyView10formWindowEv
0001:000e36f8* __ZN13HierarchyView12ClassBrowserC1EP9QListViewP21ClassBrowserInterface
0001:000e3744* __ZN13HierarchyView12ClassBrowserD1Ev
0001:000e260c  __ZN13HierarchyViewC1EP7QWidget
0001:000e2aac* __ZN13HierarchyViewD2Ev
0001:000e2af8  __ZN13HierarchyViewD1Ev
0001:000e2b4c  __ZN13HierarchyViewD0Ev
0001:000e2ba8  __ZN13HierarchyView5clearEv
0001:000e2c5c  __ZN13HierarchyView13setFormWindowEP10FormWindowP7QObject
0001:000e2fdc  __ZN13HierarchyView11showClassesEP12SourceEditor
0001:000e3088  __ZN13HierarchyView18showClassesTimeoutEv
0001:000e3380  __ZN13HierarchyView19updateClassBrowsersEv
0001:000e34d4  __ZN13HierarchyView10closeEventEP11QCloseEvent
0001:000e34f0  __ZN13HierarchyView14widgetInsertedEP7QWidget
0001:000e350c  __ZN13HierarchyView13widgetRemovedEP7QWidget
0001:000e3528  __ZN13HierarchyView15widgetsInsertedERK11QWidgetList
0001:000e3544  __ZN13HierarchyView14widgetsRemovedERK11QWidgetList
0001:000e3560  __ZN13HierarchyView19namePropertyChangedEP7QWidgetRK8QVariant
0001:000e35dc* __ZN13HierarchyView23databasePropertyChangedEP7QWidgetRK11QStringList
0001:000e35e4  __ZN13HierarchyView11tabsChangedEP10QTabWidget
0001:000e3600  __ZN13HierarchyView12pagesChangedEP7QWizard
0001:000e361c  __ZN13HierarchyView7rebuildEv
0001:000e3638  __ZN13HierarchyView6closedEP10FormWindow
0001:000e368c  __ZN13HierarchyView6jumpToERK7QStringS2_i
0001:000e36d0* __ZN13HierarchyView12ClassBrowserC2EP9QListViewP21ClassBrowserInterface
0001:000e3720* __ZN13HierarchyView12ClassBrowserD2Ev
0002:000025d0  _newItem
0001:000e49b0  __ZTV13HierarchyItem$w$VTdD4zDF8U66naln2
0001:000e3768* __Z7qt_castIP12QWidgetStackET_PK7QObject$w$VTdD4zDF8U66naln2
0001:000e3784* __Z7qt_castIP10QTabWidgetET_PK7QObject$w$VTdD4zDF8U66naln2
0001:000e37a0* __Z7qt_castIP7QWizardET_PK7QObject$w$VTdD4zDF8U66naln2
0001:000e37bc* __Z7qt_castIP8QMenuBarET_PK7QObject$w$VTdD4zDF8U66naln2
0001:000e37d8  __Z7qt_castIP11QDockWindowET_PK7QObject$w$VTdD4zDF8U66naln2
0001:000e37f4  __Z7qt_castIP10QPopupMenuET_PK7QObject$w$VTdD4zDF8U66naln2
0001:000e3810* __Z7qt_castIP7QActionET_PK7QObject$w$VTdD4zDF8U66naln2
0001:000e4970  __ZTV8QPtrListI12QWidgetStackE$w$VTdD4zDF8U66naln2
0001:000e382c* __Z7qt_castIP11QMainWindowET_PK7QObject$w$VTdD4zDF8U66naln2
0001:000e3848* __Z7qt_castIP13QLayoutWidgetET_PK7QObject$w$VTdD4zDF8U66naln2
0001:000e3864* __Z7qt_castIP8QToolBoxET_PK7QObject$w$VTdD4zDF8U66naln2
0001:000e3880* __Z7qt_castIP16QDesignerToolBarET_PK7QObject$w$VTdD4zDF8U66naln2
0001:000e389c* __Z7qt_castIP18QDesignerTabWidgetET_PK7QObject$w$VTdD4zDF8U66naln2
0001:000e38b8* __Z7qt_castIP15QDesignerWizardET_PK7QObject$w$VTdD4zDF8U66naln2
0001:000e38d4* __Z7qt_castIP11QScrollViewET_PK7QObject$w$VTdD4zDF8U66naln2
0001:000e38f0* __Z7qt_castIP15PopupMenuEditorET_PK7QObject$w$VTdD4zDF8U66naln2
0001:000e4a70* __ZTV8QPtrListI7QActionE$w$VTdD4zDF8U66naln2
0001:000e390c* __Z7qt_castIP15QDesignerActionET_PK7QObject$w$VTdD4zDF8U66naln2
0001:000e3928* __Z7qt_castIP20QDesignerActionGroupET_PK7QObject$w$VTdD4zDF8U66naln2
0001:000e3944* __Z7qt_castIP13MenuBarEditorET_PK7QObject$w$VTdD4zDF8U66naln2
0001:000e3960* __ZN17QValueListPrivateI7QStringED1Ev$w$VTdD4zDF8U66naln2
0001:000e39f0* __ZN10QValueListI7QStringE14detachInternalEv$w$VTdD4zDF8U66naln2
0001:000e3a20* __ZN17QValueListPrivateIN12MetaDataBase8VariableEED1Ev$w$VTdD4zDF8U66naln2
0001:000e3af8* __ZN10QValueListIN12MetaDataBase8VariableEE14detachInternalEv$w$VTdD4zDF8U66naln2
0001:000e3b28* __ZN17QValueListPrivateIN12MetaDataBase8FunctionEED1Ev$w$VTdD4zDF8U66naln2
0001:000e3cec* __ZN10QValueListIN12MetaDataBase8FunctionEE14detachInternalEv$w$VTdD4zDF8U66naln2
0001:000e3d1c* __ZN11QMapPrivateIP13QListViewItemiE5clearEv$w$VTdD4zDF8U66naln2
0001:000e3d58* __ZN17QValueListPrivateIN13EditFunctions9FunctItemEED1Ev$w$VTdD4zDF8U66naln2
0001:000e3ff0* __ZN17QValueListPrivateI7QStringEC1Ev$w$VTdD4zDF8U66naln2
0001:000e403c* __ZN17QValueListPrivateI7QStringE6insertE18QValueListIteratorIS0_ERKS0_$w$VTdD4zDF8U66naln2
0001:000e4140  __ZN11QMapPrivateI7QStringN13HierarchyView12ClassBrowserEEC1Ev$w$VTdD4zDF8U66naln2
0001:000e4098  __ZN4QMapI7QStringN13HierarchyView12ClassBrowserEE6insertERKS0_RKS2_b$w$VTdD4zDF8U66naln2
0001:000e2b44  __ZThn40_N13HierarchyViewD1Ev$w$VTdD4zDF8U66naln2
0001:000e2ba0  __ZThn40_N13HierarchyViewD0Ev$w$VTdD4zDF8U66naln2
0001:000e41d8  __ZN12QMapIteratorI7QStringN13HierarchyView12ClassBrowserEE3incEv$w$VTdD4zDF8U66naln2
0001:000e41a8  __ZN4QMapI7QStringN13HierarchyView12ClassBrowserEE14detachInternalEv$w$VTdD4zDF8U66naln2
0001:000e4224* __ZN17QValueListPrivateI7QStringEC1ERKS1_$w$VTdD4zDF8U66naln2
0001:000e42b8* __ZN17QValueListPrivateIN12MetaDataBase8VariableEEC1ERKS2_$w$VTdD4zDF8U66naln2
0001:000e4364* __ZN17QValueListPrivateIN12MetaDataBase8FunctionEEC1ERKS2_$w$VTdD4zDF8U66naln2
0001:000e4478* __ZN11QMapPrivateIP13QListViewItemiE5clearEP8QMapNodeIS1_iE$w$VTdD4zDF8U66naln2
0001:000e4adc* __ZN7QStringD1Ev$w$VTdD4zDF8U66naln2
0001:000e44b4  __ZN11QMapPrivateI7QStringN13HierarchyView12ClassBrowserEE12insertSingleERKS0_$w$VTdD4zDF8U66naln2
0001:000e4568  __ZN11QMapPrivateI7QStringN13HierarchyView12ClassBrowserEEC1EPKS3_$w$VTdD4zDF8U66naln2
0001:000e4628* __ZN17QValueListPrivateIN12MetaDataBase8VariableEE6insertE18QValueListIteratorIS1_ERKS1_$w$VTdD4zDF8U66naln2
0001:000e4694* __ZN17QValueListPrivateIN12MetaDataBase8FunctionEE6insertE18QValueListIteratorIS1_ERKS1_$w$VTdD4zDF8U66naln2
0001:000e4744  __ZN11QMapPrivateI7QStringN13HierarchyView12ClassBrowserEE6insertEP12QMapNodeBaseS5_RKS0_$w$VTdD4zDF8U66naln2
0001:000e4838  __ZN12QMapIteratorI7QStringN13HierarchyView12ClassBrowserEE3decEv$w$VTdD4zDF8U66naln2
0001:000e4890  __ZN11QMapPrivateI7QStringN13HierarchyView12ClassBrowserEE4copyEP8QMapNodeIS0_S2_E$w$VTdD4zDF8U66naln2
0001:000e4c0c  __ZN13QInterfacePtrI21ClassBrowserInterfaceEaSERKS1_$w$VTdD4zDF8U66naln2
0001:000e4c54  __ZNK8QPtrListI12QWidgetStackE5countEv$w$VTdD4zDF8U66naln2
0001:000e4bc4  __ZN8QPtrListI12QWidgetStackE5clearEv$w$VTdD4zDF8U66naln2
0001:000e4c60  __ZN8QPtrListI12QWidgetStackED1Ev$w$VTdD4zDF8U66naln2
0001:000e4c88  __ZN8QPtrListI12QWidgetStackED0Ev$w$VTdD4zDF8U66naln2
0001:000e4cb8  __ZN8QPtrListI12QWidgetStackE10deleteItemEPv$w$VTdD4zDF8U66naln2
0001:000e4b50  __ZN13HierarchyItemD1Ev$w$VTdD4zDF8U66naln2
0001:000e4b28  __ZN13HierarchyItemD0Ev$w$VTdD4zDF8U66naln2
0001:000e4b10* __ZN13QListViewItem10removeItemEPS_$w$VTdD4zDF8U66naln2
0001:000e4b6c  __ZN13HierarchyItem7setTextEiRK7QString$w$VTdD4zDF8U66naln2
0001:000e4b90  __ZNK13HierarchyItem4rttiEv$w$VTdD4zDF8U66naln2
0001:000e4ce0* __ZNK8QPtrListI7QActionE5countEv$w$VTdD4zDF8U66naln2
0001:000e4bd0* __ZN8QPtrListI7QActionE5clearEv$w$VTdD4zDF8U66naln2
0001:000e4b9c* __ZN8QPtrListI7QActionED1Ev$w$VTdD4zDF8U66naln2
0001:000e4bdc* __ZN8QPtrListI7QActionED0Ev$w$VTdD4zDF8U66naln2
0001:000e4cec* __ZN8QPtrListI7QActionE10deleteItemEPv$w$VTdD4zDF8U66naln2
0001:000e4ab0* __ZTV6QGList$w$VTdD4zDF8U66naln2
0001:000e4b04* __ZNK6QGList5countEv$w$VTdD4zDF8U66naln2
Module: C:\200\trunk\lib\designercore.lib(propertyeditor.obj)
0001:000e4e70* __ZN17PropertyWhatsThisC2EP12PropertyList
0001:000e4ea0* __ZN17PropertyWhatsThisC1EP12PropertyList
0001:000e4ed0* __ZN17PropertyWhatsThis4textERK6QPoint
0001:000e4efc* __ZN17PropertyWhatsThis7clickedERK7QString
0001:000e5028* __ZN12PropertyItemC2EP12PropertyListPS_S2_RK7QString
0001:000e634c  __ZN12PropertyItem7setTextEiRK7QString
0001:000e50f8* __ZN12PropertyItemC1EP12PropertyListPS_S2_RK7QString
0001:000e51c8* __ZN12PropertyItemD2Ev
0001:000e5258* __ZN12PropertyItemD1Ev
0001:000e52e8* __ZN12PropertyItemD0Ev
0001:000e5380  __ZN12PropertyItem6toggleEv
0001:000e5388* __ZN12PropertyItem15updateBackColorEv
0001:000e5480* __ZN12PropertyItem15backgroundColorEv
0001:000e54c8  __ZN12PropertyItem14createChildrenEv
0001:000e54d0  __ZN12PropertyItem12initChildrenEv
0001:000e54d8  __ZN12PropertyItem9paintCellEP8QPainterRK11QColorGroupiii
0001:000e5b34* __ZNK12PropertyItem9isChangedEv
0001:000e5a2c* __ZNK12PropertyItem6isOpenEv
0001:000e596c  __ZN12PropertyItem13paintBranchesEP8QPainterRK11QColorGroupiii
0001:000e59c4  __ZN12PropertyItem10paintFocusEP8QPainterRK11QColorGroupRK5QRect
0001:000e5a18  __ZNK12PropertyItem11hasSubItemsEv
0001:000e5a20  __ZNK12PropertyItem14propertyParentEv
0001:000e5a38  __ZN12PropertyItem7setOpenEb
0001:000e5aa8* __ZN12PropertyItem10showEditorEv
0001:000e5ca8* __ZN12PropertyItem17createResetButtonEv
0001:000e5ad4* __ZN12PropertyItem10hideEditorEv
0001:000e5b00* __ZN12PropertyItem8setValueERK8QVariant
0001:000e5b14* __ZNK12PropertyItem5valueEv
0001:000e5b40  __ZN12PropertyItem10setChangedEbb
0001:000e5e84* __ZN12PropertyItem22updateResetButtonStateEv
0001:000e5be8* __ZNK12PropertyItem4nameEv
0001:000e5f3c  __ZN12PropertyItem11placeEditorEP7QWidget
0001:000e6164  __ZN12PropertyItem17notifyValueChangeEv
0001:000e61f8  __ZN12PropertyItem17childValueChangedEPS_
0001:000e6200* __ZN12PropertyItem8addChildEPS_
0001:000e6214* __ZNK12PropertyItem10childCountEv
0001:000e6224* __ZNK12PropertyItem5childEi
0001:000e6248  __ZNK12PropertyItem17hasCustomContentsEv
0001:000e6250  __ZN12PropertyItem18drawCustomContentsEP8QPainterRK5QRect
0001:000e6258  __ZNK12PropertyItem11currentItemEv
0001:000e6278  __ZNK12PropertyItem14currentIntItemEv
0001:000e6284  __ZN12PropertyItem14setCurrentItemERK7QString
0001:000e628c  __ZN12PropertyItem14setCurrentItemEi
0001:000e6294  __ZNK12PropertyItem24currentIntItemFromObjectEv
0001:000e62a0  __ZNK12PropertyItem21currentItemFromObjectEv
0001:000e62c8* __ZN12PropertyItem8setFocusEP7QWidget
0001:000e6430* __ZN16PropertyTextItemC2EP12PropertyListP12PropertyItemS3_RK7QStringbbbb
0001:000e65c0* __ZN16PropertyTextItemC1EP12PropertyListP12PropertyItemS3_RK7QStringbbbb
0001:000e681c* __ZN16PropertyTextItem5linedEv
0001:000e6ef0* __ZN16PropertyTextItemD2Ev
0001:000e708c  __ZN16PropertyTextItemD1Ev
0001:000e7234  __ZN16PropertyTextItemD0Ev
0001:000e73e4  __ZN16PropertyTextItem10setChangedEbb
0001:000e746c  __ZNK16PropertyTextItem11hasSubItemsEv
0001:000e7484  __ZN16PropertyTextItem17childValueChangedEP12PropertyItem
0001:000e761c  __ZN16PropertyTextItem10showEditorEv
0001:000e77bc  __ZN16PropertyTextItem14createChildrenEv
0001:000e7908  __ZN16PropertyTextItem12initChildrenEv
0001:000e7a7c  __ZN16PropertyTextItem10hideEditorEv
0001:000e7ad8  __ZN16PropertyTextItem8setValueERK8QVariant
0001:000e7cc0  __ZN16PropertyTextItem8setValueEv
0001:000e7e8c  __ZN16PropertyTextItem7getTextEv
0001:000e8054* __ZN18PropertyDoubleItemC2EP12PropertyListP12PropertyItemS3_RK7QString
0001:000e8114* __ZN18PropertyDoubleItemC1EP12PropertyListP12PropertyItemS3_RK7QString
0001:000e81e4* __ZN18PropertyDoubleItem5linedEv
0001:000e8370* __ZN18PropertyDoubleItemD2Ev
0001:000e8454  __ZN18PropertyDoubleItemD1Ev
0001:000e8544  __ZN18PropertyDoubleItemD0Ev
0001:000e863c  __ZN18PropertyDoubleItem10showEditorEv
0001:000e8778  __ZN18PropertyDoubleItem10hideEditorEv
0001:000e87b0  __ZN18PropertyDoubleItem8setValueERK8QVariant
0001:000e899c  __ZN18PropertyDoubleItem8setValueEv
0001:000e8a68* __ZN16PropertyDateItemC2EP12PropertyListP12PropertyItemS3_RK7QString
0001:000e8b28* __ZN16PropertyDateItemC1EP12PropertyListP12PropertyItemS3_RK7QString
0001:000e8c14* __ZN16PropertyDateItem5linedEv
0001:000e8d70* __ZN16PropertyDateItemD2Ev
0001:000e8e54  __ZN16PropertyDateItemD1Ev
0001:000e8f44  __ZN16PropertyDateItemD0Ev
0001:000e903c  __ZN16PropertyDateItem10showEditorEv
0001:000e9158  __ZN16PropertyDateItem10hideEditorEv
0001:000e91a8  __ZN16PropertyDateItem8setValueERK8QVariant
0001:000e9324  __ZN16PropertyDateItem8setValueEv
0001:000e93fc* __ZN16PropertyTimeItemC2EP12PropertyListP12PropertyItemS3_RK7QString
0001:000e94bc* __ZN16PropertyTimeItemC1EP12PropertyListP12PropertyItemS3_RK7QString
0001:000e959c* __ZN16PropertyTimeItem5linedEv
0001:000e96f8* __ZN16PropertyTimeItemD2Ev
0001:000e97dc  __ZN16PropertyTimeItemD1Ev
0001:000e98cc  __ZN16PropertyTimeItemD0Ev
0001:000e99c4  __ZN16PropertyTimeItem10showEditorEv
0001:000e9ae0  __ZN16PropertyTimeItem10hideEditorEv
0001:000e9b30  __ZN16PropertyTimeItem8setValueERK8QVariant
0001:000e9cac  __ZN16PropertyTimeItem8setValueEv
0001:000e9d84* __ZN20PropertyDateTimeItemC2EP12PropertyListP12PropertyItemS3_RK7QString
0001:000e9e44* __ZN20PropertyDateTimeItemC1EP12PropertyListP12PropertyItemS3_RK7QString
0001:000e9f28* __ZN20PropertyDateTimeItem5linedEv
0001:000ea084* __ZN20PropertyDateTimeItemD2Ev
0001:000ea168  __ZN20PropertyDateTimeItemD1Ev
0001:000ea258  __ZN20PropertyDateTimeItemD0Ev
0001:000ea350  __ZN20PropertyDateTimeItem10showEditorEv
0001:000ea470  __ZN20PropertyDateTimeItem10hideEditorEv
0001:000ea4c0  __ZN20PropertyDateTimeItem8setValueERK8QVariant
0001:000ea65c  __ZN20PropertyDateTimeItem8setValueEv
0001:000ea738* __ZN16PropertyBoolItemC2EP12PropertyListP12PropertyItemS3_RK7QString
0001:000ea7f8* __ZN16PropertyBoolItemC1EP12PropertyListP12PropertyItemS3_RK7QString
0001:000ea8d4* __ZN16PropertyBoolItem5comboEv
0001:000eaaac* __ZN16PropertyBoolItemD2Ev
0001:000eab90  __ZN16PropertyBoolItemD1Ev
0001:000eac80  __ZN16PropertyBoolItemD0Ev
0001:000ead78  __ZN16PropertyBoolItem6toggleEv
0001:000eb0f4  __ZN16PropertyBoolItem8setValueEv
0001:000eadec  __ZN16PropertyBoolItem10showEditorEv
0001:000eaf10  __ZN16PropertyBoolItem10hideEditorEv
0001:000eaf48  __ZN16PropertyBoolItem8setValueERK8QVariant
0001:000eb1b0* __ZN15PropertyIntItemC2EP12PropertyListP12PropertyItemS3_RK7QStringb
0001:000eb284* __ZN15PropertyIntItemC1EP12PropertyListP12PropertyItemS3_RK7QStringb
0001:000eb36c* __ZN15PropertyIntItem7spinBoxEv
0001:000eb5a8* __ZN15PropertyIntItemD2Ev
0001:000eb68c  __ZN15PropertyIntItemD1Ev
0001:000eb77c  __ZN15PropertyIntItemD0Ev
0001:000eb874  __ZN15PropertyIntItem10showEditorEv
0001:000eb9cc  __ZN15PropertyIntItem10hideEditorEv
0001:000eba04  __ZN15PropertyIntItem8setValueERK8QVariant
0001:000ebb9c  __ZN15PropertyIntItem8setValueEv
0001:000ebc80* __ZN18PropertyLayoutItemC2EP12PropertyListP12PropertyItemS3_RK7QString
0001:000ebd40* __ZN18PropertyLayoutItemC1EP12PropertyListP12PropertyItemS3_RK7QString
0001:000ebe00* __ZN18PropertyLayoutItemD2Ev
0001:000ebee4  __ZN18PropertyLayoutItemD1Ev
0001:000ebfd4  __ZN18PropertyLayoutItemD0Ev
0001:000ec0d4* __ZN18PropertyLayoutItem7spinBoxEv
0001:000ec2c8  __ZN18PropertyLayoutItem10showEditorEv
0001:000ec3dc  __ZN18PropertyLayoutItem10hideEditorEv
0001:000ec414  __ZN18PropertyLayoutItem8setValueERK8QVariant
0001:000ec540  __ZN18PropertyLayoutItem8setValueEv
0001:000ec5a8* __ZN16PropertyListItemC2EP12PropertyListP12PropertyItemS3_RK7QStringb
0001:000ec6a4* __ZN16PropertyListItemC1EP12PropertyListP12PropertyItemS3_RK7QStringb
0001:000ec7a0* __ZN16PropertyListItem5comboEv
0001:000ec948* __ZN16PropertyListItemD2Ev
0001:000eca58  __ZN16PropertyListItemD1Ev
0001:000ecb74  __ZN16PropertyListItemD0Ev
0001:000ecc98  __ZN16PropertyListItem10showEditorEv
0001:000ecddc  __ZN16PropertyListItem10hideEditorEv
0001:000ece14  __ZN16PropertyListItem8setValueERK8QVariant
0001:000ecf30  __ZN16PropertyListItem8setValueEv
0001:000ed130  __ZNK16PropertyListItem11currentItemEv
0001:000ed15c  __ZN16PropertyListItem14setCurrentItemERK7QString
0001:000ed4a0* __ZN16PropertyListItem7addItemERK7QString
0001:000ed4c0  __ZN16PropertyListItem14setCurrentItemEi
0001:000ed66c  __ZNK16PropertyListItem14currentIntItemEv
0001:000ed690  __ZNK16PropertyListItem24currentIntItemFromObjectEv
0001:000ed6a8  __ZNK16PropertyListItem21currentItemFromObjectEv
0001:000ed6d4* __ZN17PropertyCoordItemC2EP12PropertyListP12PropertyItemS3_RK7QStringNS_4TypeE
0001:000ed7a0* __ZN17PropertyCoordItemC1EP12PropertyListP12PropertyItemS3_RK7QStringNS_4TypeE
0001:000ed86c* __ZN17PropertyCoordItem5linedEv
0001:000ed9b4  __ZN17PropertyCoordItem14createChildrenEv
0001:000edbf8  __ZN17PropertyCoordItem12initChildrenEv
0001:000edfcc* __ZN17PropertyCoordItemD2Ev
0001:000ee0b0  __ZN17PropertyCoordItemD1Ev
0001:000ee1a0  __ZN17PropertyCoordItemD0Ev
0001:000ee298  __ZN17PropertyCoordItem10showEditorEv
0001:000ee390  __ZN17PropertyCoordItem10hideEditorEv
0001:000ee3d0  __ZN17PropertyCoordItem8setValueERK8QVariant
0001:000eebc0  __ZNK17PropertyCoordItem11hasSubItemsEv
0001:000eebd4  __ZN17PropertyCoordItem17childValueChangedEP12PropertyItem
0001:000ef298* __ZN18PropertyPixmapItemC2EP12PropertyListP12PropertyItemS3_RK7QStringNS_4TypeE
0001:000ef5fc* __ZN18PropertyPixmapItemC1EP12PropertyListP12PropertyItemS3_RK7QStringNS_4TypeE
0001:000ef960* __ZN18PropertyPixmapItemD2Ev
0001:000ef9fc  __ZN18PropertyPixmapItemD1Ev
0001:000efaa4  __ZN18PropertyPixmapItemD0Ev
0001:000efb54  __ZN18PropertyPixmapItem10showEditorEv
0001:000efbe8  __ZN18PropertyPixmapItem10hideEditorEv
0001:000efc2c  __ZN18PropertyPixmapItem8setValueERK8QVariant
0001:000efdac  __ZN18PropertyPixmapItem9getPixmapEv
0001:000efef4  __ZNK18PropertyPixmapItem17hasCustomContentsEv
0001:000eff08  __ZN18PropertyPixmapItem18drawCustomContentsEP8QPainterRK5QRect
0001:000f0184* __ZN17PropertyColorItemC2EP12PropertyListP12PropertyItemS3_RK7QStringb
0001:000f05d4* __ZN17PropertyColorItemC1EP12PropertyListP12PropertyItemS3_RK7QStringb
0001:000f0a34  __ZN17PropertyColorItem14createChildrenEv
0001:000f0bbc  __ZN17PropertyColorItem12initChildrenEv
0001:000f0e2c* __ZN17PropertyColorItemD2Ev
0001:000f0eec  __ZN17PropertyColorItemD1Ev
0001:000f0fb8  __ZN17PropertyColorItemD0Ev
0001:000f108c  __ZN17PropertyColorItem10showEditorEv
0001:000f1120  __ZN17PropertyColorItem10hideEditorEv
0001:000f1164  __ZN17PropertyColorItem8setValueERK8QVariant
0001:000f12b4  __ZNK17PropertyColorItem11hasSubItemsEv
0001:000f12cc  __ZN17PropertyColorItem17childValueChangedEP12PropertyItem
0001:000f1558  __ZN17PropertyColorItem8getColorEv
0001:000f15f4  __ZNK17PropertyColorItem17hasCustomContentsEv
0001:000f1608  __ZN17PropertyColorItem18drawCustomContentsEP8QPainterRK5QRect
0001:000f16b0* __ZN16PropertyFontItemC2EP12PropertyListP12PropertyItemS3_RK7QString
0001:000f1acc* __ZN16PropertyFontItemC1EP12PropertyListP12PropertyItemS3_RK7QString
0001:000f1f1c  __ZN16PropertyFontItem14createChildrenEv
0001:000f21f0  __ZN16PropertyFontItem12initChildrenEv
0001:000f2750* __ZN16PropertyFontItemD2Ev
0001:000f2810  __ZN16PropertyFontItemD1Ev
0001:000f28dc  __ZN16PropertyFontItemD0Ev
0001:000f29b0  __ZN16PropertyFontItem10showEditorEv
0001:000f2a68  __ZN16PropertyFontItem10hideEditorEv
0001:000f2ab0  __ZN16PropertyFontItem8setValueERK8QVariant
0001:000f2e1c  __ZN16PropertyFontItem7getFontEv
0001:000f2ed4  __ZNK16PropertyFontItem11hasSubItemsEv
0001:000f2ee8  __ZN16PropertyFontItem17childValueChangedEP12PropertyItem
0001:000f3390* __ZN20PropertyDatabaseItemC2EP12PropertyListP12PropertyItemS3_RK7QStringb
0001:000f3798* __ZN20PropertyDatabaseItemC1EP12PropertyListP12PropertyItemS3_RK7QStringb
0001:000f3bb8  __ZN20PropertyDatabaseItem14createChildrenEv
0001:000f3d58  __ZN20PropertyDatabaseItem12initChildrenEv
0001:000f3d68* __ZN20PropertyDatabaseItemD2Ev
0001:000f3e28  __ZN20PropertyDatabaseItemD1Ev
0001:000f3ef4  __ZN20PropertyDatabaseItemD0Ev
0001:000f3fc8  __ZN20PropertyDatabaseItem10showEditorEv
0001:000f4080  __ZN20PropertyDatabaseItem10hideEditorEv
0001:000f40c8  __ZN20PropertyDatabaseItem8setValueERK8QVariant
0001:000f4200  __ZNK20PropertyDatabaseItem11hasSubItemsEv
0001:000f4214  __ZN20PropertyDatabaseItem17childValueChangedEP12PropertyItem
0001:000f4224* __ZN22PropertySizePolicyItemC2EP12PropertyListP12PropertyItemS3_RK7QString
0001:000f42e4* __ZN22PropertySizePolicyItemC1EP12PropertyListP12PropertyItemS3_RK7QString
0001:000f43a4* __ZN22PropertySizePolicyItem5linedEv
0001:000f452c  __ZN22PropertySizePolicyItem14createChildrenEv
0001:000f4bc8  __ZN22PropertySizePolicyItem12initChildrenEv
0001:00101104* __ZN12PropertyList11whatsThisAtERK6QPoint
0001:000fea58  __ZN12PropertyList16updateEditorSizeEv
0001:00100a40* __ZNK12PropertyList14propertyEditorEv
0001:00104034  __ZNK14PropertyEditor6widgetEv
0001:0010457c  __ZNK14PropertyEditor10formWindowEv
0001:000f4ec4* __ZN22PropertySizePolicyItemD2Ev
0001:000f4f3c  __ZN22PropertySizePolicyItemD1Ev
0001:000f4fbc  __ZN22PropertySizePolicyItemD0Ev
0001:000f5044  __ZN22PropertySizePolicyItem10showEditorEv
0001:000f50e0  __ZN22PropertySizePolicyItem10hideEditorEv
0001:000f5124  __ZN22PropertySizePolicyItem8setValueERK8QVariant
0001:000f5398  __ZN22PropertySizePolicyItem17childValueChangedEP12PropertyItem
0001:000f56f0  __ZNK22PropertySizePolicyItem11hasSubItemsEv
0001:000f5714* __ZN19PropertyPaletteItemC2EP12PropertyListP12PropertyItemS3_RK7QString
0001:000f5aa8* __ZN19PropertyPaletteItemC1EP12PropertyListP12PropertyItemS3_RK7QString
0001:000f5e3c* __ZN19PropertyPaletteItemD2Ev
0001:000f5efc  __ZN19PropertyPaletteItemD1Ev
0001:000f5fc8  __ZN19PropertyPaletteItemD0Ev
0001:000f609c  __ZN19PropertyPaletteItem10showEditorEv
0001:000f6130  __ZN19PropertyPaletteItem10hideEditorEv
0001:000f6174  __ZN19PropertyPaletteItem8setValueERK8QVariant
0001:000f6238  __ZN19PropertyPaletteItem10getPaletteEv
0001:000f6350  __ZNK19PropertyPaletteItem17hasCustomContentsEv
0001:000f6364  __ZN19PropertyPaletteItem18drawCustomContentsEP8QPainterRK5QRect
0001:000f6500* __ZN18PropertyCursorItemC2EP12PropertyListP12PropertyItemS3_RK7QString
0001:000f65c0* __ZN18PropertyCursorItemC1EP12PropertyListP12PropertyItemS3_RK7QString
0001:000f682c* __ZN18PropertyCursorItem5comboEv
0001:000f726c* __ZN18PropertyCursorItemD2Ev
0001:000f72e4  __ZN18PropertyCursorItemD1Ev
0001:000f7364  __ZN18PropertyCursorItemD0Ev
0001:000f73ec  __ZN18PropertyCursorItem10showEditorEv
0001:000f7518  __ZN18PropertyCursorItem10hideEditorEv
0001:000f7550  __ZN18PropertyCursorItem8setValueERK8QVariant
0001:000f7698  __ZN18PropertyCursorItem8setValueEv
0001:000f77bc* __ZN23PropertyKeysequenceItemC2EP12PropertyListP12PropertyItemS3_RK7QString
0001:000f79fc* __ZN23PropertyKeysequenceItemC1EP12PropertyListP12PropertyItemS3_RK7QString
0001:000f7c3c* __ZN23PropertyKeysequenceItemD2Ev
0001:000f7cd8  __ZN23PropertyKeysequenceItemD1Ev
0001:000f7d80  __ZN23PropertyKeysequenceItemD0Ev
0001:000f7e30  __ZN23PropertyKeysequenceItem10showEditorEv
0001:000f7ec8  __ZN23PropertyKeysequenceItem10hideEditorEv
0001:000f7f0c  __ZN23PropertyKeysequenceItem11eventFilterEP7QObjectP6QEvent
0001:00101bb0* __ZN12PropertyList9lastEventEv
0001:000f7fa8* __ZN23PropertyKeysequenceItem14handleKeyEventEP9QKeyEvent
0001:000f810c* __ZN23PropertyKeysequenceItem18translateModifiersEi
0001:000f814c  __ZN23PropertyKeysequenceItem8setValueEv
0001:000f830c  __ZN23PropertyKeysequenceItem8setValueERK8QVariant
0001:000f844c* __ZN9EnumPopupC2EP7QWidgetPKcj
0001:000f8500* __ZN9EnumPopupC1EP7QWidgetPKcj
0001:000f85b4* __ZN9EnumPopupD2Ev
0001:000f8634  __ZN9EnumPopupD1Ev
0001:000f86c0  __ZN9EnumPopupD0Ev
0001:000f8754* __ZN9EnumPopup11insertEnumsE10QValueListI8EnumItemE
0001:000f892c  __ZN9EnumPopup13keyPressEventEP9QKeyEvent
0001:000f8980* __ZN9EnumPopup11closeWidgetEv
0001:000f8a30* __ZNK9EnumPopup8enumListEv
0001:000f8a80* __ZN7EnumBoxC2EP7QWidgetPKc
0001:000f8b18* __ZN7EnumBoxC1EP7QWidgetPKc
0001:000f8bb0  __ZN7EnumBox11popupHiddenEv
0001:000f8bbc  __ZN7EnumBox11popupClosedEv
0001:000f8bcc  __ZN7EnumBox10paintEventEP11QPaintEvent
0001:000f8f8c* __ZN7EnumBox11insertEnumsE10QValueListI8EnumItemE
0001:000f8fd8* __ZNK7EnumBox8enumListEv
0001:000f8ff8  __ZN7EnumBox5popupEv
0001:000f90b0  __ZN7EnumBox15mousePressEventEP11QMouseEvent
0001:000f9198  __ZN7EnumBox13keyPressEventEP9QKeyEvent
0001:000f91f4  __ZN7EnumBox12restoreArrowEv
0001:000f9210* __ZN7EnumBox7setTextERK7QString
0001:000f9270* __ZN16PropertyEnumItemC2EP12PropertyListP12PropertyItemS3_RK7QString
0001:000f9430* __ZN16PropertyEnumItemC1EP12PropertyListP12PropertyItemS3_RK7QString
0001:000f95f0* __ZN16PropertyEnumItemD2Ev
0001:000f96b4  __ZN16PropertyEnumItemD1Ev
0001:000f9784  __ZN16PropertyEnumItemD0Ev
0001:000f985c  __ZN16PropertyEnumItem10showEditorEv
0001:000f9930  __ZN16PropertyEnumItem10hideEditorEv
0001:000f9974  __ZN16PropertyEnumItem8setValueERK8QVariant
0001:000f9bd4  __ZN16PropertyEnumItem11insertEnumsEv
0001:000f9c34  __ZN16PropertyEnumItem8setValueEv
0001:000f9e7c* __ZN16PropertyEnumItem16setCurrentValuesE8QStrList
0001:000fa0a0  __ZNK16PropertyEnumItem11currentItemEv
0001:000fa0cc  __ZNK16PropertyEnumItem21currentItemFromObjectEv
0001:000fa228* __ZN12PropertyListC2EP14PropertyEditor
0001:000fa460* __ZN12PropertyListC1EP14PropertyEditor
0001:000fa698  __ZN12PropertyList10toggleSortEv
0001:001043c4  __ZN14PropertyEditor5clearEv
0001:0010441c* __ZN14PropertyEditor5setupEv
0001:000fa6cc  __ZN12PropertyList11resizeEventEP12QResizeEvent
0001:000fad10  __ZN12PropertyList15setupPropertiesEv
0001:000fdde0* __ZN12PropertyList15addPropertyItemERP12PropertyItemRK8QCStringN8QVariant4TypeE
0001:000fdbb8* __ZN12PropertyList24setupCusWidgetPropertiesEPN12MetaDataBase12CustomWidgetER4QMapI7QStringbERP12PropertyItem
0001:000fed88* __ZN12PropertyList15layoutInitValueEP12PropertyItemb
0001:000fe9a0  __ZN12PropertyList14paintEmptyAreaEP8QPainterRK5QRect
0001:000fe9f4  __ZN12PropertyList14setCurrentItemEP13QListViewItem
0001:000feaa0  __ZN12PropertyList12valueChangedEP12PropertyItem
0001:000ff0e0  __ZN12PropertyList11itemPressedEP13QListViewItemRK6QPointi
0001:000ff140  __ZN12PropertyList10toggleOpenEP13QListViewItem
0001:000ff1bc  __ZN12PropertyList11eventFilterEP7QObjectP6QEvent
0001:000ff99c  __ZN12PropertyList11refetchDataEv
0001:000ffc8c  __ZN12PropertyList16setPropertyValueEP12PropertyItem
0001:00100858  __ZN12PropertyList18setCurrentPropertyERK7QString
0001:00100a64  __ZN12PropertyList13resetPropertyEv
0001:00100e10  __ZN12PropertyList22viewportDragEnterEventEP15QDragEnterEvent
0001:00100eac  __ZN12PropertyList21viewportDragMoveEventEP14QDragMoveEvent
0001:00100f48  __ZN12PropertyList17viewportDropEventEP10QDropEvent
0001:00101254* __ZN12PropertyList13whatsThisTextEP13QListViewItem
0001:00101134  __ZN12PropertyList20showCurrentWhatsThisEv
0001:00101594* __ZN12PropertyList16readPropertyDocsEv
0001:00101c14* __ZN9EventListC2EP7QWidgetP10FormWindowP14PropertyEditor
0001:00101c80* __ZN9EventListC1EP7QWidgetP10FormWindowP14PropertyEditor
0001:00101cf0* __Z15clean_argumentsRK7QString
0001:00101ff8  __ZN9EventList5setupEv
0001:00102568  __ZN9EventList29contentsMouseDoubleClickEventEP11QMouseEvent
0001:00102960* __ZN9EventList10setCurrentEP7QWidget
0001:00102968  __ZN9EventList13objectClickedEP13QListViewItem
0001:00102a48  __ZN9EventList11showRMBMenuEP13QListViewItemRK6QPoint
0001:00103380  __ZN9EventList7renamedEP13QListViewItem
0001:00103c9c* __ZN9EventList4saveEP13QListViewItem
0001:00103db4* __ZN14PropertyEditorC2EP7QWidget
0001:00103ef4  __ZN14PropertyEditorC1EP7QWidget
0001:00104054  __ZN14PropertyEditor9setWidgetEP7QObjectP10FormWindow
0001:001044e4  __ZN14PropertyEditor11refetchDataEv
0001:00104500  __ZN14PropertyEditor17emitWidgetChangedEv
0001:00104530  __ZN14PropertyEditor6closedEP10FormWindow
0001:00104554  __ZN14PropertyEditor10closeEventEP11QCloseEvent
0001:00104570  __ZNK14PropertyEditor12propertyListEv
0001:00104588  __ZNK14PropertyEditor15currentPropertyEv
0001:00104604* __ZNK14PropertyEditor22classOfCurrentPropertyEv
0001:00104720  __ZNK14PropertyEditor27metaObjectOfCurrentPropertyEv
0001:0010473c  __ZN14PropertyEditor10resetFocusEv
0001:00104778  __ZNK14PropertyEditor9eventListEv
0001:00104784  __ZN14PropertyEditor24setPropertyEditorEnabledEb
0001:00104894* __ZN14PropertyEditor12updateWindowEv
0001:00104814  __ZN14PropertyEditor24setSignalHandlersEnabledEb
0001:000e7228  __ZThn40_N16PropertyTextItemD1Ev$w$dHyhRLBF8U6UHSup2
0001:000e73d8  __ZThn40_N16PropertyTextItemD0Ev$w$dHyhRLBF8U6UHSup2
0001:000e7460  __ZThn40_N16PropertyTextItem10setChangedEbb$w$dHyhRLBF8U6UHSup2
0001:000e747c  __ZThn40_NK16PropertyTextItem11hasSubItemsEv$w$dHyhRLBF8U6UHSup2
0001:000e7610  __ZThn40_N16PropertyTextItem17childValueChangedEP12PropertyItem$w$dHyhRLBF8U6UHSup2
0001:000e779c  __ZThn40_N16PropertyTextItem10showEditorEv$w$dHyhRLBF8U6UHSup2
0001:000e78fc  __ZThn40_N16PropertyTextItem14createChildrenEv$w$dHyhRLBF8U6UHSup2
0001:000e7a70  __ZThn40_N16PropertyTextItem12initChildrenEv$w$dHyhRLBF8U6UHSup2
0001:000e7ad0  __ZThn40_N16PropertyTextItem10hideEditorEv$w$dHyhRLBF8U6UHSup2
0001:000e7cb4  __ZThn40_N16PropertyTextItem8setValueERK8QVariant$w$dHyhRLBF8U6UHSup2
0001:000e8538  __ZThn40_N18PropertyDoubleItemD1Ev$w$dHyhRLBF8U6UHSup2
0001:000e8630  __ZThn40_N18PropertyDoubleItemD0Ev$w$dHyhRLBF8U6UHSup2
0001:000e876c  __ZThn40_N18PropertyDoubleItem10showEditorEv$w$dHyhRLBF8U6UHSup2
0001:000e87a8  __ZThn40_N18PropertyDoubleItem10hideEditorEv$w$dHyhRLBF8U6UHSup2
0001:000e8990  __ZThn40_N18PropertyDoubleItem8setValueERK8QVariant$w$dHyhRLBF8U6UHSup2
0001:000e8f38  __ZThn40_N16PropertyDateItemD1Ev$w$dHyhRLBF8U6UHSup2
0001:000e9030  __ZThn40_N16PropertyDateItemD0Ev$w$dHyhRLBF8U6UHSup2
0001:000e914c  __ZThn40_N16PropertyDateItem10showEditorEv$w$dHyhRLBF8U6UHSup2
0001:000e91a0  __ZThn40_N16PropertyDateItem10hideEditorEv$w$dHyhRLBF8U6UHSup2
0001:000e9318  __ZThn40_N16PropertyDateItem8setValueERK8QVariant$w$dHyhRLBF8U6UHSup2
0001:000e98c0  __ZThn40_N16PropertyTimeItemD1Ev$w$dHyhRLBF8U6UHSup2
0001:000e99b8  __ZThn40_N16PropertyTimeItemD0Ev$w$dHyhRLBF8U6UHSup2
0001:000e9ad4  __ZThn40_N16PropertyTimeItem10showEditorEv$w$dHyhRLBF8U6UHSup2
0001:000e9b28  __ZThn40_N16PropertyTimeItem10hideEditorEv$w$dHyhRLBF8U6UHSup2
0001:000e9ca0  __ZThn40_N16PropertyTimeItem8setValueERK8QVariant$w$dHyhRLBF8U6UHSup2
0001:000ea24c  __ZThn40_N20PropertyDateTimeItemD1Ev$w$dHyhRLBF8U6UHSup2
0001:000ea344  __ZThn40_N20PropertyDateTimeItemD0Ev$w$dHyhRLBF8U6UHSup2
0001:000ea464  __ZThn40_N20PropertyDateTimeItem10showEditorEv$w$dHyhRLBF8U6UHSup2
0001:000ea4b8  __ZThn40_N20PropertyDateTimeItem10hideEditorEv$w$dHyhRLBF8U6UHSup2
0001:000ea650  __ZThn40_N20PropertyDateTimeItem8setValueERK8QVariant$w$dHyhRLBF8U6UHSup2
0001:000eac74  __ZThn40_N16PropertyBoolItemD1Ev$w$dHyhRLBF8U6UHSup2
0001:000ead6c  __ZThn40_N16PropertyBoolItemD0Ev$w$dHyhRLBF8U6UHSup2
0001:000eade4  __ZThn40_N16PropertyBoolItem6toggleEv$w$dHyhRLBF8U6UHSup2
0001:000eaf04  __ZThn40_N16PropertyBoolItem10showEditorEv$w$dHyhRLBF8U6UHSup2
0001:000eaf40  __ZThn40_N16PropertyBoolItem10hideEditorEv$w$dHyhRLBF8U6UHSup2
0001:000eb0e8  __ZThn40_N16PropertyBoolItem8setValueERK8QVariant$w$dHyhRLBF8U6UHSup2
0001:000eb770  __ZThn40_N15PropertyIntItemD1Ev$w$dHyhRLBF8U6UHSup2
0001:000eb868  __ZThn40_N15PropertyIntItemD0Ev$w$dHyhRLBF8U6UHSup2
0001:000eb9c0  __ZThn40_N15PropertyIntItem10showEditorEv$w$dHyhRLBF8U6UHSup2
0001:000eb9fc  __ZThn40_N15PropertyIntItem10hideEditorEv$w$dHyhRLBF8U6UHSup2
0001:000ebb90  __ZThn40_N15PropertyIntItem8setValueERK8QVariant$w$dHyhRLBF8U6UHSup2
0001:000ebfc8  __ZThn40_N18PropertyLayoutItemD1Ev$w$dHyhRLBF8U6UHSup2
0001:000ec0c0  __ZThn40_N18PropertyLayoutItemD0Ev$w$dHyhRLBF8U6UHSup2
0001:000ec3d0  __ZThn40_N18PropertyLayoutItem10showEditorEv$w$dHyhRLBF8U6UHSup2
0001:000ec40c  __ZThn40_N18PropertyLayoutItem10hideEditorEv$w$dHyhRLBF8U6UHSup2
0001:000ec534  __ZThn40_N18PropertyLayoutItem8setValueERK8QVariant$w$dHyhRLBF8U6UHSup2
0001:000ecb68  __ZThn40_N16PropertyListItemD1Ev$w$dHyhRLBF8U6UHSup2
0001:000ecc8c  __ZThn40_N16PropertyListItemD0Ev$w$dHyhRLBF8U6UHSup2
0001:000ecdd0  __ZThn40_N16PropertyListItem10showEditorEv$w$dHyhRLBF8U6UHSup2
0001:000ece0c  __ZThn40_N16PropertyListItem10hideEditorEv$w$dHyhRLBF8U6UHSup2
0001:000ecf24  __ZThn40_N16PropertyListItem8setValueERK8QVariant$w$dHyhRLBF8U6UHSup2
0001:000ed154  __ZThn40_NK16PropertyListItem11currentItemEv$w$dHyhRLBF8U6UHSup2
0001:000ed494  __ZThn40_N16PropertyListItem14setCurrentItemERK7QString$w$dHyhRLBF8U6UHSup2
0001:000ed660  __ZThn40_N16PropertyListItem14setCurrentItemEi$w$dHyhRLBF8U6UHSup2
0001:000ed688  __ZThn40_NK16PropertyListItem14currentIntItemEv$w$dHyhRLBF8U6UHSup2
0001:000ed6a0  __ZThn40_NK16PropertyListItem24currentIntItemFromObjectEv$w$dHyhRLBF8U6UHSup2
0001:000ed6cc  __ZThn40_NK16PropertyListItem21currentItemFromObjectEv$w$dHyhRLBF8U6UHSup2
0001:000edbec  __ZThn40_N17PropertyCoordItem14createChildrenEv$w$dHyhRLBF8U6UHSup2
0001:000edfc0  __ZThn40_N17PropertyCoordItem12initChildrenEv$w$dHyhRLBF8U6UHSup2
0001:000ee194  __ZThn40_N17PropertyCoordItemD1Ev$w$dHyhRLBF8U6UHSup2
0001:000ee28c  __ZThn40_N17PropertyCoordItemD0Ev$w$dHyhRLBF8U6UHSup2
0001:000ee384  __ZThn40_N17PropertyCoordItem10showEditorEv$w$dHyhRLBF8U6UHSup2
0001:000ee3c0  __ZThn40_N17PropertyCoordItem10hideEditorEv$w$dHyhRLBF8U6UHSup2
0001:000eebb4  __ZThn40_N17PropertyCoordItem8setValueERK8QVariant$w$dHyhRLBF8U6UHSup2
0001:000eebcc  __ZThn40_NK17PropertyCoordItem11hasSubItemsEv$w$dHyhRLBF8U6UHSup2
0001:000ef280  __ZThn40_N17PropertyCoordItem17childValueChangedEP12PropertyItem$w$dHyhRLBF8U6UHSup2
0001:000efa98  __ZThn40_N18PropertyPixmapItemD1Ev$w$dHyhRLBF8U6UHSup2
0001:000efb48  __ZThn40_N18PropertyPixmapItemD0Ev$w$dHyhRLBF8U6UHSup2
0001:000efbdc  __ZThn40_N18PropertyPixmapItem10showEditorEv$w$dHyhRLBF8U6UHSup2
0001:000efc24  __ZThn40_N18PropertyPixmapItem10hideEditorEv$w$dHyhRLBF8U6UHSup2
0001:000efda0  __ZThn40_N18PropertyPixmapItem8setValueERK8QVariant$w$dHyhRLBF8U6UHSup2
0001:000eff00  __ZThn40_NK18PropertyPixmapItem17hasCustomContentsEv$w$dHyhRLBF8U6UHSup2
0001:000f016c  __ZThn40_N18PropertyPixmapItem18drawCustomContentsEP8QPainterRK5QRect$w$dHyhRLBF8U6UHSup2
0001:000f0bb0  __ZThn40_N17PropertyColorItem14createChildrenEv$w$dHyhRLBF8U6UHSup2
0001:000f0e20  __ZThn40_N17PropertyColorItem12initChildrenEv$w$dHyhRLBF8U6UHSup2
0001:000f0fac  __ZThn40_N17PropertyColorItemD1Ev$w$dHyhRLBF8U6UHSup2
0001:000f1080  __ZThn40_N17PropertyColorItemD0Ev$w$dHyhRLBF8U6UHSup2
0001:000f1114  __ZThn40_N17PropertyColorItem10showEditorEv$w$dHyhRLBF8U6UHSup2
0001:000f115c  __ZThn40_N17PropertyColorItem10hideEditorEv$w$dHyhRLBF8U6UHSup2
0001:000f12a8  __ZThn40_N17PropertyColorItem8setValueERK8QVariant$w$dHyhRLBF8U6UHSup2
0001:000f12c4  __ZThn40_NK17PropertyColorItem11hasSubItemsEv$w$dHyhRLBF8U6UHSup2
0001:000f154c  __ZThn40_N17PropertyColorItem17childValueChangedEP12PropertyItem$w$dHyhRLBF8U6UHSup2
0001:000f1600  __ZThn40_NK17PropertyColorItem17hasCustomContentsEv$w$dHyhRLBF8U6UHSup2
0001:000f1698  __ZThn40_N17PropertyColorItem18drawCustomContentsEP8QPainterRK5QRect$w$dHyhRLBF8U6UHSup2
0001:000f21e4  __ZThn40_N16PropertyFontItem14createChildrenEv$w$dHyhRLBF8U6UHSup2
0001:000f2744  __ZThn40_N16PropertyFontItem12initChildrenEv$w$dHyhRLBF8U6UHSup2
0001:000f28d0  __ZThn40_N16PropertyFontItemD1Ev$w$dHyhRLBF8U6UHSup2
0001:000f29a4  __ZThn40_N16PropertyFontItemD0Ev$w$dHyhRLBF8U6UHSup2
0001:000f2a5c  __ZThn40_N16PropertyFontItem10showEditorEv$w$dHyhRLBF8U6UHSup2
0001:000f2aa4  __ZThn40_N16PropertyFontItem10hideEditorEv$w$dHyhRLBF8U6UHSup2
0001:000f2e10  __ZThn40_N16PropertyFontItem8setValueERK8QVariant$w$dHyhRLBF8U6UHSup2
0001:000f2ee0  __ZThn40_NK16PropertyFontItem11hasSubItemsEv$w$dHyhRLBF8U6UHSup2
0001:000f3384  __ZThn40_N16PropertyFontItem17childValueChangedEP12PropertyItem$w$dHyhRLBF8U6UHSup2
0001:000f3d4c  __ZThn40_N20PropertyDatabaseItem14createChildrenEv$w$dHyhRLBF8U6UHSup2
0001:000f3d60  __ZThn40_N20PropertyDatabaseItem12initChildrenEv$w$dHyhRLBF8U6UHSup2
0001:000f3ee8  __ZThn40_N20PropertyDatabaseItemD1Ev$w$dHyhRLBF8U6UHSup2
0001:000f3fbc  __ZThn40_N20PropertyDatabaseItemD0Ev$w$dHyhRLBF8U6UHSup2
0001:000f4074  __ZThn40_N20PropertyDatabaseItem10showEditorEv$w$dHyhRLBF8U6UHSup2
0001:000f40bc  __ZThn40_N20PropertyDatabaseItem10hideEditorEv$w$dHyhRLBF8U6UHSup2
0001:000f41f4  __ZThn40_N20PropertyDatabaseItem8setValueERK8QVariant$w$dHyhRLBF8U6UHSup2
0001:000f420c  __ZThn40_NK20PropertyDatabaseItem11hasSubItemsEv$w$dHyhRLBF8U6UHSup2
0001:000f421c  __ZThn40_N20PropertyDatabaseItem17childValueChangedEP12PropertyItem$w$dHyhRLBF8U6UHSup2
0001:000f4bbc  __ZThn40_N22PropertySizePolicyItem14createChildrenEv$w$dHyhRLBF8U6UHSup2
0001:00106088  __ZTV17PropertyWhatsThis$w$dHyhRLBF8U6UHSup2
0001:00105f90  __ZTV12PropertyItem$w$dHyhRLBF8U6UHSup2
0001:00106130  __ZTV8QPtrListI12PropertyItemE$w$dHyhRLBF8U6UHSup2
0001:001049c8* __Z7qt_castIP7QButtonET_PK7QObject$w$dHyhRLBF8U6UHSup2
0001:00104938* __ZN17QValueListPrivateI7QStringED1Ev$w$dHyhRLBF8U6UHSup2
0001:001049e4* __ZN17QValueListPrivateI7QStringEC1Ev$w$dHyhRLBF8U6UHSup2
0001:00104a30* __ZN17QValueListPrivateI7QStringE6insertE18QValueListIteratorIS0_ERKS0_$w$dHyhRLBF8U6UHSup2
0001:00104a8c* __ZN10QValueListI7QStringE14detachInternalEv$w$dHyhRLBF8U6UHSup2
0001:000f4eb8  __ZThn40_N22PropertySizePolicyItem12initChildrenEv$w$dHyhRLBF8U6UHSup2
0001:000f4fb4  __ZThn40_N22PropertySizePolicyItemD1Ev$w$dHyhRLBF8U6UHSup2
0001:000f5038  __ZThn40_N22PropertySizePolicyItemD0Ev$w$dHyhRLBF8U6UHSup2
0001:000f50d4  __ZThn40_N22PropertySizePolicyItem10showEditorEv$w$dHyhRLBF8U6UHSup2
0001:000f5110  __ZThn40_N22PropertySizePolicyItem10hideEditorEv$w$dHyhRLBF8U6UHSup2
0001:000f538c  __ZThn40_N22PropertySizePolicyItem8setValueERK8QVariant$w$dHyhRLBF8U6UHSup2
0001:000f56e4  __ZThn40_N22PropertySizePolicyItem17childValueChangedEP12PropertyItem$w$dHyhRLBF8U6UHSup2
0001:000f56fc  __ZThn40_NK22PropertySizePolicyItem11hasSubItemsEv$w$dHyhRLBF8U6UHSup2
0001:000f5fbc  __ZThn40_N19PropertyPaletteItemD1Ev$w$dHyhRLBF8U6UHSup2
0001:000f6090  __ZThn40_N19PropertyPaletteItemD0Ev$w$dHyhRLBF8U6UHSup2
0001:000f6124  __ZThn40_N19PropertyPaletteItem10showEditorEv$w$dHyhRLBF8U6UHSup2
0001:000f616c  __ZThn40_N19PropertyPaletteItem10hideEditorEv$w$dHyhRLBF8U6UHSup2
0001:000f621c  __ZThn40_N19PropertyPaletteItem8setValueERK8QVariant$w$dHyhRLBF8U6UHSup2
0001:00104abc  __Z7qt_castIP11QScrollViewET_PK7QObject$w$dHyhRLBF8U6UHSup2
0001:000f635c  __ZThn40_NK19PropertyPaletteItem17hasCustomContentsEv$w$dHyhRLBF8U6UHSup2
0001:000f64f4  __ZThn40_N19PropertyPaletteItem18drawCustomContentsEP8QPainterRK5QRect$w$dHyhRLBF8U6UHSup2
0001:001060b0  __ZTV7QBitmap$w$dHyhRLBF8U6UHSup2
0001:000f735c  __ZThn40_N18PropertyCursorItemD1Ev$w$dHyhRLBF8U6UHSup2
0001:000f73e0  __ZThn40_N18PropertyCursorItemD0Ev$w$dHyhRLBF8U6UHSup2
0001:000f750c  __ZThn40_N18PropertyCursorItem10showEditorEv$w$dHyhRLBF8U6UHSup2
0001:000f7548  __ZThn40_N18PropertyCursorItem10hideEditorEv$w$dHyhRLBF8U6UHSup2
0001:000f768c  __ZThn40_N18PropertyCursorItem8setValueERK8QVariant$w$dHyhRLBF8U6UHSup2
0001:000f7d74  __ZThn40_N23PropertyKeysequenceItemD1Ev$w$dHyhRLBF8U6UHSup2
0001:000f7e24  __ZThn40_N23PropertyKeysequenceItemD0Ev$w$dHyhRLBF8U6UHSup2
0001:000f7ebc  __ZThn40_N23PropertyKeysequenceItem10showEditorEv$w$dHyhRLBF8U6UHSup2
0001:000f7f04  __ZThn40_N23PropertyKeysequenceItem10hideEditorEv$w$dHyhRLBF8U6UHSup2
0001:000f8440  __ZThn40_N23PropertyKeysequenceItem8setValueERK8QVariant$w$dHyhRLBF8U6UHSup2
0001:00104ad8  __ZN17QValueListPrivateI8EnumItemEC1Ev$w$dHyhRLBF8U6UHSup2
0001:001060f0  __ZTV8QPtrListI9QCheckBoxE$w$dHyhRLBF8U6UHSup2
0001:00104b24  __ZN17QValueListPrivateI8EnumItemED1Ev$w$dHyhRLBF8U6UHSup2
0001:000f86b4  __ZThn40_N9EnumPopupD1Ev$w$dHyhRLBF8U6UHSup2
0001:000f8748  __ZThn40_N9EnumPopupD0Ev$w$dHyhRLBF8U6UHSup2
0001:00104bb4  __ZN10QValueListI8EnumItemE14detachInternalEv$w$dHyhRLBF8U6UHSup2
0001:00104c2c  __ZNK17QValueListPrivateI8EnumItemE2atEj$w$dHyhRLBF8U6UHSup2
0001:000f9778  __ZThn40_N16PropertyEnumItemD1Ev$w$dHyhRLBF8U6UHSup2
0001:000f9850  __ZThn40_N16PropertyEnumItemD0Ev$w$dHyhRLBF8U6UHSup2
0001:000f9924  __ZThn40_N16PropertyEnumItem10showEditorEv$w$dHyhRLBF8U6UHSup2
0001:000f996c  __ZThn40_N16PropertyEnumItem10hideEditorEv$w$dHyhRLBF8U6UHSup2
0001:00104c74  __ZN10QValueListI8EnumItemE5clearEv$w$dHyhRLBF8U6UHSup2
0001:00104cb8  __ZN17QValueListPrivateI8EnumItemE6insertE18QValueListIteratorIS0_ERKS0_$w$dHyhRLBF8U6UHSup2
0001:000f9bc8  __ZThn40_N16PropertyEnumItem8setValueERK8QVariant$w$dHyhRLBF8U6UHSup2
0001:000fa0c4  __ZThn40_NK16PropertyEnumItem11currentItemEv$w$dHyhRLBF8U6UHSup2
0001:000fa0f0  __ZThn40_NK16PropertyEnumItem21currentItemFromObjectEv$w$dHyhRLBF8U6UHSup2
0001:00104d1c* __ZN11QMapPrivateI7QStringS0_EC1Ev$w$dHyhRLBF8U6UHSup2
0001:00104d8c  __Z7qt_castIP6SpacerET_PK7QObject$w$dHyhRLBF8U6UHSup2
0001:00104f30  __ZN11QMapPrivateI7QStringbEC1Ev$w$dHyhRLBF8U6UHSup2
0001:00104fc4  __ZNK11QMapPrivateI7QStringbE4findERKS0_$w$dHyhRLBF8U6UHSup2
0001:00104da8* __Z7qt_castIP16QDesignerToolBarET_PK7QObject$w$dHyhRLBF8U6UHSup2
0001:00104de0  __ZN4QMapI7QStringbE6insertERKS0_RKbb$w$dHyhRLBF8U6UHSup2
0001:00104e44* __Z7qt_castIP13QLayoutWidgetET_PK7QObject$w$dHyhRLBF8U6UHSup2
0001:0010491c  __Z7qt_castIP12QActionGroupET_PK7QObject$w$dHyhRLBF8U6UHSup2
0001:00105048* __ZNK17QValueListPrivateI7QStringE9findIndexEP14QValueListNodeIS0_ERKS0_$w$dHyhRLBF8U6UHSup2
0001:00106170* __ZTV11QWidgetList$w$dHyhRLBF8U6UHSup2
0001:001061b0* __ZTV8QPtrListI7QWidgetE$w$dHyhRLBF8U6UHSup2
0001:00104e7c  __Z7qt_castIP14QMultiLineEditET_PK7QObject$w$dHyhRLBF8U6UHSup2
0001:00104e98* __ZN10QValueListI7QStringE5clearEv$w$dHyhRLBF8U6UHSup2
0001:00104edc  __Z7qt_castIP9QGroupBoxET_PK7QObject$w$dHyhRLBF8U6UHSup2
0001:001061f0* __ZTV8QStrList$w$dHyhRLBF8U6UHSup2
0001:00106230* __ZTV8QPtrListIcE$w$dHyhRLBF8U6UHSup2
0001:00104e60  __Z7qt_castIP12QButtonGroupET_PK7QObject$w$dHyhRLBF8U6UHSup2
0001:00104dc4* __Z7qt_castIP13MenuBarEditorET_PK7QObject$w$dHyhRLBF8U6UHSup2
0001:00104ef8  __Z7qt_castIP9QSplitterET_PK7QObject$w$dHyhRLBF8U6UHSup2
0001:00104f88  __ZN11QMapPrivateI7QStringbE5clearEv$w$dHyhRLBF8U6UHSup2
0001:00104f14* __Z7qt_castIP10FormWindowET_PK7QObject$w$dHyhRLBF8U6UHSup2
0001:001050a0* __ZN10QValueListIN12MetaDataBase8PropertyEE14detachInternalEv$w$dHyhRLBF8U6UHSup2
0001:001050d0* __Z7qt_castIP6QLabelET_PK7QObject$w$dHyhRLBF8U6UHSup2
0001:001050ec* __Z7qt_castIP9QTextViewET_PK7QObject$w$dHyhRLBF8U6UHSup2
0001:00105108* __ZNK17QValueListPrivateI7QStringE4findEP14QValueListNodeIS0_ERKS0_$w$dHyhRLBF8U6UHSup2
0001:00105198  __Z7qt_castIP17PropertyColorItemET_PK7QObject$w$dHyhRLBF8U6UHSup2
0001:001051b4  __Z7qt_castIP18PropertyPixmapItemET_PK7QObject$w$dHyhRLBF8U6UHSup2
0001:00105160  __Z7qt_castIP9QLineEditET_PK7QObject$w$dHyhRLBF8U6UHSup2
0001:0010517c* __Z7qt_castIP9QComboBoxET_PK7QObject$w$dHyhRLBF8U6UHSup2
0001:001061e0  __ZTV9QKeyEvent$w$dHyhRLBF8U6UHSup2
0001:001051d0* __ZNK11QMapPrivateI7QStringS0_E4findERKS0_$w$dHyhRLBF8U6UHSup2
0001:00105254* __ZN4QMapI7QStringS0_E14detachInternalEv$w$dHyhRLBF8U6UHSup2
0001:00105284* __ZN4QMapI7QStringS0_E6insertERKS0_S3_b$w$dHyhRLBF8U6UHSup2
0001:001052f0* __ZN17QValueListPrivateIN12MetaDataBase10ConnectionEED1Ev$w$dHyhRLBF8U6UHSup2
0001:0010536c* __ZN10QValueListIN12MetaDataBase10ConnectionEE14detachInternalEv$w$dHyhRLBF8U6UHSup2
0001:0010539c* __ZN17QValueListPrivateI7QStringEC1ERKS1_$w$dHyhRLBF8U6UHSup2
0001:00105430  __ZN17QValueListPrivateI8EnumItemEC1ERKS1_$w$dHyhRLBF8U6UHSup2
0001:001054cc  __ZN17QValueListPrivateI8EnumItemE5clearEv$w$dHyhRLBF8U6UHSup2
0001:00105530  __ZN11QMapPrivateI7QStringbE12insertSingleERKS0_$w$dHyhRLBF8U6UHSup2
0001:001055e4  __ZN4QMapI7QStringbE14detachInternalEv$w$dHyhRLBF8U6UHSup2
0001:00105614* __ZN17QValueListPrivateI7QStringE5clearEv$w$dHyhRLBF8U6UHSup2
0001:00105678  __ZN11QMapPrivateI7QStringbE5clearEP8QMapNodeIS0_bE$w$dHyhRLBF8U6UHSup2
0001:001056dc* __ZN17QValueListPrivateIN12MetaDataBase8PropertyEEC1ERKS2_$w$dHyhRLBF8U6UHSup2
0001:00105784* __ZN11QMapPrivateI7QStringS0_EC1EPKS1_$w$dHyhRLBF8U6UHSup2
0001:00105850* __ZN11QMapPrivateI7QStringS0_E12insertSingleERKS0_$w$dHyhRLBF8U6UHSup2
0001:00105904* __ZN17QValueListPrivateIN12MetaDataBase10ConnectionEEC1ERKS2_$w$dHyhRLBF8U6UHSup2
0001:001059a8  __ZN11QMapPrivateI7QStringbE6insertEP12QMapNodeBaseS3_RKS0_$w$dHyhRLBF8U6UHSup2
0001:00105a8c  __ZN12QMapIteratorI7QStringbE3decEv$w$dHyhRLBF8U6UHSup2
0001:00105ae4  __ZN11QMapPrivateI7QStringbEC1EPKS1_$w$dHyhRLBF8U6UHSup2
0001:00105b94* __ZN17QValueListPrivateIN12MetaDataBase8PropertyEE6insertE18QValueListIteratorIS1_ERKS1_$w$dHyhRLBF8U6UHSup2
0001:00105c04* __ZN11QMapPrivateI7QStringS0_E4copyEP8QMapNodeIS0_S0_E$w$dHyhRLBF8U6UHSup2
0001:00105ce4* __ZN11QMapPrivateI7QStringS0_E6insertEP12QMapNodeBaseS3_RKS0_$w$dHyhRLBF8U6UHSup2
0001:00105de8* __ZN12QMapIteratorI7QStringS0_E3decEv$w$dHyhRLBF8U6UHSup2
0001:00105e40* __ZN17QValueListPrivateIN12MetaDataBase10ConnectionEE6insertE18QValueListIteratorIS1_ERKS1_$w$dHyhRLBF8U6UHSup2
0001:00105ec8  __ZN11QMapPrivateI7QStringbE4copyEP8QMapNodeIS0_bE$w$dHyhRLBF8U6UHSup2
0001:0010645c  __ZN13QListViewItem10removeItemEPS_$w$dHyhRLBF8U6UHSup2
0001:001064f0  __ZN12PropertyItem5setupEv$w$dHyhRLBF8U6UHSup2
0001:001065f8  __ZN17PropertyWhatsThisD1Ev$w$dHyhRLBF8U6UHSup2
0001:00106614  __ZN17PropertyWhatsThisD0Ev$w$dHyhRLBF8U6UHSup2
0001:001065dc  __ZN7QBitmapD1Ev$w$dHyhRLBF8U6UHSup2
0001:001065b4  __ZN7QBitmapD0Ev$w$dHyhRLBF8U6UHSup2
0001:001060e0* __ZTV19QTextCommandHistory$w$dHyhRLBF8U6UHSup2
0001:00106524* __ZN19QTextCommandHistoryD1Ev$w$dHyhRLBF8U6UHSup2
0001:00106568* __ZN19QTextCommandHistoryD0Ev$w$dHyhRLBF8U6UHSup2
0001:00106710  __ZNK8QPtrListI9QCheckBoxE5countEv$w$dHyhRLBF8U6UHSup2
0001:001066d4  __ZN8QPtrListI9QCheckBoxE5clearEv$w$dHyhRLBF8U6UHSup2
0001:001066ac  __ZN8QPtrListI9QCheckBoxED1Ev$w$dHyhRLBF8U6UHSup2
0001:001066e0  __ZN8QPtrListI9QCheckBoxED0Ev$w$dHyhRLBF8U6UHSup2
0001:001067d8  __ZN8QPtrListI9QCheckBoxE10deleteItemEPv$w$dHyhRLBF8U6UHSup2
0001:001066a0  __ZNK8QPtrListI12PropertyItemE5countEv$w$dHyhRLBF8U6UHSup2
0001:00106664  __ZN8QPtrListI12PropertyItemE5clearEv$w$dHyhRLBF8U6UHSup2
0001:0010663c  __ZN8QPtrListI12PropertyItemED1Ev$w$dHyhRLBF8U6UHSup2
0001:00106670  __ZN8QPtrListI12PropertyItemED0Ev$w$dHyhRLBF8U6UHSup2
0001:00106800  __ZN8QPtrListI12PropertyItemE10deleteItemEPv$w$dHyhRLBF8U6UHSup2
0001:00106828* __ZNK8QPtrListI7QWidgetE5countEv$w$dHyhRLBF8U6UHSup2
0001:00106474* __ZN8QPtrListI7QWidgetE5clearEv$w$dHyhRLBF8U6UHSup2
0001:00106480* __ZN11QWidgetListD1Ev$w$dHyhRLBF8U6UHSup2
0001:001064b4* __ZN11QWidgetListD0Ev$w$dHyhRLBF8U6UHSup2
0001:00106834* __ZN8QPtrListI7QWidgetE10deleteItemEPv$w$dHyhRLBF8U6UHSup2
0001:00106780* __ZN8QPtrListI7QWidgetED1Ev$w$dHyhRLBF8U6UHSup2
0001:001067a8* __ZN8QPtrListI7QWidgetED0Ev$w$dHyhRLBF8U6UHSup2
0001:00106418  __ZN9QKeyEventD1Ev$w$dHyhRLBF8U6UHSup2
0001:001063d0  __ZN9QKeyEventD0Ev$w$dHyhRLBF8U6UHSup2
0001:0010671c* __ZNK8QPtrListIcE5countEv$w$dHyhRLBF8U6UHSup2
0001:001062a8* __ZN8QPtrListIcE5clearEv$w$dHyhRLBF8U6UHSup2
0001:001062b4* __ZN8QStrListD1Ev$w$dHyhRLBF8U6UHSup2
0001:001062e8* __ZN8QStrListD0Ev$w$dHyhRLBF8U6UHSup2
0001:00106324* __ZN8QStrList7newItemEPv$w$dHyhRLBF8U6UHSup2
0001:00106348* __ZN8QStrList10deleteItemEPv$w$dHyhRLBF8U6UHSup2
0001:00106368* __ZN8QStrList12compareItemsEPvS0_$w$dHyhRLBF8U6UHSup2
0001:0010639c* __ZN8QStrList4readER11QDataStreamRPv$w$dHyhRLBF8U6UHSup2
0001:001063b8* __ZNK8QStrList5writeER11QDataStreamPv$w$dHyhRLBF8U6UHSup2
0001:00106728* __ZN8QPtrListIcED1Ev$w$dHyhRLBF8U6UHSup2
0001:00106750* __ZN8QPtrListIcED0Ev$w$dHyhRLBF8U6UHSup2
0001:0010685c* __ZN8QPtrListIcE10deleteItemEPv$w$dHyhRLBF8U6UHSup2
0001:00106270* __ZTV6QGList$w$dHyhRLBF8U6UHSup2
0001:0010629c* __ZNK6QGList5countEv$w$dHyhRLBF8U6UHSup2
0001:00106890* __ZTV8QPtrListI12QTextCommandE$w$dHyhRLBF8U6UHSup2
0001:001068f0* __ZNK8QPtrListI12QTextCommandE5countEv$w$dHyhRLBF8U6UHSup2
0001:001068e4* __ZN8QPtrListI12QTextCommandE5clearEv$w$dHyhRLBF8U6UHSup2
0001:001068bc* __ZN8QPtrListI12QTextCommandED1Ev$w$dHyhRLBF8U6UHSup2
0001:001068fc* __ZN8QPtrListI12QTextCommandED0Ev$w$dHyhRLBF8U6UHSup2
0001:0010692c* __ZN8QPtrListI12QTextCommandE10deleteItemEPv$w$dHyhRLBF8U6UHSup2
Module: C:\200\trunk\lib\designercore.lib(moc_widgetfactory.obj)
0001:00106984* __ZNK18QDesignerTabWidget9classNameEv
0001:00106990  __ZN18QDesignerTabWidget2trEPKcS1_
0001:001069d0* __ZN18QDesignerTabWidget6trUtf8EPKcS1_
0001:00106a98  __ZN18QDesignerTabWidget16staticMetaObjectEv
0001:00106af4* __ZN18QDesignerTabWidget7qt_castEPKc
0001:00106b4c* __ZN18QDesignerTabWidget9qt_invokeEiP8QUObject
0001:00106b68* __ZN18QDesignerTabWidget7qt_emitEiP8QUObject
0001:00106b84* __ZN18QDesignerTabWidget11qt_propertyEiiP8QVariant
0001:00106d1c* __ZN18QDesignerTabWidget18qt_static_propertyEP7QObjectiiP8QVariant
0001:00106d38* __ZNK20QDesignerWidgetStack9classNameEv
0001:00106d44* __ZN20QDesignerWidgetStack2trEPKcS1_
0001:00106d84* __ZN20QDesignerWidgetStack6trUtf8EPKcS1_
0001:00106ec0  __ZN20QDesignerWidgetStack16staticMetaObjectEv
0001:00106f1c* __ZN20QDesignerWidgetStack7qt_castEPKc
0001:00106f74* __ZN20QDesignerWidgetStack9qt_invokeEiP8QUObject
0001:00106fe0* __ZN20QDesignerWidgetStack7qt_emitEiP8QUObject
0001:00106ffc* __ZN20QDesignerWidgetStack11qt_propertyEiiP8QVariant
0001:001070fc* __ZN20QDesignerWidgetStack18qt_static_propertyEP7QObjectiiP8QVariant
0001:00107114* __ZNK15QDesignerWizard9classNameEv
0001:00107120* __ZN15QDesignerWizard2trEPKcS1_
0001:00107160* __ZN15QDesignerWizard6trUtf8EPKcS1_
0001:00107210  __ZN15QDesignerWizard16staticMetaObjectEv
0001:0010726c* __ZN15QDesignerWizard7qt_castEPKc
0001:001072c4* __ZN15QDesignerWizard9qt_invokeEiP8QUObject
0001:001072e0* __ZN15QDesignerWizard7qt_emitEiP8QUObject
0001:001072fc* __ZN15QDesignerWizard11qt_propertyEiiP8QVariant
0001:00107504* __ZN15QDesignerWizard18qt_static_propertyEP7QObjectiiP8QVariant
0001:0010751c* __ZNK13QLayoutWidget9classNameEv
0001:00107528* __ZN13QLayoutWidget2trEPKcS1_
0001:00107568* __ZN13QLayoutWidget6trUtf8EPKcS1_
0001:001075a8  __ZN13QLayoutWidget16staticMetaObjectEv
0001:00107600* __ZN13QLayoutWidget7qt_castEPKc
0001:00107658* __ZN13QLayoutWidget9qt_invokeEiP8QUObject
0001:00107674* __ZN13QLayoutWidget7qt_emitEiP8QUObject
0001:00107690* __ZN13QLayoutWidget11qt_propertyEiiP8QVariant
0001:001076ac* __ZN13QLayoutWidget18qt_static_propertyEP7QObjectiiP8QVariant
0001:001076c0* __ZNK12CustomWidget9classNameEv
0001:001076cc* __ZN12CustomWidget2trEPKcS1_
0001:0010770c* __ZN12CustomWidget6trUtf8EPKcS1_
0001:0010774c  __ZN12CustomWidget16staticMetaObjectEv
0001:001077a4* __ZN12CustomWidget7qt_castEPKc
0001:001077fc* __ZN12CustomWidget9qt_invokeEiP8QUObject
0001:00107818* __ZN12CustomWidget7qt_emitEiP8QUObject
0001:00107834* __ZN12CustomWidget11qt_propertyEiiP8QVariant
0001:00107850* __ZN12CustomWidget18qt_static_propertyEP7QObjectiiP8QVariant
0001:0010785c* __ZNK4Line9classNameEv
0001:00107868* __ZN4Line2trEPKcS1_
0001:001078a8* __ZN4Line6trUtf8EPKcS1_
0001:001079c8* __ZN4Line16staticMetaObjectEv
0001:00107a24* __ZN4Line7qt_castEPKc
0001:00107a7c* __ZN4Line9qt_invokeEiP8QUObject
0001:00107a98* __ZN4Line7qt_emitEiP8QUObject
0001:00107ab4* __ZN4Line11qt_propertyEiiP8QVariant
0001:00107bd0* __ZN4Line18qt_static_propertyEP7QObjectiiP8QVariant
0001:00107be8* __ZNK14QDesignerLabel9classNameEv
0001:00107bf4* __ZN14QDesignerLabel2trEPKcS1_
0001:00107c34* __ZN14QDesignerLabel6trUtf8EPKcS1_
0001:00107c94  __ZN14QDesignerLabel16staticMetaObjectEv
0001:00107cf0* __ZN14QDesignerLabel7qt_castEPKc
0001:00107d48* __ZN14QDesignerLabel9qt_invokeEiP8QUObject
0001:00107d64* __ZN14QDesignerLabel7qt_emitEiP8QUObject
0001:00107d80* __ZN14QDesignerLabel11qt_propertyEiiP8QVariant
0001:00107e50* __ZN14QDesignerLabel18qt_static_propertyEP7QObjectiiP8QVariant
0001:00107e68* __ZNK15QDesignerWidget9classNameEv
0001:00107e74* __ZN15QDesignerWidget2trEPKcS1_
0001:00107eb4* __ZN15QDesignerWidget6trUtf8EPKcS1_
0001:00107ef4  __ZN15QDesignerWidget16staticMetaObjectEv
0001:00107f4c* __ZN15QDesignerWidget7qt_castEPKc
0001:00107fa4* __ZN15QDesignerWidget9qt_invokeEiP8QUObject
0001:00107fc0* __ZN15QDesignerWidget7qt_emitEiP8QUObject
0001:00107fdc* __ZN15QDesignerWidget11qt_propertyEiiP8QVariant
0001:00107ff8* __ZN15QDesignerWidget18qt_static_propertyEP7QObjectiiP8QVariant
0001:00108010* __ZNK15QDesignerDialog9classNameEv
0001:0010801c* __ZN15QDesignerDialog2trEPKcS1_
0001:0010805c* __ZN15QDesignerDialog6trUtf8EPKcS1_
0001:001080b4  __ZN15QDesignerDialog16staticMetaObjectEv
0001:00108110* __ZN15QDesignerDialog7qt_castEPKc
0001:00108168* __ZN15QDesignerDialog9qt_invokeEiP8QUObject
0001:00108184* __ZN15QDesignerDialog7qt_emitEiP8QUObject
0001:001081a0* __ZN15QDesignerDialog11qt_propertyEiiP8QVariant
0001:0010825c* __ZN15QDesignerDialog18qt_static_propertyEP7QObjectiiP8QVariant
0001:00108278* __ZNK19QDesignerToolButton9classNameEv
0001:00108284* __ZN19QDesignerToolButton2trEPKcS1_
0001:001082c4* __ZN19QDesignerToolButton6trUtf8EPKcS1_
0001:0010832c  __ZN19QDesignerToolButton16staticMetaObjectEv
0001:00108388* __ZN19QDesignerToolButton7qt_castEPKc
0001:001083e0* __ZN19QDesignerToolButton9qt_invokeEiP8QUObject
0001:001083fc* __ZN19QDesignerToolButton7qt_emitEiP8QUObject
0001:00108424* __ZN19QDesignerToolButton11qt_propertyEiiP8QVariant
0001:00108520* __ZN19QDesignerToolButton18qt_static_propertyEP7QObjectiiP8QVariant
0001:0010853c* __ZNK20QDesignerRadioButton9classNameEv
0001:00108548* __ZN20QDesignerRadioButton2trEPKcS1_
0001:00108588* __ZN20QDesignerRadioButton6trUtf8EPKcS1_
0001:001085e0  __ZN20QDesignerRadioButton16staticMetaObjectEv
0001:0010863c* __ZN20QDesignerRadioButton7qt_castEPKc
0001:00108694* __ZN20QDesignerRadioButton9qt_invokeEiP8QUObject
0001:001086b0* __ZN20QDesignerRadioButton7qt_emitEiP8QUObject
0001:001086cc* __ZN20QDesignerRadioButton11qt_propertyEiiP8QVariant
0001:001087c8* __ZN20QDesignerRadioButton18qt_static_propertyEP7QObjectiiP8QVariant
0001:001087e4* __ZNK19QDesignerPushButton9classNameEv
0001:001087f0* __ZN19QDesignerPushButton2trEPKcS1_
0001:00108830* __ZN19QDesignerPushButton6trUtf8EPKcS1_
0001:00108888  __ZN19QDesignerPushButton16staticMetaObjectEv
0001:001088e4* __ZN19QDesignerPushButton7qt_castEPKc
0001:0010893c* __ZN19QDesignerPushButton9qt_invokeEiP8QUObject
0001:00108958* __ZN19QDesignerPushButton7qt_emitEiP8QUObject
0001:00108974* __ZN19QDesignerPushButton11qt_propertyEiiP8QVariant
0001:00108a70* __ZN19QDesignerPushButton18qt_static_propertyEP7QObjectiiP8QVariant
0001:00108a8c* __ZNK17QDesignerCheckBox9classNameEv
0001:00108a98* __ZN17QDesignerCheckBox2trEPKcS1_
0001:00108ad8* __ZN17QDesignerCheckBox6trUtf8EPKcS1_
0001:00108b30  __ZN17QDesignerCheckBox16staticMetaObjectEv
0001:00108b8c* __ZN17QDesignerCheckBox7qt_castEPKc
0001:00108be4* __ZN17QDesignerCheckBox9qt_invokeEiP8QUObject
0001:00108c00* __ZN17QDesignerCheckBox7qt_emitEiP8QUObject
0001:00108c1c* __ZN17QDesignerCheckBox11qt_propertyEiiP8QVariant
0001:00108d18* __ZN17QDesignerCheckBox18qt_static_propertyEP7QObjectiiP8QVariant
0001:00108d30* __ZNK16QDesignerToolBox9classNameEv
0001:00108d3c* __ZN16QDesignerToolBox2trEPKcS1_
0001:00108d7c* __ZN16QDesignerToolBox6trUtf8EPKcS1_
0001:00108e58  __ZN16QDesignerToolBox16staticMetaObjectEv
0001:00108eb4* __ZN16QDesignerToolBox7qt_castEPKc
0001:00108f0c* __ZN16QDesignerToolBox9qt_invokeEiP8QUObject
0001:00108f28* __ZN16QDesignerToolBox7qt_emitEiP8QUObject
0001:00108f44* __ZN16QDesignerToolBox11qt_propertyEiiP8QVariant
0001:001090d8* __ZN16QDesignerToolBox18qt_static_propertyEP7QObjectiiP8QVariant
0002:00002670* __ZN18QDesignerTabWidget7metaObjE
0002:00002674* __ZN20QDesignerWidgetStack7metaObjE
0002:00002678* __ZN15QDesignerWizard7metaObjE
0002:0000267c* __ZN13QLayoutWidget7metaObjE
0002:00002680* __ZN12CustomWidget7metaObjE
0002:00002684* __ZN4Line7metaObjE
0002:00002688* __ZN14QDesignerLabel7metaObjE
0002:0000268c* __ZN15QDesignerWidget7metaObjE
0002:00002690* __ZN15QDesignerDialog7metaObjE
0002:00002694* __ZN19QDesignerToolButton7metaObjE
0002:00002698* __ZN20QDesignerRadioButton7metaObjE
0002:0000269c* __ZN19QDesignerPushButton7metaObjE
0002:000026a0* __ZN17QDesignerCheckBox7metaObjE
0002:000026a4* __ZN16QDesignerToolBox7metaObjE
0001:001090f0  __ZTV16QDesignerToolBox$w$hfleFePF8U6cEdhw3
0001:0010ba68  __ZNK16QDesignerToolBox10metaObjectEv$w$hfleFePF8U6cEdhw3
0001:0010ba08  __ZN16QDesignerToolBoxD1Ev$w$hfleFePF8U6cEdhw3
0001:0010ba34  __ZN16QDesignerToolBoxD0Ev$w$hfleFePF8U6cEdhw3
0001:0010b234* __ZN7QWidget11setGeometryERK5QRect$w$hfleFePF8U6cEdhw3
0001:0010b26c* __ZN7QWidget9setWStateEj$w$hfleFePF8U6cEdhw3
0001:0010b280* __ZN7QWidget9setWFlagsEj$w$hfleFePF8U6cEdhw3
0001:0010ba2c  __ZThn40_N16QDesignerToolBoxD1Ev$w$hfleFePF8U6cEdhw3
0001:0010ba60  __ZThn40_N16QDesignerToolBoxD0Ev$w$hfleFePF8U6cEdhw3
0001:00109310  __ZTV17QDesignerCheckBox$w$hfleFePF8U6cEdhw3
0001:0010b9fc  __ZNK17QDesignerCheckBox10metaObjectEv$w$hfleFePF8U6cEdhw3
0001:0010b99c  __ZN17QDesignerCheckBoxD1Ev$w$hfleFePF8U6cEdhw3
0001:0010b9c8  __ZN17QDesignerCheckBoxD0Ev$w$hfleFePF8U6cEdhw3
0001:0010b9c0  __ZThn40_N17QDesignerCheckBoxD1Ev$w$hfleFePF8U6cEdhw3
0001:0010b9f4  __ZThn40_N17QDesignerCheckBoxD0Ev$w$hfleFePF8U6cEdhw3
0001:00109530  __ZTV19QDesignerPushButton$w$hfleFePF8U6cEdhw3
0001:0010b990  __ZNK19QDesignerPushButton10metaObjectEv$w$hfleFePF8U6cEdhw3
0001:0010b930  __ZN19QDesignerPushButtonD1Ev$w$hfleFePF8U6cEdhw3
0001:0010b95c  __ZN19QDesignerPushButtonD0Ev$w$hfleFePF8U6cEdhw3
0001:0010b29c  __ZN11QPushButton15setIsMenuButtonEb$w$hfleFePF8U6cEdhw3
0001:0010b954  __ZThn40_N19QDesignerPushButtonD1Ev$w$hfleFePF8U6cEdhw3
0001:0010b988  __ZThn40_N19QDesignerPushButtonD0Ev$w$hfleFePF8U6cEdhw3
0001:00109770  __ZTV20QDesignerRadioButton$w$hfleFePF8U6cEdhw3
0001:0010b924  __ZNK20QDesignerRadioButton10metaObjectEv$w$hfleFePF8U6cEdhw3
0001:0010b8c4  __ZN20QDesignerRadioButtonD1Ev$w$hfleFePF8U6cEdhw3
0001:0010b8f0  __ZN20QDesignerRadioButtonD0Ev$w$hfleFePF8U6cEdhw3
0001:0010b8e8  __ZThn40_N20QDesignerRadioButtonD1Ev$w$hfleFePF8U6cEdhw3
0001:0010b91c  __ZThn40_N20QDesignerRadioButtonD0Ev$w$hfleFePF8U6cEdhw3
0001:00109990  __ZTV19QDesignerToolButton$w$hfleFePF8U6cEdhw3
0001:0010b8b8  __ZNK19QDesignerToolButton10metaObjectEv$w$hfleFePF8U6cEdhw3
0001:0010b858  __ZN19QDesignerToolButtonD1Ev$w$hfleFePF8U6cEdhw3
0001:0010b884  __ZN19QDesignerToolButtonD0Ev$w$hfleFePF8U6cEdhw3
0001:0010b87c  __ZThn40_N19QDesignerToolButtonD1Ev$w$hfleFePF8U6cEdhw3
0001:0010b8b0  __ZThn40_N19QDesignerToolButtonD0Ev$w$hfleFePF8U6cEdhw3
0001:00109bd0  __ZTV15QDesignerDialog$w$hfleFePF8U6cEdhw3
0001:0010b84c  __ZNK15QDesignerDialog10metaObjectEv$w$hfleFePF8U6cEdhw3
0001:0010b7ec  __ZN15QDesignerDialogD1Ev$w$hfleFePF8U6cEdhw3
0001:0010b818  __ZN15QDesignerDialogD0Ev$w$hfleFePF8U6cEdhw3
0001:0010b810  __ZThn40_N15QDesignerDialogD1Ev$w$hfleFePF8U6cEdhw3
0001:0010b844  __ZThn40_N15QDesignerDialogD0Ev$w$hfleFePF8U6cEdhw3
0001:00109dd0  __ZTV15QDesignerWidget$w$hfleFePF8U6cEdhw3
0001:0010b7e0  __ZNK15QDesignerWidget10metaObjectEv$w$hfleFePF8U6cEdhw3
0001:0010b780  __ZN15QDesignerWidgetD1Ev$w$hfleFePF8U6cEdhw3
0001:0010b7ac  __ZN15QDesignerWidgetD0Ev$w$hfleFePF8U6cEdhw3
0001:0010b7a4  __ZThn40_N15QDesignerWidgetD1Ev$w$hfleFePF8U6cEdhw3
0001:0010b7d8  __ZThn40_N15QDesignerWidgetD0Ev$w$hfleFePF8U6cEdhw3
0001:00109fd0  __ZTV14QDesignerLabel$w$hfleFePF8U6cEdhw3
0001:0010b750  __ZNK14QDesignerLabel10metaObjectEv$w$hfleFePF8U6cEdhw3
0001:0010b6d0  __ZN14QDesignerLabelD1Ev$w$hfleFePF8U6cEdhw3
0001:0010b70c  __ZN14QDesignerLabelD0Ev$w$hfleFePF8U6cEdhw3
0001:0010b75c  __ZN14QDesignerLabel9showEventEP10QShowEvent$w$hfleFePF8U6cEdhw3
0001:0010b704  __ZThn40_N14QDesignerLabelD1Ev$w$hfleFePF8U6cEdhw3
0001:0010b748  __ZThn40_N14QDesignerLabelD0Ev$w$hfleFePF8U6cEdhw3
0001:0010a210  __ZTV4Line$w$hfleFePF8U6cEdhw3
0001:0010b6c4  __ZNK4Line10metaObjectEv$w$hfleFePF8U6cEdhw3
0001:0010b664  __ZN4LineD1Ev$w$hfleFePF8U6cEdhw3
0001:0010b690  __ZN4LineD0Ev$w$hfleFePF8U6cEdhw3
0001:0010b688  __ZThn40_N4LineD1Ev$w$hfleFePF8U6cEdhw3
0001:0010b6bc  __ZThn40_N4LineD0Ev$w$hfleFePF8U6cEdhw3
0001:0010a430  __ZTV12CustomWidget$w$hfleFePF8U6cEdhw3
0001:0010b624  __ZNK12CustomWidget10metaObjectEv$w$hfleFePF8U6cEdhw3
0001:0010b5c4  __ZN12CustomWidgetD1Ev$w$hfleFePF8U6cEdhw3
0001:0010b5f0  __ZN12CustomWidgetD0Ev$w$hfleFePF8U6cEdhw3
0001:0010b630  __ZNK12CustomWidget8sizeHintEv$w$hfleFePF8U6cEdhw3
0001:0010b5e8  __ZThn40_N12CustomWidgetD1Ev$w$hfleFePF8U6cEdhw3
0001:0010b61c  __ZThn40_N12CustomWidgetD0Ev$w$hfleFePF8U6cEdhw3
0001:0010a630  __ZTV13QLayoutWidget$w$hfleFePF8U6cEdhw3
0001:0010b5b8  __ZNK13QLayoutWidget10metaObjectEv$w$hfleFePF8U6cEdhw3
0001:0010b558  __ZN13QLayoutWidgetD1Ev$w$hfleFePF8U6cEdhw3
0001:0010b584  __ZN13QLayoutWidgetD0Ev$w$hfleFePF8U6cEdhw3
0001:0010b57c  __ZThn40_N13QLayoutWidgetD1Ev$w$hfleFePF8U6cEdhw3
0001:0010b5b0  __ZThn40_N13QLayoutWidgetD0Ev$w$hfleFePF8U6cEdhw3
0001:0010a830  __ZTV15QDesignerWizard$w$hfleFePF8U6cEdhw3
0001:0010b544  __ZNK15QDesignerWizard10metaObjectEv$w$hfleFePF8U6cEdhw3
0001:0010b4a4  __ZN15QDesignerWizardD1Ev$w$hfleFePF8U6cEdhw3
0001:0010b4f0  __ZN15QDesignerWizardD0Ev$w$hfleFePF8U6cEdhw3
0001:0010b550  __ZN15QDesignerWizard6rejectEv$w$hfleFePF8U6cEdhw3
0001:0010b294  __ZN7QWizard9setFinishEP7QWidgetb$w$hfleFePF8U6cEdhw3
0001:0010b4e8  __ZThn40_N15QDesignerWizardD1Ev$w$hfleFePF8U6cEdhw3
0001:0010b53c  __ZThn40_N15QDesignerWizardD0Ev$w$hfleFePF8U6cEdhw3
0001:0010aa70  __ZTV20QDesignerWidgetStack$w$hfleFePF8U6cEdhw3
0001:0010b450  __ZNK20QDesignerWidgetStack10metaObjectEv$w$hfleFePF8U6cEdhw3
0001:0010b3a8  __ZN20QDesignerWidgetStackD1Ev$w$hfleFePF8U6cEdhw3
0001:0010b3f8  __ZN20QDesignerWidgetStackD0Ev$w$hfleFePF8U6cEdhw3
0001:0010b45c  __ZN20QDesignerWidgetStack11resizeEventEP12QResizeEvent$w$hfleFePF8U6cEdhw3
0001:0010b480  __ZN20QDesignerWidgetStack9showEventEP10QShowEvent$w$hfleFePF8U6cEdhw3
0001:0010b3f0  __ZThn40_N20QDesignerWidgetStackD1Ev$w$hfleFePF8U6cEdhw3
0001:0010b448  __ZThn40_N20QDesignerWidgetStackD0Ev$w$hfleFePF8U6cEdhw3
0001:0010ac90  __ZTV18QDesignerTabWidget$w$hfleFePF8U6cEdhw3
0001:0010b39c  __ZNK18QDesignerTabWidget10metaObjectEv$w$hfleFePF8U6cEdhw3
0001:0010b2f0  __ZN18QDesignerTabWidgetD1Ev$w$hfleFePF8U6cEdhw3
0001:0010b344  __ZN18QDesignerTabWidgetD0Ev$w$hfleFePF8U6cEdhw3
0001:0010b33c  __ZThn40_N18QDesignerTabWidgetD1Ev$w$hfleFePF8U6cEdhw3
0001:0010b394  __ZThn40_N18QDesignerTabWidgetD0Ev$w$hfleFePF8U6cEdhw3
0001:0010aeb0* __ZTV6QGList$w$hfleFePF8U6cEdhw3
0001:0010b228* __ZNK6QGList5countEv$w$hfleFePF8U6cEdhw3
0001:0010bad0* __ZTV8QPtrListI7QWidgetE$w$hfleFePF8U6cEdhw3
0001:0010ba90* __ZTV8QPtrDictI7QWidgetE$w$hfleFePF8U6cEdhw3
0001:0010bbc4* __ZNK8QPtrDictI7QWidgetE5countEv$w$hfleFePF8U6cEdhw3
0001:0010bb88* __ZN8QPtrDictI7QWidgetE5clearEv$w$hfleFePF8U6cEdhw3
0001:0010bb08* __ZN8QPtrDictI7QWidgetED1Ev$w$hfleFePF8U6cEdhw3
0001:0010bb94* __ZN8QPtrDictI7QWidgetED0Ev$w$hfleFePF8U6cEdhw3
0001:0010bbd0* __ZN8QPtrDictI7QWidgetE10deleteItemEPv$w$hfleFePF8U6cEdhw3
0001:0010bbf8* __ZNK8QPtrListI7QWidgetE5countEv$w$hfleFePF8U6cEdhw3
0001:0010bafc* __ZN8QPtrListI7QWidgetE5clearEv$w$hfleFePF8U6cEdhw3
0001:0010bb30* __ZN8QPtrListI7QWidgetED1Ev$w$hfleFePF8U6cEdhw3
0001:0010bb58* __ZN8QPtrListI7QWidgetED0Ev$w$hfleFePF8U6cEdhw3
0001:0010bc04* __ZN8QPtrListI7QWidgetE10deleteItemEPv$w$hfleFePF8U6cEdhw3
Module: C:\200\trunk\lib\designercore.lib(moc_mainwindow.obj)
0001:0010bc7c* __ZNK10MainWindow9classNameEv
0001:0010bc88  __ZN10MainWindow2trEPKcS1_
0001:0010bcc8* __ZN10MainWindow6trUtf8EPKcS1_
0001:0010dbc8* __ZN10MainWindow16staticMetaObjectEv
0001:0010dc24* __ZN10MainWindow7qt_castEPKc
0001:0010dc7c  __ZN10MainWindow18currentToolChangedEv
0001:0010dc9c  __ZN10MainWindow13hasActiveFormEb
0001:0010dcc4  __ZN10MainWindow15hasActiveWindowEb
0001:0010dcf0  __ZN10MainWindow24hasActiveWindowOrProjectEb
0001:0010dd1c  __ZN10MainWindow18hasNonDummyProjectEb
0001:0010dd48  __ZN10MainWindow12formModifiedEb
0001:0010dd74  __ZN10MainWindow18formWindowsChangedEv
0001:0010dd98  __ZN10MainWindow17formWindowChangedEv
0001:0010ddbc* __ZN10MainWindow14projectChangedEv
0001:0010dde0  __ZN10MainWindow13editorChangedEv
0001:0010de04* __ZN10MainWindow9qt_invokeEiP8QUObject
0001:0010e560* __ZN10MainWindow7qt_emitEiP8QUObject
0001:0010e668* __ZN10MainWindow11qt_propertyEiiP8QVariant
0001:0010e684* __ZN10MainWindow18qt_static_propertyEP7QObjectiiP8QVariant
0001:0010e698* __ZNK12SenderObject9classNameEv
0001:0010e6a4* __ZN12SenderObject2trEPKcS1_
0001:0010e6e4* __ZN12SenderObject6trUtf8EPKcS1_
0001:0010e860* __ZN12SenderObject16staticMetaObjectEv
0001:0010e8bc* __ZN12SenderObject7qt_castEPKc
0001:0010e914  __ZN12SenderObject10initSignalEP17QUnknownInterface
0001:0010e9a0* __ZN12SenderObject12acceptSignalEP17QUnknownInterface
0001:0010ea30* __ZN12SenderObject9qt_invokeEiP8QUObject
0001:0010ea8c* __ZN12SenderObject7qt_emitEiP8QUObject
0001:0010eaec* __ZN12SenderObject11qt_propertyEiiP8QVariant
0001:0010eb08* __ZN12SenderObject18qt_static_propertyEP7QObjectiiP8QVariant
0002:00002790* __ZN10MainWindow7metaObjE
0002:00002794* __ZN12SenderObject7metaObjE
0001:0010eb10  __ZTV12SenderObject$w$fWfkXCOF8U6Fyhih3
0001:0010eef0  __ZNK12SenderObject10metaObjectEv$w$fWfkXCOF8U6Fyhih3
0001:0010eefc  __ZN12SenderObjectD1Ev$w$fWfkXCOF8U6Fyhih3
0001:0010ef28  __ZN12SenderObjectD0Ev$w$fWfkXCOF8U6Fyhih3
0001:0010eb70  __ZTV10MainWindow$w$fWfkXCOF8U6Fyhih3
0001:0010eee4  __ZNK10MainWindow10metaObjectEv$w$fWfkXCOF8U6Fyhih3
0001:0010ee84* __ZN7QWidget11setGeometryERK5QRect$w$fWfkXCOF8U6Fyhih3
0001:0010eebc* __ZN7QWidget9setWStateEj$w$fWfkXCOF8U6Fyhih3
0001:0010eed0* __ZN7QWidget9setWFlagsEj$w$fWfkXCOF8U6Fyhih3
0001:0010edd0* __ZTV6QGList$w$fWfkXCOF8U6Fyhih3
0001:0010ee78* __ZNK6QGList5countEv$w$fWfkXCOF8U6Fyhih3
Module: C:\200\trunk\lib\designercore.lib(moc_listboxdnd.obj)
0001:0010ef9c* __ZNK10ListBoxDnd9classNameEv
0001:0010efa8* __ZN10ListBoxDnd2trEPKcS1_
0001:0010efe8* __ZN10ListBoxDnd6trUtf8EPKcS1_
0001:0010f118* __ZN10ListBoxDnd16staticMetaObjectEv
0001:0010f174* __ZN10ListBoxDnd7qt_castEPKc
0001:0010f1cc  __ZN10ListBoxDnd7droppedEP12QListBoxItem
0001:0010f258  __ZN10ListBoxDnd7draggedEP12QListBoxItem
0001:0010f2e8* __ZN10ListBoxDnd9qt_invokeEiP8QUObject
0001:0010f330* __ZN10ListBoxDnd7qt_emitEiP8QUObject
0001:0010f390* __ZN10ListBoxDnd11qt_propertyEiiP8QVariant
0001:0010f3ac* __ZN10ListBoxDnd18qt_static_propertyEP7QObjectiiP8QVariant
0002:000027c0* __ZN10ListBoxDnd7metaObjE
0001:0010f3d0  __ZTV10ListBoxDnd$w$d1LGv0SF8U6TadaO2
0001:0010f518  __ZNK10ListBoxDnd10metaObjectEv$w$d1LGv0SF8U6TadaO2
0001:0010f4d4  __ZN10ListBoxDndD1Ev$w$d1LGv0SF8U6TadaO2
0001:0010f4f0  __ZN10ListBoxDndD0Ev$w$d1LGv0SF8U6TadaO2
0001:0010f450* __ZTV6QGList$w$d1LGv0SF8U6TadaO2
0001:0010f4c8* __ZNK6QGList5countEv$w$d1LGv0SF8U6TadaO2
Module: C:\200\trunk\lib\designercore.lib(paletteeditoradvancedimpl.obj)
0001:0010f570* __ZN15BoldListBoxTextC2E7QStringP8QListBox
0001:0010f5a4* __ZN15BoldListBoxTextC1E7QStringP8QListBox
0001:0010f5d8* __ZN15BoldListBoxText5paintEP8QPainter
0001:0010f640* __ZN21PaletteEditorAdvancedC2EP10FormWindowP7QWidgetPKcbj
0001:001109d4* __ZN21PaletteEditorAdvanced17setPreviewPaletteERK8QPalette
0001:0010f734* __ZN21PaletteEditorAdvancedC1EP10FormWindowP7QWidgetPKcbj
0001:0010f828* __ZN21PaletteEditorAdvancedD2Ev
0001:0010f86c  __ZN21PaletteEditorAdvancedD1Ev
0001:0010f8b8  __ZN21PaletteEditorAdvancedD0Ev
0001:0010f908  __ZN21PaletteEditorAdvanced21onToggleBuildInactiveEb
0001:001105fc* __ZN21PaletteEditorAdvanced13buildInactiveEv
0001:00110a54* __ZN21PaletteEditorAdvanced19updateStyledButtonsEv
0001:0010f970  __ZN21PaletteEditorAdvanced21onToggleBuildDisabledEb
0001:001107c8* __ZN21PaletteEditorAdvanced13buildDisabledEv
0001:0010f9d8  __ZN21PaletteEditorAdvanced15paletteSelectedEi
0001:0010fa94  __ZN21PaletteEditorAdvanced20onChooseCentralColorEv
0001:0010ff70* __ZN21PaletteEditorAdvanced22mapToActiveCentralRoleERK6QColor
0001:00110388* __ZN21PaletteEditorAdvanced24mapToDisabledCentralRoleERK6QColor
0001:001101e0* __ZN21PaletteEditorAdvanced24mapToInactiveCentralRoleERK6QColor
0001:0010fb20  __ZN21PaletteEditorAdvanced19onChooseEffectColorEv
0001:00110024* __ZN21PaletteEditorAdvanced21mapToActiveEffectRoleERK6QColor
0001:00110400* __ZN21PaletteEditorAdvanced23mapToDisabledEffectRoleERK6QColor
0001:00110258* __ZN21PaletteEditorAdvanced23mapToInactiveEffectRoleERK6QColor
0001:0010fbac  __ZN21PaletteEditorAdvanced14onChoosePixmapEv
0001:001100d0* __ZN21PaletteEditorAdvanced21mapToActivePixmapRoleERK7QPixmap
0001:00110470* __ZN21PaletteEditorAdvanced23mapToDisabledPixmapRoleERK7QPixmap
0001:001102c8* __ZN21PaletteEditorAdvanced23mapToInactivePixmapRoleERK7QPixmap
0001:0010fc34  __ZN21PaletteEditorAdvanced20onToggleBuildEffectsEb
0001:00110530* __ZN21PaletteEditorAdvanced17buildActiveEffectEv
0001:00110628* __ZN21PaletteEditorAdvanced19buildInactiveEffectEv
0001:00110834* __ZN21PaletteEditorAdvanced19buildDisabledEffectEv
0001:0010fc68* __ZN21PaletteEditorAdvanced15centralFromItemEi
0001:0010fcfc* __ZN21PaletteEditorAdvanced14effectFromItemEi
0001:0010fd54  __ZN21PaletteEditorAdvanced9onCentralEi
0001:0010fec0  __ZN21PaletteEditorAdvanced8onEffectEi
0001:00110cbc* __ZN21PaletteEditorAdvanced6setPalERK8QPalette
0001:00110cf4* __ZNK21PaletteEditorAdvanced3palEv
0001:00110d18* __ZN21PaletteEditorAdvanced19setupBackgroundModeEN2Qt14BackgroundModeE
0001:00110f94  __ZN21PaletteEditorAdvanced10getPaletteEPbRK8QPaletteN2Qt14BackgroundModeEP7QWidgetPKcP10FormWindow
0001:00111090  __ZTV15BoldListBoxText$w$ZZL9RXHF8U6GZT2f4
0001:0010f8b0  __ZThn40_N21PaletteEditorAdvancedD1Ev$w$ZZL9RXHF8U6GZT2f4
0001:0010f900  __ZThn40_N21PaletteEditorAdvancedD0Ev$w$ZZL9RXHF8U6GZT2f4
0001:0011111c  __ZN15BoldListBoxTextD1Ev$w$ZZL9RXHF8U6GZT2f4
0001:00111138  __ZN15BoldListBoxTextD0Ev$w$ZZL9RXHF8U6GZT2f4
0001:00111108  __ZN12QListBoxItem7setTextERK7QString$w$ZZL9RXHF8U6GZT2f4
0001:001110d0* __ZTV6QGList$w$ZZL9RXHF8U6GZT2f4
0001:001110fc* __ZNK6QGList5countEv$w$ZZL9RXHF8U6GZT2f4
Module: C:\200\trunk\lib\designercore.lib(moc_pixmapchooser.obj)
0001:0011117c* __ZNK10PixmapView9classNameEv
0001:00111188* __ZN10PixmapView2trEPKcS1_
0001:001111c8* __ZN10PixmapView6trUtf8EPKcS1_
0001:00111208* __ZN10PixmapView16staticMetaObjectEv
0001:0011126c* __ZN10PixmapView7qt_castEPKc
0001:001112fc* __ZN10PixmapView9qt_invokeEiP8QUObject
0001:00111318* __ZN10PixmapView7qt_emitEiP8QUObject
0001:00111334* __ZN10PixmapView11qt_propertyEiiP8QVariant
0001:00111350* __ZN10PixmapView18qt_static_propertyEP7QObjectiiP8QVariant
0001:0011136c* __ZNK17ImageIconProvider9classNameEv
0001:00111378* __ZN17ImageIconProvider2trEPKcS1_
0001:001113b8* __ZN17ImageIconProvider6trUtf8EPKcS1_
0001:001113f8* __ZN17ImageIconProvider16staticMetaObjectEv
0001:00111450* __ZN17ImageIconProvider7qt_castEPKc
0001:001114a8* __ZN17ImageIconProvider9qt_invokeEiP8QUObject
0001:001114c4* __ZN17ImageIconProvider7qt_emitEiP8QUObject
0001:001114e0* __ZN17ImageIconProvider11qt_propertyEiiP8QVariant
0001:001114fc* __ZN17ImageIconProvider18qt_static_propertyEP7QObjectiiP8QVariant
0002:000027e0* __ZN10PixmapView7metaObjE
0002:000027e4* __ZN17ImageIconProvider7metaObjE
0001:00111510  __ZTV17ImageIconProvider$w$V5y8RHOF8U6Yjq6E1
0001:001119e4  __ZNK17ImageIconProvider10metaObjectEv$w$V5y8RHOF8U6Yjq6E1
0001:00111570  __ZTV10PixmapView$w$V5y8RHOF8U6Yjq6E1
0001:001119d8  __ZNK10PixmapView10metaObjectEv$w$V5y8RHOF8U6Yjq6E1
0001:00111944  __ZN10PixmapViewD1Ev$w$V5y8RHOF8U6Yjq6E1
0001:0011198c  __ZN10PixmapViewD0Ev$w$V5y8RHOF8U6Yjq6E1
0001:001118e4* __ZN7QWidget11setGeometryERK5QRect$w$V5y8RHOF8U6Yjq6E1
0001:0011191c* __ZN7QWidget9setWStateEj$w$V5y8RHOF8U6Yjq6E1
0001:00111930* __ZN7QWidget9setWFlagsEj$w$V5y8RHOF8U6Yjq6E1
0001:00111984  __ZThn40_N10PixmapViewD1Ev$w$V5y8RHOF8U6Yjq6E1
0001:001119d0  __ZThn40_N10PixmapViewD0Ev$w$V5y8RHOF8U6Yjq6E1
0001:00111830* __ZTV6QGList$w$V5y8RHOF8U6Yjq6E1
0001:001118d8* __ZNK6QGList5countEv$w$V5y8RHOF8U6Yjq6E1
Module: C:\200\trunk\lib\designercore.lib(layout.obj)
0001:00111a30* __ZltRK11QGuardedPtrI7QWidgetES3_
0001:00111a58* __ZN6LayoutC2ERK11QWidgetListP7QWidgetP10FormWindowS4_bb
0001:00111b34* __ZN6LayoutC1ERK11QWidgetListP7QWidgetP10FormWindowS4_bb
0001:00111c30  __ZN6Layout5setupEv
0001:00112200  __ZN6Layout15widgetDestroyedEv
0001:0011226c  __ZN6Layout13prepareLayoutERbS0_
0001:0011239c  __ZN6Layout12finishLayoutEbP7QLayout
0001:001125c0  __ZN6Layout10undoLayoutEv
0001:00112868  __ZN6Layout11breakLayoutEv
0001:00112f54* __ZN16HorizontalLayoutC2ERK11QWidgetListP7QWidgetP10FormWindowS4_bb
0001:00112fec* __ZN16HorizontalLayout5setupEv
0001:00112fa0  __ZN16HorizontalLayoutC1ERK11QWidgetListP7QWidgetP10FormWindowS4_bb
0001:00113060  __ZN16HorizontalLayout8doLayoutEv
0001:0011550c  __ZNK6Spacer9alignmentEv
0001:001131c8* __ZN14VerticalLayoutC2ERK11QWidgetListP7QWidgetP10FormWindowS4_bb
0001:00113260* __ZN14VerticalLayout5setupEv
0001:00113214  __ZN14VerticalLayoutC1ERK11QWidgetListP7QWidgetP10FormWindowS4_bb
0001:001132cc  __ZN14VerticalLayout8doLayoutEv
0001:00113434* __ZN4GridC2Eii
0001:00113494* __ZN4GridC1Eii
0001:001134f4* __ZN4GridD2Ev
0001:00113544* __ZN4GridD1Ev
0001:00113594* __ZNK4Grid8countRowEii
0001:001135dc* __ZNK4Grid8countColEii
0001:0011364c* __ZN4Grid6setColEiiP7QWidgeti
0001:00113680* __ZN4Grid6setRowEiiP7QWidgeti
0001:001136ac* __ZNK4Grid16isWidgetStartColEi
0001:001136f4* __ZNK4Grid14isWidgetEndColEi
0001:00113740* __ZNK4Grid16isWidgetStartRowEi
0001:0011379c* __ZNK4Grid14isWidgetEndRowEi
0001:0011380c* __ZNK4Grid15isWidgetTopLeftEii
0001:00113870* __ZN4Grid10extendLeftEv
0001:0011398c* __ZN4Grid11extendRightEv
0001:00113aa8* __ZN4Grid8extendUpEv
0001:00113bc4* __ZN4Grid10extendDownEv
0001:00113cdc* __ZN4Grid8simplifyEv
0001:00113d10* __ZN4Grid5mergeEv
0001:00113d9c* __ZN4Grid12locateWidgetEP7QWidgetRiS2_S2_S2_
0001:00113f44* __ZN10GridLayoutC2ERK11QWidgetListP7QWidgetP10FormWindowS4_RK5QSizeb
0001:00114490* __ZN10GridLayout5setupEv
0001:00113fa4  __ZN10GridLayoutC1ERK11QWidgetListP7QWidgetP10FormWindowS4_RK5QSizeb
0001:00114004* __ZN10GridLayoutD2Ev
0001:001140dc  __ZN10GridLayoutD1Ev
0001:001141b4* __ZN10GridLayoutD0Ev
0001:001142c0  __ZN10GridLayout8doLayoutEv
0001:00115708  __ZN19QDesignerGridLayout18addMultiCellWidgetEP7QWidgetiiiii
0001:001156b0* __ZN19QDesignerGridLayout9addWidgetEP7QWidgetiii
0001:001144ac* __ZN10GridLayout9buildGridEv
0001:00114bcc* __ZN6SpacerC2EP7QWidgetPKc
0001:00115494  __ZN6Spacer11setSizeTypeENS_8SizeTypeE
0001:00114c28  __ZN6SpacerC1EP7QWidgetPKc
0001:00114c84  __ZN6Spacer10paintEventEP11QPaintEvent
0001:0011518c  __ZN6Spacer11resizeEventEP12QResizeEvent
0001:001151e8  __ZN6Spacer10updateMaskEv
0001:001154cc  __ZNK6Spacer8sizeTypeEv
0001:00115528* __ZNK6Spacer11minimumSizeEv
0001:00115574  __ZNK6Spacer8sizeHintEv
0001:00115584  __ZN6Spacer11setSizeHintERK5QSize
0001:001155f4  __ZNK6Spacer11orientationEv
0001:00115600  __ZN6Spacer14setOrientationEN2Qt11OrientationE
0001:00116ed0* __ZTV11QWidgetList$w$P4F1WgzF8U6g22VU0
0001:00115774  __ZN11QMapPrivateI11QGuardedPtrI7QWidgetE5QRectEC1Ev$w$P4F1WgzF8U6g22VU0
0001:001158ac  __ZN17QValueListPrivateI11QWidgetListEC1Ev$w$P4F1WgzF8U6g22VU0
0001:001158f4  __ZN17QValueListPrivateI11QWidgetListED1Ev$w$P4F1WgzF8U6g22VU0
0001:00115830  __ZN4QMapI11QGuardedPtrI7QWidgetE5QRectE6insertERKS2_RKS3_b$w$P4F1WgzF8U6g22VU0
0001:00115998  __ZN10QValueListI11QWidgetListE14detachInternalEv$w$P4F1WgzF8U6g22VU0
0001:001159c8  __ZN17QValueListPrivateI11QWidgetListE6insertE18QValueListIteratorIS0_ERKS0_$w$P4F1WgzF8U6g22VU0
0001:00116f10* __ZTV8QPtrListI7QWidgetE$w$P4F1WgzF8U6g22VU0
0001:00115a2c* __Z7qt_castIP13QLayoutWidgetET_PK7QObject$w$P4F1WgzF8U6g22VU0
0001:00115a48* __Z7qt_castIP9QSplitterET_PK7QObject$w$P4F1WgzF8U6g22VU0
0001:00115ab0  __ZN12QMapIteratorI11QGuardedPtrI7QWidgetE5QRectE3incEv$w$P4F1WgzF8U6g22VU0
0001:00115a64* __Z7qt_castIP11QMainWindowET_PK7QObject$w$P4F1WgzF8U6g22VU0
0001:00115a80  __ZN4QMapI11QGuardedPtrI7QWidgetE5QRectE14detachInternalEv$w$P4F1WgzF8U6g22VU0
0001:00115b78  __ZN11QMapPrivateIP7QWidget5QRectEC1Ev$w$P4F1WgzF8U6g22VU0
0001:00115c10  __ZNK11QMapPrivateIP7QWidget5QRectE4findERKS1_$w$P4F1WgzF8U6g22VU0
0001:00115bd4  __ZN11QMapPrivateIP7QWidget5QRectE5clearEv$w$P4F1WgzF8U6g22VU0
0001:00115c60  __ZN4QMapIP7QWidget5QRectE14detachInternalEv$w$P4F1WgzF8U6g22VU0
0001:00115afc  __ZN4QMapIP7QWidget5QRectE6insertERKS1_RKS2_b$w$P4F1WgzF8U6g22VU0
0001:00116e10  __ZTV16HorizontalLayout$w$P4F1WgzF8U6g22VU0
0001:00116e90  __ZTV20HorizontalLayoutList$w$P4F1WgzF8U6g22VU0
0001:00116d50  __ZTV14VerticalLayout$w$P4F1WgzF8U6g22VU0
0001:00116dd0  __ZTV18VerticalLayoutList$w$P4F1WgzF8U6g22VU0
0001:00116cd0  __ZTV10GridLayout$w$P4F1WgzF8U6g22VU0
0001:001157f4* __ZN11QMapPrivateI11QGuardedPtrI7QWidgetE5QRectE5clearEv$w$P4F1WgzF8U6g22VU0
0001:00115c90* __Z7qt_castIP6SpacerET_PK7QObject$w$P4F1WgzF8U6g22VU0
0001:00115cac  __ZN12QValueVectorIiEC1EjRKi$w$P4F1WgzF8U6g22VU0
0001:00115d20  __Z9qHeapSortI12QValueVectorIiEEvRT_$w$P4F1WgzF8U6g22VU0
0001:00115dd8  __ZN12QValueVectorIiE14detachInternalEv$w$P4F1WgzF8U6g22VU0
0001:00115e08* __ZN4QMapIP7QWidgetN19QDesignerGridLayout4ItemEE6insertERKS1_RKS3_b$w$P4F1WgzF8U6g22VU0
0001:00115e84* __ZN11QMapPrivateI11QGuardedPtrI7QWidgetE5QRectE5clearEP8QMapNodeIS2_S3_E$w$P4F1WgzF8U6g22VU0
0001:00115ee8  __ZN11QMapPrivateI11QGuardedPtrI7QWidgetE5QRectE12insertSingleERKS2_$w$P4F1WgzF8U6g22VU0
0001:00115f94  __ZN17QValueListPrivateI11QWidgetListEC1ERKS1_$w$P4F1WgzF8U6g22VU0
0001:00116024  __ZN11QMapPrivateI11QGuardedPtrI7QWidgetE5QRectEC1EPKS4_$w$P4F1WgzF8U6g22VU0
0001:001160f8  __ZN11QMapPrivateIP7QWidget5QRectE12insertSingleERKS1_$w$P4F1WgzF8U6g22VU0
0001:00116194  __ZN11QMapPrivateIP7QWidget5QRectE5clearEP8QMapNodeIS1_S2_E$w$P4F1WgzF8U6g22VU0
0001:001161d0  __ZN11QMapPrivateIP7QWidget5QRectEC1EPKS3_$w$P4F1WgzF8U6g22VU0
0001:00116288  __ZN19QValueVectorPrivateIiEC1Ej$w$P4F1WgzF8U6g22VU0
0001:001162dc  __Z15qHeapSortHelperIPiiEvT_S1_T0_j$w$P4F1WgzF8U6g22VU0
0001:001163f8  __ZN19QValueVectorPrivateIiEC1ERKS0_$w$P4F1WgzF8U6g22VU0
0001:00116478* __ZN11QMapPrivateIP7QWidgetN19QDesignerGridLayout4ItemEE12insertSingleERKS1_$w$P4F1WgzF8U6g22VU0
0001:00116514* __ZN4QMapIP7QWidgetN19QDesignerGridLayout4ItemEE14detachInternalEv$w$P4F1WgzF8U6g22VU0
0001:00116664  __ZN12QMapIteratorI11QGuardedPtrI7QWidgetE5QRectE3decEv$w$P4F1WgzF8U6g22VU0
0001:00116544  __ZN11QMapPrivateI11QGuardedPtrI7QWidgetE5QRectE6insertEP12QMapNodeBaseS6_RKS2_$w$P4F1WgzF8U6g22VU0
0001:001166bc  __ZN11QMapPrivateI11QGuardedPtrI7QWidgetE5QRectE4copyEP8QMapNodeIS2_S3_E$w$P4F1WgzF8U6g22VU0
0001:001167dc  __ZN11QMapPrivateIP7QWidget5QRectE6insertEP12QMapNodeBaseS5_RKS1_$w$P4F1WgzF8U6g22VU0
0001:00116890  __ZN12QMapIteratorIP7QWidget5QRectE3decEv$w$P4F1WgzF8U6g22VU0
0001:001168e8  __ZN11QMapPrivateIP7QWidget5QRectE4copyEP8QMapNodeIS1_S2_E$w$P4F1WgzF8U6g22VU0
0001:001169a0  __Z17qHeapSortPushDownIiEvPT_ii$w$P4F1WgzF8U6g22VU0
0001:00116a50* __ZN11QMapPrivateIP7QWidgetN19QDesignerGridLayout4ItemEE6insertEP12QMapNodeBaseS6_RKS1_$w$P4F1WgzF8U6g22VU0
0001:00116b04* __ZN12QMapIteratorIP7QWidgetN19QDesignerGridLayout4ItemEE3decEv$w$P4F1WgzF8U6g22VU0
0001:00116b5c* __ZN11QMapPrivateIP7QWidgetN19QDesignerGridLayout4ItemEEC1EPKS4_$w$P4F1WgzF8U6g22VU0
0001:00116c14* __ZN11QMapPrivateIP7QWidgetN19QDesignerGridLayout4ItemEE4copyEP8QMapNodeIS1_S3_E$w$P4F1WgzF8U6g22VU0
0001:00117004* __ZNK6Layout10metaObjectEv$w$P4F1WgzF8U6g22VU0
0001:00117134  __ZN14VerticalLayoutD1Ev$w$P4F1WgzF8U6g22VU0
0001:001171c4  __ZN14VerticalLayoutD0Ev$w$P4F1WgzF8U6g22VU0
0001:001172b0* __ZNK8QPtrListI7QWidgetE5countEv$w$P4F1WgzF8U6g22VU0
0001:00116f88* __ZN8QPtrListI7QWidgetE5clearEv$w$P4F1WgzF8U6g22VU0
0001:001173bc  __ZN18VerticalLayoutListD1Ev$w$P4F1WgzF8U6g22VU0
0001:00117380  __ZN18VerticalLayoutListD0Ev$w$P4F1WgzF8U6g22VU0
0001:00117444* __ZN8QPtrListI7QWidgetE10deleteItemEPv$w$P4F1WgzF8U6g22VU0
0001:001173f0  __ZN18VerticalLayoutList12compareItemsEPvS0_$w$P4F1WgzF8U6g22VU0
0001:00117010  __ZN16HorizontalLayoutD1Ev$w$P4F1WgzF8U6g22VU0
0001:001170a0  __ZN16HorizontalLayoutD0Ev$w$P4F1WgzF8U6g22VU0
0001:001172f8  __ZN20HorizontalLayoutListD1Ev$w$P4F1WgzF8U6g22VU0
0001:001172bc  __ZN20HorizontalLayoutListD0Ev$w$P4F1WgzF8U6g22VU0
0001:0011732c  __ZN20HorizontalLayoutList12compareItemsEPvS0_$w$P4F1WgzF8U6g22VU0
0001:00116f94* __ZN11QWidgetListD1Ev$w$P4F1WgzF8U6g22VU0
0001:00116fc8* __ZN11QWidgetListD0Ev$w$P4F1WgzF8U6g22VU0
0001:00117258* __ZN8QPtrListI7QWidgetED1Ev$w$P4F1WgzF8U6g22VU0
0001:00117280* __ZN8QPtrListI7QWidgetED0Ev$w$P4F1WgzF8U6g22VU0
0001:00116f50* __ZTV6QGList$w$P4F1WgzF8U6g22VU0
0001:00116f7c* __ZNK6QGList5countEv$w$P4F1WgzF8U6g22VU0
Module: C:\200\trunk\lib\designercore.lib(listboxdnd.obj)
0001:00117470* __ZN10ListBoxDndC2EP8QListBoxPKc
0001:00117494  __ZN10ListBoxDndC1EP8QListBoxPKc
0001:001174b8  __ZN10ListBoxDnd11confirmDropEP12QListBoxItem
0001:001174c4  __ZN10ListBoxDnd9dropEventEP10QDropEvent
0001:00117874* __ZN10ListBoxDnd6itemAtE6QPoint
0001:00117dd0* __ZN15ListBoxItemDrag6decodeEP10QDropEventP8QListBoxP12QListBoxItem
0001:00117578  __ZN10ListBoxDnd14mouseMoveEventEP11QMouseEvent
0001:001176ac* __ZN10ListBoxDnd9buildListER8QPtrListI12QListBoxItemE
0001:00117b84* __ZN15ListBoxItemDragC1ER8QPtrListI12QListBoxItemEbP8QListBoxPKc
0001:0011771c* __ZN10ListBoxDnd10insertListER8QPtrListI12QListBoxItemE
0001:0011776c* __ZN10ListBoxDnd10removeListER8QPtrListI12QListBoxItemE
0001:001177ac  __ZN10ListBoxDnd10updateLineERK6QPoint
0001:00117930  __ZN10ListBoxDnd9canDecodeEP15QDragEnterEvent
0001:00117db4* __ZN15ListBoxItemDrag9canDecodeEP14QDragMoveEvent
0001:00117954* __ZN15ListBoxItemDragC2ER8QPtrListI12QListBoxItemEbP8QListBoxPKc
0001:00118070  __ZTV8QPtrListI12QListBoxItemE$w$NnntdVJF8U6nPI1j4
0001:001180b0  __ZTV15ListBoxItemDrag$w$NnntdVJF8U6nPI1j4
0001:00118140* __ZTV9QMemArrayIcE$w$NnntdVJF8U6nPI1j4
0001:00118294  __ZNK8QPtrListI12QListBoxItemE5countEv$w$NnntdVJF8U6nPI1j4
0001:00118258  __ZN8QPtrListI12QListBoxItemE5clearEv$w$NnntdVJF8U6nPI1j4
0001:00118230  __ZN8QPtrListI12QListBoxItemED1Ev$w$NnntdVJF8U6nPI1j4
0001:00118264  __ZN8QPtrListI12QListBoxItemED0Ev$w$NnntdVJF8U6nPI1j4
0001:001182c8  __ZN8QPtrListI12QListBoxItemE10deleteItemEPv$w$NnntdVJF8U6nPI1j4
0001:001181c4* __ZNK11QStoredDrag10metaObjectEv$w$NnntdVJF8U6nPI1j4
0001:001181d0  __ZN15ListBoxItemDragD1Ev$w$NnntdVJF8U6nPI1j4
0001:001181fc  __ZN15ListBoxItemDragD0Ev$w$NnntdVJF8U6nPI1j4
0001:001181f4  __ZThn40_N15ListBoxItemDragD1Ev$w$NnntdVJF8U6nPI1j4
0001:00118228  __ZThn40_N15ListBoxItemDragD0Ev$w$NnntdVJF8U6nPI1j4
0001:001181a8* __ZN9QMemArrayIcED1Ev$w$NnntdVJF8U6nPI1j4
0001:001182a0* __ZN9QMemArrayIcED0Ev$w$NnntdVJF8U6nPI1j4
0001:001182f0* __ZN9QMemArrayIcE6detachEv$w$NnntdVJF8U6nPI1j4
0001:00118170* __ZTV6QGList$w$NnntdVJF8U6nPI1j4
0001:0011819c* __ZNK6QGList5countEv$w$NnntdVJF8U6nPI1j4
Module: C:\200\trunk\lib\designercore.lib(styledbutton.obj)
0001:00118328* __ZN12StyledButtonC2EP7QWidgetPKc
0001:001187e8  __ZNK12StyledButton15minimumSizeHintEv
0001:00118694  __ZN12StyledButton9setEditorENS_10EditorTypeE
0001:001183ec  __ZN12StyledButtonC1EP7QWidgetPKc
0001:001184b0* __ZN12StyledButtonC2ERK6QBrushP7QWidgetPKcj
0001:00118560* __ZN12StyledButtonC1ERK6QBrushP7QWidgetPKcj
0001:00118610* __ZN12StyledButtonD2Ev
0001:00118634  __ZN12StyledButtonD1Ev
0001:00118660  __ZN12StyledButtonD0Ev
0001:001186b8  __ZNK12StyledButton6editorEv
0001:001186c8  __ZN12StyledButton8setColorERK6QColor
0001:001186f0  __ZN12StyledButton9setPixmapERK7QPixmap
0001:00118804* __ZN12StyledButton11scalePixmapEv
0001:0011876c  __ZNK12StyledButton5colorEv
0001:00118790  __ZNK12StyledButton6pixmapEv
0001:0011879c  __ZNK12StyledButton5scaleEv
0001:001187ac  __ZN12StyledButton8setScaleEb
0001:001187cc  __ZNK12StyledButton8sizeHintEv
0001:00118958  __ZN12StyledButton11resizeEventEP12QResizeEvent
0001:00118980  __ZN12StyledButton10drawButtonEP8QPainter
0001:00118a80  __ZN12StyledButton15drawButtonLabelEP8QPainter
0001:00118c40  __ZN12StyledButton8onEditorEv
0001:00118d9c  __ZN12StyledButton15mousePressEventEP11QMouseEvent
0001:00118dd4  __ZN12StyledButton14mouseMoveEventEP11QMouseEvent
0001:00119018  __ZN12StyledButton14dragEnterEventEP15QDragEnterEvent
0001:00119098  __ZN12StyledButton14dragLeaveEventEP15QDragLeaveEvent
0001:001190c8  __ZN12StyledButton13dragMoveEventEP14QDragMoveEvent
0001:00119138  __ZN12StyledButton9dropEventEP10QDropEvent
0001:00118658  __ZThn40_N12StyledButtonD1Ev$w$vkKtwZEF8U6PQ9O44
0001:0011868c  __ZThn40_N12StyledButtonD0Ev$w$vkKtwZEF8U6PQ9O44
0001:00119270* __ZTV6QGList$w$vkKtwZEF8U6PQ9O44
0001:0011929c* __ZNK6QGList5countEv$w$vkKtwZEF8U6PQ9O44
Module: C:\200\trunk\lib\designercore.lib(resource.obj)
0001:001195f8* __ZN8ResourceC2Ev
0001:00119810* __ZN8ResourceC1Ev
0001:00119a28* __ZN8ResourceC2EP10MainWindow
0001:00119c3c  __ZN8ResourceC1EP10MainWindow
0001:00119e50* __ZN8ResourceD2Ev
0001:0011a284  __ZN8ResourceD1Ev
0001:0011a6b8  __ZN8Resource9setWidgetEP10FormWindow
0001:0011a6cc  __ZNK8Resource6widgetEv
0001:0011a6d8  __ZN8Resource4loadEP8FormFileP7Project
0001:0011a9b0* __ZN8Resource4loadEP8FormFileP9QIODeviceP7Project
0001:0011efbc  __ZN8Resource4saveERK7QStringb
0001:0011f3d8  __ZN8Resource4saveEP9QIODevice
0001:00120410* __ZN8Resource10saveObjectEP7QObjectP19QDesignerGridLayoutR11QTextStreami
0001:0011f764  __ZN8Resource4copyEv
0001:0011f9c4  __ZN8Resource5pasteERK7QStringP7QWidget
0001:00124be0* __ZN8Resource20saveObjectPropertiesEP7QObjectR11QTextStreami
0001:001245cc* __ZN8Resource14saveChildrenOfEP7QObjectR11QTextStreami
0001:001262e0* __ZN8Resource16saveEnumPropertyEP7QObjectRK7QStringN8QVariant4TypeER11QTextStreami
0001:001225a8* __ZN8Resource9saveItemsEP7QObjectR11QTextStreami
0001:00124204* __ZN8Resource8saveItemERK11QStringListRK8QPtrListI7QPixmapER11QTextStreami
0001:00123a34* __ZN8Resource8saveItemEP13QListViewItemR11QTextStreami
0001:00123cac* __ZN8Resource10savePixmapERK7QPixmapR11QTextStreamiRK7QString
0001:00123f34* __ZN8Resource10loadPixmapERK11QDomElementRK7QString
0001:0012670c* __ZN8Resource12savePropertyEP7QObjectRK7QStringRK8QVariantNS5_4TypeER11QTextStreami
0001:00126108* __ZN8Resource15saveSetPropertyEP7QObjectRK7QStringN8QVariant4TypeER11QTextStreami
0001:00129154* __ZN8Resource9saveColorER11QTextStreamiRK6QColor
0001:00128fc4* __ZN8Resource14saveColorGroupER11QTextStreamiRK11QColorGroup
0001:00129400* __ZN8Resource12createObjectERK11QDomElementP7QWidgetP7QLayout
0001:00137e30  __ZN8Resource15loadExtraSourceEP8FormFileRK7QStringP17LanguageInterfaceb
0001:00132928* __ZN8Resource12loadTabOrderERK11QDomElement
0001:0012f380* __ZN8Resource15loadConnectionsERK11QDomElement
0001:001374d4* __ZN8Resource11loadMenuBarERK11QDomElement
0001:00136f0c* __ZN8Resource12loadToolBarsERK11QDomElement
0001:00135fa0* __ZN8Resource11loadActionsERK11QDomElement
0001:00131200  __ZN8Resource17loadCustomWidgetsERK11QDomElementPS_
0001:0012e498* __ZN8Resource19loadImageCollectionERK11QDomElement
0001:00137c90  __ZN8Resource12saveFormCodeEP8FormFileP17LanguageInterface
0001:00132bc4* __ZN8Resource18saveMetaInfoBeforeER11QTextStreami
0001:001326f4* __ZN8Resource12saveTabOrderER11QTextStreami
0001:001330d4* __ZN8Resource17saveMetaInfoAfterER11QTextStreami
0001:00134f40* __ZN8Resource16saveIncludeHintsER11QTextStreami
0001:0012e920* __ZN8Resource15saveConnectionsER11QTextStreami
0001:0012de20* __ZN8Resource19saveImageCollectionER11QTextStreami
0001:0013552c* __ZN8Resource11saveActionsERK8QPtrListI7QActionER11QTextStreami
0001:0013045c* __ZN8Resource17saveCustomWidgetsER11QTextStreami
0001:00136770* __ZN8Resource11saveMenuBarEP11QMainWindowR11QTextStreami
0001:00136140* __ZN8Resource12saveToolBarsEP11QMainWindowR11QTextStreami
0001:0012bd94* __ZN8Resource12createSpacerERK11QDomElementP7QWidgetP7QLayoutN2Qt11OrientationE
0001:0012d7d8* __ZN8Resource16saveInCollectionERK6QImage
0001:0012e7ec* __ZN8Resource18loadFromCollectionERK7QString
0001:0012c2e0* __ZN8Resource17setObjectPropertyEP7QObjectRK7QStringRK11QDomElement
0001:0012b47c* __ZN8Resource10createItemERK11QDomElementP7QWidgetP13QListViewItem
0001:0012a518* __ZN8Resource12createColumnERK11QDomElementP7QWidget
0001:0012b184* __ZN8Resource8loadItemERK11QDomElementR7QPixmapR7QStringRb
0001:00135100* __ZN8Resource14loadColorGroupERK11QDomElement
0001:0012da40  __ZN8Resource13saveImageDataERK6QImageR11QTextStreami
0001:00135360* __ZN8Resource16saveChildActionsEP7QActionR11QTextStreami
0001:00135788* __ZN8Resource15loadChildActionEP7QObjectRK11QDomElement
0001:00136b0c* __ZN8Resource13savePopupMenuEP15PopupMenuEditorP11QMainWindowR11QTextStreami
0001:001378d0* __ZN8Resource13loadPopupMenuEP15PopupMenuEditorRK11QDomElement
0001:001385ec* __ZN17QValueListPrivateIN8Resource5ImageEEC1Ev$w$vAKFGqCF8U6e2rkg1
0001:001386ec* __ZN17QValueListPrivateI7QStringEC1Ev$w$vAKFGqCF8U6e2rkg1
0001:001387c8* __ZN17QValueListPrivateIN12MetaDataBase7IncludeEEC1Ev$w$vAKFGqCF8U6e2rkg1
0001:00138958* __ZN17QValueListPrivateIN12MetaDataBase8VariableEEC1Ev$w$vAKFGqCF8U6e2rkg1
0001:00138a90* __ZN11QMapPrivateI7QStringS0_EC1Ev$w$vAKFGqCF8U6e2rkg1
0001:00138b3c  __ZN11QMapPrivateI7QString11QStringListEC1Ev$w$vAKFGqCF8U6e2rkg1
0001:00138bec  __ZN11QMapPrivateI7QStringP7QWidgetEC1Ev$w$vAKFGqCF8U6e2rkg1
0001:00138c80  __ZN11QMapPrivateI7QString10QValueListIN12MetaDataBase10ConnectionEEEC1Ev$w$vAKFGqCF8U6e2rkg1
0001:00138cf4  __ZN11QMapPrivateI7QString10QValueListIN12MetaDataBase10ConnectionEEE5clearEv$w$vAKFGqCF8U6e2rkg1
0001:00138c44  __ZN11QMapPrivateI7QStringP7QWidgetE5clearEv$w$vAKFGqCF8U6e2rkg1
0001:00138bb0  __ZN11QMapPrivateI7QString11QStringListE5clearEv$w$vAKFGqCF8U6e2rkg1
0001:00138b00* __ZN11QMapPrivateI7QStringS0_E5clearEv$w$vAKFGqCF8U6e2rkg1
0001:00138640* __ZN17QValueListPrivateIN8Resource5ImageEED1Ev$w$vAKFGqCF8U6e2rkg1
0001:00138738* __ZN17QValueListPrivateI7QStringED1Ev$w$vAKFGqCF8U6e2rkg1
0001:0013883c* __ZN17QValueListPrivateIN12MetaDataBase7IncludeEED1Ev$w$vAKFGqCF8U6e2rkg1
0001:001389b8* __ZN17QValueListPrivateIN12MetaDataBase8VariableEED1Ev$w$vAKFGqCF8U6e2rkg1
0001:00138d30* __ZN17QValueListPrivateIN12MetaDataBase10ConnectionEED1Ev$w$vAKFGqCF8U6e2rkg1
0001:00138dac  __ZN10QValueListIN8Resource5ImageEE5clearEv$w$vAKFGqCF8U6e2rkg1
0001:00138df0  __ZN4QMapI7QStringP7QWidgetE5clearEv$w$vAKFGqCF8U6e2rkg1
0001:00138e34  __ZN17QValueListPrivateIN12MetaDataBase7IncludeEE6insertE18QValueListIteratorIS1_ERKS1_$w$vAKFGqCF8U6e2rkg1
0001:00138eb0  __ZN10QValueListIN12MetaDataBase7IncludeEE14detachInternalEv$w$vAKFGqCF8U6e2rkg1
0001:00138ee0* __ZN17QValueListPrivateI7QStringE6insertE18QValueListIteratorIS0_ERKS0_$w$vAKFGqCF8U6e2rkg1
0001:00138f3c* __ZN10QValueListI7QStringE14detachInternalEv$w$vAKFGqCF8U6e2rkg1
0001:00138f6c* __ZN17QValueListPrivateIN12MetaDataBase8VariableEE6insertE18QValueListIteratorIS1_ERKS1_$w$vAKFGqCF8U6e2rkg1
0001:00138fd8* __ZN10QValueListIN12MetaDataBase8VariableEE14detachInternalEv$w$vAKFGqCF8U6e2rkg1
0001:00139008* __Z7qt_castIP11QMainWindowET_PK7QObject$w$vAKFGqCF8U6e2rkg1
0001:00139024* __ZN17QValueListPrivateIN12MetaDataBase8FunctionEED1Ev$w$vAKFGqCF8U6e2rkg1
0001:0013bd00  __ZTV12QTextOStream$w$vAKFGqCF8U6e2rkg1
0001:0013bb90* __ZTV11QWidgetList$w$vAKFGqCF8U6e2rkg1
0001:0013bbd0* __ZTV8QPtrListI7QWidgetE$w$vAKFGqCF8U6e2rkg1
0001:001391e8  __ZN4QMapIP7QWidgetN19QDesignerGridLayout4ItemEEixERKS1_$w$vAKFGqCF8U6e2rkg1
0001:00139274* __Z7qt_castIP10QTabWidgetET_PK7QObject$w$vAKFGqCF8U6e2rkg1
0001:00139290* __Z7qt_castIP20QDesignerWidgetStackET_PK7QObject$w$vAKFGqCF8U6e2rkg1
0001:001392ac* __Z7qt_castIP8QToolBoxET_PK7QObject$w$vAKFGqCF8U6e2rkg1
0001:001392c8* __Z7qt_castIP7QWizardET_PK7QObject$w$vAKFGqCF8U6e2rkg1
0001:001392e4  __Z7qt_castIP8QListBoxET_PK7QObject$w$vAKFGqCF8U6e2rkg1
0001:00139300* __Z7qt_castIP9QComboBoxET_PK7QObject$w$vAKFGqCF8U6e2rkg1
0001:0013bb10  __ZTV8QPtrListI7QPixmapE$w$vAKFGqCF8U6e2rkg1
0001:0013931c  __Z7qt_castIP9QIconViewET_PK7QObject$w$vAKFGqCF8U6e2rkg1
0001:00139338  __Z7qt_castIP9QListViewET_PK7QObject$w$vAKFGqCF8U6e2rkg1
0001:00139354  __Z7qt_castIP6QTableET_PK7QObject$w$vAKFGqCF8U6e2rkg1
0001:001393e8* __Z7qt_castIP9QSplitterET_PK7QObject$w$vAKFGqCF8U6e2rkg1
0001:00139404* __Z7qt_castIP6SpacerET_PK7QObject$w$vAKFGqCF8U6e2rkg1
0001:00139490  __ZNK17QValueListPrivateI7QStringE8containsERKS0_$w$vAKFGqCF8U6e2rkg1
0001:0013953c* __ZNK17QValueListPrivateI7QStringE4findEP14QValueListNodeIS0_ERKS0_$w$vAKFGqCF8U6e2rkg1
0001:00139458* __Z7qt_castIP6QLabelET_PK7QObject$w$vAKFGqCF8U6e2rkg1
0001:00139474* __Z7qt_castIP13MenuBarEditorET_PK7QObject$w$vAKFGqCF8U6e2rkg1
0001:0013943c  __Z7qt_castIP7QLayoutET_PK7QObject$w$vAKFGqCF8U6e2rkg1
0001:0013bc50* __ZTV8QStrList$w$vAKFGqCF8U6e2rkg1
0001:0013bc90* __ZTV8QPtrListIcE$w$vAKFGqCF8U6e2rkg1
0001:001395c4  __ZN12QMapIteratorI7QString8QVariantE3incEv$w$vAKFGqCF8U6e2rkg1
0001:00139594* __ZN4QMapI7QString8QVariantE14detachInternalEv$w$vAKFGqCF8U6e2rkg1
0001:001394e4* __ZNK17QValueListPrivateI7QStringE9findIndexEP14QValueListNodeIS0_ERKS0_$w$vAKFGqCF8U6e2rkg1
0001:00139420* __Z7qt_castIP11QToolButtonET_PK7QObject$w$vAKFGqCF8U6e2rkg1
0001:001393a0* __ZNK17QValueListPrivateI7QStringE2atEj$w$vAKFGqCF8U6e2rkg1
0001:00139610* __Z7qt_castIP12QWidgetStackET_PK7QObject$w$vAKFGqCF8U6e2rkg1
0001:0013962c  __ZN4QMapI7QStringP7QWidgetE6insertERKS0_RKS2_b$w$vAKFGqCF8U6e2rkg1
0001:00139690* __ZN4QMapI7QStringS0_E6insertERKS0_S3_b$w$vAKFGqCF8U6e2rkg1
0001:001396fc  __ZN17QValueListPrivateI7QPixmapEC1Ev$w$vAKFGqCF8U6e2rkg1
0001:001397a0  __ZN17QValueListPrivateI7QPixmapE6insertE18QValueListIteratorIS0_ERKS0_$w$vAKFGqCF8U6e2rkg1
0001:001397fc  __ZN10QValueListI7QPixmapE14detachInternalEv$w$vAKFGqCF8U6e2rkg1
0001:0013982c  __ZNK17QValueListPrivateI7QPixmapE2atEj$w$vAKFGqCF8U6e2rkg1
0001:0013973c  __ZN17QValueListPrivateI7QPixmapED1Ev$w$vAKFGqCF8U6e2rkg1
0001:00139874  __Z7qt_castIP10QBoxLayoutET_PK7QObject$w$vAKFGqCF8U6e2rkg1
0001:00139890  __ZN4QMapI7QString11QStringListE6insertERKS0_RKS1_b$w$vAKFGqCF8U6e2rkg1
0001:00139954  __ZN17QValueListPrivateIN8Resource5ImageEE6insertE18QValueListIteratorIS1_ERKS1_$w$vAKFGqCF8U6e2rkg1
0001:00139924  __ZN10QValueListIN8Resource5ImageEE14detachInternalEv$w$vAKFGqCF8U6e2rkg1
0001:0013bd10* __ZTV9QMemArrayIcE$w$vAKFGqCF8U6e2rkg1
0001:001399c0* __ZN10QValueListIN12MetaDataBase10ConnectionEE14detachInternalEv$w$vAKFGqCF8U6e2rkg1
0001:00139a50* __ZN10QValueListIN12MetaDataBase8PropertyEE14detachInternalEv$w$vAKFGqCF8U6e2rkg1
0001:00139a20* __ZN10QValueListIN12MetaDataBase8FunctionEE14detachInternalEv$w$vAKFGqCF8U6e2rkg1
0001:001399f0* __ZN10QValueListI8QCStringE14detachInternalEv$w$vAKFGqCF8U6e2rkg1
0001:00139a80* __ZN17QValueListPrivateI8QCStringE6insertE18QValueListIteratorIS0_ERKS0_$w$vAKFGqCF8U6e2rkg1
0001:00139ae4* __ZN17QValueListPrivateIN12MetaDataBase8FunctionEE6insertE18QValueListIteratorIS1_ERKS1_$w$vAKFGqCF8U6e2rkg1
0001:00139b94* __ZN17QValueListPrivateIN12MetaDataBase8PropertyEE6insertE18QValueListIteratorIS1_ERKS1_$w$vAKFGqCF8U6e2rkg1
0001:00139c04  __Z7qt_castIP7QActionET_PK7QObject$w$vAKFGqCF8U6e2rkg1
0001:001385d0* __Z7qt_castIP12QActionGroupET_PK7QObject$w$vAKFGqCF8U6e2rkg1
0001:00139c20  __ZN11QMapPrivateIP7QActionP7QWidgetEC1Ev$w$vAKFGqCF8U6e2rkg1
0001:0013bb50* __ZTV8QPtrListI8QToolBarE$w$vAKFGqCF8U6e2rkg1
0001:0013bc10* __ZTV8QPtrListI7QActionE$w$vAKFGqCF8U6e2rkg1
0001:00139c5c  __Z7qt_castIP16QSeparatorActionET_PK7QObject$w$vAKFGqCF8U6e2rkg1
0001:00139c78  __Z7qt_castIP15QDesignerActionET_PK7QObject$w$vAKFGqCF8U6e2rkg1
0001:00139c94  __Z7qt_castIP20QDesignerActionGroupET_PK7QObject$w$vAKFGqCF8U6e2rkg1
0001:00139cb0  __ZN17QValueListPrivateIN17LanguageInterface8FunctionEEC1Ev$w$vAKFGqCF8U6e2rkg1
0001:00139ef8* __ZN17QValueListPrivateIN17LanguageInterface10ConnectionEEC1Ev$w$vAKFGqCF8U6e2rkg1
0001:00139d54  __ZN17QValueListPrivateIN17LanguageInterface8FunctionEED1Ev$w$vAKFGqCF8U6e2rkg1
0001:00139f70* __ZN17QValueListPrivateIN17LanguageInterface10ConnectionEED1Ev$w$vAKFGqCF8U6e2rkg1
0001:0013a08c  __ZN10QValueListIN17LanguageInterface8FunctionEE14detachInternalEv$w$vAKFGqCF8U6e2rkg1
0001:0013a0bc* __ZN11QMapPrivateI7QStringS0_E5clearEP8QMapNodeIS0_S0_E$w$vAKFGqCF8U6e2rkg1
0001:0013a140  __ZN11QMapPrivateI7QString11QStringListE5clearEP8QMapNodeIS0_S1_E$w$vAKFGqCF8U6e2rkg1
0001:0013a1cc  __ZN11QMapPrivateI7QStringP7QWidgetE5clearEP8QMapNodeIS0_S2_E$w$vAKFGqCF8U6e2rkg1
0001:0013a230* __ZN17QValueListPrivateIN12MetaDataBase10ConnectionEEC1Ev$w$vAKFGqCF8U6e2rkg1
0001:0013a288  __ZN11QMapPrivateI7QString10QValueListIN12MetaDataBase10ConnectionEEE5clearEP8QMapNodeIS0_S4_E$w$vAKFGqCF8U6e2rkg1
0001:0013a314  __ZN17QValueListPrivateIN8Resource5ImageEE5clearEv$w$vAKFGqCF8U6e2rkg1
0001:0013a38c  __ZN17QValueListPrivateIN12MetaDataBase7IncludeEEC1ERKS2_$w$vAKFGqCF8U6e2rkg1
0001:0013a450* __ZN17QValueListPrivateI7QStringEC1ERKS1_$w$vAKFGqCF8U6e2rkg1
0001:0013a4e4* __ZN17QValueListPrivateIN12MetaDataBase8VariableEEC1ERKS2_$w$vAKFGqCF8U6e2rkg1
0001:0013a590  __ZNK11QMapPrivateIP7QWidgetN19QDesignerGridLayout4ItemEE4findERKS1_$w$vAKFGqCF8U6e2rkg1
0001:0013a5e0  __ZN4QMapIP7QWidgetN19QDesignerGridLayout4ItemEE6insertERKS1_RKS3_b$w$vAKFGqCF8U6e2rkg1
0001:0013a65c  __ZN4QMapIP7QWidgetN19QDesignerGridLayout4ItemEE14detachInternalEv$w$vAKFGqCF8U6e2rkg1
0001:0013a68c* __ZN11QMapPrivateI7QString8QVariantEC1EPKS2_$w$vAKFGqCF8U6e2rkg1
0001:0013a744  __ZN11QMapPrivateI7QStringP7QWidgetE12insertSingleERKS0_$w$vAKFGqCF8U6e2rkg1
0001:0013a7f8  __ZN4QMapI7QStringP7QWidgetE14detachInternalEv$w$vAKFGqCF8U6e2rkg1
0001:0013a828* __ZN11QMapPrivateI7QStringS0_E12insertSingleERKS0_$w$vAKFGqCF8U6e2rkg1
0001:0013c158* __ZN4QMapI7QStringS0_E14detachInternalEv$w$vAKFGqCF8U6e2rkg1
0001:0013a8dc  __ZN17QValueListPrivateI7QPixmapEC1ERKS1_$w$vAKFGqCF8U6e2rkg1
0001:0013a968  __ZN11QMapPrivateI7QString11QStringListE12insertSingleERKS0_$w$vAKFGqCF8U6e2rkg1
0001:0013aa1c  __ZN4QMapI7QString11QStringListE14detachInternalEv$w$vAKFGqCF8U6e2rkg1
0001:0013aa4c  __ZN17QValueListPrivateIN8Resource5ImageEEC1ERKS2_$w$vAKFGqCF8U6e2rkg1
0001:0013aaec* __ZN17QValueListPrivateIN12MetaDataBase10ConnectionEEC1ERKS2_$w$vAKFGqCF8U6e2rkg1
0001:0013ab90* __ZN17QValueListPrivateI8QCStringEC1ERKS1_$w$vAKFGqCF8U6e2rkg1
0001:0013ac20* __ZN17QValueListPrivateIN12MetaDataBase8FunctionEEC1ERKS2_$w$vAKFGqCF8U6e2rkg1
0001:0013ad34* __ZN17QValueListPrivateIN12MetaDataBase8PropertyEEC1ERKS2_$w$vAKFGqCF8U6e2rkg1
0001:0013addc  __ZN17QValueListPrivateIN17LanguageInterface8FunctionEEC1ERKS2_$w$vAKFGqCF8U6e2rkg1
0001:0013aed8  __ZN11QMapPrivateIP7QWidgetN19QDesignerGridLayout4ItemEE12insertSingleERKS1_$w$vAKFGqCF8U6e2rkg1
0001:0013af74  __ZN11QMapPrivateIP7QWidgetN19QDesignerGridLayout4ItemEEC1EPKS4_$w$vAKFGqCF8U6e2rkg1
0001:0013b02c* __ZN11QMapPrivateI7QString8QVariantE4copyEP8QMapNodeIS0_S1_E$w$vAKFGqCF8U6e2rkg1
0001:0013b0f8  __ZN11QMapPrivateI7QStringP7QWidgetE6insertEP12QMapNodeBaseS5_RKS0_$w$vAKFGqCF8U6e2rkg1
0001:0013b1dc  __ZN12QMapIteratorI7QStringP7QWidgetE3decEv$w$vAKFGqCF8U6e2rkg1
0001:0013b234  __ZN11QMapPrivateI7QStringP7QWidgetEC1EPKS3_$w$vAKFGqCF8U6e2rkg1
0001:0013b2e4* __ZN11QMapPrivateI7QStringS0_E6insertEP12QMapNodeBaseS3_RKS0_$w$vAKFGqCF8U6e2rkg1
0001:0013b3e8* __ZN12QMapIteratorI7QStringS0_E3decEv$w$vAKFGqCF8U6e2rkg1
0001:0013b440  __ZN11QMapPrivateI7QString11QStringListE6insertEP12QMapNodeBaseS4_RKS0_$w$vAKFGqCF8U6e2rkg1
0001:0013b53c  __ZN12QMapIteratorI7QString11QStringListE3decEv$w$vAKFGqCF8U6e2rkg1
0001:0013b594  __ZN11QMapPrivateI7QString11QStringListEC1EPKS2_$w$vAKFGqCF8U6e2rkg1
0001:0013b664* __ZN17QValueListPrivateIN12MetaDataBase10ConnectionEE6insertE18QValueListIteratorIS1_ERKS1_$w$vAKFGqCF8U6e2rkg1
0001:0013b6ec  __ZN17QValueListPrivateIN17LanguageInterface8FunctionEE6insertE18QValueListIteratorIS1_ERKS1_$w$vAKFGqCF8U6e2rkg1
0001:0013b790  __ZN11QMapPrivateIP7QWidgetN19QDesignerGridLayout4ItemEE6insertEP12QMapNodeBaseS6_RKS1_$w$vAKFGqCF8U6e2rkg1
0001:0013b844  __ZN12QMapIteratorIP7QWidgetN19QDesignerGridLayout4ItemEE3decEv$w$vAKFGqCF8U6e2rkg1
0001:0013b89c  __ZN11QMapPrivateIP7QWidgetN19QDesignerGridLayout4ItemEE4copyEP8QMapNodeIS1_S3_E$w$vAKFGqCF8U6e2rkg1
0001:0013b954  __ZN11QMapPrivateI7QStringP7QWidgetE4copyEP8QMapNodeIS0_S2_E$w$vAKFGqCF8U6e2rkg1
0001:0013ba04  __ZN11QMapPrivateI7QString11QStringListE4copyEP8QMapNodeIS0_S1_E$w$vAKFGqCF8U6e2rkg1
0001:0013c048  __ZNK8QPtrListI7QPixmapE5countEv$w$vAKFGqCF8U6e2rkg1
0001:0013c00c  __ZN8QPtrListI7QPixmapE5clearEv$w$vAKFGqCF8U6e2rkg1
0001:0013bfe4  __ZN8QPtrListI7QPixmapED1Ev$w$vAKFGqCF8U6e2rkg1
0001:0013c018  __ZN8QPtrListI7QPixmapED0Ev$w$vAKFGqCF8U6e2rkg1
0001:0013c334  __ZN8QPtrListI7QPixmapE10deleteItemEPv$w$vAKFGqCF8U6e2rkg1
0001:0013c35c* __ZNK8QPtrListI8QToolBarE5countEv$w$vAKFGqCF8U6e2rkg1
0001:0013c0e0* __ZN8QPtrListI8QToolBarE5clearEv$w$vAKFGqCF8U6e2rkg1
0001:0013c0b8* __ZN8QPtrListI8QToolBarED1Ev$w$vAKFGqCF8U6e2rkg1
0001:0013c0ec* __ZN8QPtrListI8QToolBarED0Ev$w$vAKFGqCF8U6e2rkg1
0001:0013c368* __ZN8QPtrListI8QToolBarE10deleteItemEPv$w$vAKFGqCF8U6e2rkg1
0001:0013c390* __ZNK8QPtrListI7QWidgetE5countEv$w$vAKFGqCF8U6e2rkg1
0001:0013bee8* __ZN8QPtrListI7QWidgetE5clearEv$w$vAKFGqCF8U6e2rkg1
0001:0013bef4* __ZN11QWidgetListD1Ev$w$vAKFGqCF8U6e2rkg1
0001:0013bf28* __ZN11QWidgetListD0Ev$w$vAKFGqCF8U6e2rkg1
0001:0013c39c* __ZN8QPtrListI7QWidgetE10deleteItemEPv$w$vAKFGqCF8U6e2rkg1
0001:0013bf8c* __ZN8QPtrListI7QWidgetED1Ev$w$vAKFGqCF8U6e2rkg1
0001:0013bfb4* __ZN8QPtrListI7QWidgetED0Ev$w$vAKFGqCF8U6e2rkg1
0001:0013c3c4* __ZNK8QPtrListI7QActionE5countEv$w$vAKFGqCF8U6e2rkg1
0001:0013c11c* __ZN8QPtrListI7QActionE5clearEv$w$vAKFGqCF8U6e2rkg1
0001:0013bec0* __ZN8QPtrListI7QActionED1Ev$w$vAKFGqCF8U6e2rkg1
0001:0013c128* __ZN8QPtrListI7QActionED0Ev$w$vAKFGqCF8U6e2rkg1
0001:0013c3d0* __ZN8QPtrListI7QActionE10deleteItemEPv$w$vAKFGqCF8U6e2rkg1
0001:0013c0ac* __ZNK8QPtrListIcE5countEv$w$vAKFGqCF8U6e2rkg1
0001:0013bd98* __ZN8QPtrListIcE5clearEv$w$vAKFGqCF8U6e2rkg1
0001:0013bda4* __ZN8QStrListD1Ev$w$vAKFGqCF8U6e2rkg1
0001:0013bdd8* __ZN8QStrListD0Ev$w$vAKFGqCF8U6e2rkg1
0001:0013be14* __ZN8QStrList7newItemEPv$w$vAKFGqCF8U6e2rkg1
0001:0013be38* __ZN8QStrList10deleteItemEPv$w$vAKFGqCF8U6e2rkg1
0001:0013be58* __ZN8QStrList12compareItemsEPvS0_$w$vAKFGqCF8U6e2rkg1
0001:0013be8c* __ZN8QStrList4readER11QDataStreamRPv$w$vAKFGqCF8U6e2rkg1
0001:0013bea8* __ZNK8QStrList5writeER11QDataStreamPv$w$vAKFGqCF8U6e2rkg1
0001:0013c054* __ZN8QPtrListIcED1Ev$w$vAKFGqCF8U6e2rkg1
0001:0013c07c* __ZN8QPtrListIcED0Ev$w$vAKFGqCF8U6e2rkg1
0001:0013c3f8* __ZN8QPtrListIcE10deleteItemEPv$w$vAKFGqCF8U6e2rkg1
0001:0013bcd0* __ZTV6QGList$w$vAKFGqCF8U6e2rkg1
0001:0013bd8c* __ZNK6QGList5countEv$w$vAKFGqCF8U6e2rkg1
0001:0013bd70  __ZN12QTextOStreamD1Ev$w$vAKFGqCF8U6e2rkg1
0001:0013bd48  __ZN12QTextOStreamD0Ev$w$vAKFGqCF8U6e2rkg1
0001:0013bd2c* __ZN9QMemArrayIcED1Ev$w$vAKFGqCF8U6e2rkg1
0001:0013bf64* __ZN9QMemArrayIcED0Ev$w$vAKFGqCF8U6e2rkg1
0001:0013c418* __ZN9QMemArrayIcE6detachEv$w$vAKFGqCF8U6e2rkg1
0001:0013c188* __ZN11QMapPrivateI7QStringS0_EC1EPKS1_$w$vAKFGqCF8U6e2rkg1
0001:0013c254* __ZN11QMapPrivateI7QStringS0_E4copyEP8QMapNodeIS0_S0_E$w$vAKFGqCF8U6e2rkg1
Module: C:\200\trunk\lib\designercore.lib(moc_previewframe.obj)
0001:0013c444* __ZNK16PreviewWorkspace9classNameEv
0001:0013c450* __ZN16PreviewWorkspace2trEPKcS1_
0001:0013c490* __ZN16PreviewWorkspace6trUtf8EPKcS1_
0001:0013c4d0* __ZN16PreviewWorkspace16staticMetaObjectEv
0001:0013c528* __ZN16PreviewWorkspace7qt_castEPKc
0001:0013c580* __ZN16PreviewWorkspace9qt_invokeEiP8QUObject
0001:0013c59c* __ZN16PreviewWorkspace7qt_emitEiP8QUObject
0001:0013c5b8* __ZN16PreviewWorkspace11qt_propertyEiiP8QVariant
0001:0013c5d4* __ZN16PreviewWorkspace18qt_static_propertyEP7QObjectiiP8QVariant
0001:0013c5e8* __ZNK12PreviewFrame9classNameEv
0001:0013c5f4* __ZN12PreviewFrame2trEPKcS1_
0001:0013c634* __ZN12PreviewFrame6trUtf8EPKcS1_
0001:0013c674* __ZN12PreviewFrame16staticMetaObjectEv
0001:0013c6cc* __ZN12PreviewFrame7qt_castEPKc
0001:0013c724* __ZN12PreviewFrame9qt_invokeEiP8QUObject
0001:0013c740* __ZN12PreviewFrame7qt_emitEiP8QUObject
0001:0013c75c* __ZN12PreviewFrame11qt_propertyEiiP8QVariant
0001:0013c778* __ZN12PreviewFrame18qt_static_propertyEP7QObjectiiP8QVariant
0002:00002810* __ZN16PreviewWorkspace7metaObjE
0002:00002814* __ZN12PreviewFrame7metaObjE
0001:0013c790  __ZTV12PreviewFrame$w$fKPVpRQF8U6blGO01
0001:0013cd90  __ZNK12PreviewFrame10metaObjectEv$w$fKPVpRQF8U6blGO01
0001:0013cd30  __ZN12PreviewFrameD1Ev$w$fKPVpRQF8U6blGO01
0001:0013cd5c  __ZN12PreviewFrameD0Ev$w$fKPVpRQF8U6blGO01
0001:0013cc64* __ZN7QWidget11setGeometryERK5QRect$w$fKPVpRQF8U6blGO01
0001:0013cc9c* __ZN7QWidget9setWStateEj$w$fKPVpRQF8U6blGO01
0001:0013ccb0* __ZN7QWidget9setWFlagsEj$w$fKPVpRQF8U6blGO01
0001:0013cd54  __ZThn40_N12PreviewFrameD1Ev$w$fKPVpRQF8U6blGO01
0001:0013cd88  __ZThn40_N12PreviewFrameD0Ev$w$fKPVpRQF8U6blGO01
0001:0013c9b0  __ZTV16PreviewWorkspace$w$fKPVpRQF8U6blGO01
0001:0013ccc4  __ZNK16PreviewWorkspace10metaObjectEv$w$fKPVpRQF8U6blGO01
0001:0013ccd0  __ZN16PreviewWorkspaceD1Ev$w$fKPVpRQF8U6blGO01
0001:0013ccfc  __ZN16PreviewWorkspaceD0Ev$w$fKPVpRQF8U6blGO01
0001:0013ccf4  __ZThn40_N16PreviewWorkspaceD1Ev$w$fKPVpRQF8U6blGO01
0001:0013cd28  __ZThn40_N16PreviewWorkspaceD0Ev$w$fKPVpRQF8U6blGO01
0001:0013cbb0* __ZTV6QGList$w$fKPVpRQF8U6blGO01
0001:0013cc58* __ZNK6QGList5countEv$w$fKPVpRQF8U6blGO01
Module: C:\200\trunk\lib\designercore.lib(moc_actiondnd.obj)
0001:0013cddc* __ZNK10ActionDrag9classNameEv
0001:0013cde8* __ZN10ActionDrag2trEPKcS1_
0001:0013ce28* __ZN10ActionDrag6trUtf8EPKcS1_
0001:0013ce68* __ZN10ActionDrag16staticMetaObjectEv
0001:0013cec0* __ZN10ActionDrag7qt_castEPKc
0001:0013cf18* __ZN10ActionDrag9qt_invokeEiP8QUObject
0001:0013cf34* __ZN10ActionDrag7qt_emitEiP8QUObject
0001:0013cf50* __ZN10ActionDrag11qt_propertyEiiP8QVariant
0001:0013cf6c* __ZN10ActionDrag18qt_static_propertyEP7QObjectiiP8QVariant
0001:0013cf88* __ZNK20QDesignerActionGroup9classNameEv
0001:0013cf94* __ZN20QDesignerActionGroup2trEPKcS1_
0001:0013cfd4* __ZN20QDesignerActionGroup6trUtf8EPKcS1_
0001:0013d014  __ZN20QDesignerActionGroup16staticMetaObjectEv
0001:0013d06c* __ZN20QDesignerActionGroup7qt_castEPKc
0001:0013d0c4* __ZN20QDesignerActionGroup9qt_invokeEiP8QUObject
0001:0013d0e0* __ZN20QDesignerActionGroup7qt_emitEiP8QUObject
0001:0013d0fc* __ZN20QDesignerActionGroup11qt_propertyEiiP8QVariant
0001:0013d118* __ZN20QDesignerActionGroup18qt_static_propertyEP7QObjectiiP8QVariant
0001:0013d130* __ZNK15QDesignerAction9classNameEv
0001:0013d13c* __ZN15QDesignerAction2trEPKcS1_
0001:0013d17c* __ZN15QDesignerAction6trUtf8EPKcS1_
0001:0013d1bc  __ZN15QDesignerAction16staticMetaObjectEv
0001:0013d214* __ZN15QDesignerAction7qt_castEPKc
0001:0013d26c* __ZN15QDesignerAction9qt_invokeEiP8QUObject
0001:0013d288* __ZN15QDesignerAction7qt_emitEiP8QUObject
0001:0013d2a4* __ZN15QDesignerAction11qt_propertyEiiP8QVariant
0001:0013d2c0* __ZN15QDesignerAction18qt_static_propertyEP7QObjectiiP8QVariant
0001:0013d2e4* __ZNK25QDesignerToolBarSeparator9classNameEv
0001:0013d2f0* __ZN25QDesignerToolBarSeparator2trEPKcS1_
0001:0013d330* __ZN25QDesignerToolBarSeparator6trUtf8EPKcS1_
0001:0013d3d0  __ZN25QDesignerToolBarSeparator16staticMetaObjectEv
0001:0013d42c* __ZN25QDesignerToolBarSeparator7qt_castEPKc
0001:0013d484* __ZN25QDesignerToolBarSeparator9qt_invokeEiP8QUObject
0001:0013d4cc* __ZN25QDesignerToolBarSeparator7qt_emitEiP8QUObject
0001:0013d4e8* __ZN25QDesignerToolBarSeparator11qt_propertyEiiP8QVariant
0001:0013d504* __ZN25QDesignerToolBarSeparator18qt_static_propertyEP7QObjectiiP8QVariant
0001:0013d51c* __ZNK16QSeparatorAction9classNameEv
0001:0013d528* __ZN16QSeparatorAction2trEPKcS1_
0001:0013d568* __ZN16QSeparatorAction6trUtf8EPKcS1_
0001:0013d5a8  __ZN16QSeparatorAction16staticMetaObjectEv
0001:0013d600* __ZN16QSeparatorAction7qt_castEPKc
0001:0013d658* __ZN16QSeparatorAction9qt_invokeEiP8QUObject
0001:0013d674* __ZN16QSeparatorAction7qt_emitEiP8QUObject
0001:0013d690* __ZN16QSeparatorAction11qt_propertyEiiP8QVariant
0001:0013d6ac* __ZN16QSeparatorAction18qt_static_propertyEP7QObjectiiP8QVariant
0001:0013d6c4* __ZNK16QDesignerToolBar9classNameEv
0001:0013d6d0  __ZN16QDesignerToolBar2trEPKcS1_
0001:0013d710* __ZN16QDesignerToolBar6trUtf8EPKcS1_
0001:0013d788  __ZN16QDesignerToolBar16staticMetaObjectEv
0001:0013d7e4* __ZN16QDesignerToolBar7qt_castEPKc
0001:0013d83c* __ZN16QDesignerToolBar9qt_invokeEiP8QUObject
0001:0013d87c* __ZN16QDesignerToolBar7qt_emitEiP8QUObject
0001:0013d898* __ZN16QDesignerToolBar11qt_propertyEiiP8QVariant
0001:0013d8b4* __ZN16QDesignerToolBar18qt_static_propertyEP7QObjectiiP8QVariant
0002:00002840* __ZN10ActionDrag7metaObjE
0002:00002844* __ZN20QDesignerActionGroup7metaObjE
0002:00002848* __ZN15QDesignerAction7metaObjE
0002:0000284c* __ZN25QDesignerToolBarSeparator7metaObjE
0002:00002850* __ZN16QSeparatorAction7metaObjE
0002:00002854* __ZN16QDesignerToolBar7metaObjE
0001:0013d8d0  __ZTV16QDesignerToolBar$w$3GIzwtQF8U62FYCX2
0001:0013e50c  __ZNK16QDesignerToolBar10metaObjectEv$w$3GIzwtQF8U62FYCX2
0001:0013e400  __ZN16QDesignerToolBarD1Ev$w$3GIzwtQF8U62FYCX2
0001:0013e480  __ZN16QDesignerToolBarD0Ev$w$3GIzwtQF8U62FYCX2
0001:0013e154* __ZN7QWidget11setGeometryERK5QRect$w$3GIzwtQF8U62FYCX2
0001:0013e18c* __ZN7QWidget9setWStateEj$w$3GIzwtQF8U62FYCX2
0001:0013e1a0* __ZN7QWidget9setWFlagsEj$w$3GIzwtQF8U62FYCX2
0001:0013e1b4  __ZN11QDockWindow6undockEv$w$3GIzwtQF8U62FYCX2
0001:0013e478  __ZThn40_N16QDesignerToolBarD1Ev$w$3GIzwtQF8U62FYCX2
0001:0013e500  __ZThn40_N16QDesignerToolBarD0Ev$w$3GIzwtQF8U62FYCX2
0001:0013db30  __ZTV16QSeparatorAction$w$3GIzwtQF8U62FYCX2
0001:0013e3f4  __ZNK16QSeparatorAction10metaObjectEv$w$3GIzwtQF8U62FYCX2
0001:0013e3b0  __ZN16QSeparatorActionD1Ev$w$3GIzwtQF8U62FYCX2
0001:0013e3cc  __ZN16QSeparatorActionD0Ev$w$3GIzwtQF8U62FYCX2
0001:0013dbd0  __ZTV25QDesignerToolBarSeparator$w$3GIzwtQF8U62FYCX2
0001:0013e3a4  __ZNK25QDesignerToolBarSeparator10metaObjectEv$w$3GIzwtQF8U62FYCX2
0001:0013e344  __ZN25QDesignerToolBarSeparatorD1Ev$w$3GIzwtQF8U62FYCX2
0001:0013e370  __ZN25QDesignerToolBarSeparatorD0Ev$w$3GIzwtQF8U62FYCX2
0001:0013e368  __ZThn40_N25QDesignerToolBarSeparatorD1Ev$w$3GIzwtQF8U62FYCX2
0001:0013e39c  __ZThn40_N25QDesignerToolBarSeparatorD0Ev$w$3GIzwtQF8U62FYCX2
0001:0013ddd0  __ZTV15QDesignerAction$w$3GIzwtQF8U62FYCX2
0001:0013e318  __ZNK15QDesignerAction10metaObjectEv$w$3GIzwtQF8U62FYCX2
0001:0013e2d4  __ZN15QDesignerActionD1Ev$w$3GIzwtQF8U62FYCX2
0001:0013e2f0  __ZN15QDesignerActionD0Ev$w$3GIzwtQF8U62FYCX2
0001:0013e324  __ZN15QDesignerAction7addedToEP7QWidgetS1_$w$3GIzwtQF8U62FYCX2
0001:0013e334  __ZN15QDesignerAction7addedToEiP10QPopupMenu$w$3GIzwtQF8U62FYCX2
0001:0013de70  __ZTV20QDesignerActionGroup$w$3GIzwtQF8U62FYCX2
0001:0013e280  __ZNK20QDesignerActionGroup10metaObjectEv$w$3GIzwtQF8U62FYCX2
0001:0013e1dc  __ZN20QDesignerActionGroupD1Ev$w$3GIzwtQF8U62FYCX2
0001:0013e22c  __ZN20QDesignerActionGroupD0Ev$w$3GIzwtQF8U62FYCX2
0001:0013e28c  __ZN20QDesignerActionGroup7addedToEP7QWidgetS1_$w$3GIzwtQF8U62FYCX2
0001:0013e2c4  __ZN20QDesignerActionGroup7addedToEiP10QPopupMenu$w$3GIzwtQF8U62FYCX2
0001:0013e29c  __ZN20QDesignerActionGroup7addedToEP7QWidgetS1_P7QAction$w$3GIzwtQF8U62FYCX2
0001:0013df10  __ZTV10ActionDrag$w$3GIzwtQF8U62FYCX2
0001:0013e1d0  __ZNK10ActionDrag10metaObjectEv$w$3GIzwtQF8U62FYCX2
0001:0013dfb0* __ZTV6QGList$w$3GIzwtQF8U62FYCX2
0001:0013e148* __ZNK6QGList5countEv$w$3GIzwtQF8U62FYCX2
0001:0013e618  __ZN11QMapPrivateIP7QActionP7QWidgetE5clearEv$w$3GIzwtQF8U62FYCX2
0001:0013e518  __ZN4QMapIP7QActionP7QWidgetE6insertERKS1_RKS3_b$w$3GIzwtQF8U62FYCX2
0001:0013e950* __ZTV8QPtrListI7QActionE$w$3GIzwtQF8U62FYCX2
0001:0013e8cc* __ZN11QMapPrivateIP7QWidgetP7QActionE5clearEv$w$3GIzwtQF8U62FYCX2
0001:0013e57c  __ZN11QMapPrivateIP7QActionP7QWidgetE12insertSingleERKS1_$w$3GIzwtQF8U62FYCX2
0001:0013e654  __ZN4QMapIP7QActionP7QWidgetE14detachInternalEv$w$3GIzwtQF8U62FYCX2
0001:0013e684  __ZN11QMapPrivateIP7QActionP7QWidgetE6insertEP12QMapNodeBaseS6_RKS1_$w$3GIzwtQF8U62FYCX2
0001:0013e7ec  __ZN12QMapIteratorIP7QActionP7QWidgetE3decEv$w$3GIzwtQF8U62FYCX2
0001:0013e718  __ZN11QMapPrivateIP7QActionP7QWidgetE5clearEP8QMapNodeIS1_S3_E$w$3GIzwtQF8U62FYCX2
0001:0013e754  __ZN11QMapPrivateIP7QActionP7QWidgetEC1EPKS4_$w$3GIzwtQF8U62FYCX2
0001:0013e844  __ZN11QMapPrivateIP7QActionP7QWidgetE4copyEP8QMapNodeIS1_S3_E$w$3GIzwtQF8U62FYCX2
0001:0013e908* __ZN11QMapPrivateIP7QWidgetP7QActionE5clearEP8QMapNodeIS1_S3_E$w$3GIzwtQF8U62FYCX2
0001:0013e9e0* __ZNK8QPtrListI7QActionE5countEv$w$3GIzwtQF8U62FYCX2
0001:0013e9a4* __ZN8QPtrListI7QActionE5clearEv$w$3GIzwtQF8U62FYCX2
0001:0013e97c* __ZN8QPtrListI7QActionED1Ev$w$3GIzwtQF8U62FYCX2
0001:0013e9b0* __ZN8QPtrListI7QActionED0Ev$w$3GIzwtQF8U62FYCX2
0001:0013e9ec* __ZN8QPtrListI7QActionE10deleteItemEPv$w$3GIzwtQF8U62FYCX2
Module: C:\200\trunk\lib\designercore.lib(moc_propertyeditor.obj)
0001:0013ea64* __ZNK16PropertyTextItem9classNameEv
0001:0013ea70  __ZN16PropertyTextItem2trEPKcS1_
0001:0013eab0* __ZN16PropertyTextItem6trUtf8EPKcS1_
0001:0013eb4c* __ZN16PropertyTextItem16staticMetaObjectEv
0001:0013ebb4* __ZN16PropertyTextItem7qt_castEPKc
0001:0013ec40* __ZN16PropertyTextItem9qt_invokeEiP8QUObject
0001:0013ec98* __ZN16PropertyTextItem7qt_emitEiP8QUObject
0001:0013ecb4* __ZN16PropertyTextItem11qt_propertyEiiP8QVariant
0001:0013ecd0* __ZN16PropertyTextItem18qt_static_propertyEP7QObjectiiP8QVariant
0001:0013ece8* __ZNK16PropertyBoolItem9classNameEv
0001:0013ecf4  __ZN16PropertyBoolItem2trEPKcS1_
0001:0013ed34* __ZN16PropertyBoolItem6trUtf8EPKcS1_
0001:0013ed8c* __ZN16PropertyBoolItem16staticMetaObjectEv
0001:0013ede8* __ZN16PropertyBoolItem7qt_castEPKc
0001:0013ee74* __ZN16PropertyBoolItem9qt_invokeEiP8QUObject
0001:0013eeb4* __ZN16PropertyBoolItem7qt_emitEiP8QUObject
0001:0013eed0* __ZN16PropertyBoolItem11qt_propertyEiiP8QVariant
0001:0013eeec* __ZN16PropertyBoolItem18qt_static_propertyEP7QObjectiiP8QVariant
0001:0013ef04* __ZNK15PropertyIntItem9classNameEv
0001:0013ef10* __ZN15PropertyIntItem2trEPKcS1_
0001:0013ef50* __ZN15PropertyIntItem6trUtf8EPKcS1_
0001:0013efa8* __ZN15PropertyIntItem16staticMetaObjectEv
0001:0013f004* __ZN15PropertyIntItem7qt_castEPKc
0001:0013f090* __ZN15PropertyIntItem9qt_invokeEiP8QUObject
0001:0013f0d0* __ZN15PropertyIntItem7qt_emitEiP8QUObject
0001:0013f0ec* __ZN15PropertyIntItem11qt_propertyEiiP8QVariant
0001:0013f108* __ZN15PropertyIntItem18qt_static_propertyEP7QObjectiiP8QVariant
0001:0013f124* __ZNK18PropertyLayoutItem9classNameEv
0001:0013f130  __ZN18PropertyLayoutItem2trEPKcS1_
0001:0013f170* __ZN18PropertyLayoutItem6trUtf8EPKcS1_
0001:0013f1c8* __ZN18PropertyLayoutItem16staticMetaObjectEv
0001:0013f224* __ZN18PropertyLayoutItem7qt_castEPKc
0001:0013f2b0* __ZN18PropertyLayoutItem9qt_invokeEiP8QUObject
0001:0013f2f0* __ZN18PropertyLayoutItem7qt_emitEiP8QUObject
0001:0013f30c* __ZN18PropertyLayoutItem11qt_propertyEiiP8QVariant
0001:0013f328* __ZN18PropertyLayoutItem18qt_static_propertyEP7QObjectiiP8QVariant
0001:0013f344* __ZNK18PropertyDoubleItem9classNameEv
0001:0013f350* __ZN18PropertyDoubleItem2trEPKcS1_
0001:0013f390* __ZN18PropertyDoubleItem6trUtf8EPKcS1_
0001:0013f3e8* __ZN18PropertyDoubleItem16staticMetaObjectEv
0001:0013f444* __ZN18PropertyDoubleItem7qt_castEPKc
0001:0013f4d0* __ZN18PropertyDoubleItem9qt_invokeEiP8QUObject
0001:0013f510* __ZN18PropertyDoubleItem7qt_emitEiP8QUObject
0001:0013f52c* __ZN18PropertyDoubleItem11qt_propertyEiiP8QVariant
0001:0013f548* __ZN18PropertyDoubleItem18qt_static_propertyEP7QObjectiiP8QVariant
0001:0013f560* __ZNK16PropertyListItem9classNameEv
0001:0013f56c* __ZN16PropertyListItem2trEPKcS1_
0001:0013f5ac* __ZN16PropertyListItem6trUtf8EPKcS1_
0001:0013f604* __ZN16PropertyListItem16staticMetaObjectEv
0001:0013f660* __ZN16PropertyListItem7qt_castEPKc
0001:0013f6ec* __ZN16PropertyListItem9qt_invokeEiP8QUObject
0001:0013f72c* __ZN16PropertyListItem7qt_emitEiP8QUObject
0001:0013f748* __ZN16PropertyListItem11qt_propertyEiiP8QVariant
0001:0013f764* __ZN16PropertyListItem18qt_static_propertyEP7QObjectiiP8QVariant
0001:0013f77c* __ZNK16PropertyFontItem9classNameEv
0001:0013f788  __ZN16PropertyFontItem2trEPKcS1_
0001:0013f7c8* __ZN16PropertyFontItem6trUtf8EPKcS1_
0001:0013f834* __ZN16PropertyFontItem16staticMetaObjectEv
0001:0013f890* __ZN16PropertyFontItem7qt_castEPKc
0001:0013f91c* __ZN16PropertyFontItem9qt_invokeEiP8QUObject
0001:0013f95c* __ZN16PropertyFontItem7qt_emitEiP8QUObject
0001:0013f978* __ZN16PropertyFontItem11qt_propertyEiiP8QVariant
0001:0013f994* __ZN16PropertyFontItem18qt_static_propertyEP7QObjectiiP8QVariant
0001:0013f9b0* __ZNK17PropertyCoordItem9classNameEv
0001:0013f9bc  __ZN17PropertyCoordItem2trEPKcS1_
0001:0013f9fc* __ZN17PropertyCoordItem6trUtf8EPKcS1_
0001:0013fa3c* __ZN17PropertyCoordItem16staticMetaObjectEv
0001:0013fa94* __ZN17PropertyCoordItem7qt_castEPKc
0001:0013fb20* __ZN17PropertyCoordItem9qt_invokeEiP8QUObject
0001:0013fb3c* __ZN17PropertyCoordItem7qt_emitEiP8QUObject
0001:0013fb58* __ZN17PropertyCoordItem11qt_propertyEiiP8QVariant
0001:0013fb74* __ZN17PropertyCoordItem18qt_static_propertyEP7QObjectiiP8QVariant
0001:0013fb90* __ZNK17PropertyColorItem9classNameEv
0001:0013fb9c  __ZN17PropertyColorItem2trEPKcS1_
0001:0013fbdc* __ZN17PropertyColorItem6trUtf8EPKcS1_
0001:0013fc4c  __ZN17PropertyColorItem16staticMetaObjectEv
0001:0013fca8* __ZN17PropertyColorItem7qt_castEPKc
0001:0013fd34* __ZN17PropertyColorItem9qt_invokeEiP8QUObject
0001:0013fd74* __ZN17PropertyColorItem7qt_emitEiP8QUObject
0001:0013fd90* __ZN17PropertyColorItem11qt_propertyEiiP8QVariant
0001:0013fdac* __ZN17PropertyColorItem18qt_static_propertyEP7QObjectiiP8QVariant
0001:0013fdc8* __ZNK18PropertyPixmapItem9classNameEv
0001:0013fdd4* __ZN18PropertyPixmapItem2trEPKcS1_
0001:0013fe14* __ZN18PropertyPixmapItem6trUtf8EPKcS1_
0001:0013fe84  __ZN18PropertyPixmapItem16staticMetaObjectEv
0001:0013fee0* __ZN18PropertyPixmapItem7qt_castEPKc
0001:0013ff6c* __ZN18PropertyPixmapItem9qt_invokeEiP8QUObject
0001:0013ffac* __ZN18PropertyPixmapItem7qt_emitEiP8QUObject
0001:0013ffc8* __ZN18PropertyPixmapItem11qt_propertyEiiP8QVariant
0001:0013ffe4* __ZN18PropertyPixmapItem18qt_static_propertyEP7QObjectiiP8QVariant
0001:00140004* __ZNK22PropertySizePolicyItem9classNameEv
0001:00140010  __ZN22PropertySizePolicyItem2trEPKcS1_
0001:00140050* __ZN22PropertySizePolicyItem6trUtf8EPKcS1_
0001:00140090* __ZN22PropertySizePolicyItem16staticMetaObjectEv
0001:001400e8* __ZN22PropertySizePolicyItem7qt_castEPKc
0001:00140174* __ZN22PropertySizePolicyItem9qt_invokeEiP8QUObject
0001:00140190* __ZN22PropertySizePolicyItem7qt_emitEiP8QUObject
0001:001401ac* __ZN22PropertySizePolicyItem11qt_propertyEiiP8QVariant
0001:001401c8* __ZN22PropertySizePolicyItem18qt_static_propertyEP7QObjectiiP8QVariant
0001:001401e4* __ZNK19PropertyPaletteItem9classNameEv
0001:001401f0* __ZN19PropertyPaletteItem2trEPKcS1_
0001:00140230* __ZN19PropertyPaletteItem6trUtf8EPKcS1_
0001:001402a4* __ZN19PropertyPaletteItem16staticMetaObjectEv
0001:00140300* __ZN19PropertyPaletteItem7qt_castEPKc
0001:0014038c* __ZN19PropertyPaletteItem9qt_invokeEiP8QUObject
0001:001403cc* __ZN19PropertyPaletteItem7qt_emitEiP8QUObject
0001:001403e8* __ZN19PropertyPaletteItem11qt_propertyEiiP8QVariant
0001:00140404* __ZN19PropertyPaletteItem18qt_static_propertyEP7QObjectiiP8QVariant
0001:00140420* __ZNK18PropertyCursorItem9classNameEv
0001:0014042c  __ZN18PropertyCursorItem2trEPKcS1_
0001:0014046c* __ZN18PropertyCursorItem6trUtf8EPKcS1_
0001:001404c4* __ZN18PropertyCursorItem16staticMetaObjectEv
0001:00140520* __ZN18PropertyCursorItem7qt_castEPKc
0001:001405ac* __ZN18PropertyCursorItem9qt_invokeEiP8QUObject
0001:001405ec* __ZN18PropertyCursorItem7qt_emitEiP8QUObject
0001:00140608* __ZN18PropertyCursorItem11qt_propertyEiiP8QVariant
0001:00140624* __ZN18PropertyCursorItem18qt_static_propertyEP7QObjectiiP8QVariant
0001:00140644* __ZNK23PropertyKeysequenceItem9classNameEv
0001:00140650* __ZN23PropertyKeysequenceItem2trEPKcS1_
0001:00140690* __ZN23PropertyKeysequenceItem6trUtf8EPKcS1_
0001:001406e8* __ZN23PropertyKeysequenceItem16staticMetaObjectEv
0001:00140744* __ZN23PropertyKeysequenceItem7qt_castEPKc
0001:001407d0* __ZN23PropertyKeysequenceItem9qt_invokeEiP8QUObject
0001:00140810* __ZN23PropertyKeysequenceItem7qt_emitEiP8QUObject
0001:0014082c* __ZN23PropertyKeysequenceItem11qt_propertyEiiP8QVariant
0001:00140848* __ZN23PropertyKeysequenceItem18qt_static_propertyEP7QObjectiiP8QVariant
0001:00140864* __ZNK20PropertyDatabaseItem9classNameEv
0001:00140870  __ZN20PropertyDatabaseItem2trEPKcS1_
0001:001408b0* __ZN20PropertyDatabaseItem6trUtf8EPKcS1_
0001:001408f0* __ZN20PropertyDatabaseItem16staticMetaObjectEv
0001:00140948* __ZN20PropertyDatabaseItem7qt_castEPKc
0001:001409d4* __ZN20PropertyDatabaseItem9qt_invokeEiP8QUObject
0001:001409f0* __ZN20PropertyDatabaseItem7qt_emitEiP8QUObject
0001:00140a0c* __ZN20PropertyDatabaseItem11qt_propertyEiiP8QVariant
0001:00140a28* __ZN20PropertyDatabaseItem18qt_static_propertyEP7QObjectiiP8QVariant
0001:00140a3c* __ZNK9EnumPopup9classNameEv
0001:00140a48* __ZN9EnumPopup2trEPKcS1_
0001:00140a88* __ZN9EnumPopup6trUtf8EPKcS1_
0001:00140b1c* __ZN9EnumPopup16staticMetaObjectEv
0001:00140b78* __ZN9EnumPopup7qt_castEPKc
0001:00140bd0  __ZN9EnumPopup6closedEv
0001:00140bf0  __ZN9EnumPopup6hiddenEv
0001:00140c10* __ZN9EnumPopup9qt_invokeEiP8QUObject
0001:00140c2c* __ZN9EnumPopup7qt_emitEiP8QUObject
0001:00140c84* __ZN9EnumPopup11qt_propertyEiiP8QVariant
0001:00140ca0* __ZN9EnumPopup18qt_static_propertyEP7QObjectiiP8QVariant
0001:00140cb0* __ZNK7EnumBox9classNameEv
0001:00140cbc* __ZN7EnumBox2trEPKcS1_
0001:00140cfc* __ZN7EnumBox6trUtf8EPKcS1_
0001:00140e6c* __ZN7EnumBox16staticMetaObjectEv
0001:00140ec8* __ZN7EnumBox7qt_castEPKc
0001:00140f20  __ZN7EnumBox16aboutToShowPopupEv
0001:00140f40  __ZN7EnumBox12valueChangedEv
0001:00140f60* __ZN7EnumBox9qt_invokeEiP8QUObject
0001:00140fcc* __ZN7EnumBox7qt_emitEiP8QUObject
0001:00141024* __ZN7EnumBox11qt_propertyEiiP8QVariant
0001:00141040* __ZN7EnumBox18qt_static_propertyEP7QObjectiiP8QVariant
0001:00141058* __ZNK16PropertyEnumItem9classNameEv
0001:00141064* __ZN16PropertyEnumItem2trEPKcS1_
0001:001410a4* __ZN16PropertyEnumItem6trUtf8EPKcS1_
0001:00141130* __ZN16PropertyEnumItem16staticMetaObjectEv
0001:0014118c* __ZN16PropertyEnumItem7qt_castEPKc
0001:00141218* __ZN16PropertyEnumItem9qt_invokeEiP8QUObject
0001:00141270* __ZN16PropertyEnumItem7qt_emitEiP8QUObject
0001:0014128c* __ZN16PropertyEnumItem11qt_propertyEiiP8QVariant
0001:001412a8* __ZN16PropertyEnumItem18qt_static_propertyEP7QObjectiiP8QVariant
0001:001412bc* __ZNK12PropertyList9classNameEv
0001:001412c8  __ZN12PropertyList2trEPKcS1_
0001:00141308* __ZN12PropertyList6trUtf8EPKcS1_
0001:00141598  __ZN12PropertyList16staticMetaObjectEv
0001:001415f4* __ZN12PropertyList7qt_castEPKc
0001:0014164c* __ZN12PropertyList9qt_invokeEiP8QUObject
0001:0014171c* __ZN12PropertyList7qt_emitEiP8QUObject
0001:00141738* __ZN12PropertyList11qt_propertyEiiP8QVariant
0001:00141754* __ZN12PropertyList18qt_static_propertyEP7QObjectiiP8QVariant
0001:00141768* __ZNK9EventList9classNameEv
0001:00141774  __ZN9EventList2trEPKcS1_
0001:001417b4* __ZN9EventList6trUtf8EPKcS1_
0001:00141914* __ZN9EventList16staticMetaObjectEv
0001:00141970* __ZN9EventList7qt_castEPKc
0001:001419c8* __ZN9EventList9qt_invokeEiP8QUObject
0001:00141a48* __ZN9EventList7qt_emitEiP8QUObject
0001:00141a64* __ZN9EventList11qt_propertyEiiP8QVariant
0001:00141a80* __ZN9EventList18qt_static_propertyEP7QObjectiiP8QVariant
0001:00141a98* __ZNK14PropertyEditor9classNameEv
0001:00141aa4  __ZN14PropertyEditor2trEPKcS1_
0001:00141ae4* __ZN14PropertyEditor6trUtf8EPKcS1_
0001:00141bcc* __ZN14PropertyEditor16staticMetaObjectEv
0001:00141c28* __ZN14PropertyEditor7qt_castEPKc
0001:00141c80  __ZN14PropertyEditor6hiddenEv
0001:00141ca0* __ZN14PropertyEditor9qt_invokeEiP8QUObject
0001:00141ce8* __ZN14PropertyEditor7qt_emitEiP8QUObject
0001:00141d28* __ZN14PropertyEditor11qt_propertyEiiP8QVariant
0001:00141d44* __ZN14PropertyEditor18qt_static_propertyEP7QObjectiiP8QVariant
0001:00141d5c* __ZNK16PropertyDateItem9classNameEv
0001:00141d68* __ZN16PropertyDateItem2trEPKcS1_
0001:00141da8* __ZN16PropertyDateItem6trUtf8EPKcS1_
0001:00141e00* __ZN16PropertyDateItem16staticMetaObjectEv
0001:00141e5c* __ZN16PropertyDateItem7qt_castEPKc
0001:00141ee8* __ZN16PropertyDateItem9qt_invokeEiP8QUObject
0001:00141f28* __ZN16PropertyDateItem7qt_emitEiP8QUObject
0001:00141f44* __ZN16PropertyDateItem11qt_propertyEiiP8QVariant
0001:00141f60* __ZN16PropertyDateItem18qt_static_propertyEP7QObjectiiP8QVariant
0001:00141f78* __ZNK16PropertyTimeItem9classNameEv
0001:00141f84* __ZN16PropertyTimeItem2trEPKcS1_
0001:00141fc4* __ZN16PropertyTimeItem6trUtf8EPKcS1_
0001:0014201c* __ZN16PropertyTimeItem16staticMetaObjectEv
0001:00142078* __ZN16PropertyTimeItem7qt_castEPKc
0001:00142104* __ZN16PropertyTimeItem9qt_invokeEiP8QUObject
0001:00142144* __ZN16PropertyTimeItem7qt_emitEiP8QUObject
0001:00142160* __ZN16PropertyTimeItem11qt_propertyEiiP8QVariant
0001:0014217c* __ZN16PropertyTimeItem18qt_static_propertyEP7QObjectiiP8QVariant
0001:00142198* __ZNK20PropertyDateTimeItem9classNameEv
0001:001421a4* __ZN20PropertyDateTimeItem2trEPKcS1_
0001:001421e4* __ZN20PropertyDateTimeItem6trUtf8EPKcS1_
0001:0014223c* __ZN20PropertyDateTimeItem16staticMetaObjectEv
0001:00142298* __ZN20PropertyDateTimeItem7qt_castEPKc
0001:00142324* __ZN20PropertyDateTimeItem9qt_invokeEiP8QUObject
0001:00142364* __ZN20PropertyDateTimeItem7qt_emitEiP8QUObject
0001:00142380* __ZN20PropertyDateTimeItem11qt_propertyEiiP8QVariant
0001:0014239c* __ZN20PropertyDateTimeItem18qt_static_propertyEP7QObjectiiP8QVariant
0002:000028c0* __ZN16PropertyTextItem7metaObjE
0002:000028c4* __ZN16PropertyBoolItem7metaObjE
0002:000028c8* __ZN15PropertyIntItem7metaObjE
0002:000028cc* __ZN18PropertyLayoutItem7metaObjE
0002:000028d0* __ZN18PropertyDoubleItem7metaObjE
0002:000028d4* __ZN16PropertyListItem7metaObjE
0002:000028d8* __ZN16PropertyFontItem7metaObjE
0002:000028dc* __ZN17PropertyCoordItem7metaObjE
0002:000028e0* __ZN17PropertyColorItem7metaObjE
0002:000028e4* __ZN18PropertyPixmapItem7metaObjE
0002:000028e8* __ZN22PropertySizePolicyItem7metaObjE
0002:000028ec* __ZN19PropertyPaletteItem7metaObjE
0002:000028f0* __ZN18PropertyCursorItem7metaObjE
0002:000028f4* __ZN23PropertyKeysequenceItem7metaObjE
0002:000028f8* __ZN20PropertyDatabaseItem7metaObjE
0002:000028fc* __ZN9EnumPopup7metaObjE
0002:00002900* __ZN7EnumBox7metaObjE
0002:00002904* __ZN16PropertyEnumItem7metaObjE
0002:00002908* __ZN12PropertyList7metaObjE
0002:0000290c* __ZN9EventList7metaObjE
0002:00002910* __ZN14PropertyEditor7metaObjE
0002:00002914* __ZN16PropertyDateItem7metaObjE
0002:00002918* __ZN16PropertyTimeItem7metaObjE
0002:0000291c* __ZN20PropertyDateTimeItem7metaObjE
0001:001423b0  __ZTV20PropertyDateTimeItem$w$1DBONTOF8U6etZi00
0001:00145714  __ZNK20PropertyDateTimeItem10metaObjectEv$w$1DBONTOF8U6etZi00
0001:0014522c* __ZN13QListViewItem10removeItemEPS_$w$1DBONTOF8U6etZi00
0001:001452e8* __ZN12PropertyItem5setupEv$w$1DBONTOF8U6etZi00
0001:00142510  __ZTV16PropertyTimeItem$w$1DBONTOF8U6etZi00
0001:00145708  __ZNK16PropertyTimeItem10metaObjectEv$w$1DBONTOF8U6etZi00
0001:00142670  __ZTV16PropertyDateItem$w$1DBONTOF8U6etZi00
0001:001456fc  __ZNK16PropertyDateItem10metaObjectEv$w$1DBONTOF8U6etZi00
0001:001427d0  __ZTV14PropertyEditor$w$1DBONTOF8U6etZi00
0001:001456f0  __ZNK14PropertyEditor10metaObjectEv$w$1DBONTOF8U6etZi00
0001:00145690  __ZN14PropertyEditorD1Ev$w$1DBONTOF8U6etZi00
0001:001456bc  __ZN14PropertyEditorD0Ev$w$1DBONTOF8U6etZi00
0001:001451cc* __ZN7QWidget11setGeometryERK5QRect$w$1DBONTOF8U6etZi00
0001:00145204* __ZN7QWidget9setWStateEj$w$1DBONTOF8U6etZi00
0001:00145218* __ZN7QWidget9setWFlagsEj$w$1DBONTOF8U6etZi00
0001:001456b4  __ZThn40_N14PropertyEditorD1Ev$w$1DBONTOF8U6etZi00
0001:001456e8  __ZThn40_N14PropertyEditorD0Ev$w$1DBONTOF8U6etZi00
0001:001429f0  __ZTV9EventList$w$1DBONTOF8U6etZi00
0001:00145684  __ZNK9EventList10metaObjectEv$w$1DBONTOF8U6etZi00
0001:00145624  __ZN9EventListD1Ev$w$1DBONTOF8U6etZi00
0001:00145650  __ZN9EventListD0Ev$w$1DBONTOF8U6etZi00
0001:00145260  __ZN13HierarchyList18drawContentsOffsetEP8QPainteriiiiii$w$1DBONTOF8U6etZi00
0001:00145244  __ZN9QListView10removeItemEP13QListViewItem$w$1DBONTOF8U6etZi00
0001:00145648  __ZThn40_N9EventListD1Ev$w$1DBONTOF8U6etZi00
0001:0014567c  __ZThn40_N9EventListD0Ev$w$1DBONTOF8U6etZi00
0001:00142d30  __ZTV12PropertyList$w$1DBONTOF8U6etZi00
0001:00145618  __ZNK12PropertyList10metaObjectEv$w$1DBONTOF8U6etZi00
0001:001454a0  __ZN12PropertyListD1Ev$w$1DBONTOF8U6etZi00
0001:00145558  __ZN12PropertyListD0Ev$w$1DBONTOF8U6etZi00
0001:0014554c  __ZThn40_N12PropertyListD1Ev$w$1DBONTOF8U6etZi00
0001:0014560c  __ZThn40_N12PropertyListD0Ev$w$1DBONTOF8U6etZi00
0001:00143070  __ZTV16PropertyEnumItem$w$1DBONTOF8U6etZi00
0001:00145494  __ZNK16PropertyEnumItem10metaObjectEv$w$1DBONTOF8U6etZi00
0001:001431f0  __ZTV7EnumBox$w$1DBONTOF8U6etZi00
0001:001453dc  __ZNK7EnumBox10metaObjectEv$w$1DBONTOF8U6etZi00
0001:001453e8  __ZN7EnumBoxD1Ev$w$1DBONTOF8U6etZi00
0001:0014543c  __ZN7EnumBoxD0Ev$w$1DBONTOF8U6etZi00
0001:00145434  __ZThn40_N7EnumBoxD1Ev$w$1DBONTOF8U6etZi00
0001:0014548c  __ZThn40_N7EnumBoxD0Ev$w$1DBONTOF8U6etZi00
0001:00143410  __ZTV9EnumPopup$w$1DBONTOF8U6etZi00
0001:001453d0  __ZNK9EnumPopup10metaObjectEv$w$1DBONTOF8U6etZi00
0001:00143630  __ZTV20PropertyDatabaseItem$w$1DBONTOF8U6etZi00
0001:001453c4  __ZNK20PropertyDatabaseItem10metaObjectEv$w$1DBONTOF8U6etZi00
0001:001437b0  __ZTV23PropertyKeysequenceItem$w$1DBONTOF8U6etZi00
0001:001453b8  __ZNK23PropertyKeysequenceItem10metaObjectEv$w$1DBONTOF8U6etZi00
0001:00143910  __ZTV18PropertyCursorItem$w$1DBONTOF8U6etZi00
0001:001453ac  __ZNK18PropertyCursorItem10metaObjectEv$w$1DBONTOF8U6etZi00
0001:00143a70  __ZTV19PropertyPaletteItem$w$1DBONTOF8U6etZi00
0001:001453a0  __ZNK19PropertyPaletteItem10metaObjectEv$w$1DBONTOF8U6etZi00
0001:00143bf0  __ZTV22PropertySizePolicyItem$w$1DBONTOF8U6etZi00
0001:00145394  __ZNK22PropertySizePolicyItem10metaObjectEv$w$1DBONTOF8U6etZi00
0001:00143d70  __ZTV18PropertyPixmapItem$w$1DBONTOF8U6etZi00
0001:00145388  __ZNK18PropertyPixmapItem10metaObjectEv$w$1DBONTOF8U6etZi00
0001:00143ef0  __ZTV17PropertyColorItem$w$1DBONTOF8U6etZi00
0001:0014537c  __ZNK17PropertyColorItem10metaObjectEv$w$1DBONTOF8U6etZi00
0001:00144070  __ZTV17PropertyCoordItem$w$1DBONTOF8U6etZi00
0001:00145370  __ZNK17PropertyCoordItem10metaObjectEv$w$1DBONTOF8U6etZi00
0001:001441f0  __ZTV16PropertyFontItem$w$1DBONTOF8U6etZi00
0001:00145364  __ZNK16PropertyFontItem10metaObjectEv$w$1DBONTOF8U6etZi00
0001:00144370  __ZTV16PropertyListItem$w$1DBONTOF8U6etZi00
0001:00145358  __ZNK16PropertyListItem10metaObjectEv$w$1DBONTOF8U6etZi00
0001:001444f0  __ZTV18PropertyDoubleItem$w$1DBONTOF8U6etZi00
0001:0014534c  __ZNK18PropertyDoubleItem10metaObjectEv$w$1DBONTOF8U6etZi00
0001:00144650  __ZTV18PropertyLayoutItem$w$1DBONTOF8U6etZi00
0001:00145340  __ZNK18PropertyLayoutItem10metaObjectEv$w$1DBONTOF8U6etZi00
0001:001447b0  __ZTV15PropertyIntItem$w$1DBONTOF8U6etZi00
0001:00145334  __ZNK15PropertyIntItem10metaObjectEv$w$1DBONTOF8U6etZi00
0001:00144910  __ZTV16PropertyBoolItem$w$1DBONTOF8U6etZi00
0001:00145328  __ZNK16PropertyBoolItem10metaObjectEv$w$1DBONTOF8U6etZi00
0001:00144a70  __ZTV16PropertyTextItem$w$1DBONTOF8U6etZi00
0001:0014531c  __ZNK16PropertyTextItem10metaObjectEv$w$1DBONTOF8U6etZi00
0001:00144bf0* __ZTV6QGList$w$1DBONTOF8U6etZi00
0001:001451c0* __ZNK6QGList5countEv$w$1DBONTOF8U6etZi00
0001:00145720* __ZN11QMapPrivateI7QStringS0_E5clearEv$w$1DBONTOF8U6etZi00
0001:0014575c* __ZN11QMapPrivateI7QStringS0_E5clearEP8QMapNodeIS0_S0_E$w$1DBONTOF8U6etZi00
Module: C:\200\trunk\lib\designercore.lib(formsettings.obj)
0001:001459e0  __ZN16FormSettingsBaseC2EP7QWidgetPKcbj
0001:0014843c  __ZN16FormSettingsBase14languageChangeEv
0001:00146908* __ZN16FormSettingsBaseC1EP7QWidgetPKcbj
0001:00147830  __ZN16FormSettingsBaseD2Ev
0001:00147854  __ZN16FormSettingsBaseD1Ev
0001:00147880  __ZN16FormSettingsBaseD0Ev
0001:00148ef8  __ZN16FormSettingsBase9okClickedEv
0001:00147878  __ZThn40_N16FormSettingsBaseD1Ev$w$fGryfVLF8U6XGp7w3
0001:001478ac  __ZThn40_N16FormSettingsBaseD0Ev$w$fGryfVLF8U6XGp7w3
0001:00148f10* __ZTV6QGList$w$fGryfVLF8U6XGp7w3
0001:00148f3c* __ZNK6QGList5countEv$w$fGryfVLF8U6XGp7w3
Module: C:\200\trunk\lib\designercore.lib(popupmenueditor.obj)
0001:00148f6c* __ZN26PopupMenuEditorItemPtrDragC2EP19PopupMenuEditorItemP7QWidgetPKc
0001:0014901c* __ZN26PopupMenuEditorItemPtrDragC1EP19PopupMenuEditorItemP7QWidgetPKc
0001:001490cc* __ZN26PopupMenuEditorItemPtrDrag9canDecodeEP14QDragMoveEvent
0001:001490e8* __ZN26PopupMenuEditorItemPtrDrag6decodeEP10QDropEventPP19PopupMenuEditorItem
0001:001491c4* __ZN19PopupMenuEditorItemC2EP15PopupMenuEditorP7QObjectPKc
0001:0014951c* __ZN19PopupMenuEditorItem4initEv
0001:0014923c* __ZN19PopupMenuEditorItemC1EP15PopupMenuEditorP7QObjectPKc
0001:001492b4* __ZN19PopupMenuEditorItemC2EP7QActionP15PopupMenuEditorP7QObjectPKc
0001:00149330* __ZN19PopupMenuEditorItemC1EP7QActionP15PopupMenuEditorP7QObjectPKc
0001:001493ac* __ZN19PopupMenuEditorItemC2EPS_P15PopupMenuEditorP7QObjectPKc
0001:00149430* __ZN19PopupMenuEditorItemC1EPS_P15PopupMenuEditorP7QObjectPKc
0001:001494b4* __ZN19PopupMenuEditorItemD2Ev
0001:001494d0  __ZN19PopupMenuEditorItemD1Ev
0001:001494ec  __ZN19PopupMenuEditorItemD0Ev
0001:0014997c  __ZN15PopupMenuEditorC1EP10FormWindowP7QWidgetPKc
0001:00149600* __ZNK19PopupMenuEditorItem4typeEv
0001:00149624* __ZN19PopupMenuEditorItem10setVisibleEb
0001:00149648* __ZNK19PopupMenuEditorItem9isVisibleEv
0001:001496b0* __ZN19PopupMenuEditorItem8showMenuEii
0001:00149708  __ZN19PopupMenuEditorItem8hideMenuEv
0001:0014ac98  __ZN15PopupMenuEditor11hideSubMenuEv
0001:00149738* __ZN19PopupMenuEditorItem11focusOnMenuEv
0001:0014abe4  __ZN15PopupMenuEditor11showSubMenuEv
0001:00149768* __ZNK19PopupMenuEditorItem5countEv
0001:0014a34c  __ZN15PopupMenuEditor5countEv
0001:001497b4  __ZN19PopupMenuEditorItem11eventFilterEP7QObjectP6QEvent
0001:0014a2bc  __ZN15PopupMenuEditor4findEPK7QAction
0001:0014a100  __ZN15PopupMenuEditor6insertEP12QActionGroupi
0001:0014a09c  __ZN15PopupMenuEditor6insertEP7QActioni
0001:00149834  __ZN19PopupMenuEditorItem12selfDestructEv
0001:0014a304* __ZN15PopupMenuEditor4findEPS_
0001:0014ad10  __ZN15PopupMenuEditor6removeEi
0001:001498a0* __ZN15PopupMenuEditorC2EP10FormWindowP7QWidgetPKc
0001:00149e44* __ZN15PopupMenuEditor4initEv
0001:00149a58* __ZN15PopupMenuEditorC2EP10FormWindowPS_P7QWidgetPKc
0001:00149ba0  __ZN15PopupMenuEditorC1EP10FormWindowPS_P7QWidgetPKc
0001:00149ce8* __ZN15PopupMenuEditorD2Ev
0001:00149d4c  __ZN15PopupMenuEditorD1Ev
0001:00149db8  __ZN15PopupMenuEditorD0Ev
0001:00149fe4  __ZN15PopupMenuEditor6insertEP19PopupMenuEditorItemi
0001:0014ab84  __ZN15PopupMenuEditor16resizeToContentsEv
0001:0014a35c  __ZN15PopupMenuEditor2atEi
0001:0014a380  __ZN15PopupMenuEditor8exchangeEii
0001:0014a418  __ZN15PopupMenuEditor3cutEi
0001:0014a518  __ZN15PopupMenuEditor4copyEi
0001:0014a598  __ZN15PopupMenuEditor5pasteEi
0001:0014a688  __ZN15PopupMenuEditor15insertedActionsER8QPtrListI7QActionE
0001:0014a6d4  __ZN15PopupMenuEditor4showEv
0001:0014a6fc* __ZN15PopupMenuEditor12choosePixmapEi
0001:0014add4* __ZN15PopupMenuEditor10createItemEP7QAction
0001:0014a854* __ZN15PopupMenuEditor12showLineEditEi
0001:0014cbcc* __ZNK15PopupMenuEditor10itemHeightEPK19PopupMenuEditorItem
0001:0014cffc* __ZNK15PopupMenuEditor7itemPosEPK19PopupMenuEditorItem
0001:0014a96c* __ZN15PopupMenuEditor14setAcceleratorEiN2Qt11ButtonStateEi
0001:0014c858* __ZN15PopupMenuEditor12contentsSizeEv
0001:0014acd4  __ZN15PopupMenuEditor14focusOnSubMenuEv
0001:0014af94* __ZN15PopupMenuEditor10removeItemEi
0001:0014b078* __ZN15PopupMenuEditor11currentItemEv
0001:0014b0bc  __ZN15PopupMenuEditor6itemAtEi
0001:0014b140* __ZN15PopupMenuEditor10setFocusAtERK6QPoint
0001:0014b22c  __ZN15PopupMenuEditor11eventFilterEP7QObjectP6QEvent
0001:0014d8a8* __ZN15PopupMenuEditor13leaveEditModeEP9QKeyEvent
0001:0014b278  __ZN15PopupMenuEditor10paintEventEP11QPaintEvent
0001:0014c5e0* __ZN15PopupMenuEditor9drawItemsEP8QPainter
0001:0014b47c  __ZN15PopupMenuEditor15mousePressEventEP11QMouseEvent
0001:0014b4c0  __ZN15PopupMenuEditor21mouseDoubleClickEventEP11QMouseEvent
0001:0014b574  __ZN15PopupMenuEditor14mouseMoveEventEP11QMouseEvent
0001:0014b868  __ZN15PopupMenuEditor14dragEnterEventEP15QDragEnterEvent
0001:0014b8d0  __ZN15PopupMenuEditor14dragLeaveEventEP15QDragLeaveEvent
0001:0014b8ec  __ZN15PopupMenuEditor13dragMoveEventEP14QDragMoveEvent
0001:0014d048* __ZN15PopupMenuEditor10snapToItemEi
0001:0014b9a4  __ZN15PopupMenuEditor9dropEventEP10QDropEvent
0001:0014d0b0* __ZN15PopupMenuEditor11dropInPlaceEP19PopupMenuEditorItemi
0001:0014d1c0* __ZN15PopupMenuEditor11dropInPlaceEP12QActionGroupi
0001:0014bd44  __ZN15PopupMenuEditor13keyPressEventEP9QKeyEvent
0001:0014d7e8* __ZN15PopupMenuEditor13enterEditModeEP9QKeyEvent
0001:0014d3a0* __ZN15PopupMenuEditor17clearCurrentFieldEv
0001:0014d6f8* __ZN15PopupMenuEditor12navigateLeftEv
0001:0014d5f8* __ZN15PopupMenuEditor12navigateDownEb
0001:0014d4f4* __ZN15PopupMenuEditor10navigateUpEb
0001:0014d78c* __ZN15PopupMenuEditor13navigateRightEv
0001:0014c034  __ZN15PopupMenuEditor12focusInEventEP11QFocusEvent
0001:0014c064  __ZN15PopupMenuEditor13focusOutEventEP11QFocusEvent
0001:0014c0e4* __ZNK15PopupMenuEditor8drawItemEP8QPainterP19PopupMenuEditorItemRK5QRecti
0001:0014c4d8* __ZNK15PopupMenuEditor16drawWinFocusRectEP8QPainterRK5QRect
0001:0014d2d0* __ZN15PopupMenuEditor7safeDecEv
0001:0014d344* __ZN15PopupMenuEditor7safeIncEv
0001:0014dc30* __ZN15PopupMenuEditor13constructNameEP19PopupMenuEditorItem
0002:00002aa0* __ZN15PopupMenuEditor11draggedItemE
0002:00002aa4* __ZN15PopupMenuEditor18clipboardOperationE
0002:00002aa8* __ZN15PopupMenuEditor13clipboardItemE
0001:0014e030  __ZTV26PopupMenuEditorItemPtrDrag$w$POwHfmKF8U6G4Rzq2
0001:0014e200* __ZTV9QMemArrayIcE$w$POwHfmKF8U6G4Rzq2
0001:0014df70* __Z7qt_castIP16QSeparatorActionET_PK7QObject$w$POwHfmKF8U6G4Rzq2
0001:0014df54* __Z7qt_castIP12QActionGroupET_PK7QObject$w$POwHfmKF8U6G4Rzq2
0001:0014df8c* __Z7qt_castIP7QActionET_PK7QObject$w$POwHfmKF8U6G4Rzq2
0001:0014e0d0  __ZTV8QPtrListI19PopupMenuEditorItemE$w$POwHfmKF8U6G4Rzq2
0001:00149db0  __ZThn40_N15PopupMenuEditorD1Ev$w$POwHfmKF8U6G4Rzq2
0001:00149e24  __ZThn40_N15PopupMenuEditorD0Ev$w$POwHfmKF8U6G4Rzq2
0001:0014e110  __ZTV13ActionCommand$w$POwHfmKF8U6G4Rzq2
0001:0014dfa8* __Z7qt_castIP20QDesignerActionGroupET_PK7QObject$w$POwHfmKF8U6G4Rzq2
0001:0014dfc4* __Z7qt_castIP15QDesignerActionET_PK7QObject$w$POwHfmKF8U6G4Rzq2
0001:0014dfe0* __Z7qt_castIP15PopupMenuEditorET_PK7QObject$w$POwHfmKF8U6G4Rzq2
0001:0014dffc* __Z7qt_castIP13MenuBarEditorET_PK7QObject$w$POwHfmKF8U6G4Rzq2
0001:0014e150* __ZTV11QObjectList$w$POwHfmKF8U6G4Rzq2
0001:0014e190* __ZTV8QPtrListI7QObjectE$w$POwHfmKF8U6G4Rzq2
0001:0014e244* __ZNK11QStoredDrag10metaObjectEv$w$POwHfmKF8U6G4Rzq2
0001:0014e310  __ZN26PopupMenuEditorItemPtrDragD1Ev$w$POwHfmKF8U6G4Rzq2
0001:0014e33c  __ZN26PopupMenuEditorItemPtrDragD0Ev$w$POwHfmKF8U6G4Rzq2
0001:0014e334  __ZThn40_N26PopupMenuEditorItemPtrDragD1Ev$w$POwHfmKF8U6G4Rzq2
0001:0014e368  __ZThn40_N26PopupMenuEditorItemPtrDragD0Ev$w$POwHfmKF8U6G4Rzq2
0001:0014e408  __ZNK8QPtrListI19PopupMenuEditorItemE5countEv$w$POwHfmKF8U6G4Rzq2
0001:0014e3cc  __ZN8QPtrListI19PopupMenuEditorItemE5clearEv$w$POwHfmKF8U6G4Rzq2
0001:0014e3a4  __ZN8QPtrListI19PopupMenuEditorItemED1Ev$w$POwHfmKF8U6G4Rzq2
0001:0014e3d8  __ZN8QPtrListI19PopupMenuEditorItemED0Ev$w$POwHfmKF8U6G4Rzq2
0001:0014e46c  __ZN8QPtrListI19PopupMenuEditorItemE10deleteItemEPv$w$POwHfmKF8U6G4Rzq2
0001:0014e2f4  __ZN13ActionCommandD1Ev$w$POwHfmKF8U6G4Rzq2
0001:0014e2cc  __ZN13ActionCommandD0Ev$w$POwHfmKF8U6G4Rzq2
0001:0014e398* __ZNK8QPtrListI7QObjectE5countEv$w$POwHfmKF8U6G4Rzq2
0001:0014e250* __ZN8QPtrListI7QObjectE5clearEv$w$POwHfmKF8U6G4Rzq2
0001:0014e25c* __ZN11QObjectListD1Ev$w$POwHfmKF8U6G4Rzq2
0001:0014e290* __ZN11QObjectListD0Ev$w$POwHfmKF8U6G4Rzq2
0001:0014e494* __ZN8QPtrListI7QObjectE10deleteItemEPv$w$POwHfmKF8U6G4Rzq2
0001:0014e414* __ZN8QPtrListI7QObjectED1Ev$w$POwHfmKF8U6G4Rzq2
0001:0014e43c* __ZN8QPtrListI7QObjectED0Ev$w$POwHfmKF8U6G4Rzq2
0001:0014e1d0* __ZTV6QGList$w$POwHfmKF8U6G4Rzq2
0001:0014e238* __ZNK6QGList5countEv$w$POwHfmKF8U6G4Rzq2
0001:0014e21c* __ZN9QMemArrayIcED1Ev$w$POwHfmKF8U6G4Rzq2
0001:0014e370* __ZN9QMemArrayIcED0Ev$w$POwHfmKF8U6G4Rzq2
0001:0014e4bc* __ZN9QMemArrayIcE6detachEv$w$POwHfmKF8U6G4Rzq2
Module: C:\200\trunk\lib\designercore.lib(moc_multilineeditorimpl.obj)
0001:0014e4fc* __ZNK8TextEdit9classNameEv
0001:0014e508* __ZN8TextEdit2trEPKcS1_
0001:0014e548* __ZN8TextEdit6trUtf8EPKcS1_
0001:0014e588* __ZN8TextEdit16staticMetaObjectEv
0001:0014e5e0* __ZN8TextEdit7qt_castEPKc
0001:0014e638* __ZN8TextEdit9qt_invokeEiP8QUObject
0001:0014e654* __ZN8TextEdit7qt_emitEiP8QUObject
0001:0014e670* __ZN8TextEdit11qt_propertyEiiP8QVariant
0001:0014e68c* __ZN8TextEdit18qt_static_propertyEP7QObjectiiP8QVariant
0001:0014e6a0* __ZNK11ToolBarItem9classNameEv
0001:0014e6ac* __ZN11ToolBarItem2trEPKcS1_
0001:0014e6ec* __ZN11ToolBarItem6trUtf8EPKcS1_
0001:0014e7b0* __ZN11ToolBarItem16staticMetaObjectEv
0001:0014e80c* __ZN11ToolBarItem7qt_castEPKc
0001:0014e864  __ZN11ToolBarItem7clickedERK7QString
0001:0014e8b8* __ZN11ToolBarItem9qt_invokeEiP8QUObject
0001:0014e8f8* __ZN11ToolBarItem7qt_emitEiP8QUObject
0001:0014e940* __ZN11ToolBarItem11qt_propertyEiiP8QVariant
0001:0014e95c* __ZN11ToolBarItem18qt_static_propertyEP7QObjectiiP8QVariant
0001:0014e974* __ZNK15MultiLineEditor9classNameEv
0001:0014e980  __ZN15MultiLineEditor2trEPKcS1_
0001:0014e9c0* __ZN15MultiLineEditor6trUtf8EPKcS1_
0001:0014ec10  __ZN15MultiLineEditor16staticMetaObjectEv
0001:0014ec6c* __ZN15MultiLineEditor7qt_castEPKc
0001:0014ecc4* __ZN15MultiLineEditor9qt_invokeEiP8QUObject
0001:0014eda0* __ZN15MultiLineEditor7qt_emitEiP8QUObject
0001:0014edbc* __ZN15MultiLineEditor11qt_propertyEiiP8QVariant
0001:0014edd8* __ZN15MultiLineEditor18qt_static_propertyEP7QObjectiiP8QVariant
0002:00002ab0* __ZN8TextEdit7metaObjE
0002:00002ab4* __ZN11ToolBarItem7metaObjE
0002:00002ab8* __ZN15MultiLineEditor7metaObjE
0001:0014edf0  __ZTV15MultiLineEditor$w$vKBOA3QF8U6OBSf94
0001:0014f8c4  __ZNK15MultiLineEditor10metaObjectEv$w$vKBOA3QF8U6OBSf94
0001:0014f7a0  __ZN15MultiLineEditorD1Ev$w$vKBOA3QF8U6OBSf94
0001:0014f830  __ZN15MultiLineEditorD0Ev$w$vKBOA3QF8U6OBSf94
0001:0014f5b8* __ZN7QWidget11setGeometryERK5QRect$w$vKBOA3QF8U6OBSf94
0001:0014f5f0* __ZN7QWidget9setWStateEj$w$vKBOA3QF8U6OBSf94
0001:0014f604* __ZN7QWidget9setWFlagsEj$w$vKBOA3QF8U6OBSf94
0001:0014f824  __ZThn40_N15MultiLineEditorD1Ev$w$vKBOA3QF8U6OBSf94
0001:0014f8b8  __ZThn40_N15MultiLineEditorD0Ev$w$vKBOA3QF8U6OBSf94
0001:0014f050  __ZTV11ToolBarItem$w$vKBOA3QF8U6OBSf94
0001:0014f794  __ZNK11ToolBarItem10metaObjectEv$w$vKBOA3QF8U6OBSf94
0001:0014f0f0  __ZTV8TextEdit$w$vKBOA3QF8U6OBSf94
0001:0014f788  __ZNK8TextEdit10metaObjectEv$w$vKBOA3QF8U6OBSf94
0001:0014f728  __ZN8TextEditD1Ev$w$vKBOA3QF8U6OBSf94
0001:0014f754  __ZN8TextEditD0Ev$w$vKBOA3QF8U6OBSf94
0001:0014f618  __ZN9QTextEdit6zoomInEv$w$vKBOA3QF8U6OBSf94
0001:0014f634  __ZN9QTextEdit7zoomOutEv$w$vKBOA3QF8U6OBSf94
0001:0014f68c  __ZN9QTextEdit14setCurrentFontERK5QFont$w$vKBOA3QF8U6OBSf94
0001:0014f650  __ZN9QTextEdit16setOverwriteModeEb$w$vKBOA3QF8U6OBSf94
0001:0014f674  __ZNK9QTextEdit12linksEnabledEv$w$vKBOA3QF8U6OBSf94
0001:0014f67c  __ZN9QTextEdit15emitHighlightedERK7QString$w$vKBOA3QF8U6OBSf94
0001:0014f684  __ZN9QTextEdit15emitLinkClickedERK7QString$w$vKBOA3QF8U6OBSf94
0001:0014f74c  __ZThn40_N8TextEditD1Ev$w$vKBOA3QF8U6OBSf94
0001:0014f780  __ZThn40_N8TextEditD0Ev$w$vKBOA3QF8U6OBSf94
0001:0014f4a8* __ZTV19QTextCommandHistory$w$vKBOA3QF8U6OBSf94
0001:0014f698* __ZN19QTextCommandHistoryD1Ev$w$vKBOA3QF8U6OBSf94
0001:0014f6dc* __ZN19QTextCommandHistoryD0Ev$w$vKBOA3QF8U6OBSf94
0001:0014f4d0* __ZTV6QGList$w$vKBOA3QF8U6OBSf94
0001:0014f5ac* __ZNK6QGList5countEv$w$vKBOA3QF8U6OBSf94
0001:0014f8d0* __ZTV8QPtrListI12QTextCommandE$w$vKBOA3QF8U6OBSf94
0001:0014f930* __ZNK8QPtrListI12QTextCommandE5countEv$w$vKBOA3QF8U6OBSf94
0001:0014f924* __ZN8QPtrListI12QTextCommandE5clearEv$w$vKBOA3QF8U6OBSf94
0001:0014f8fc* __ZN8QPtrListI12QTextCommandED1Ev$w$vKBOA3QF8U6OBSf94
0001:0014f93c* __ZN8QPtrListI12QTextCommandED0Ev$w$vKBOA3QF8U6OBSf94
0001:0014f96c* __ZN8QPtrListI12QTextCommandE10deleteItemEPv$w$vKBOA3QF8U6OBSf94
Module: C:\200\trunk\lib\designercore.lib(customwidgeteditorimpl.obj)
0001:0014fa10* __ZN18CustomWidgetEditorC2EP7QWidgetP10MainWindow
0001:00150028* __ZN18CustomWidgetEditor15setupDefinitionEv
0001:0015013c* __ZN18CustomWidgetEditor12setupSignalsEv
0001:001502c0* __ZN18CustomWidgetEditor10setupSlotsEv
0001:00150680* __ZN18CustomWidgetEditor15setupPropertiesEv
0001:0014fd1c  __ZN18CustomWidgetEditorC1EP7QWidgetP10MainWindow
0001:00151680* __ZN18CustomWidgetEditor10findWidgetEP12QListBoxItem
0001:00150a40  __ZN18CustomWidgetEditor20currentWidgetChangedEP12QListBoxItem
0001:001518d4  __ZN18CustomWidgetEditor15checkWidgetNameEv
0001:00150e80  __ZN18CustomWidgetEditor16addWidgetClickedEv
0001:00151030  __ZN18CustomWidgetEditor16classNameChangedERK7QString
0001:001511d0  __ZN18CustomWidgetEditor19deleteWidgetClickedEv
0001:001513cc  __ZN18CustomWidgetEditor17headerFileChangedERK7QString
0001:00151424  __ZN18CustomWidgetEditor13heightChangedEi
0001:00155a5c* __ZN18CustomWidgetEditor23updateCustomWidgetSizesEv
0001:00151478  __ZN18CustomWidgetEditor20includePolicyChangedEi
0001:001514bc  __ZN18CustomWidgetEditor13pixmapChoosenEv
0001:0015162c  __ZN18CustomWidgetEditor12widthChangedEi
0001:00151734  __ZN18CustomWidgetEditor12chooseHeaderEv
0001:00151abc  __ZN18CustomWidgetEditor12closeClickedEv
0001:00151af8  __ZN18CustomWidgetEditor20currentSignalChangedEP12QListBoxItem
0001:00151c4c  __ZN18CustomWidgetEditor9addSignalEv
0001:00151da0  __ZN18CustomWidgetEditor12removeSignalEv
0001:00151ec8  __ZN18CustomWidgetEditor17signalNameChangedERK7QString
0001:00152128  __ZN18CustomWidgetEditor17slotAccessChangedERK7QString
0001:001525b0  __ZN18CustomWidgetEditor15slotNameChangedERK7QString
0001:00152a54  __ZN18CustomWidgetEditor7addSlotEv
0001:00152f08  __ZN18CustomWidgetEditor10removeSlotEv
0001:001532a8  __ZN18CustomWidgetEditor18currentSlotChangedEP13QListViewItem
0001:001534e0  __ZN18CustomWidgetEditor19propertyTypeChangedERK7QString
0001:00153848  __ZN18CustomWidgetEditor19propertyNameChangedERK7QString
0001:00153bc0  __ZN18CustomWidgetEditor11addPropertyEv
0001:00153f50  __ZN18CustomWidgetEditor14removePropertyEv
0001:001541cc  __ZN18CustomWidgetEditor22currentPropertyChangedEP13QListViewItem
0001:001548c0  __ZN18CustomWidgetEditor15saveDescriptionEv
0001:001556bc  __ZN18CustomWidgetEditor15loadDescriptionEv
0001:00155acc  __ZN18CustomWidgetEditor14horDataChangedEi
0001:00155c60  __ZN18CustomWidgetEditor14verDataChangedEi
0001:00155df8  __ZN18CustomWidgetEditor17widgetIsContainerEb
0001:00155e68  __ZN11QMapPrivateIP12QListBoxItemPN12MetaDataBase12CustomWidgetEEC1Ev$w$74YZAFEF8U66ytq63
0001:00156e30* __ZTV11QObjectList$w$74YZAFEF8U66ytq63
0001:00155ea4  __ZN4QMapIP12QListBoxItemPN12MetaDataBase12CustomWidgetEE6insertERKS1_RKS4_b$w$74YZAFEF8U66ytq63
0001:00155f08* __ZN10QValueListI8QCStringE14detachInternalEv$w$74YZAFEF8U66ytq63
0001:00155f38* __ZN10QValueListIN12MetaDataBase8FunctionEE14detachInternalEv$w$74YZAFEF8U66ytq63
0001:00155f68* __ZN10QValueListIN12MetaDataBase8PropertyEE14detachInternalEv$w$74YZAFEF8U66ytq63
0001:00155f98  __ZN4QMapIP12QListBoxItemPN12MetaDataBase12CustomWidgetEE6removeERKS1_$w$74YZAFEF8U66ytq63
0001:00156034  __ZNK11QMapPrivateIP12QListBoxItemPN12MetaDataBase12CustomWidgetEE4findERKS1_$w$74YZAFEF8U66ytq63
0001:00156084  __ZN4QMapIP12QListBoxItemPN12MetaDataBase12CustomWidgetEE14detachInternalEv$w$74YZAFEF8U66ytq63
0001:001560b4* __ZN17QValueListPrivateI8QCStringE6insertE18QValueListIteratorIS0_ERKS0_$w$74YZAFEF8U66ytq63
0001:00156118  __ZN17QValueListPrivateI8QCStringE6removeERKS0_$w$74YZAFEF8U66ytq63
0001:001561b4  __ZNK17QValueListPrivateI8QCStringE4findEP14QValueListNodeIS0_ERKS0_$w$74YZAFEF8U66ytq63
0001:00156278  __ZN17QValueListPrivateI8QCStringE6removeE18QValueListIteratorIS0_E$w$74YZAFEF8U66ytq63
0001:001562ec* __ZNK17QValueListPrivateIN12MetaDataBase8FunctionEE4findEP14QValueListNodeIS1_ERKS1_$w$74YZAFEF8U66ytq63
0001:001563e4* __ZN17QValueListPrivateIN12MetaDataBase8FunctionEE6removeE18QValueListIteratorIS1_E$w$74YZAFEF8U66ytq63
0001:00156514* __ZN17QValueListPrivateIN12MetaDataBase8FunctionEE6insertE18QValueListIteratorIS1_ERKS1_$w$74YZAFEF8U66ytq63
0001:001565c4  __ZN17QValueListPrivateIN12MetaDataBase8FunctionEE6removeERKS1_$w$74YZAFEF8U66ytq63
0001:001566e4  __ZNK17QValueListPrivateIN12MetaDataBase8PropertyEE4findEP14QValueListNodeIS1_ERKS1_$w$74YZAFEF8U66ytq63
0001:00156778  __ZN17QValueListPrivateIN12MetaDataBase8PropertyEE6removeE18QValueListIteratorIS1_E$w$74YZAFEF8U66ytq63
0001:0015680c* __ZN17QValueListPrivateIN12MetaDataBase8PropertyEE6insertE18QValueListIteratorIS1_ERKS1_$w$74YZAFEF8U66ytq63
0001:0015687c  __ZN17QValueListPrivateIN12MetaDataBase8PropertyEE6removeERKS1_$w$74YZAFEF8U66ytq63
0001:00156934  __ZN11QMapPrivateIP12QListBoxItemPN12MetaDataBase12CustomWidgetEE12insertSingleERKS1_$w$74YZAFEF8U66ytq63
0001:001569d0* __ZN17QValueListPrivateI8QCStringEC1ERKS1_$w$74YZAFEF8U66ytq63
0001:00156a60* __ZN17QValueListPrivateIN12MetaDataBase8FunctionEEC1ERKS2_$w$74YZAFEF8U66ytq63
0001:00156b74* __ZN17QValueListPrivateIN12MetaDataBase8PropertyEEC1ERKS2_$w$74YZAFEF8U66ytq63
0001:00156c1c  __ZN11QMapPrivateIP12QListBoxItemPN12MetaDataBase12CustomWidgetEEC1EPKS5_$w$74YZAFEF8U66ytq63
0001:00156cb4  __ZN11QMapPrivateIP12QListBoxItemPN12MetaDataBase12CustomWidgetEE6insertEP12QMapNodeBaseS7_RKS1_$w$74YZAFEF8U66ytq63
0001:00156d48  __ZN12QMapIteratorIP12QListBoxItemPN12MetaDataBase12CustomWidgetEE3decEv$w$74YZAFEF8U66ytq63
0001:00156da0  __ZN11QMapPrivateIP12QListBoxItemPN12MetaDataBase12CustomWidgetEE4copyEP8QMapNodeIS1_S4_E$w$74YZAFEF8U66ytq63
0001:00156f24* __ZNK8QPtrListI7QObjectE5countEv$w$74YZAFEF8U66ytq63
0001:00156ea8* __ZN8QPtrListI7QObjectE5clearEv$w$74YZAFEF8U66ytq63
0001:00156eb4* __ZN11QObjectListD1Ev$w$74YZAFEF8U66ytq63
0001:00156ee8* __ZN11QObjectListD0Ev$w$74YZAFEF8U66ytq63
0001:00156f30* __ZN8QPtrListI7QObjectE10deleteItemEPv$w$74YZAFEF8U66ytq63
0001:00156e70* __ZTV6QGList$w$74YZAFEF8U66ytq63
0001:00156e9c* __ZNK6QGList5countEv$w$74YZAFEF8U66ytq63
0001:00156f70* __ZTV8QPtrListI7QObjectE$w$74YZAFEF8U66ytq63
0001:00156f9c* __ZN8QPtrListI7QObjectED1Ev$w$74YZAFEF8U66ytq63
0001:00156fc4* __ZN8QPtrListI7QObjectED0Ev$w$74YZAFEF8U66ytq63
Module: C:\200\trunk\lib\designercore.lib(formwindow.obj)
0001:00157160* __ZN10FormWindowC2EP8FormFileP10MainWindowP7QWidgetPKc
0001:00157d34* __ZN10FormWindow4initEv
0001:001580c0* __ZN10FormWindow9initSlotsEv
0001:00157404  __ZN10FormWindowC1EP8FormFileP10MainWindowP7QWidgetPKc
0001:001576a8* __ZN10FormWindowC2EP8FormFileP7QWidgetPKc
0001:00157940  __ZN10FormWindowC1EP8FormFileP7QWidgetPKc
0001:00164b34  __ZN10FormWindow16setMainContainerEP7QWidget
0001:00158054  __ZN10FormWindow13setMainWindowEP10MainWindow
0001:00165244  __ZNK10FormWindow7projectEv
0001:001654e0  __ZNK10FormWindow8formFileEv
0001:00158210* __ZN10FormWindowD2Ev
0001:001584cc  __ZN10FormWindowD1Ev
0001:00158794  __ZN10FormWindowD0Ev
0001:00158a60  __ZN10FormWindow10closeEventEP11QCloseEvent
0001:00158b18  __ZN10FormWindow9paintGridEP7QWidgetP11QPaintEvent
0001:00158e8c* __ZN10FormWindow21beginUnclippedPainterEb
0001:00158f4c* __ZN10FormWindow19endUnclippedPainterEv
0001:00158f9c  __ZN10FormWindow9gridPointERK6QPoint
0001:00159018* __ZN10FormWindow15drawSizePreviewERK6QPointRK7QString
0001:00159540* __ZN10FormWindow12insertWidgetEv
0001:00165178  __ZNK10FormWindow16savePixmapInlineEv
0001:00165380  __ZN10FormWindow5iFaceEv
0001:0015aa3c  __ZN10FormWindow12insertWidgetEP7QWidgetb
0001:0015adc4  __ZN10FormWindow12removeWidgetEP7QWidget
0001:0015ae08  __ZN10FormWindow17handleContextMenuEP17QContextMenuEventP7QWidget
0001:00164ab4  __ZNK10FormWindow15isMainContainerEP7QObject
0001:0015b01c  __ZN10FormWindow16handleMousePressEP11QMouseEventP7QWidget
0001:0015ebac* __ZN10FormWindow13startRectDrawERK6QPointS2_P7QWidgetNS_8RectTypeE
0001:0015f3b8  __ZN10FormWindow16isWidgetSelectedEP7QObject
0001:001653c0* __ZNK10FormWindow15isCentralWidgetEP7QObject
0001:00163304* __ZN10FormWindow14saveBackgroundEv
0001:001637c4* __ZN10FormWindow18drawConnectionLineEv
0001:00160de8* __ZN10FormWindow21updateOrderIndicatorsEv
0001:0015bacc  __ZN10FormWindow19handleMouseDblClickEP11QMouseEventP7QWidget
0001:0015bd0c  __ZN10FormWindow15handleMouseMoveEP11QMouseEventP7QWidget
0001:0015ed0c* __ZN10FormWindow16continueRectDrawERK6QPointS2_P7QWidgetNS_8RectTypeE
0001:0016312c* __ZN10FormWindow9allowMoveEP7QWidget
0001:00164754* __ZN10FormWindow11containerAtERK6QPointP7QWidget
0001:0015f3f4* __ZN10FormWindow19moveSelectedWidgetsEii
0001:0015f694* __ZN10FormWindow22checkSelectionsForMoveEP7QWidget
0001:00163398* __ZN10FormWindow21restoreConnectionLineEv
0001:0016556c  __ZNK10FormWindow10canBeBuddyEPK7QWidget
0001:00163678* __ZN10FormWindow11restoreRectERK5QRect
0001:0015cdb0  __ZN10FormWindow18handleMouseReleaseEP11QMouseEventP7QWidget
0001:0015f1d4* __ZN10FormWindow11endRectDrawEv
0001:0015e050  __ZN10FormWindow14handleKeyPressEP9QKeyEventP7QWidget
0001:0015e698  __ZN10FormWindow16handleKeyReleaseEP9QKeyEventP7QWidget
0001:0015e6a4  __ZN10FormWindow12selectWidgetEP7QObjectb
0001:001613ec* __ZNK10FormWindow24isPropertyShowingBlockedEv
0001:0015e99c  __ZNK10FormWindow4gridEv
0001:0015ea10  __ZN10FormWindow15updateSelectionEP7QWidget
0001:0015ea74  __ZN10FormWindow14raiseSelectionEP7QWidget
0001:0015eaa4  __ZN10FormWindow16repaintSelectionEP7QWidget
0001:0015ead4  __ZN10FormWindow14clearSelectionEb
0001:0015f24c  __ZN10FormWindow13selectWidgetsEv
0001:0015f4c4  __ZN10FormWindow14commandHistoryEv
0001:0015f4d4  __ZN10FormWindow4undoEv
0001:0015f4f4  __ZN10FormWindow4redoEv
0001:0015f514  __ZN10FormWindow20raiseChildSelectionsEP7QWidget
0001:0015f5f0  __ZN10FormWindow21updateChildSelectionsEP7QWidget
0001:0015f844  __ZN10FormWindow13deleteWidgetsEv
0001:0015fa1c  __ZN10FormWindow14editAdjustSizeEv
0001:0015fed8  __ZNK10FormWindow15selectedWidgetsEv
0001:0015ff54  __ZN10FormWindow13widgetChangedEP7QObject
0001:0015ff84  __ZNK10FormWindow11sizePreviewEv
0001:00160034  __ZN10FormWindow24invalidCheckedSelectionsEv
0001:00160040  __ZN10FormWindow20checkPreviewGeometryER5QRect
0001:0016025c  __ZN10FormWindow12focusInEventEP11QFocusEvent
0001:0016027c  __ZN10FormWindow13focusOutEventEP11QFocusEvent
0001:001602ec  __ZN10FormWindow11resizeEventEP12QResizeEvent
0001:00160e60* __ZN10FormWindow25repositionOrderIndicatorsEv
0001:00160340  __ZN10FormWindow36windowsRepaintWorkaroundTimerTimeoutEv
0001:00160348  __ZN10FormWindow7widgetsEv
0001:00160358  __ZNK10FormWindow14designerWidgetEP7QObject
0001:001603d0  __ZN10FormWindow18emitShowPropertiesEP7QObject
0001:00160434  __ZN10FormWindow20emitUpdatePropertiesEP7QObject
0001:00160474  __ZN10FormWindow20emitSelectionChangedEv
0001:001604a4  __ZN10FormWindow25updatePropertiesTimerDoneEv
0001:00160530  __ZN10FormWindow23showPropertiesTimerDoneEv
0001:001605bc  __ZN10FormWindow25selectionChangedTimerDoneEv
0001:00160660  __ZN10FormWindow18currentToolChangedEv
0001:00160c6c* __ZN10FormWindow19showOrderIndicatorsEv
0001:00160dd8* __ZN10FormWindow19hideOrderIndicatorsEv
0001:00160ea0  __ZN10FormWindow14updateUndoInfoEv
0001:00160fb4  __ZN10FormWindow18checkCustomWidgetsEv
0001:001613d8  __ZN10FormWindow25setPropertyShowingBlockedEb
0001:001613fc  __ZNK10FormWindow18numSelectedWidgetsEv
0001:0016140c  __ZN10FormWindow4copyEv
0001:001614c0  __ZN10FormWindow12lowerWidgetsEv
0001:001615e8  __Z10find_accelRK7QStringR4QMapI5QChar11QWidgetListEP7QWidget
0001:00161818  __ZN10FormWindow11checkAccelsEv
0001:00161ef8  __ZN10FormWindow12raiseWidgetsEv
0001:00162020  __ZN10FormWindow5pasteERK7QStringP7QWidget
0001:001620b8  __ZN10FormWindow9selectAllEv
0001:001621d4  __ZN10FormWindow16layoutHorizontalEv
0001:001622cc  __ZN10FormWindow14layoutVerticalEv
0001:001623d4  __ZN10FormWindow21layoutHorizontalSplitEv
0001:001624dc  __ZN10FormWindow19layoutVerticalSplitEv
0001:001625d4  __ZN10FormWindow10layoutGridEv
0001:00162704  __ZN10FormWindow25layoutHorizontalContainerEP7QWidget
0001:001628c4  __ZN10FormWindow23layoutVerticalContainerEP7QWidget
0001:00162a84  __ZN10FormWindow19layoutGridContainerEP7QWidget
0001:00162c5c  __ZN10FormWindow11breakLayoutEP7QWidget
0001:00162e18* __ZN10FormWindow18breakLayoutCommandEP7QWidget
0001:00162fcc  __ZNK10FormWindow17numVisibleWidgetsEv
0001:0016303c  __ZNK10FormWindow19hasInsertedChildrenEP7QWidget
0001:001631c8  __ZN10FormWindow15editConnectionsEv
0001:00163b48  __ZNK10FormWindow8fileNameEv
0001:00163b6c  __ZN10FormWindow11setFileNameERK7QString
0001:00163bcc  __ZN10FormWindow19modificationChangedEb
0001:00163c54  __ZN10FormWindow5unifyEP7QObjectR7QStringb
0001:00164524  __ZN10FormWindow18isCustomWidgetUsedEPN12MetaDataBase12CustomWidgetE
0001:0016461c  __ZNK10FormWindow20isDatabaseWidgetUsedEv
0001:00164624  __ZNK10FormWindow15isDatabaseAwareEv
0001:0016462c  __ZN10FormWindow17visibilityChangedEv
0001:0016467c  __ZNK10FormWindow9mapToFormEPK7QWidgetRK6QPoint
0001:00165188  __ZNK10FormWindow19savePixmapInProjectEv
0001:00165198  __ZNK10FormWindow20pixmapLoaderFunctionEv
0001:001651bc  __ZN10FormWindow19setSavePixmapInlineEb
0001:001651d8  __ZN10FormWindow22setSavePixmapInProjectEb
0001:001651f4  __ZN10FormWindow23setPixmapLoaderFunctionERK7QString
0001:00165208  __ZN10FormWindow15setActiveObjectEP7QObject
0001:00165230  __ZN10FormWindow10setProjectEP7Project
0001:00165254  __ZN10FormWindow10findActionERK7QString
0001:0016531c  __ZN10FormWindow10killAccelsEP7QObject
0001:00165404  __ZNK10FormWindow20layoutDefaultSpacingEv
0001:00165414  __ZNK10FormWindow19layoutDefaultMarginEv
0001:00165424  __ZN10FormWindow23setLayoutDefaultSpacingEi
0001:00165438  __ZN10FormWindow22setLayoutDefaultMarginEi
0001:0016544c  __ZN10FormWindow18setSpacingFunctionERK7QString
0001:00165460  __ZNK10FormWindow15spacingFunctionEv
0001:00165484  __ZN10FormWindow18hasLayoutFunctionsEb
0001:00165498  __ZNK10FormWindow18hasLayoutFunctionsEv
0001:001654a8  __ZN10FormWindow17setMarginFunctionERK7QString
0001:001654bc  __ZNK10FormWindow14marginFunctionEv
0001:00165538  __ZN10FormWindow11setFormFileEP8FormFile
0001:00165580* __Z7qt_castIP10SizeHandleET_PK7QObject$w$zs30n0zF8U6k3b2p4
0001:00166650  __ZTV8QPtrListI15WidgetSelectionE$w$zs30n0zF8U6k3b2p4
0001:00166610  __ZTV8QPtrDictI15WidgetSelectionE$w$zs30n0zF8U6k3b2p4
0001:0016559c  __ZN11QMapPrivateIP7QWidget6QPointEC1Ev$w$zs30n0zF8U6k3b2p4
0001:001665d0* __ZTV8QPtrDictI7QWidgetE$w$zs30n0zF8U6k3b2p4
0001:00166590  __ZTV8QPtrListI14OrderIndicatorE$w$zs30n0zF8U6k3b2p4
0001:00166710* __ZTV11QWidgetList$w$zs30n0zF8U6k3b2p4
0001:00166690* __ZTV8QPtrListI7QActionE$w$zs30n0zF8U6k3b2p4
0001:00166750* __ZTV8QPtrListI7QWidgetE$w$zs30n0zF8U6k3b2p4
0001:001666d0* __ZTV8QPtrListI7CommandE$w$zs30n0zF8U6k3b2p4
0001:001655e8  __ZN11QMapPrivateIP7QWidget6QPointE5clearEv$w$zs30n0zF8U6k3b2p4
0001:00158788  __ZThn40_N10FormWindowD1Ev$w$zs30n0zF8U6k3b2p4
0001:00158a54  __ZThn40_N10FormWindowD0Ev$w$zs30n0zF8U6k3b2p4
0001:00166550* __ZTV7QBitmap$w$zs30n0zF8U6k3b2p4
0001:00165624  __ZN17QValueListPrivateI6QPointEC1Ev$w$zs30n0zF8U6k3b2p4
0001:0016569c* __ZN17QValueListPrivateI6QPointE6insertE18QValueListIteratorIS0_ERKS0_$w$zs30n0zF8U6k3b2p4
0001:00165660* __ZN17QValueListPrivateI6QPointED1Ev$w$zs30n0zF8U6k3b2p4
0001:001656f0* __ZN10QValueListI6QPointE14detachInternalEv$w$zs30n0zF8U6k3b2p4
0001:00165720* __Z7qt_castIP11QMainWindowET_PK7QObject$w$zs30n0zF8U6k3b2p4
0001:0016579c* __Z7qt_castIP13QLayoutWidgetET_PK7QObject$w$zs30n0zF8U6k3b2p4
0001:001657b8* __Z7qt_castIP9QSplitterET_PK7QObject$w$zs30n0zF8U6k3b2p4
0001:0016573c  __ZN4QMapIP7QWidget6QPointE5clearEv$w$zs30n0zF8U6k3b2p4
0001:00165780* __Z7qt_castIP6QLabelET_PK7QObject$w$zs30n0zF8U6k3b2p4
0001:001657f0  __ZN4QMapIP7QWidget6QPointE14detachInternalEv$w$zs30n0zF8U6k3b2p4
0001:001657d4* __Z7qt_castIP6SpacerET_PK7QObject$w$zs30n0zF8U6k3b2p4
0001:00165858  __ZNK11QMapPrivateIP7QWidget6QPointE4findERKS1_$w$zs30n0zF8U6k3b2p4
0001:001658a8  __ZN12QMapIteratorIP7QWidget6QPointE3incEv$w$zs30n0zF8U6k3b2p4
0001:00165820* __Z7qt_castIP7QButtonET_PK7QObject$w$zs30n0zF8U6k3b2p4
0001:0016583c* __Z7qt_castIP12QButtonGroupET_PK7QObject$w$zs30n0zF8U6k3b2p4
0001:001658f4  __ZN17QMapConstIteratorIP7QWidget6QPointE3incEv$w$zs30n0zF8U6k3b2p4
0001:00165940* __Z7qt_castIP16QDesignerToolBarET_PK7QObject$w$zs30n0zF8U6k3b2p4
0001:0016595c  __ZN4QMapIP7QWidget6QPointE6insertERKS1_RKS2_b$w$zs30n0zF8U6k3b2p4
0001:001659c4* __ZN17QValueListPrivateI7QStringEC1Ev$w$zs30n0zF8U6k3b2p4
0001:00165aa0* __ZN17QValueListPrivateI7QStringE6insertE18QValueListIteratorIS0_ERKS0_$w$zs30n0zF8U6k3b2p4
0001:00165afc* __ZN10QValueListI7QStringE14detachInternalEv$w$zs30n0zF8U6k3b2p4
0001:00165a10* __ZN17QValueListPrivateI7QStringED1Ev$w$zs30n0zF8U6k3b2p4
0001:00165b98  __ZNK11QMapPrivateI5QChar11QWidgetListE4findERKS0_$w$zs30n0zF8U6k3b2p4
0001:00165b2c  __ZN4QMapI5QChar11QWidgetListE6insertERKS0_RKS1_b$w$zs30n0zF8U6k3b2p4
0001:00165c20  __ZN4QMapI5QChar11QWidgetListE14detachInternalEv$w$zs30n0zF8U6k3b2p4
0001:00165c6c  __ZN11QMapPrivateI5QChar11QWidgetListEC1Ev$w$zs30n0zF8U6k3b2p4
0001:00165d04  __ZN12QMapIteratorI5QChar11QWidgetListE3incEv$w$zs30n0zF8U6k3b2p4
0001:00165cc8  __ZN11QMapPrivateI5QChar11QWidgetListE5clearEv$w$zs30n0zF8U6k3b2p4
0001:00165c50* __Z7qt_castIP13MenuBarEditorET_PK7QObject$w$zs30n0zF8U6k3b2p4
0001:00165d50  __ZN11QMapPrivateIP7QWidget6QPointE5clearEP8QMapNodeIS1_S2_E$w$zs30n0zF8U6k3b2p4
0001:00165d8c* __ZN17QValueListPrivateI6QPointEC1ERKS1_$w$zs30n0zF8U6k3b2p4
0001:00165e18  __ZN11QMapPrivateIP7QWidget6QPointEC1EPKS3_$w$zs30n0zF8U6k3b2p4
0001:00165ec0  __ZN11QMapPrivateIP7QWidget6QPointE12insertSingleERKS1_$w$zs30n0zF8U6k3b2p4
0001:00165f5c* __ZN17QValueListPrivateI7QStringEC1ERKS1_$w$zs30n0zF8U6k3b2p4
0001:00165ff0  __ZN11QMapPrivateI5QChar11QWidgetListE12insertSingleERKS0_$w$zs30n0zF8U6k3b2p4
0001:001660c4  __ZN11QMapPrivateI5QChar11QWidgetListEC1EPKS2_$w$zs30n0zF8U6k3b2p4
0001:00166174  __ZN11QMapPrivateI5QChar11QWidgetListE5clearEP8QMapNodeIS0_S1_E$w$zs30n0zF8U6k3b2p4
0001:001661e0  __ZN11QMapPrivateIP7QWidget6QPointE4copyEP8QMapNodeIS1_S2_E$w$zs30n0zF8U6k3b2p4
0001:0016627c  __ZN11QMapPrivateIP7QWidget6QPointE6insertEP12QMapNodeBaseS5_RKS1_$w$zs30n0zF8U6k3b2p4
0001:0016631c  __ZN12QMapIteratorIP7QWidget6QPointE3decEv$w$zs30n0zF8U6k3b2p4
0001:00166374  __ZN11QMapPrivateI5QChar11QWidgetListE6insertEP12QMapNodeBaseS4_RKS0_$w$zs30n0zF8U6k3b2p4
0001:00166438  __ZN12QMapIteratorI5QChar11QWidgetListE3decEv$w$zs30n0zF8U6k3b2p4
0001:00166490  __ZN11QMapPrivateI5QChar11QWidgetListE4copyEP8QMapNodeIS0_S1_E$w$zs30n0zF8U6k3b2p4
0001:001668bc* __ZN7QBitmapD1Ev$w$zs30n0zF8U6k3b2p4
0001:00166894* __ZN7QBitmapD0Ev$w$zs30n0zF8U6k3b2p4
0001:00166b50  __ZNK8QPtrListI14OrderIndicatorE5countEv$w$zs30n0zF8U6k3b2p4
0001:00166a68  __ZN8QPtrListI14OrderIndicatorE5clearEv$w$zs30n0zF8U6k3b2p4
0001:00166950  __ZN8QPtrListI14OrderIndicatorED1Ev$w$zs30n0zF8U6k3b2p4
0001:00166a74  __ZN8QPtrListI14OrderIndicatorED0Ev$w$zs30n0zF8U6k3b2p4
0001:00166b5c  __ZN8QPtrListI14OrderIndicatorE10deleteItemEPv$w$zs30n0zF8U6k3b2p4
0001:00166b84* __ZNK8QPtrDictI7QWidgetE5countEv$w$zs30n0zF8U6k3b2p4
0001:00166a2c* __ZN8QPtrDictI7QWidgetE5clearEv$w$zs30n0zF8U6k3b2p4
0001:0016686c* __ZN8QPtrDictI7QWidgetED1Ev$w$zs30n0zF8U6k3b2p4
0001:00166a38* __ZN8QPtrDictI7QWidgetED0Ev$w$zs30n0zF8U6k3b2p4
0001:00166b90* __ZN8QPtrDictI7QWidgetE10deleteItemEPv$w$zs30n0zF8U6k3b2p4
0001:00166b38  __ZNK8QPtrDictI15WidgetSelectionE5countEv$w$zs30n0zF8U6k3b2p4
0001:001669b4  __ZN8QPtrDictI15WidgetSelectionE5clearEv$w$zs30n0zF8U6k3b2p4
0001:00166900  __ZN8QPtrDictI15WidgetSelectionED1Ev$w$zs30n0zF8U6k3b2p4
0001:001669c0  __ZN8QPtrDictI15WidgetSelectionED0Ev$w$zs30n0zF8U6k3b2p4
0001:00166bb8  __ZN8QPtrDictI15WidgetSelectionE10deleteItemEPv$w$zs30n0zF8U6k3b2p4
0001:00166bfc  __ZNK8QPtrListI15WidgetSelectionE5countEv$w$zs30n0zF8U6k3b2p4
0001:00166978  __ZN8QPtrListI15WidgetSelectionE5clearEv$w$zs30n0zF8U6k3b2p4
0001:001668d8  __ZN8QPtrListI15WidgetSelectionED1Ev$w$zs30n0zF8U6k3b2p4
0001:00166984  __ZN8QPtrListI15WidgetSelectionED0Ev$w$zs30n0zF8U6k3b2p4
0001:00166c08  __ZN8QPtrListI15WidgetSelectionE10deleteItemEPv$w$zs30n0zF8U6k3b2p4
0001:00166c4c* __ZNK8QPtrListI7QActionE5countEv$w$zs30n0zF8U6k3b2p4
0001:00166afc* __ZN8QPtrListI7QActionE5clearEv$w$zs30n0zF8U6k3b2p4
0001:00166844* __ZN8QPtrListI7QActionED1Ev$w$zs30n0zF8U6k3b2p4
0001:00166b08* __ZN8QPtrListI7QActionED0Ev$w$zs30n0zF8U6k3b2p4
0001:00166c58* __ZN8QPtrListI7QActionE10deleteItemEPv$w$zs30n0zF8U6k3b2p4
0001:00166c80* __ZNK8QPtrListI7CommandE5countEv$w$zs30n0zF8U6k3b2p4
0001:001669f0* __ZN8QPtrListI7CommandE5clearEv$w$zs30n0zF8U6k3b2p4
0001:00166928* __ZN8QPtrListI7CommandED1Ev$w$zs30n0zF8U6k3b2p4
0001:001669fc* __ZN8QPtrListI7CommandED0Ev$w$zs30n0zF8U6k3b2p4
0001:00166c8c* __ZN8QPtrListI7CommandE10deleteItemEPv$w$zs30n0zF8U6k3b2p4
0001:00166b44* __ZNK8QPtrListI7QWidgetE5countEv$w$zs30n0zF8U6k3b2p4
0001:001667c8* __ZN8QPtrListI7QWidgetE5clearEv$w$zs30n0zF8U6k3b2p4
0001:001667d4* __ZN11QWidgetListD1Ev$w$zs30n0zF8U6k3b2p4
0001:00166808* __ZN11QWidgetListD0Ev$w$zs30n0zF8U6k3b2p4
0001:00166cb4* __ZN8QPtrListI7QWidgetE10deleteItemEPv$w$zs30n0zF8U6k3b2p4
0001:00166aa4* __ZN8QPtrListI7QWidgetED1Ev$w$zs30n0zF8U6k3b2p4
0001:00166acc* __ZN8QPtrListI7QWidgetED0Ev$w$zs30n0zF8U6k3b2p4
0001:00166790* __ZTV6QGList$w$zs30n0zF8U6k3b2p4
0001:001667bc* __ZNK6QGList5countEv$w$zs30n0zF8U6k3b2p4
0001:00166cf0  __ZTV8QIntDictI10SizeHandleE$w$zs30n0zF8U6k3b2p4
0001:00166d7c  __ZNK8QIntDictI10SizeHandleE5countEv$w$zs30n0zF8U6k3b2p4
0001:00166d40  __ZN8QIntDictI10SizeHandleE5clearEv$w$zs30n0zF8U6k3b2p4
0001:00166d18  __ZN8QIntDictI10SizeHandleED1Ev$w$zs30n0zF8U6k3b2p4
0001:00166d4c  __ZN8QIntDictI10SizeHandleED0Ev$w$zs30n0zF8U6k3b2p4
0001:00166d88  __ZN8QIntDictI10SizeHandleE10deleteItemEPv$w$zs30n0zF8U6k3b2p4
Module: C:\200\trunk\lib\designercore.lib(moc_wizardeditorimpl.obj)
0001:00166dc0* __ZNK12WizardEditor9classNameEv
0001:00166dcc  __ZN12WizardEditor2trEPKcS1_
0001:00166e0c* __ZN12WizardEditor6trUtf8EPKcS1_
0001:00167140* __ZN12WizardEditor16staticMetaObjectEv
0001:0016719c* __ZN12WizardEditor7qt_castEPKc
0001:001671f4* __ZN12WizardEditor9qt_invokeEiP8QUObject
0001:0016732c* __ZN12WizardEditor7qt_emitEiP8QUObject
0001:00167348* __ZN12WizardEditor11qt_propertyEiiP8QVariant
0001:00167364* __ZN12WizardEditor18qt_static_propertyEP7QObjectiiP8QVariant
0002:00002af0* __ZN12WizardEditor7metaObjE
0001:00167370  __ZTV12WizardEditor$w$TUAQpbRF8U6wdmBe3
0001:0016765c  __ZNK12WizardEditor10metaObjectEv$w$TUAQpbRF8U6wdmBe3
0001:00167634* __ZN7QWidget9setWStateEj$w$TUAQpbRF8U6wdmBe3
0001:00167648* __ZN7QWidget9setWFlagsEj$w$TUAQpbRF8U6wdmBe3
0001:001675b0* __ZTV6QGList$w$TUAQpbRF8U6wdmBe3
0001:00167628* __ZNK6QGList5countEv$w$TUAQpbRF8U6wdmBe3
Module: C:\200\trunk\lib\designercore.lib(moc_customwidgeteditorimpl.obj)
0001:001676c4* __ZNK18CustomWidgetEditor9classNameEv
0001:001676d0  __ZN18CustomWidgetEditor2trEPKcS1_
0001:00167710* __ZN18CustomWidgetEditor6trUtf8EPKcS1_
0001:00168084* __ZN18CustomWidgetEditor16staticMetaObjectEv
0001:001680e0* __ZN18CustomWidgetEditor7qt_castEPKc
0001:00168138* __ZN18CustomWidgetEditor9qt_invokeEiP8QUObject
0001:00168430* __ZN18CustomWidgetEditor7qt_emitEiP8QUObject
0001:0016844c* __ZN18CustomWidgetEditor11qt_propertyEiiP8QVariant
0001:00168468* __ZN18CustomWidgetEditor18qt_static_propertyEP7QObjectiiP8QVariant
0002:00002b10* __ZN18CustomWidgetEditor7metaObjE
0001:00168470  __ZTV18CustomWidgetEditor$w$rArvcJPF8U6a30Qa2
0001:00168924  __ZNK18CustomWidgetEditor10metaObjectEv$w$rArvcJPF8U6a30Qa2
0001:0016879c  __ZN18CustomWidgetEditorD1Ev$w$rArvcJPF8U6a30Qa2
0001:0016885c  __ZN18CustomWidgetEditorD0Ev$w$rArvcJPF8U6a30Qa2
0001:00168774* __ZN7QWidget9setWStateEj$w$rArvcJPF8U6a30Qa2
0001:00168788* __ZN7QWidget9setWFlagsEj$w$rArvcJPF8U6a30Qa2
0001:00168850  __ZThn40_N18CustomWidgetEditorD1Ev$w$rArvcJPF8U6a30Qa2
0001:00168918  __ZThn40_N18CustomWidgetEditorD0Ev$w$rArvcJPF8U6a30Qa2
0001:001686f0* __ZTV6QGList$w$rArvcJPF8U6a30Qa2
0001:00168768* __ZNK6QGList5countEv$w$rArvcJPF8U6a30Qa2
0001:001689b0* __ZTV11QObjectList$w$rArvcJPF8U6a30Qa2
0001:001689f0* __ZTV8QPtrListI7QObjectE$w$rArvcJPF8U6a30Qa2
0001:00168930* __ZN11QMapPrivateIP12QListBoxItemPN12MetaDataBase12CustomWidgetEE5clearEv$w$rArvcJPF8U6a30Qa2
0001:0016896c* __ZN11QMapPrivateIP12QListBoxItemPN12MetaDataBase12CustomWidgetEE5clearEP8QMapNodeIS1_S4_E$w$rArvcJPF8U6a30Qa2
0001:00168af0* __ZNK8QPtrListI7QObjectE5countEv$w$rArvcJPF8U6a30Qa2
0001:00168a1c* __ZN8QPtrListI7QObjectE5clearEv$w$rArvcJPF8U6a30Qa2
0001:00168a28* __ZN11QObjectListD1Ev$w$rArvcJPF8U6a30Qa2
0001:00168a5c* __ZN11QObjectListD0Ev$w$rArvcJPF8U6a30Qa2
0001:00168afc* __ZN8QPtrListI7QObjectE10deleteItemEPv$w$rArvcJPF8U6a30Qa2
0001:00168a98* __ZN8QPtrListI7QObjectED1Ev$w$rArvcJPF8U6a30Qa2
0001:00168ac0* __ZN8QPtrListI7QObjectED0Ev$w$rArvcJPF8U6a30Qa2
Module: C:\200\trunk\lib\designercore.lib(orderindicator.obj)
0001:00168b80* __ZN14OrderIndicatorC2EiP7QWidgetP10FormWindow
0001:00168cdc  __ZN14OrderIndicator8setOrderEiP7QWidget
0001:00168bec  __ZN14OrderIndicatorC1EiP7QWidgetP10FormWindow
0001:00168c58* __ZN14OrderIndicatorD2Ev
0001:00168c7c  __ZN14OrderIndicatorD1Ev
0001:00168ca8  __ZN14OrderIndicatorD0Ev
0001:00168e70  __ZN14OrderIndicator10repositionEv
0001:00168f74  __ZN14OrderIndicator10paintEventEP11QPaintEvent
0001:001690a8  __ZN14OrderIndicator10updateMaskEv
0001:001691d8  __ZN14OrderIndicator15mousePressEventEP11QMouseEvent
0001:00168ca0  __ZThn40_N14OrderIndicatorD1Ev$w$Jn0veMCF8U65ZTkS1
0001:00168cd4  __ZThn40_N14OrderIndicatorD0Ev$w$Jn0veMCF8U65ZTkS1
0001:00169210* __ZTV7QBitmap$w$Jn0veMCF8U65ZTkS1
0001:001692b0* __ZN7QBitmapD1Ev$w$Jn0veMCF8U65ZTkS1
0001:00169288* __ZN7QBitmapD0Ev$w$Jn0veMCF8U65ZTkS1
0001:00169250* __ZTV6QGList$w$Jn0veMCF8U65ZTkS1
0001:0016927c* __ZNK6QGList5countEv$w$Jn0veMCF8U65ZTkS1
Module: C:\200\trunk\lib\designercore.lib(moc_tableeditor.obj)
0001:001692e0* __ZNK15TableEditorBase9classNameEv
0001:001692ec  __ZN15TableEditorBase2trEPKcS1_
0001:0016932c* __ZN15TableEditorBase6trUtf8EPKcS1_
0001:00169958  __ZN15TableEditorBase16staticMetaObjectEv
0001:001699b4  __ZN15TableEditorBase7qt_castEPKc
0001:00169a0c  __ZN15TableEditorBase9qt_invokeEiP8QUObject
0001:00169c20  __ZN15TableEditorBase7qt_emitEiP8QUObject
0001:00169c3c  __ZN15TableEditorBase11qt_propertyEiiP8QVariant
0001:00169c58* __ZN15TableEditorBase18qt_static_propertyEP7QObjectiiP8QVariant
0002:00002b30* __ZN15TableEditorBase7metaObjE
0001:00169c70  __ZTV15TableEditorBase$w$lB5DQoUF8U6JznZi0
0001:00169f7c  __ZNK15TableEditorBase10metaObjectEv$w$lB5DQoUF8U6JznZi0
0001:00169f54* __ZN7QWidget9setWStateEj$w$lB5DQoUF8U6JznZi0
0001:00169f68* __ZN7QWidget9setWFlagsEj$w$lB5DQoUF8U6JznZi0
0001:00169ed0* __ZTV6QGList$w$lB5DQoUF8U6JznZi0
0001:00169f48* __ZNK6QGList5countEv$w$lB5DQoUF8U6JznZi0
Module: C:\200\trunk\lib\designercore.lib(moc_sizehandle.obj)
0001:00169fdc* __ZNK10SizeHandle9classNameEv
0001:00169fe8  __ZN10SizeHandle2trEPKcS1_
0001:0016a028* __ZN10SizeHandle6trUtf8EPKcS1_
0001:0016a068  __ZN10SizeHandle16staticMetaObjectEv
0001:0016a0c0* __ZN10SizeHandle7qt_castEPKc
0001:0016a118* __ZN10SizeHandle9qt_invokeEiP8QUObject
0001:0016a134* __ZN10SizeHandle7qt_emitEiP8QUObject
0001:0016a150* __ZN10SizeHandle11qt_propertyEiiP8QVariant
0001:0016a16c* __ZN10SizeHandle18qt_static_propertyEP7QObjectiiP8QVariant
0002:00002b50* __ZN10SizeHandle7metaObjE
0001:0016a190  __ZTV10SizeHandle$w$X8dvWXOF8U61bMj21
0001:0016a4d4  __ZNK10SizeHandle10metaObjectEv$w$X8dvWXOF8U61bMj21
0001:0016a474  __ZN10SizeHandleD1Ev$w$X8dvWXOF8U61bMj21
0001:0016a4a0  __ZN10SizeHandleD0Ev$w$X8dvWXOF8U61bMj21
0001:0016a4e0  __ZN10SizeHandle10setEnabledEb$w$X8dvWXOF8U61bMj21
0001:0016a414* __ZN7QWidget11setGeometryERK5QRect$w$X8dvWXOF8U61bMj21
0001:0016a44c* __ZN7QWidget9setWStateEj$w$X8dvWXOF8U61bMj21
0001:0016a460* __ZN7QWidget9setWFlagsEj$w$X8dvWXOF8U61bMj21
0001:0016a498  __ZThn40_N10SizeHandleD1Ev$w$X8dvWXOF8U61bMj21
0001:0016a4cc  __ZThn40_N10SizeHandleD0Ev$w$X8dvWXOF8U61bMj21
0001:0016a390* __ZTV6QGList$w$X8dvWXOF8U61bMj21
0001:0016a408* __ZNK6QGList5countEv$w$X8dvWXOF8U61bMj21
Module: C:\200\trunk\lib\designercore.lib(moc_formfile.obj)
0001:0016a53c* __ZNK8FormFile9classNameEv
0001:0016a548  __ZN8FormFile2trEPKcS1_
0001:0016a588* __ZN8FormFile6trUtf8EPKcS1_
0001:0016a6b8  __ZN8FormFile16staticMetaObjectEv
0001:0016a714* __ZN8FormFile7qt_castEPKc
0001:0016a76c  __ZN8FormFile16somethingChangedEPS_
0001:0016a7f8* __ZN8FormFile9qt_invokeEiP8QUObject
0001:0016a850* __ZN8FormFile7qt_emitEiP8QUObject
0001:0016a898* __ZN8FormFile11qt_propertyEiiP8QVariant
0001:0016a8b4* __ZN8FormFile18qt_static_propertyEP7QObjectiiP8QVariant
0002:00002b70* __ZN8FormFile7metaObjE
0001:0016a8d0  __ZTV8FormFile$w$PuG3gpRF8U6sEVoz2
0001:0016a9b4  __ZNK8FormFile10metaObjectEv$w$PuG3gpRF8U6sEVoz2
0001:0016a930* __ZTV6QGList$w$PuG3gpRF8U6sEVoz2
0001:0016a9a8* __ZNK6QGList5countEv$w$PuG3gpRF8U6sEVoz2
Module: C:\200\trunk\lib\designercore.lib(newformimpl.obj)
0001:0016a9f0* __ZN11ProjectItemC2EP9QIconViewRK7QString
0001:0016aa2c* __ZN11ProjectItemC1EP9QIconViewRK7QString
0001:0016aa68* __ZN11ProjectItem6insertEP7Project
0001:0016aa84* __ZN8FormItemC2EP9QIconViewRK7QString
0001:0016aaa8* __ZN8FormItemC1EP9QIconViewRK7QString
0001:0016aaf8* __ZN8FormItem6insertEP7Project
0001:0016aea0* __ZN14CustomFormItemC2EP9QIconViewRK7QString
0001:0016aedc* __ZN14CustomFormItemC1EP9QIconViewRK7QString
0001:0016b27c* __ZN14CustomFormItem6insertEP7Project
0001:0016b55c* __ZN14SourceFileItemC2EP9QIconViewRK7QString
0001:0016b5b0* __ZN14SourceFileItemC1EP9QIconViewRK7QString
0001:0016b604* __ZN14SourceFileItem6insertEP7Project
0001:0016b678* __ZN14SourceFileItem10setProjectEP7Project
0001:0016b704* __ZN18SourceTemplateItemC2EP9QIconViewRK7QString
0001:0016b758* __ZN18SourceTemplateItemC1EP9QIconViewRK7QString
0001:0016b7ac* __ZN18SourceTemplateItem6insertEP7Project
0001:0016b98c* __ZN18SourceTemplateItem10setProjectEP7Project
0001:0016bae8* __ZN7NewForm15insertTemplatesEP9QIconViewRK7QString
0001:0016cc18* __ZN7NewFormC2EP9QIconViewRK7QString
0001:0016cfcc  __ZN7NewForm14projectChangedERK7QString
0001:0016ccb0  __ZN7NewFormC1EP9QIconViewRK7QString
0001:0016cd64* __ZN7NewFormC2EP7QWidgetRK11QStringListRK7QStringS7_
0001:0016ce44  __ZN7NewFormC1EP7QWidgetRK11QStringListRK7QStringS7_
0001:0016cf24  __ZN7NewForm6acceptEv
0001:0016d06c  __ZN7NewForm11itemChangedEP13QIconViewItem
0001:0016d0cc* __ZN7NewForm12allViewItemsEv
0001:0016d930  __ZTV11ProjectItem$w$lpXxwZDF8U6eizvg2
0001:0016d890  __ZTV8FormItem$w$lpXxwZDF8U6eizvg2
0001:0016d7f0  __ZTV14CustomFormItem$w$lpXxwZDF8U6eizvg2
0001:0016d0f8* __ZN17QValueListPrivateI7QStringEC1Ev$w$lpXxwZDF8U6eizvg2
0001:0016d1d4* __ZN17QValueListPrivateI7QStringE6insertE18QValueListIteratorIS0_ERKS0_$w$lpXxwZDF8U6eizvg2
0001:0016d260* __ZNK17QValueListPrivateI7QStringE9findIndexEP14QValueListNodeIS0_ERKS0_$w$lpXxwZDF8U6eizvg2
0001:0016d9d0* __ZTV11QWidgetList$w$lpXxwZDF8U6eizvg2
0001:0016da10* __ZTV8QPtrListI7QWidgetE$w$lpXxwZDF8U6eizvg2
0001:0016d144* __ZN17QValueListPrivateI7QStringED1Ev$w$lpXxwZDF8U6eizvg2
0001:0016d230* __ZN10QValueListI7QStringE14detachInternalEv$w$lpXxwZDF8U6eizvg2
0001:0016d750  __ZTV14SourceFileItem$w$lpXxwZDF8U6eizvg2
0001:0016d6b0  __ZTV18SourceTemplateItem$w$lpXxwZDF8U6eizvg2
0001:0016d2b8* __ZN11QMapPrivateI7QStringS0_EC1Ev$w$lpXxwZDF8U6eizvg2
0001:0016d394  __ZN12QMapIteratorI7QStringS0_E3incEv$w$lpXxwZDF8U6eizvg2
0001:0016d328* __ZN11QMapPrivateI7QStringS0_E5clearEv$w$lpXxwZDF8U6eizvg2
0001:0016d364* __ZN4QMapI7QStringS0_E14detachInternalEv$w$lpXxwZDF8U6eizvg2
0001:0016da50* __ZTV8QPtrListI13QIconViewItemE$w$lpXxwZDF8U6eizvg2
0001:0016d3e0* __ZN17QValueListPrivateI7QStringEC1ERKS1_$w$lpXxwZDF8U6eizvg2
0001:0016d474* __ZN11QMapPrivateI7QStringS0_E5clearEP8QMapNodeIS0_S0_E$w$lpXxwZDF8U6eizvg2
0001:0016d4f8* __ZN11QMapPrivateI7QStringS0_EC1EPKS1_$w$lpXxwZDF8U6eizvg2
0001:0016d5c4* __ZN11QMapPrivateI7QStringS0_E4copyEP8QMapNodeIS0_S0_E$w$lpXxwZDF8U6eizvg2
0001:0016dd48  __ZN18SourceTemplateItemD1Ev$w$lpXxwZDF8U6eizvg2
0001:0016ddb0  __ZN18SourceTemplateItemD0Ev$w$lpXxwZDF8U6eizvg2
0001:0016de20  __ZNK18SourceTemplateItem4rttiEv$w$lpXxwZDF8U6eizvg2
0001:0016dc64  __ZN14SourceFileItemD1Ev$w$lpXxwZDF8U6eizvg2
0001:0016dccc  __ZN14SourceFileItemD0Ev$w$lpXxwZDF8U6eizvg2
0001:0016dd3c  __ZNK14SourceFileItem4rttiEv$w$lpXxwZDF8U6eizvg2
0001:0016dbc0  __ZN14CustomFormItemD1Ev$w$lpXxwZDF8U6eizvg2
0001:0016dc08  __ZN14CustomFormItemD0Ev$w$lpXxwZDF8U6eizvg2
0001:0016dc58  __ZNK14CustomFormItem4rttiEv$w$lpXxwZDF8U6eizvg2
0001:0016dac8  __ZN7NewItem10setProjectEP7Project$w$lpXxwZDF8U6eizvg2
0001:0016db70  __ZN8FormItemD1Ev$w$lpXxwZDF8U6eizvg2
0001:0016db8c  __ZN8FormItemD0Ev$w$lpXxwZDF8U6eizvg2
0001:0016dbb4  __ZNK8FormItem4rttiEv$w$lpXxwZDF8U6eizvg2
0001:0016dad0  __ZN11ProjectItemD1Ev$w$lpXxwZDF8U6eizvg2
0001:0016db18  __ZN11ProjectItemD0Ev$w$lpXxwZDF8U6eizvg2
0001:0016db68  __ZNK11ProjectItem4rttiEv$w$lpXxwZDF8U6eizvg2
0001:0016df64* __ZNK8QPtrListI7QWidgetE5countEv$w$lpXxwZDF8U6eizvg2
0001:0016de2c* __ZN8QPtrListI7QWidgetE5clearEv$w$lpXxwZDF8U6eizvg2
0001:0016de38* __ZN11QWidgetListD1Ev$w$lpXxwZDF8U6eizvg2
0001:0016de6c* __ZN11QWidgetListD0Ev$w$lpXxwZDF8U6eizvg2
0001:0016df70* __ZN8QPtrListI7QWidgetE10deleteItemEPv$w$lpXxwZDF8U6eizvg2
0001:0016dea8* __ZN8QPtrListI7QWidgetED1Ev$w$lpXxwZDF8U6eizvg2
0001:0016ded0* __ZN8QPtrListI7QWidgetED0Ev$w$lpXxwZDF8U6eizvg2
0001:0016df98* __ZNK8QPtrListI13QIconViewItemE5countEv$w$lpXxwZDF8U6eizvg2
0001:0016df28* __ZN8QPtrListI13QIconViewItemE5clearEv$w$lpXxwZDF8U6eizvg2
0001:0016df00* __ZN8QPtrListI13QIconViewItemED1Ev$w$lpXxwZDF8U6eizvg2
0001:0016df34* __ZN8QPtrListI13QIconViewItemED0Ev$w$lpXxwZDF8U6eizvg2
0001:0016dfa4* __ZN8QPtrListI13QIconViewItemE10deleteItemEPv$w$lpXxwZDF8U6eizvg2
0001:0016da90* __ZTV6QGList$w$lpXxwZDF8U6eizvg2
0001:0016dabc* __ZNK6QGList5countEv$w$lpXxwZDF8U6eizvg2
0001:0016dfd0  __ZTV7NewItem$w$lpXxwZDF8U6eizvg2
0001:0016e08c  __ZN7NewItemD1Ev$w$lpXxwZDF8U6eizvg2
0001:0016e064  __ZN7NewItemD0Ev$w$lpXxwZDF8U6eizvg2
Module: C:\200\trunk\lib\designercore.lib(moc_startdialogimpl.obj)
0001:0016e0bc* __ZNK10FileDialog9classNameEv
0001:0016e0c8* __ZN10FileDialog2trEPKcS1_
0001:0016e108* __ZN10FileDialog6trUtf8EPKcS1_
0001:0016e1ac* __ZN10FileDialog16staticMetaObjectEv
0001:0016e208* __ZN10FileDialog7qt_castEPKc
0001:0016e260  __ZN10FileDialog12fileSelectedEv
0001:0016e280* __ZN10FileDialog9qt_invokeEiP8QUObject
0001:0016e2c4* __ZN10FileDialog7qt_emitEiP8QUObject
0001:0016e304* __ZN10FileDialog11qt_propertyEiiP8QVariant
0001:0016e320* __ZN10FileDialog18qt_static_propertyEP7QObjectiiP8QVariant
0001:0016e334* __ZNK11StartDialog9classNameEv
0001:0016e340  __ZN11StartDialog2trEPKcS1_
0001:0016e380* __ZN11StartDialog6trUtf8EPKcS1_
0001:0016e4c0* __ZN11StartDialog16staticMetaObjectEv
0001:0016e51c* __ZN11StartDialog7qt_castEPKc
0001:0016e574* __ZN11StartDialog9qt_invokeEiP8QUObject
0001:0016e608* __ZN11StartDialog7qt_emitEiP8QUObject
0001:0016e624* __ZN11StartDialog11qt_propertyEiiP8QVariant
0001:0016e640* __ZN11StartDialog18qt_static_propertyEP7QObjectiiP8QVariant
0002:00002ba0* __ZN10FileDialog7metaObjE
0002:00002ba4* __ZN11StartDialog7metaObjE
0001:0016e650  __ZTV11StartDialog$w$BjegJzRF8U6eXxyp2
0001:0016ecf0  __ZNK11StartDialog10metaObjectEv$w$BjegJzRF8U6eXxyp2
0001:0016ebb8  __ZN11StartDialogD1Ev$w$BjegJzRF8U6eXxyp2
0001:0016ec50  __ZN11StartDialogD0Ev$w$BjegJzRF8U6eXxyp2
0001:0016eb24* __ZN7QWidget9setWStateEj$w$BjegJzRF8U6eXxyp2
0001:0016eb38* __ZN7QWidget9setWFlagsEj$w$BjegJzRF8U6eXxyp2
0001:0016ec44  __ZThn40_N11StartDialogD1Ev$w$BjegJzRF8U6eXxyp2
0001:0016ece4  __ZThn40_N11StartDialogD0Ev$w$BjegJzRF8U6eXxyp2
0001:0016e870  __ZTV10FileDialog$w$BjegJzRF8U6eXxyp2
0001:0016ebac  __ZNK10FileDialog10metaObjectEv$w$BjegJzRF8U6eXxyp2
0001:0016eb4c  __ZN10FileDialogD1Ev$w$BjegJzRF8U6eXxyp2
0001:0016eb78  __ZN10FileDialogD0Ev$w$BjegJzRF8U6eXxyp2
0001:0016eb70  __ZThn40_N10FileDialogD1Ev$w$BjegJzRF8U6eXxyp2
0001:0016eba4  __ZThn40_N10FileDialogD0Ev$w$BjegJzRF8U6eXxyp2
0001:0016ea70* __ZTV6QGList$w$BjegJzRF8U6eXxyp2
0001:0016eb18* __ZNK6QGList5countEv$w$BjegJzRF8U6eXxyp2
0001:0016ecfc* __ZN11QMapPrivateIi7QStringE5clearEv$w$BjegJzRF8U6eXxyp2
0001:0016ed38* __ZN11QMapPrivateIi7QStringE5clearEP8QMapNodeIiS0_E$w$BjegJzRF8U6eXxyp2
Module: C:\200\trunk\lib\designercore.lib(connectionitems.obj)
0001:0016edd0* __ZN14ConnectionItemC2EP6QTableP10FormWindow
0001:0016ee6c* __ZN14ConnectionItemC1EP6QTableP10FormWindow
0001:0016ef08  __ZN14ConnectionItem13senderChangedEP7QObject
0001:0016ef68  __ZN14ConnectionItem15receiverChangedEP7QObject
0001:0016efc8  __ZN14ConnectionItem13signalChangedERK7QString
0001:0016f028  __ZN14ConnectionItem11slotChangedERK7QString
0001:0016f0c8  __ZN14ConnectionItem9setSenderEP10SenderItem
0001:0016f130  __ZN14ConnectionItem11setReceiverEP12ReceiverItem
0001:0016f1a0  __ZN14ConnectionItem9setSignalEP10SignalItem
0001:0016f208  __ZN14ConnectionItem7setSlotEP8SlotItem
0001:0016f228  __ZN14ConnectionItem5paintEP8QPainterRK11QColorGroupRK5QRectb
0001:0016f484  __ZN14ConnectionItem13setConnectionEP19ConnectionContainer
0001:0016f714* __ZN10SenderItemC2EP6QTableP10FormWindow
0001:0016fb70  __ZN10SenderItemC1EP6QTableP10FormWindow
0001:00170040  __ZNK10SenderItem12createEditorEv
0001:00170104  __ZN10SenderItem11setSenderExEP7QObject
0001:00170178  __ZN10SenderItem13senderChangedERK7QString
0001:001701e0* __ZN12ReceiverItemC2EP6QTableP10FormWindow
0001:0017063c  __ZN12ReceiverItemC1EP6QTableP10FormWindow
0001:00170abc  __ZNK12ReceiverItem12createEditorEv
0001:00170b80  __ZN12ReceiverItem13setReceiverExEP7QObject
0001:00170bec  __ZN12ReceiverItem15receiverChangedERK7QString
0001:00170c54* __ZN10SignalItemC2EP6QTableP10FormWindow
0001:00170d70  __ZN10SignalItemC1EP6QTableP10FormWindow
0001:00170ee4  __ZN10SignalItem13senderChangedEP7QObject
0001:0017125c  __ZNK10SignalItem12createEditorEv
0001:00171328* __ZN8SlotItemC2EP6QTableP10FormWindow
0001:0017147c  __ZN8SlotItemC1EP6QTableP10FormWindow
0001:001715d0  __ZN8SlotItem15receiverChangedEP7QObject
0001:00171748* __ZN8SlotItem14updateSlotListEv
0001:001715fc  __ZN8SlotItem13signalChangedERK7QString
0001:00171644* __ZNK8SlotItem10ignoreSlotEPKc
0001:00172314  __ZNK8SlotItem12createEditorEv
0001:001723d8  __ZN8SlotItem18customSlotsChangedEv
0001:001724bc* __ZN17QValueListPrivateI7QStringEC1Ev$w$j4RJLkJF8U6epNqz1
0001:00172508* __ZN17QValueListPrivateI7QStringED1Ev$w$j4RJLkJF8U6epNqz1
0001:0016f478  __ZThn40_N14ConnectionItem5paintEP8QPainterRK11QColorGroupRK5QRectb$w$j4RJLkJF8U6epNqz1
0001:00172598* __Z7qt_castIP7QActionET_PK7QObject$w$j4RJLkJF8U6epNqz1
0001:001725b4* __ZN17QValueListPrivateI7QStringE6insertE18QValueListIteratorIS0_ERKS0_$w$j4RJLkJF8U6epNqz1
0001:001724a0* __Z7qt_castIP12QActionGroupET_PK7QObject$w$j4RJLkJF8U6epNqz1
0001:00172610* __ZN10QValueListI7QStringE14detachInternalEv$w$j4RJLkJF8U6epNqz1
0001:00172728* __ZNK17QValueListPrivateI7QStringE4findEP14QValueListNodeIS0_ERKS0_$w$j4RJLkJF8U6epNqz1
0001:00172640* __Z7qt_castIP13QLayoutWidgetET_PK7QObject$w$j4RJLkJF8U6epNqz1
0001:0017265c* __Z7qt_castIP6SpacerET_PK7QObject$w$j4RJLkJF8U6epNqz1
0001:00172678* __Z7qt_castIP10SizeHandleET_PK7QObject$w$j4RJLkJF8U6epNqz1
0001:00172694* __ZN10QValueListI7QStringEpLERKS1_$w$j4RJLkJF8U6epNqz1
0001:001700f8  __ZThn40_NK10SenderItem12createEditorEv$w$j4RJLkJF8U6epNqz1
0001:00170b74  __ZThn40_NK12ReceiverItem12createEditorEv$w$j4RJLkJF8U6epNqz1
0001:00172780* __Z7qt_castIP12CustomWidgetET_PK7QObject$w$j4RJLkJF8U6epNqz1
0001:00172d10* __ZTV8QStrList$w$j4RJLkJF8U6epNqz1
0001:00172d50* __ZTV8QPtrListIcE$w$j4RJLkJF8U6epNqz1
0001:0017279c* __ZN10QValueListI8QCStringE14detachInternalEv$w$j4RJLkJF8U6epNqz1
0001:00171314  __ZThn40_NK10SignalItem12createEditorEv$w$j4RJLkJF8U6epNqz1
0001:00172990* __ZN10QValueListIN12MetaDataBase8FunctionEE14detachInternalEv$w$j4RJLkJF8U6epNqz1
0001:001727cc* __ZN17QValueListPrivateIN12MetaDataBase8FunctionEED1Ev$w$j4RJLkJF8U6epNqz1
0001:001723cc  __ZThn40_NK8SlotItem12createEditorEv$w$j4RJLkJF8U6epNqz1
0001:001729c0* __ZN17QValueListPrivateI7QStringEC1ERKS1_$w$j4RJLkJF8U6epNqz1
0001:00172a54* __ZN17QValueListPrivateI8QCStringEC1ERKS1_$w$j4RJLkJF8U6epNqz1
0001:00172ae4* __ZN17QValueListPrivateIN12MetaDataBase8FunctionEEC1ERKS2_$w$j4RJLkJF8U6epNqz1
0001:00172bf8* __ZN17QValueListPrivateI8QCStringE6insertE18QValueListIteratorIS0_ERKS0_$w$j4RJLkJF8U6epNqz1
0001:00172c5c* __ZN17QValueListPrivateIN12MetaDataBase8FunctionEE6insertE18QValueListIteratorIS1_ERKS1_$w$j4RJLkJF8U6epNqz1
0001:001732b4* __ZNK8QPtrListIcE5countEv$w$j4RJLkJF8U6epNqz1
0001:00172dc8* __ZN8QPtrListIcE5clearEv$w$j4RJLkJF8U6epNqz1
0001:00172dd4* __ZN8QStrListD1Ev$w$j4RJLkJF8U6epNqz1
0001:00172e08* __ZN8QStrListD0Ev$w$j4RJLkJF8U6epNqz1
0001:00172e44* __ZN8QStrList7newItemEPv$w$j4RJLkJF8U6epNqz1
0001:00172e68* __ZN8QStrList10deleteItemEPv$w$j4RJLkJF8U6epNqz1
0001:00172e88* __ZN8QStrList12compareItemsEPvS0_$w$j4RJLkJF8U6epNqz1
0001:00172ebc* __ZN8QStrList4readER11QDataStreamRPv$w$j4RJLkJF8U6epNqz1
0001:00172ed8* __ZNK8QStrList5writeER11QDataStreamPv$w$j4RJLkJF8U6epNqz1
0001:00172ef0* __ZN8QPtrListIcED1Ev$w$j4RJLkJF8U6epNqz1
0001:00172f18* __ZN8QPtrListIcED0Ev$w$j4RJLkJF8U6epNqz1
0001:001732c0* __ZN8QPtrListIcE10deleteItemEPv$w$j4RJLkJF8U6epNqz1
0001:00172d90* __ZTV6QGList$w$j4RJLkJF8U6epNqz1
0001:00172dbc* __ZNK6QGList5countEv$w$j4RJLkJF8U6epNqz1
Module: C:\200\trunk\lib\designercore.lib(moc_previewwidgetimpl.obj)
0001:00173300* __ZNK13PreviewWidget9classNameEv
0001:0017330c* __ZN13PreviewWidget2trEPKcS1_
0001:0017334c* __ZN13PreviewWidget6trUtf8EPKcS1_
0001:0017338c* __ZN13PreviewWidget16staticMetaObjectEv
0001:001733e4* __ZN13PreviewWidget7qt_castEPKc
0001:0017343c* __ZN13PreviewWidget9qt_invokeEiP8QUObject
0001:00173458* __ZN13PreviewWidget7qt_emitEiP8QUObject
0001:00173474* __ZN13PreviewWidget11qt_propertyEiiP8QVariant
0001:00173490* __ZN13PreviewWidget18qt_static_propertyEP7QObjectiiP8QVariant
0002:00002bd0* __ZN13PreviewWidget7metaObjE
0001:001734b0  __ZTV13PreviewWidget$w$zSGRNVQF8U66zrbB2
0001:001737f4  __ZNK13PreviewWidget10metaObjectEv$w$zSGRNVQF8U66zrbB2
0001:00173794  __ZN13PreviewWidgetD1Ev$w$zSGRNVQF8U66zrbB2
0001:001737c0  __ZN13PreviewWidgetD0Ev$w$zSGRNVQF8U66zrbB2
0001:00173734* __ZN7QWidget11setGeometryERK5QRect$w$zSGRNVQF8U66zrbB2
0001:0017376c* __ZN7QWidget9setWStateEj$w$zSGRNVQF8U66zrbB2
0001:00173780* __ZN7QWidget9setWFlagsEj$w$zSGRNVQF8U66zrbB2
0001:001737b8  __ZThn40_N13PreviewWidgetD1Ev$w$zSGRNVQF8U66zrbB2
0001:001737ec  __ZThn40_N13PreviewWidgetD0Ev$w$zSGRNVQF8U66zrbB2
0001:001736b0* __ZTV6QGList$w$zSGRNVQF8U66zrbB2
0001:00173728* __ZNK6QGList5countEv$w$zSGRNVQF8U66zrbB2
Module: C:\200\trunk\lib\designercore.lib(moc_newform.obj)
0001:0017383c* __ZNK11NewFormBase9classNameEv
0001:00173848  __ZN11NewFormBase2trEPKcS1_
0001:00173888* __ZN11NewFormBase6trUtf8EPKcS1_
0001:001739d4  __ZN11NewFormBase16staticMetaObjectEv
0001:00173a30  __ZN11NewFormBase7qt_castEPKc
0001:00173a88  __ZN11NewFormBase9qt_invokeEiP8QUObject
0001:00173b08  __ZN11NewFormBase7qt_emitEiP8QUObject
0001:00173b24  __ZN11NewFormBase11qt_propertyEiiP8QVariant
0001:00173b40* __ZN11NewFormBase18qt_static_propertyEP7QObjectiiP8QVariant
0002:00002bf0* __ZN11NewFormBase7metaObjE
0001:00173b50  __ZTV11NewFormBase$w$VjzxlESF8U6K4R2o1
0001:00173e1c  __ZNK11NewFormBase10metaObjectEv$w$VjzxlESF8U6K4R2o1
0001:00173df4* __ZN7QWidget9setWStateEj$w$VjzxlESF8U6K4R2o1
0001:00173e08* __ZN7QWidget9setWFlagsEj$w$VjzxlESF8U6K4R2o1
0001:00173d70* __ZTV6QGList$w$VjzxlESF8U6K4R2o1
0001:00173de8* __ZNK6QGList5countEv$w$VjzxlESF8U6K4R2o1
Module: C:\200\trunk\lib\designercore.lib(moc_listboxeditorimpl.obj)
0001:00173e80* __ZNK13ListBoxEditor9classNameEv
0001:00173e8c  __ZN13ListBoxEditor2trEPKcS1_
0001:00173ecc* __ZN13ListBoxEditor6trUtf8EPKcS1_
0001:001741d4* __ZN13ListBoxEditor16staticMetaObjectEv
0001:00174230* __ZN13ListBoxEditor7qt_castEPKc
0001:00174288* __ZN13ListBoxEditor9qt_invokeEiP8QUObject
0001:001743ac* __ZN13ListBoxEditor7qt_emitEiP8QUObject
0001:001743c8* __ZN13ListBoxEditor11qt_propertyEiiP8QVariant
0001:001743e4* __ZN13ListBoxEditor18qt_static_propertyEP7QObjectiiP8QVariant
0002:00002c10* __ZN13ListBoxEditor7metaObjE
0001:001743f0  __ZTV13ListBoxEditor$w$Hie9LoPF8U6W42Qj1
0001:0017473c  __ZNK13ListBoxEditor10metaObjectEv$w$Hie9LoPF8U6W42Qj1
0001:001746dc  __ZN13ListBoxEditorD1Ev$w$Hie9LoPF8U6W42Qj1
0001:00174708  __ZN13ListBoxEditorD0Ev$w$Hie9LoPF8U6W42Qj1
0001:001746b4* __ZN7QWidget9setWStateEj$w$Hie9LoPF8U6W42Qj1
0001:001746c8* __ZN7QWidget9setWFlagsEj$w$Hie9LoPF8U6W42Qj1
0001:00174700  __ZThn40_N13ListBoxEditorD1Ev$w$Hie9LoPF8U6W42Qj1
0001:00174734  __ZThn40_N13ListBoxEditorD0Ev$w$Hie9LoPF8U6W42Qj1
0001:00174630* __ZTV6QGList$w$Hie9LoPF8U6W42Qj1
0001:001746a8* __ZNK6QGList5countEv$w$Hie9LoPF8U6W42Qj1
Module: C:\200\trunk\lib\designercore.lib(moc_layout.obj)
0001:00174798  __ZNK6Layout9classNameEv
0001:001747a4* __ZN6Layout2trEPKcS1_
0001:001747e4* __ZN6Layout6trUtf8EPKcS1_
0001:00174860  __ZN6Layout16staticMetaObjectEv
0001:001748bc  __ZN6Layout7qt_castEPKc
0001:00174914  __ZN6Layout9qt_invokeEiP8QUObject
0001:00174954  __ZN6Layout7qt_emitEiP8QUObject
0001:00174970  __ZN6Layout11qt_propertyEiiP8QVariant
0001:0017498c* __ZN6Layout18qt_static_propertyEP7QObjectiiP8QVariant
0001:0017499c* __ZNK6Spacer9classNameEv
0001:001749a8* __ZN6Spacer2trEPKcS1_
0001:001749e8* __ZN6Spacer6trUtf8EPKcS1_
0001:00174b88  __ZN6Spacer16staticMetaObjectEv
0001:00174be4* __ZN6Spacer7qt_castEPKc
0001:00174c3c* __ZN6Spacer9qt_invokeEiP8QUObject
0001:00174c58* __ZN6Spacer7qt_emitEiP8QUObject
0001:00174c74* __ZN6Spacer11qt_propertyEiiP8QVariant
0001:00174e08* __ZN6Spacer18qt_static_propertyEP7QObjectiiP8QVariant
0001:00174e24* __ZNK19QDesignerGridLayout9classNameEv
0001:00174e30* __ZN19QDesignerGridLayout2trEPKcS1_
0001:00174e70* __ZN19QDesignerGridLayout6trUtf8EPKcS1_
0001:00174eb0* __ZN19QDesignerGridLayout16staticMetaObjectEv
0001:00174f08* __ZN19QDesignerGridLayout7qt_castEPKc
0001:00174f60* __ZN19QDesignerGridLayout9qt_invokeEiP8QUObject
0001:00174f7c* __ZN19QDesignerGridLayout7qt_emitEiP8QUObject
0001:00174f98* __ZN19QDesignerGridLayout11qt_propertyEiiP8QVariant
0001:00174fb4* __ZN19QDesignerGridLayout18qt_static_propertyEP7QObjectiiP8QVariant
0002:00002c30* __ZN6Layout7metaObjE
0002:00002c34* __ZN6Spacer7metaObjE
0002:00002c38* __ZN19QDesignerGridLayout7metaObjE
0001:00174fd0  __ZTV19QDesignerGridLayout$w$drwiiwOF8U60Hkis0
0001:00175730  __ZNK19QDesignerGridLayout10metaObjectEv$w$drwiiwOF8U60Hkis0
0001:00175670  __ZN19QDesignerGridLayoutD1Ev$w$drwiiwOF8U60Hkis0
0001:001756cc  __ZN19QDesignerGridLayoutD0Ev$w$drwiiwOF8U60Hkis0
0001:001756c4  __ZThn40_N19QDesignerGridLayoutD1Ev$w$drwiiwOF8U60Hkis0
0001:00175728  __ZThn40_N19QDesignerGridLayoutD0Ev$w$drwiiwOF8U60Hkis0
0001:001750d0  __ZTV6Spacer$w$drwiiwOF8U60Hkis0
0001:00175664  __ZNK6Spacer10metaObjectEv$w$drwiiwOF8U60Hkis0
0001:00175604  __ZN6SpacerD1Ev$w$drwiiwOF8U60Hkis0
0001:00175630  __ZN6SpacerD0Ev$w$drwiiwOF8U60Hkis0
0001:00175438* __ZN7QWidget11setGeometryERK5QRect$w$drwiiwOF8U60Hkis0
0001:00175470* __ZN7QWidget9setWStateEj$w$drwiiwOF8U60Hkis0
0001:00175484* __ZN7QWidget9setWFlagsEj$w$drwiiwOF8U60Hkis0
0001:00175628  __ZThn40_N6SpacerD1Ev$w$drwiiwOF8U60Hkis0
0001:0017565c  __ZThn40_N6SpacerD0Ev$w$drwiiwOF8U60Hkis0
0001:001752d0  __ZTV6Layout$w$drwiiwOF8U60Hkis0
0001:00175498  __ZNK6Layout10metaObjectEv$w$drwiiwOF8U60Hkis0
0001:001754a4  __ZN6LayoutD1Ev$w$drwiiwOF8U60Hkis0
0001:00175550  __ZN6LayoutD0Ev$w$drwiiwOF8U60Hkis0
0001:00175350* __ZTV6QGList$w$drwiiwOF8U60Hkis0
0001:0017542c* __ZNK6QGList5countEv$w$drwiiwOF8U60Hkis0
0001:0017573c  __ZN11QMapPrivateI11QGuardedPtrI7QWidgetE5QRectE5clearEv$w$drwiiwOF8U60Hkis0
0001:00175870* __ZTV11QWidgetList$w$drwiiwOF8U60Hkis0
0001:001758b0* __ZTV8QPtrListI7QWidgetE$w$drwiiwOF8U60Hkis0
0001:00175778  __ZN11QMapPrivateIP7QWidgetN19QDesignerGridLayout4ItemEE5clearEv$w$drwiiwOF8U60Hkis0
0001:001757b4  __ZN11QMapPrivateI11QGuardedPtrI7QWidgetE5QRectE5clearEP8QMapNodeIS2_S3_E$w$drwiiwOF8U60Hkis0
0001:00175818  __ZN11QMapPrivateIP7QWidgetN19QDesignerGridLayout4ItemEE5clearEP8QMapNodeIS1_S3_E$w$drwiiwOF8U60Hkis0
0001:001759b0* __ZNK8QPtrListI7QWidgetE5countEv$w$drwiiwOF8U60Hkis0
0001:001758dc* __ZN8QPtrListI7QWidgetE5clearEv$w$drwiiwOF8U60Hkis0
0001:001758e8* __ZN11QWidgetListD1Ev$w$drwiiwOF8U60Hkis0
0001:0017591c* __ZN11QWidgetListD0Ev$w$drwiiwOF8U60Hkis0
0001:001759bc* __ZN8QPtrListI7QWidgetE10deleteItemEPv$w$drwiiwOF8U60Hkis0
0001:00175958* __ZN8QPtrListI7QWidgetED1Ev$w$drwiiwOF8U60Hkis0
0001:00175980* __ZN8QPtrListI7QWidgetED0Ev$w$drwiiwOF8U60Hkis0
Module: C:\200\trunk\lib\designercore.lib(menubareditor.obj)
0001:00175a48* __ZN24MenuBarEditorItemPtrDragC2EP17MenuBarEditorItemP7QWidgetPKc
0001:00175af8* __ZN24MenuBarEditorItemPtrDragC1EP17MenuBarEditorItemP7QWidgetPKc
0001:00175ba8* __ZN24MenuBarEditorItemPtrDrag9canDecodeEP14QDragMoveEvent
0001:00175bc4* __ZN24MenuBarEditorItemPtrDrag6decodeEP10QDropEventPP17MenuBarEditorItem
0001:00175c84* __ZN17MenuBarEditorItemC2EP13MenuBarEditorP7QObjectPKc
0001:00175cd8* __ZN17MenuBarEditorItemC1EP13MenuBarEditorP7QObjectPKc
0001:00175d2c* __ZN17MenuBarEditorItemC2EP15PopupMenuEditorP13MenuBarEditorP7QObjectPKc
0001:00175d9c* __ZN17MenuBarEditorItemC1EP15PopupMenuEditorP13MenuBarEditorP7QObjectPKc
0001:00175e0c* __ZN17MenuBarEditorItemC2EP12QActionGroupP13MenuBarEditorP7QObjectPKc
0001:0017693c* __ZN13MenuBarEditor10formWindowEv
0001:00175ee8* __ZN17MenuBarEditorItemC1EP12QActionGroupP13MenuBarEditorP7QObjectPKc
0001:00175fc4* __ZN17MenuBarEditorItemC2EPS_P7QObjectPKc
0001:0017606c* __ZN17MenuBarEditorItemC1EPS_P7QObjectPKc
0001:0017614c* __ZN13MenuBarEditorC2EP10FormWindowP7QWidgetPKc
0001:001763e0  __ZN13MenuBarEditorC1EP10FormWindowP7QWidgetPKc
0001:00176674* __ZN13MenuBarEditorD2Ev
0001:0017674c  __ZN13MenuBarEditorD1Ev
0001:00176840  __ZN13MenuBarEditorD0Ev
0001:00176954* __ZN13MenuBarEditor10createItemEib
0001:00176ad0  __ZN13MenuBarEditor10insertItemEP17MenuBarEditorItemi
0001:00178440* __ZN13MenuBarEditor15resizeInternalsEv
0001:00176b5c  __ZN13MenuBarEditor10insertItemE7QStringP15PopupMenuEditori
0001:00176bec* __ZN13MenuBarEditor10insertItemE7QStringP12QActionGroupi
0001:00176c84  __ZN13MenuBarEditor15insertSeparatorEi
0001:00176d04  __ZN13MenuBarEditor12removeItemAtEi
0001:00177010  __ZN13MenuBarEditor4itemEi
0001:00176d28* __ZN13MenuBarEditor10removeItemEP17MenuBarEditorItem
0001:00177070  __ZN13MenuBarEditor5countEv
0001:00176dd0  __ZN13MenuBarEditor8findItemEP17MenuBarEditorItem
0001:00176df0  __ZN13MenuBarEditor8findItemEP15PopupMenuEditor
0001:00176e3c  __ZN13MenuBarEditor8findItemER6QPoint
0001:001787d0* __ZN13MenuBarEditor8itemSizeEP17MenuBarEditorItem
0001:001788c8* __ZN13MenuBarEditor19addItemSizeToCoordsEP17MenuBarEditorItemRiS2_i
0001:00177080* __ZN13MenuBarEditor7currentEv
0001:00177098* __ZN13MenuBarEditor3cutEi
0001:001771b0* __ZN13MenuBarEditor4copyEi
0001:00177244* __ZN13MenuBarEditor5pasteEi
0001:00177314  __ZN13MenuBarEditor8exchangeEii
0001:001773a4* __ZN13MenuBarEditor12showLineEditEi
0001:00178924* __ZN13MenuBarEditor7itemPosEi
0001:00177514* __ZN13MenuBarEditor8showItemEi
0001:001775cc  __ZN13MenuBarEditor8hideItemEi
0001:00177628* __ZN13MenuBarEditor9focusItemEi
0001:001776a0* __ZN13MenuBarEditor10deleteItemEi
0001:00177754  __ZNK13MenuBarEditor8sizeHintEv
0001:00177788  __ZNK13MenuBarEditor14heightForWidthEi
0001:001778b4  __ZN13MenuBarEditor4showEv
0001:00177978  __ZN13MenuBarEditor11checkAccelsER4QMapI5QChar11QWidgetListE
0001:00177a4c  __ZN13MenuBarEditor3cutEv
0001:00177a68  __ZN13MenuBarEditor4copyEv
0001:00177a84  __ZN13MenuBarEditor5pasteEv
0001:00177aa0  __ZN13MenuBarEditor11eventFilterEP7QObjectP6QEvent
0001:00179004* __ZN13MenuBarEditor13leaveEditModeEv
0001:00177b30  __ZN13MenuBarEditor10paintEventEP11QPaintEvent
0001:00178470* __ZN13MenuBarEditor9drawItemsER8QPainter
0001:00177c08  __ZN13MenuBarEditor15mousePressEventEP11QMouseEvent
0001:00177c78  __ZN13MenuBarEditor21mouseDoubleClickEventEP11QMouseEvent
0001:00177cfc  __ZN13MenuBarEditor14mouseMoveEventEP11QMouseEvent
0001:00179208* __ZN13MenuBarEditor16createTextPixmapERK7QString
0001:00177fbc  __ZN13MenuBarEditor14dragEnterEventEP15QDragEnterEvent
0001:00177ff8  __ZN13MenuBarEditor14dragLeaveEventEP15QDragLeaveEvent
0001:00178018  __ZN13MenuBarEditor13dragMoveEventEP14QDragMoveEvent
0001:00178a2c* __ZN13MenuBarEditor10snapToItemERK6QPoint
0001:00178098  __ZN13MenuBarEditor9dropEventEP10QDropEvent
0001:00178b28* __ZN13MenuBarEditor11dropInPlaceEP17MenuBarEditorItemRK6QPoint
0001:0017810c  __ZN13MenuBarEditor13keyPressEventEP9QKeyEvent
0001:00178fc0* __ZN13MenuBarEditor13enterEditModeEv
0001:00178de0* __ZN13MenuBarEditor12navigateLeftEb
0001:00178ed4* __ZN13MenuBarEditor13navigateRightEb
0001:001783fc  __ZN13MenuBarEditor13focusOutEventEP11QFocusEvent
0001:0017855c* __ZN13MenuBarEditor8drawItemER8QPainterP17MenuBarEditorItemiR6QPoint
0001:001786e0* __ZN13MenuBarEditor13drawSeparatorER8QPainterR6QPoint
0001:00178d40* __ZN13MenuBarEditor7safeDecEv
0001:00178d78* __ZN13MenuBarEditor7safeIncEv
0002:00002c70* __ZN13MenuBarEditor18clipboardOperationE
0002:00002c74* __ZN13MenuBarEditor13clipboardItemE
0001:00179430  __ZTV24MenuBarEditorItemPtrDrag$w$RFvP0zKF8U6rMTbm1
0001:00179580* __ZTV9QMemArrayIcE$w$RFvP0zKF8U6rMTbm1
0001:001794d0  __ZTV8QPtrListI17MenuBarEditorItemE$w$RFvP0zKF8U6rMTbm1
0001:00176824  __ZThn140_N13MenuBarEditorD1Ev$w$RFvP0zKF8U6rMTbm1
0001:00176834  __ZThn40_N13MenuBarEditorD1Ev$w$RFvP0zKF8U6rMTbm1
0001:00176920  __ZThn140_N13MenuBarEditorD0Ev$w$RFvP0zKF8U6rMTbm1
0001:00176930  __ZThn40_N13MenuBarEditorD0Ev$w$RFvP0zKF8U6rMTbm1
0001:00179540  __ZTV12QResizeEvent$w$RFvP0zKF8U6rMTbm1
0001:00179410* __Z7qt_castIP15PopupMenuEditorET_PK7QObject$w$RFvP0zKF8U6rMTbm1
0001:00179510* __ZTV7QBitmap$w$RFvP0zKF8U6rMTbm1
0001:0017964c* __ZNK11QStoredDrag10metaObjectEv$w$RFvP0zKF8U6rMTbm1
0001:00179658  __ZN24MenuBarEditorItemPtrDragD1Ev$w$RFvP0zKF8U6rMTbm1
0001:00179684  __ZN24MenuBarEditorItemPtrDragD0Ev$w$RFvP0zKF8U6rMTbm1
0001:0017967c  __ZThn40_N24MenuBarEditorItemPtrDragD1Ev$w$RFvP0zKF8U6rMTbm1
0001:001796b0  __ZThn40_N24MenuBarEditorItemPtrDragD0Ev$w$RFvP0zKF8U6rMTbm1
0001:00179744  __ZNK8QPtrListI17MenuBarEditorItemE5countEv$w$RFvP0zKF8U6rMTbm1
0001:00179708  __ZN8QPtrListI17MenuBarEditorItemE5clearEv$w$RFvP0zKF8U6rMTbm1
0001:001796e0  __ZN8QPtrListI17MenuBarEditorItemED1Ev$w$RFvP0zKF8U6rMTbm1
0001:00179714  __ZN8QPtrListI17MenuBarEditorItemED0Ev$w$RFvP0zKF8U6rMTbm1
0001:00179750  __ZN8QPtrListI17MenuBarEditorItemE10deleteItemEPv$w$RFvP0zKF8U6rMTbm1
0001:00179630* __ZN7QBitmapD1Ev$w$RFvP0zKF8U6rMTbm1
0001:00179608* __ZN7QBitmapD0Ev$w$RFvP0zKF8U6rMTbm1
0001:001795ec  __ZN12QResizeEventD1Ev$w$RFvP0zKF8U6rMTbm1
0001:001795c4  __ZN12QResizeEventD0Ev$w$RFvP0zKF8U6rMTbm1
0001:00179550* __ZTV6QGList$w$RFvP0zKF8U6rMTbm1
0001:001795b8* __ZNK6QGList5countEv$w$RFvP0zKF8U6rMTbm1
0001:0017959c* __ZN9QMemArrayIcED1Ev$w$RFvP0zKF8U6rMTbm1
0001:001796b8* __ZN9QMemArrayIcED0Ev$w$RFvP0zKF8U6rMTbm1
0001:00179778* __ZN9QMemArrayIcE6detachEv$w$RFvP0zKF8U6rMTbm1
Module: C:\200\trunk\lib\designercore.lib(moc_popupmenueditor.obj)
0001:001797a4* __ZNK19PopupMenuEditorItem9classNameEv
0001:001797b0* __ZN19PopupMenuEditorItem2trEPKcS1_
0001:001797f0* __ZN19PopupMenuEditorItem6trUtf8EPKcS1_
0001:00179868* __ZN19PopupMenuEditorItem16staticMetaObjectEv
0001:001798c4* __ZN19PopupMenuEditorItem7qt_castEPKc
0001:0017991c* __ZN19PopupMenuEditorItem9qt_invokeEiP8QUObject
0001:0017995c* __ZN19PopupMenuEditorItem7qt_emitEiP8QUObject
0001:00179978* __ZN19PopupMenuEditorItem11qt_propertyEiiP8QVariant
0001:00179994* __ZN19PopupMenuEditorItem18qt_static_propertyEP7QObjectiiP8QVariant
0001:001799ac* __ZNK15PopupMenuEditor9classNameEv
0001:001799b8  __ZN15PopupMenuEditor2trEPKcS1_
0001:001799f8* __ZN15PopupMenuEditor6trUtf8EPKcS1_
0001:00179ca8  __ZN15PopupMenuEditor16staticMetaObjectEv
0001:00179d04* __ZN15PopupMenuEditor7qt_castEPKc
0001:00179d5c  __ZN15PopupMenuEditor8insertedEP7QAction
0001:00179de8  __ZN15PopupMenuEditor7removedEP7QAction
0001:00179e78* __ZN15PopupMenuEditor9qt_invokeEiP8QUObject
0001:00179f6c* __ZN15PopupMenuEditor7qt_emitEiP8QUObject
0001:00179fcc* __ZN15PopupMenuEditor11qt_propertyEiiP8QVariant
0001:00179fe8* __ZN15PopupMenuEditor18qt_static_propertyEP7QObjectiiP8QVariant
0002:00002c80* __ZN19PopupMenuEditorItem7metaObjE
0002:00002c84* __ZN15PopupMenuEditor7metaObjE
0001:00179ff0  __ZTV15PopupMenuEditor$w$pNQGpjSF8U6qzCyI2
0001:0017a370  __ZNK15PopupMenuEditor10metaObjectEv$w$pNQGpjSF8U6qzCyI2
0001:0017a304* __ZN7QWidget11setGeometryERK5QRect$w$pNQGpjSF8U6qzCyI2
0001:0017a33c* __ZN7QWidget9setWStateEj$w$pNQGpjSF8U6qzCyI2
0001:0017a350* __ZN7QWidget9setWFlagsEj$w$pNQGpjSF8U6qzCyI2
0001:0017a1f0  __ZTV19PopupMenuEditorItem$w$pNQGpjSF8U6qzCyI2
0001:0017a364  __ZNK19PopupMenuEditorItem10metaObjectEv$w$pNQGpjSF8U6qzCyI2
0001:0017a250* __ZTV6QGList$w$pNQGpjSF8U6qzCyI2
0001:0017a2f8* __ZNK6QGList5countEv$w$pNQGpjSF8U6qzCyI2
Module: C:\200\trunk\lib\designercore.lib(paletteeditorimpl.obj)
0001:0017a3d0* __ZN13PaletteEditorC2EP10FormWindowP7QWidgetPKcbj
0001:0017ae84* __ZN13PaletteEditor17setPreviewPaletteERK8QPalette
0001:0017a4b8* __ZN13PaletteEditorC1EP10FormWindowP7QWidgetPKcbj
0001:0017a5a0* __ZN13PaletteEditorD2Ev
0001:0017a5e4  __ZN13PaletteEditorD1Ev
0001:0017a630  __ZN13PaletteEditorD0Ev
0001:0017a68c  __ZN13PaletteEditor6onTuneEv
0001:0017a6f4  __ZN13PaletteEditor17onChooseMainColorEv
0001:0017a800* __ZN13PaletteEditor12buildPaletteEv
0001:0017a700  __ZN13PaletteEditor20onChoose2ndMainColorEv
0001:0017a70c  __ZN13PaletteEditor15paletteSelectedEi
0001:0017a724* __ZN13PaletteEditor15centralFromItemEi
0001:0017a7a8* __ZN13PaletteEditor14effectFromItemEi
0001:0017a9e0* __ZN13PaletteEditor17buildActiveEffectEv
0001:0017aad8* __ZN13PaletteEditor19buildInactiveEffectEv
0001:0017ace4* __ZN13PaletteEditor19buildDisabledEffectEv
0001:0017af2c* __ZN13PaletteEditor19updateStyledButtonsEv
0001:0017aaac* __ZN13PaletteEditor13buildInactiveEv
0001:0017ac78* __ZN13PaletteEditor13buildDisabledEv
0001:0017af80* __ZN13PaletteEditor6setPalERK8QPalette
0001:0017afb8* __ZNK13PaletteEditor3palEv
0001:0017afdc  __ZN13PaletteEditor10getPaletteEPbRK8QPaletteN2Qt14BackgroundModeEP7QWidgetPKcP10FormWindow
0001:0017a628  __ZThn40_N13PaletteEditorD1Ev$w$TCJBVPEF8U6eG7Ma2
0001:0017a678  __ZThn40_N13PaletteEditorD0Ev$w$TCJBVPEF8U6eG7Ma2
0001:0017b0f0* __ZTV6QGList$w$TCJBVPEF8U6eG7Ma2
0001:0017b11c* __ZNK6QGList5countEv$w$TCJBVPEF8U6eG7Ma2
Module: C:\200\trunk\lib\qassistantclient.lib(qassistantclient.obj)
0001:0017b2ac* __ZN16QAssistantClientC2ERK7QStringP7QObjectPKc
0001:0017b4b4  __ZN16QAssistantClientC1ERK7QStringP7QObjectPKc
0001:0017b6bc* __ZN16QAssistantClientD2Ev
0001:0017b844  __ZN16QAssistantClientD1Ev
0001:0017b9cc  __ZN16QAssistantClientD0Ev
0001:0017bbac  __ZN16QAssistantClient13openAssistantEv
0001:0017bea4  __ZN16QAssistantClient8readPortEv
0001:0017bf64  __ZN16QAssistantClient14closeAssistantEv
0001:0017bf98  __ZN16QAssistantClient8showPageERK7QString
0001:0017c01c  __ZNK16QAssistantClient6isOpenEv
0001:0017c028  __ZN16QAssistantClient15socketConnectedEv
0001:0017c060  __ZN16QAssistantClient22socketConnectionClosedEv
0001:0017c0e8  __ZN16QAssistantClient11socketErrorEi
0001:0017c164  __ZN16QAssistantClient12readStdErrorEv
0001:0017c29c* __ZN16QAssistantClient12setArgumentsERK11QStringList
0001:0017c2ec  __ZN4QMapIPK16QAssistantClientP23QAssistantClientPrivateEixERKS2_$w$pJGsULvF8U6s2iX52
0001:0017c400* __ZN17QValueListPrivateI7QStringEC1Ev$w$pJGsULvF8U6s2iX52
0001:0017c360  __ZN4QMapIPK16QAssistantClientP23QAssistantClientPrivateE6insertERKS2_RKS4_b$w$pJGsULvF8U6s2iX52
0001:0017c3c4  __ZN11QMapPrivateIPK16QAssistantClientP23QAssistantClientPrivateEC1Ev$w$pJGsULvF8U6s2iX52
0001:0017c4dc  __ZN4QMapIPK16QAssistantClientP23QAssistantClientPrivateE6removeERKS2_$w$pJGsULvF8U6s2iX52
0001:0017c578  __ZN11QMapPrivateIPK16QAssistantClientP23QAssistantClientPrivateE5clearEv$w$pJGsULvF8U6s2iX52
0001:0017c44c* __ZN17QValueListPrivateI7QStringED1Ev$w$pJGsULvF8U6s2iX52
0001:0017c5b4* __ZN10QValueListI7QStringE14detachInternalEv$w$pJGsULvF8U6s2iX52
0001:0017c5e4  __ZNK11QMapPrivateIPK16QAssistantClientP23QAssistantClientPrivateE4findERKS2_$w$pJGsULvF8U6s2iX52
0001:0017c634  __ZN4QMapIPK16QAssistantClientP23QAssistantClientPrivateE14detachInternalEv$w$pJGsULvF8U6s2iX52
0001:0017c664  __ZN11QMapPrivateIPK16QAssistantClientP23QAssistantClientPrivateE12insertSingleERKS2_$w$pJGsULvF8U6s2iX52
0001:0017c700  __ZN11QMapPrivateIPK16QAssistantClientP23QAssistantClientPrivateE5clearEP8QMapNodeIS2_S4_E$w$pJGsULvF8U6s2iX52
0001:0017c73c* __ZN17QValueListPrivateI7QStringEC1ERKS1_$w$pJGsULvF8U6s2iX52
0001:0017c7d0  __ZN11QMapPrivateIPK16QAssistantClientP23QAssistantClientPrivateEC1EPKS5_$w$pJGsULvF8U6s2iX52
0001:0017c868  __ZN11QMapPrivateIPK16QAssistantClientP23QAssistantClientPrivateE6insertEP12QMapNodeBaseS7_RKS2_$w$pJGsULvF8U6s2iX52
0001:0017c8fc  __ZN12QMapIteratorIPK16QAssistantClientP23QAssistantClientPrivateE3decEv$w$pJGsULvF8U6s2iX52
0001:0017ca28* __ZN17QValueListPrivateI7QStringE6insertE18QValueListIteratorIS0_ERKS0_$w$pJGsULvF8U6s2iX52
0001:0017c954  __ZN11QMapPrivateIPK16QAssistantClientP23QAssistantClientPrivateE4copyEP8QMapNodeIS2_S4_E$w$pJGsULvF8U6s2iX52
0001:0017c9f0* __ZTV6QGList$w$pJGsULvF8U6s2iX52
0001:0017ca1c* __ZNK6QGList5countEv$w$pJGsULvF8U6s2iX52
Module: C:\200\trunk\lib\designercore.lib(moc_connectionitems.obj)
0001:0017caa0* __ZNK14ConnectionItem9classNameEv
0001:0017caac* __ZN14ConnectionItem2trEPKcS1_
0001:0017caec* __ZN14ConnectionItem6trUtf8EPKcS1_
0001:0017cccc* __ZN14ConnectionItem16staticMetaObjectEv
0001:0017cd38* __ZN14ConnectionItem7qt_castEPKc
0001:0017cdc4  __ZN14ConnectionItem7changedEv
0001:0017cde4* __ZN14ConnectionItem9qt_invokeEiP8QUObject
0001:0017ce74* __ZN14ConnectionItem7qt_emitEiP8QUObject
0001:0017ceb4* __ZN14ConnectionItem11qt_propertyEiiP8QVariant
0001:0017ced0* __ZN14ConnectionItem18qt_static_propertyEP7QObjectiiP8QVariant
0001:0017cee4* __ZNK10SenderItem9classNameEv
0001:0017cef0* __ZN10SenderItem2trEPKcS1_
0001:0017cf30* __ZN10SenderItem6trUtf8EPKcS1_
0001:0017d018* __ZN10SenderItem16staticMetaObjectEv
0001:0017d074* __ZN10SenderItem7qt_castEPKc
0001:0017d0cc  __ZN10SenderItem20currentSenderChangedEP7QObject
0001:0017d158* __ZN10SenderItem9qt_invokeEiP8QUObject
0001:0017d1a0* __ZN10SenderItem7qt_emitEiP8QUObject
0001:0017d1e8* __ZN10SenderItem11qt_propertyEiiP8QVariant
0001:0017d204* __ZN10SenderItem18qt_static_propertyEP7QObjectiiP8QVariant
0001:0017d218* __ZNK12ReceiverItem9classNameEv
0001:0017d224* __ZN12ReceiverItem2trEPKcS1_
0001:0017d264* __ZN12ReceiverItem6trUtf8EPKcS1_
0001:0017d350* __ZN12ReceiverItem16staticMetaObjectEv
0001:0017d3ac* __ZN12ReceiverItem7qt_castEPKc
0001:0017d404  __ZN12ReceiverItem22currentReceiverChangedEP7QObject
0001:0017d490* __ZN12ReceiverItem9qt_invokeEiP8QUObject
0001:0017d4d8* __ZN12ReceiverItem7qt_emitEiP8QUObject
0001:0017d520* __ZN12ReceiverItem11qt_propertyEiiP8QVariant
0001:0017d53c* __ZN12ReceiverItem18qt_static_propertyEP7QObjectiiP8QVariant
0001:0017d550* __ZNK10SignalItem9classNameEv
0001:0017d55c* __ZN10SignalItem2trEPKcS1_
0001:0017d59c* __ZN10SignalItem6trUtf8EPKcS1_
0001:0017d644* __ZN10SignalItem16staticMetaObjectEv
0001:0017d6a0* __ZN10SignalItem7qt_castEPKc
0001:0017d6f8* __ZN10SignalItem20currentSignalChangedERK7QString
0001:0017d74c* __ZN10SignalItem9qt_invokeEiP8QUObject
0001:0017d768* __ZN10SignalItem7qt_emitEiP8QUObject
0001:0017d7b0* __ZN10SignalItem11qt_propertyEiiP8QVariant
0001:0017d7cc* __ZN10SignalItem18qt_static_propertyEP7QObjectiiP8QVariant
0001:0017d7dc* __ZNK8SlotItem9classNameEv
0001:0017d7e8* __ZN8SlotItem2trEPKcS1_
0001:0017d828* __ZN8SlotItem6trUtf8EPKcS1_
0001:0017d8c8* __ZN8SlotItem16staticMetaObjectEv
0001:0017d924* __ZN8SlotItem7qt_castEPKc
0001:0017d97c  __ZN8SlotItem18currentSlotChangedERK7QString
0001:0017d9d0* __ZN8SlotItem9qt_invokeEiP8QUObject
0001:0017d9ec* __ZN8SlotItem7qt_emitEiP8QUObject
0001:0017da34* __ZN8SlotItem11qt_propertyEiiP8QVariant
0001:0017da50* __ZN8SlotItem18qt_static_propertyEP7QObjectiiP8QVariant
0001:0017da6c* __ZNK19ConnectionContainer9classNameEv
0001:0017da78* __ZN19ConnectionContainer2trEPKcS1_
0001:0017dab8* __ZN19ConnectionContainer6trUtf8EPKcS1_
0001:0017db84* __ZN19ConnectionContainer16staticMetaObjectEv
0001:0017dbe0* __ZN19ConnectionContainer7qt_castEPKc
0001:0017dc38* __ZN19ConnectionContainer7changedEPS_
0001:0017dcc4* __ZN19ConnectionContainer9qt_invokeEiP8QUObject
0001:0017dd08* __ZN19ConnectionContainer7qt_emitEiP8QUObject
0001:0017dd50* __ZN19ConnectionContainer11qt_propertyEiiP8QVariant
0001:0017dd6c* __ZN19ConnectionContainer18qt_static_propertyEP7QObjectiiP8QVariant
0002:00002cc0* __ZN14ConnectionItem7metaObjE
0002:00002cc4* __ZN10SenderItem7metaObjE
0002:00002cc8* __ZN12ReceiverItem7metaObjE
0002:00002ccc* __ZN10SignalItem7metaObjE
0002:00002cd0* __ZN8SlotItem7metaObjE
0002:00002cd4* __ZN19ConnectionContainer7metaObjE
0001:0017dd90  __ZTV19ConnectionContainer$w$NDBEzGRF8U6YTypR1
0001:0017e730  __ZNK19ConnectionContainer10metaObjectEv$w$NDBEzGRF8U6YTypR1
0001:0017e6ec  __ZN19ConnectionContainerD1Ev$w$NDBEzGRF8U6YTypR1
0001:0017e708  __ZN19ConnectionContainerD0Ev$w$NDBEzGRF8U6YTypR1
0001:0017ddf0  __ZTV8SlotItem$w$NDBEzGRF8U6YTypR1
0001:0017e6e0  __ZNK8SlotItem10metaObjectEv$w$NDBEzGRF8U6YTypR1
0001:0017e604  __ZN8SlotItemD1Ev$w$NDBEzGRF8U6YTypR1
0001:0017e670  __ZN8SlotItemD0Ev$w$NDBEzGRF8U6YTypR1
0001:0017e668  __ZThn40_N8SlotItemD1Ev$w$NDBEzGRF8U6YTypR1
0001:0017e6d8  __ZThn40_N8SlotItemD0Ev$w$NDBEzGRF8U6YTypR1
0001:0017ded0  __ZTV10SignalItem$w$NDBEzGRF8U6YTypR1
0001:0017e5f8  __ZNK10SignalItem10metaObjectEv$w$NDBEzGRF8U6YTypR1
0001:0017e580  __ZN10SignalItemD1Ev$w$NDBEzGRF8U6YTypR1
0001:0017e5b8  __ZN10SignalItemD0Ev$w$NDBEzGRF8U6YTypR1
0001:0017e5b0  __ZThn40_N10SignalItemD1Ev$w$NDBEzGRF8U6YTypR1
0001:0017e5f0  __ZThn40_N10SignalItemD0Ev$w$NDBEzGRF8U6YTypR1
0001:0017dfb0  __ZTV12ReceiverItem$w$NDBEzGRF8U6YTypR1
0001:0017e574  __ZNK12ReceiverItem10metaObjectEv$w$NDBEzGRF8U6YTypR1
0001:0017e4fc  __ZN12ReceiverItemD1Ev$w$NDBEzGRF8U6YTypR1
0001:0017e534  __ZN12ReceiverItemD0Ev$w$NDBEzGRF8U6YTypR1
0001:0017e52c  __ZThn40_N12ReceiverItemD1Ev$w$NDBEzGRF8U6YTypR1
0001:0017e56c  __ZThn40_N12ReceiverItemD0Ev$w$NDBEzGRF8U6YTypR1
0001:0017e090  __ZTV10SenderItem$w$NDBEzGRF8U6YTypR1
0001:0017e4f0  __ZNK10SenderItem10metaObjectEv$w$NDBEzGRF8U6YTypR1
0001:0017e478  __ZN10SenderItemD1Ev$w$NDBEzGRF8U6YTypR1
0001:0017e4b0  __ZN10SenderItemD0Ev$w$NDBEzGRF8U6YTypR1
0001:0017e4a8  __ZThn40_N10SenderItemD1Ev$w$NDBEzGRF8U6YTypR1
0001:0017e4e8  __ZThn40_N10SenderItemD0Ev$w$NDBEzGRF8U6YTypR1
0001:0017e170  __ZTV14ConnectionItem$w$NDBEzGRF8U6YTypR1
0001:0017e46c  __ZNK14ConnectionItem10metaObjectEv$w$NDBEzGRF8U6YTypR1
0001:0017e3f4  __ZN14ConnectionItemD1Ev$w$NDBEzGRF8U6YTypR1
0001:0017e42c  __ZN14ConnectionItemD0Ev$w$NDBEzGRF8U6YTypR1
0001:0017e424  __ZThn40_N14ConnectionItemD1Ev$w$NDBEzGRF8U6YTypR1
0001:0017e464  __ZThn40_N14ConnectionItemD0Ev$w$NDBEzGRF8U6YTypR1
0001:0017e250* __ZTV6QGList$w$NDBEzGRF8U6YTypR1
0001:0017e3e8* __ZNK6QGList5countEv$w$NDBEzGRF8U6YTypR1
Module: C:\200\trunk\lib\designercore.lib(moc_qcompletionedit.obj)
0001:0017e780* __ZNK15QCompletionEdit9classNameEv
0001:0017e78c* __ZN15QCompletionEdit2trEPKcS1_
0001:0017e7cc* __ZN15QCompletionEdit6trUtf8EPKcS1_
0001:0017eb20* __ZN15QCompletionEdit16staticMetaObjectEv
0001:0017eb80* __ZN15QCompletionEdit7qt_castEPKc
0001:0017ebd8  __ZN15QCompletionEdit6chosenERK7QString
0001:0017ec2c* __ZN15QCompletionEdit9qt_invokeEiP8QUObject
0001:0017ecf8* __ZN15QCompletionEdit7qt_emitEiP8QUObject
0001:0017ed40* __ZN15QCompletionEdit11qt_propertyEiiP8QVariant
0001:0017ee24* __ZN15QCompletionEdit18qt_static_propertyEP7QObjectiiP8QVariant
0002:00002d40* __ZN15QCompletionEdit7metaObjE
0001:0017ee30  __ZTV15QCompletionEdit$w$57wK2gRF8U6Lpyhy4
0001:0017f22c  __ZNK15QCompletionEdit10metaObjectEv$w$57wK2gRF8U6Lpyhy4
0001:0017f174  __ZN15QCompletionEditD1Ev$w$57wK2gRF8U6Lpyhy4
0001:0017f1cc  __ZN15QCompletionEditD0Ev$w$57wK2gRF8U6Lpyhy4
0001:0017f114* __ZN7QWidget11setGeometryERK5QRect$w$57wK2gRF8U6Lpyhy4
0001:0017f14c* __ZN7QWidget9setWStateEj$w$57wK2gRF8U6Lpyhy4
0001:0017f160* __ZN7QWidget9setWFlagsEj$w$57wK2gRF8U6Lpyhy4
0001:0017f1c4  __ZThn40_N15QCompletionEditD1Ev$w$57wK2gRF8U6Lpyhy4
0001:0017f224  __ZThn40_N15QCompletionEditD0Ev$w$57wK2gRF8U6Lpyhy4
0001:0017f090* __ZTV6QGList$w$57wK2gRF8U6Lpyhy4
0001:0017f108* __ZNK6QGList5countEv$w$57wK2gRF8U6Lpyhy4
0001:0017f238* __ZN17QValueListPrivateI7QStringED1Ev$w$57wK2gRF8U6Lpyhy4
Module: C:\200\trunk\lib\designercore.lib(moc_multilineeditor.obj)
0001:0017f324* __ZNK19MultiLineEditorBase9classNameEv
0001:0017f330  __ZN19MultiLineEditorBase2trEPKcS1_
0001:0017f370* __ZN19MultiLineEditorBase6trUtf8EPKcS1_
0001:0017f4a0  __ZN19MultiLineEditorBase16staticMetaObjectEv
0001:0017f4fc  __ZN19MultiLineEditorBase7qt_castEPKc
0001:0017f554  __ZN19MultiLineEditorBase9qt_invokeEiP8QUObject
0001:0017f5dc  __ZN19MultiLineEditorBase7qt_emitEiP8QUObject
0001:0017f5f8  __ZN19MultiLineEditorBase11qt_propertyEiiP8QVariant
0001:0017f614* __ZN19MultiLineEditorBase18qt_static_propertyEP7QObjectiiP8QVariant
0002:00002d60* __ZN19MultiLineEditorBase7metaObjE
0001:0017f630  __ZTV19MultiLineEditorBase$w$djAuE3TF8U6wdUmt4
0001:0017f974  __ZNK19MultiLineEditorBase10metaObjectEv$w$djAuE3TF8U6wdUmt4
0001:0017f914* __ZN7QWidget11setGeometryERK5QRect$w$djAuE3TF8U6wdUmt4
0001:0017f94c* __ZN7QWidget9setWStateEj$w$djAuE3TF8U6wdUmt4
0001:0017f960* __ZN7QWidget9setWFlagsEj$w$djAuE3TF8U6wdUmt4
0001:0017f890* __ZTV6QGList$w$djAuE3TF8U6wdUmt4
0001:0017f908* __ZNK6QGList5countEv$w$djAuE3TF8U6wdUmt4
Module: C:\200\trunk\lib\designercore.lib(widgetdatabase.obj)
0001:0017f9b0* __ZN20WidgetDatabaseRecordC2Ev
0001:0017fa64  __ZN20WidgetDatabaseRecordC1Ev
0001:0017fb18* __ZN20WidgetDatabaseRecordD2Ev
0001:0017fc08* __ZN20WidgetDatabaseRecordD1Ev
0001:0017fcf8* __ZN14WidgetDatabaseC2Ev
0001:0017fd00* __ZN14WidgetDatabaseC1Ev
0001:001804d0* __ZN14WidgetDatabase13setupDataBaseEi
0001:00183314  __ZN14WidgetDatabase11widgetGroupERK7QString
0001:001832d8* __ZN14WidgetDatabase6appendEP20WidgetDatabaseRecord
0001:001826e8* __ZN14WidgetDatabase12setupPluginsEv
0001:001837e4  __Z13widgetManagerv
0001:00183210* __ZN14WidgetDatabase9hasWidgetERK7QString
0001:00182a54  __ZN14WidgetDatabase5countEv
0001:00182a68* __ZN14WidgetDatabase11startCustomEv
0001:00182a7c  __ZN14WidgetDatabase7iconSetEi
0001:00183238  __ZN14WidgetDatabase2atEi
0001:00182b4c  __ZN14WidgetDatabase9classNameEi
0001:00182b94  __ZN14WidgetDatabase5groupEi
0001:00182bdc  __ZN14WidgetDatabase7toolTipEi
0001:00182c24  __ZN14WidgetDatabase9whatsThisEi
0001:00182c70  __ZN14WidgetDatabase11includeFileEi
0001:00182d48  __ZN14WidgetDatabase6isFormEi
0001:00182d7c  __ZN14WidgetDatabase11isContainerEi
0001:00182db4  __ZN14WidgetDatabase8isCommonEi
0001:00182df4  __ZN14WidgetDatabase16createWidgetNameEi
0001:00183174  __ZN14WidgetDatabase15idFromClassNameERK7QString
0001:0018326c* __ZN14WidgetDatabase6insertEiP20WidgetDatabaseRecord
0001:00183378  __ZN14WidgetDatabase12isGroupEmptyERK7QString
0001:001833c8  __ZN14WidgetDatabase11widgetGroupEi
0001:0018343c  __ZN14WidgetDatabase15numWidgetGroupsEv
0001:00183458  __ZN14WidgetDatabase14isGroupVisibleERK7QString
0001:00183490  __ZN14WidgetDatabase15addCustomWidgetEP20WidgetDatabaseRecord
0001:001834b4  __ZN14WidgetDatabase28customWidgetClassNameChangedERK7QStringS2_
0001:00183524  __ZN14WidgetDatabase14isCustomWidgetEi
0001:00183548  __ZN14WidgetDatabase20isCustomPluginWidgetEi
0001:0018357c  __ZN14WidgetDatabase17isWhatsThisLoadedEv
0001:00183598  __ZN14WidgetDatabase13loadWhatsThisERK7QString
0002:00002d80* _cleanup_manager
0001:00183b90* __ZTV8QStrList$w$pf3qjuHF8U6fIifO1
0001:00183b50  __ZTV5QDictIiE$w$pf3qjuHF8U6fIifO1
0001:0018392c* __ZN17QValueListPrivateI7QStringED1Ev$w$pf3qjuHF8U6fIifO1
0001:001839bc* __ZN10QValueListI7QStringE14detachInternalEv$w$pf3qjuHF8U6fIifO1
0001:00183a34* __ZNK17QValueListPrivateI7QStringE2atEj$w$pf3qjuHF8U6fIifO1
0001:00183b10  __ZTV8QPtrListIP14QPluginManagerI23QWidgetFactoryInterfaceEE$w$pf3qjuHF8U6fIifO1
0001:00183a7c* __ZN17QValueListPrivateI7QStringEC1ERKS1_$w$pf3qjuHF8U6fIifO1
0001:00183e04* __ZN17QValueListPrivateI7QStringE6insertE18QValueListIteratorIS0_ERKS0_$w$pf3qjuHF8U6fIifO1
0001:00183e60  __ZNK8QPtrListIP14QPluginManagerI23QWidgetFactoryInterfaceEE5countEv$w$pf3qjuHF8U6fIifO1
0001:00183e6c  __ZN8QPtrListIP14QPluginManagerI23QWidgetFactoryInterfaceEE5clearEv$w$pf3qjuHF8U6fIifO1
0001:00183e78  __ZN8QPtrListIP14QPluginManagerI23QWidgetFactoryInterfaceEED1Ev$w$pf3qjuHF8U6fIifO1
0001:00183ea0  __ZN8QPtrListIP14QPluginManagerI23QWidgetFactoryInterfaceEED0Ev$w$pf3qjuHF8U6fIifO1
0001:00183ed0  __ZN8QPtrListIP14QPluginManagerI23QWidgetFactoryInterfaceEE10deleteItemEPv$w$pf3qjuHF8U6fIifO1
0001:00183ef0  __ZNK5QDictIiE5countEv$w$pf3qjuHF8U6fIifO1
0001:00183efc  __ZN5QDictIiE5clearEv$w$pf3qjuHF8U6fIifO1
0001:00183f08  __ZN5QDictIiED1Ev$w$pf3qjuHF8U6fIifO1
0001:00183f30  __ZN5QDictIiED0Ev$w$pf3qjuHF8U6fIifO1
0001:00183f60  __ZN5QDictIiE10deleteItemEPv$w$pf3qjuHF8U6fIifO1
0001:00183df8* __ZNK8QPtrListIcE5countEv$w$pf3qjuHF8U6fIifO1
0001:00183cd0* __ZN8QPtrListIcE5clearEv$w$pf3qjuHF8U6fIifO1
0001:00183cdc* __ZN8QStrListD1Ev$w$pf3qjuHF8U6fIifO1
0001:00183d10* __ZN8QStrListD0Ev$w$pf3qjuHF8U6fIifO1
0001:00183d4c* __ZN8QStrList7newItemEPv$w$pf3qjuHF8U6fIifO1
0001:00183d70* __ZN8QStrList10deleteItemEPv$w$pf3qjuHF8U6fIifO1
0001:00183d90* __ZN8QStrList12compareItemsEPvS0_$w$pf3qjuHF8U6fIifO1
0001:00183dc4* __ZN8QStrList4readER11QDataStreamRPv$w$pf3qjuHF8U6fIifO1
0001:00183de0* __ZNK8QStrList5writeER11QDataStreamPv$w$pf3qjuHF8U6fIifO1
0001:00183bd0* __ZTV6QGList$w$pf3qjuHF8U6fIifO1
0001:00183cc4* __ZNK6QGList5countEv$w$pf3qjuHF8U6fIifO1
0001:00183f90* __ZTV8QPtrListIcE$w$pf3qjuHF8U6fIifO1
0001:00183fbc* __ZN8QPtrListIcED1Ev$w$pf3qjuHF8U6fIifO1
0001:00183fe4* __ZN8QPtrListIcED0Ev$w$pf3qjuHF8U6fIifO1
0001:00184014* __ZN8QPtrListIcE10deleteItemEPv$w$pf3qjuHF8U6fIifO1
Module: C:\200\trunk\lib\designercore.lib(workspace.obj)
0001:0018414c* __ZN13WorkspaceItemC2EP9QListViewP7Project
0001:00184890* __ZN13WorkspaceItem4initEv
0001:001841e8* __ZN13WorkspaceItemC1EP9QListViewP7Project
0001:00184298* __ZN13WorkspaceItemC2EP13QListViewItemP10SourceFile
0001:00184324* __ZN13WorkspaceItemC1EP13QListViewItemP10SourceFile
0001:001843ec* __ZN13WorkspaceItemC2EP13QListViewItemP7QObjectP7Project
0001:001844b0* __ZN13WorkspaceItemC1EP13QListViewItemP7QObjectP7Project
0001:00184598* __ZN13WorkspaceItemC2EP13QListViewItemP8FormFileNS_4TypeE
0001:00184714* __ZN13WorkspaceItemC1EP13QListViewItemP8FormFileNS_4TypeE
0001:001848b8* __ZN13WorkspaceItem9paintCellEP8QPainterRK11QColorGroupiii
0001:00185310* __ZN13WorkspaceItem15backgroundColorEv
0001:00185210* __ZNK13WorkspaceItem10isModifiedEv
0001:00184c14* __ZNK13WorkspaceItem4textEi
0001:00184eec* __ZN13WorkspaceItem18fillCompletionListER11QStringList
0001:001850ac* __ZN13WorkspaceItem15checkCompletionERK7QString
0001:001852b4* __ZNK13WorkspaceItem3keyEib
0001:00185378* __ZN13WorkspaceItem7setOpenEb
0001:0018539c* __ZN13WorkspaceItem11setAutoOpenEb
0001:001854fc* __ZN9WorkspaceC2EP7QWidgetP10MainWindow
0001:001856b0  __ZN9WorkspaceC1EP7QWidgetP10MainWindow
0001:00185864  __ZN9Workspace16projectDestroyedEP7QObject
0001:00185a24  __ZN9Workspace17setCurrentProjectEP7Project
0001:00186e8c* __ZN9Workspace12updateColorsEv
0001:00185d90  __ZN9Workspace15sourceFileAddedEP10SourceFile
0001:00185dc8  __ZN9Workspace17sourceFileRemovedEP10SourceFile
0001:0018613c* __ZN9Workspace8findItemEP10SourceFile
0001:00185dfc  __ZN9Workspace13formFileAddedEP8FormFile
0001:00185e44  __ZN9Workspace15formFileRemovedEP8FormFile
0001:001860c8* __ZN9Workspace8findItemEP8FormFile
0001:00185e78  __ZN9Workspace11objectAddedEP7QObject
0001:00185eb4  __ZN9Workspace13objectRemovedEP7QObject
0001:001861b0* __ZN9Workspace8findItemEP7QObject
0001:00185ee8  __ZN9Workspace6updateEv
0001:00185efc  __ZN9Workspace6updateEP8FormFile
0001:00185f40  __ZN9Workspace17activeFormChangedEP10FormWindow
0001:00186224* __ZN9Workspace18closeAutoOpenItemsEv
0001:00185fb0  __ZN9Workspace19activeEditorChangedEP12SourceEditor
0001:001862bc  __ZN9Workspace10closeEventEP11QCloseEvent
0001:001862c8  __ZN9Workspace17itemDoubleClickedEP13QListViewItem
0001:001862ec  __ZN9Workspace11itemClickedEiP13QListViewItemRK6QPoint
0001:00186438  __ZN9Workspace17contentsDropEventEP10QDropEvent
0001:001865f8  __ZN9Workspace22contentsDragEnterEventEP15QDragEnterEvent
0001:00186630  __ZN9Workspace21contentsDragMoveEventEP14QDragMoveEvent
0001:00186710  __ZN9Workspace10rmbClickedEP13QListViewItemRK6QPoint
0001:00186ba8  __ZN9Workspace11eventFilterEP7QObjectP6QEvent
0001:00186c64* __ZN9Workspace16updateBufferEditEv
0001:00186c28  __ZN9Workspace13setBufferEditEP15QCompletionEdit
0001:00186d2c  __ZN9Workspace12bufferChosenERK7QString
0001:00187130  __ZTV13WorkspaceItem$w$dLiEldEF8U6H72jV1
0001:00186ecc* __ZN17QValueListPrivateI7QStringE6insertE18QValueListIteratorIS0_ERKS0_$w$dLiEldEF8U6H72jV1
0001:00186f28* __ZN10QValueListI7QStringE14detachInternalEv$w$dLiEldEF8U6H72jV1
0001:001871f0* __ZTV11QObjectList$w$dLiEldEF8U6H72jV1
0001:00187230* __ZTV8QPtrListI7QObjectE$w$dLiEldEF8U6H72jV1
0001:00186f58* __ZN17QValueListPrivateI7QStringEC1Ev$w$dLiEldEF8U6H72jV1
0001:00186fa4* __ZN17QValueListPrivateI7QStringED1Ev$w$dLiEldEF8U6H72jV1
0001:00187034* __ZNK17QValueListPrivateI7QStringE8containsERKS0_$w$dLiEldEF8U6H72jV1
0001:00187088* __ZN17QValueListPrivateI7QStringEC1ERKS1_$w$dLiEldEF8U6H72jV1
0001:001872e8  __ZN13WorkspaceItemD1Ev$w$dLiEldEF8U6H72jV1
0001:001872c0  __ZN13WorkspaceItemD0Ev$w$dLiEldEF8U6H72jV1
0001:001872a8* __ZN13QListViewItem10removeItemEPS_$w$dLiEldEF8U6H72jV1
0001:001873d8* __ZNK8QPtrListI7QObjectE5countEv$w$dLiEldEF8U6H72jV1
0001:00187304* __ZN8QPtrListI7QObjectE5clearEv$w$dLiEldEF8U6H72jV1
0001:00187310* __ZN11QObjectListD1Ev$w$dLiEldEF8U6H72jV1
0001:00187344* __ZN11QObjectListD0Ev$w$dLiEldEF8U6H72jV1
0001:001873e4* __ZN8QPtrListI7QObjectE10deleteItemEPv$w$dLiEldEF8U6H72jV1
0001:00187380* __ZN8QPtrListI7QObjectED1Ev$w$dLiEldEF8U6H72jV1
0001:001873a8* __ZN8QPtrListI7QObjectED0Ev$w$dLiEldEF8U6H72jV1
0001:00187270* __ZTV6QGList$w$dLiEldEF8U6H72jV1
0001:0018729c* __ZNK6QGList5countEv$w$dLiEldEF8U6H72jV1
Module: C:\200\trunk\lib\designercore.lib(moc_listeditor.obj)
0001:0018741c* __ZNK10ListEditor9classNameEv
0001:00187428  __ZN10ListEditor2trEPKcS1_
0001:00187468* __ZN10ListEditor6trUtf8EPKcS1_
0001:00187690* __ZN10ListEditor16staticMetaObjectEv
0001:001876ec* __ZN10ListEditor7qt_castEPKc
0001:00187744* __ZN10ListEditor9qt_invokeEiP8QUObject
0001:0018787c* __ZN10ListEditor7qt_emitEiP8QUObject
0001:00187898* __ZN10ListEditor11qt_propertyEiiP8QVariant
0001:001878b4* __ZN10ListEditor18qt_static_propertyEP7QObjectiiP8QVariant
0002:000032f0* __ZN10ListEditor7metaObjE
0001:001878bc* __ZN17QValueListPrivateI7QStringED1Ev$w$5HkRZYTF8U67afQU2
0001:00187950  __ZTV10ListEditor$w$5HkRZYTF8U67afQU2
0001:00187c1c  __ZNK10ListEditor10metaObjectEv$w$5HkRZYTF8U67afQU2
0001:00187bf4* __ZN7QWidget9setWStateEj$w$5HkRZYTF8U67afQU2
0001:00187c08* __ZN7QWidget9setWFlagsEj$w$5HkRZYTF8U67afQU2
0001:00187b70* __ZTV6QGList$w$5HkRZYTF8U67afQU2
0001:00187be8* __ZNK6QGList5countEv$w$5HkRZYTF8U67afQU2
Module: C:\200\trunk\lib\designercore.lib(moc_about.obj)
0001:00187c7c* __ZNK11AboutDialog9classNameEv
0001:00187c88  __ZN11AboutDialog2trEPKcS1_
0001:00187cc8* __ZN11AboutDialog6trUtf8EPKcS1_
0001:00187d44* __ZN11AboutDialog16staticMetaObjectEv
0001:00187da0* __ZN11AboutDialog7qt_castEPKc
0001:00187df8* __ZN11AboutDialog9qt_invokeEiP8QUObject
0001:00187e3c* __ZN11AboutDialog7qt_emitEiP8QUObject
0001:00187e58* __ZN11AboutDialog11qt_propertyEiiP8QVariant
0001:00187e74* __ZN11AboutDialog18qt_static_propertyEP7QObjectiiP8QVariant
0002:00003310* __ZN11AboutDialog7metaObjE
0001:00187e90  __ZTV11AboutDialog$w$zg3pEbTF8U6LIyHG2
0001:0018813c  __ZNK11AboutDialog10metaObjectEv$w$zg3pEbTF8U6LIyHG2
0001:00188114* __ZN7QWidget9setWStateEj$w$zg3pEbTF8U6LIyHG2
0001:00188128* __ZN7QWidget9setWFlagsEj$w$zg3pEbTF8U6LIyHG2
0001:00188090* __ZTV6QGList$w$zg3pEbTF8U6LIyHG2
0001:00188108* __ZNK6QGList5countEv$w$zg3pEbTF8U6LIyHG2
Module: C:\200\trunk\lib\designercore.lib(listboxeditor.obj)
0001:001883f0  __ZN17ListBoxEditorBaseC2EP7QWidgetPKcbj
0001:00189cac  __ZN17ListBoxEditorBase14languageChangeEv
0001:0018a568  __ZN17ListBoxEditorBase4initEv
0001:00188e48* __ZN17ListBoxEditorBaseC1EP7QWidgetPKcbj
0001:001898a0  __ZN17ListBoxEditorBaseD2Ev
0001:0018a570  __ZN17ListBoxEditorBase7destroyEv
0001:001898d0  __ZN17ListBoxEditorBaseD1Ev
0001:00189908  __ZN17ListBoxEditorBaseD0Ev
0001:0018a5b0  __ZN17ListBoxEditorBase13insertNewItemEv
0001:0018a5fc  __ZN17ListBoxEditorBase17deleteCurrentItemEv
0001:0018a658  __ZN17ListBoxEditorBase18currentItemChangedEP12QListBoxItem
0001:0018a6b4  __ZN17ListBoxEditorBase18currentTextChangedERK7QString
0001:0018a6f8  __ZN17ListBoxEditorBase9okClickedEv
0001:0018a740  __ZN17ListBoxEditorBase13cancelClickedEv
0001:0018a788  __ZN17ListBoxEditorBase12applyClickedEv
0001:0018a7d0  __ZN17ListBoxEditorBase12choosePixmapEv
0001:0018a818  __ZN17ListBoxEditorBase12deletePixmapEv
0001:0018a860  __ZN17ListBoxEditorBase10moveItemUpEv
0001:0018a8a8  __ZN17ListBoxEditorBase12moveItemDownEv
0001:00189900  __ZThn40_N17ListBoxEditorBaseD1Ev$w$pLVF7TKF8U6y0uS73
0001:0018993c  __ZThn40_N17ListBoxEditorBaseD0Ev$w$pLVF7TKF8U6y0uS73
0001:0018a8d0* __ZTV6QGList$w$pLVF7TKF8U6y0uS73
0001:0018a8fc* __ZNK6QGList5countEv$w$pLVF7TKF8U6y0uS73
Module: C:\200\trunk\lib\designercore.lib(paletteeditoradvanced.obj)
0001:0018aba8  __ZN25PaletteEditorAdvancedBaseC2EP7QWidgetPKcbj
0001:0018d438  __ZN25PaletteEditorAdvancedBase14languageChangeEv
0001:0018e118  __ZN25PaletteEditorAdvancedBase4initEv
0001:0018badc* __ZN25PaletteEditorAdvancedBaseC1EP7QWidgetPKcbj
0001:0018ca10  __ZN25PaletteEditorAdvancedBaseD2Ev
0001:0018e120  __ZN25PaletteEditorAdvancedBase7destroyEv
0001:0018ca4c  __ZN25PaletteEditorAdvancedBaseD1Ev
0001:0018ca90  __ZN25PaletteEditorAdvancedBaseD0Ev
0001:0018e174  __ZN25PaletteEditorAdvancedBase21onToggleBuildDisabledEb
0001:0018e1c4  __ZN25PaletteEditorAdvancedBase9onCentralEi
0001:0018e21c  __ZN25PaletteEditorAdvancedBase20onChooseCentralColorEv
0001:0018e274  __ZN25PaletteEditorAdvancedBase19onChooseEffectColorEv
0001:0018e2c8  __ZN25PaletteEditorAdvancedBase14onChoosePixmapEv
0001:0018e318  __ZN25PaletteEditorAdvancedBase8onEffectEi
0001:0018e374  __ZN25PaletteEditorAdvancedBase20onToggleBuildEffectsEb
0001:0018e3d0  __ZN25PaletteEditorAdvancedBase21onToggleBuildInactiveEb
0001:0018e428  __ZN25PaletteEditorAdvancedBase15paletteSelectedEi
0001:0018e474  __ZN25PaletteEditorAdvancedBase8showHelpEv
0001:0018ca88  __ZThn40_N25PaletteEditorAdvancedBaseD1Ev$w$hZqb21NF8U6ITzeK1
0001:0018cad4  __ZThn40_N25PaletteEditorAdvancedBaseD0Ev$w$hZqb21NF8U6ITzeK1
0001:0018e490* __ZTV6QGList$w$hZqb21NF8U6ITzeK1
0001:0018e4bc* __ZNK6QGList5countEv$w$hZqb21NF8U6ITzeK1
Module: C:\200\trunk\lib\designercore.lib(pixmapcollectioneditor.obj)
0001:0018e4d0  __ZN22PixmapCollectionEditor4initEv
0001:0018e4f4  __ZN22PixmapCollectionEditor7destroyEv
0001:0018e4fc  __ZN22PixmapCollectionEditor9addPixmapEv
0001:0018e8f4  __ZN22PixmapCollectionEditor12removePixmapEv
0001:0018e980  __ZN22PixmapCollectionEditor10updateViewEv
0001:0018eadc  __ZN22PixmapCollectionEditor14currentChangedEP13QIconViewItem
0001:0018eb68  __ZN22PixmapCollectionEditor14setChooserModeEb
0001:0018ecc4  __ZN22PixmapCollectionEditor14setCurrentItemERK7QString
0001:0018ed0c  __ZN22PixmapCollectionEditor10setProjectEP7Project
0001:0018ed2c  __ZN22PixmapCollectionEditor12scaledPixmapERK7QPixmap
0001:0018eea8* __ZN22PixmapCollectionEditorC2EP7QWidgetPKcbj
0001:0018f728  __ZN22PixmapCollectionEditor14languageChangeEv
0001:0018f278  __ZN22PixmapCollectionEditorC1EP7QWidgetPKcbj
0001:0018f648* __ZN22PixmapCollectionEditorD2Ev
0001:0018f678  __ZN22PixmapCollectionEditorD1Ev
0001:0018f6b0  __ZN22PixmapCollectionEditorD0Ev
0001:0018f8e0* __ZN17QValueListPrivateI7QStringED1Ev$w$HUdFqNMF8U6ur0Fn2
0001:0018f970* __ZN10QValueListI7QStringE14detachInternalEv$w$HUdFqNMF8U6ur0Fn2
0001:0018f9a0* __ZN17QValueListPrivateIN16PixmapCollection6PixmapEED1Ev$w$HUdFqNMF8U6ur0Fn2
0001:0018fa90* __ZN10QValueListIN16PixmapCollection6PixmapEE14detachInternalEv$w$HUdFqNMF8U6ur0Fn2
0001:0018f6a8  __ZThn40_N22PixmapCollectionEditorD1Ev$w$HUdFqNMF8U6ur0Fn2
0001:0018f6e4  __ZThn40_N22PixmapCollectionEditorD0Ev$w$HUdFqNMF8U6ur0Fn2
0001:0018fac0* __ZN17QValueListPrivateI7QStringEC1ERKS1_$w$HUdFqNMF8U6ur0Fn2
0001:0018fb54* __ZN17QValueListPrivateIN16PixmapCollection6PixmapEEC1ERKS2_$w$HUdFqNMF8U6ur0Fn2
0001:0018fcc8* __ZN17QValueListPrivateI7QStringE6insertE18QValueListIteratorIS0_ERKS0_$w$HUdFqNMF8U6ur0Fn2
0001:0018fc0c* __ZN17QValueListPrivateIN16PixmapCollection6PixmapEE6insertE18QValueListIteratorIS1_ERKS1_$w$HUdFqNMF8U6ur0Fn2
0001:0018fc90* __ZTV6QGList$w$HUdFqNMF8U6ur0Fn2
0001:0018fcbc* __ZNK6QGList5countEv$w$HUdFqNMF8U6ur0Fn2
Module: C:\200\trunk\lib\designercore.lib(moc_finddialog.obj)
0001:0018fd3c* __ZNK10FindDialog9classNameEv
0001:0018fd48  __ZN10FindDialog2trEPKcS1_
0001:0018fd88* __ZN10FindDialog6trUtf8EPKcS1_
0001:0018ff2c  __ZN10FindDialog16staticMetaObjectEv
0001:0018ff88* __ZN10FindDialog7qt_castEPKc
0001:0018ffe0* __ZN10FindDialog9qt_invokeEiP8QUObject
0001:0019008c* __ZN10FindDialog7qt_emitEiP8QUObject
0001:001900a8* __ZN10FindDialog11qt_propertyEiiP8QVariant
0001:001900c4* __ZN10FindDialog18qt_static_propertyEP7QObjectiiP8QVariant
0002:00003330* __ZN10FindDialog7metaObjE
0001:001900d0  __ZTV10FindDialog$w$pDBPYvTF8U6n9uaV1
0001:0019039c  __ZNK10FindDialog10metaObjectEv$w$pDBPYvTF8U6n9uaV1
0001:00190374* __ZN7QWidget9setWStateEj$w$pDBPYvTF8U6n9uaV1
0001:00190388* __ZN7QWidget9setWFlagsEj$w$pDBPYvTF8U6n9uaV1
0001:001902f0* __ZTV6QGList$w$pDBPYvTF8U6n9uaV1
0001:00190368* __ZNK6QGList5countEv$w$pDBPYvTF8U6n9uaV1
Module: C:\200\trunk\lib\designercore.lib(moc_listboxrename.obj)
0001:00190400* __ZNK13ListBoxRename9classNameEv
0001:0019040c* __ZN13ListBoxRename2trEPKcS1_
0001:0019044c* __ZN13ListBoxRename6trUtf8EPKcS1_
0001:001905ac* __ZN13ListBoxRename16staticMetaObjectEv
0001:00190608* __ZN13ListBoxRename7qt_castEPKc
0001:00190660  __ZN13ListBoxRename15itemTextChangedERK7QString
0001:001906b4* __ZN13ListBoxRename9qt_invokeEiP8QUObject
0001:00190720* __ZN13ListBoxRename7qt_emitEiP8QUObject
0001:00190768* __ZN13ListBoxRename11qt_propertyEiiP8QVariant
0001:00190784* __ZN13ListBoxRename18qt_static_propertyEP7QObjectiiP8QVariant
0002:00003350* __ZN13ListBoxRename7metaObjE
0001:00190790  __ZTV13ListBoxRename$w$D0qRu9SF8U6Fqt8a4
0001:001908b8  __ZNK13ListBoxRename10metaObjectEv$w$D0qRu9SF8U6Fqt8a4
0001:00190874  __ZN13ListBoxRenameD1Ev$w$D0qRu9SF8U6Fqt8a4
0001:00190890  __ZN13ListBoxRenameD0Ev$w$D0qRu9SF8U6Fqt8a4
0001:001907f0* __ZTV6QGList$w$D0qRu9SF8U6Fqt8a4
0001:00190868* __ZNK6QGList5countEv$w$D0qRu9SF8U6Fqt8a4
Module: C:\200\trunk\lib\designercore.lib(moc_timestamp.obj)
0001:0019091c* __ZNK9TimeStamp9classNameEv
0001:00190928* __ZN9TimeStamp2trEPKcS1_
0001:00190968* __ZN9TimeStamp6trUtf8EPKcS1_
0001:00190a2c* __ZN9TimeStamp16staticMetaObjectEv
0001:00190a88* __ZN9TimeStamp7qt_castEPKc
0001:00190ae0  __ZN9TimeStamp16timeStampChangedEv
0001:00190b00* __ZN9TimeStamp9qt_invokeEiP8QUObject
0001:00190b40* __ZN9TimeStamp7qt_emitEiP8QUObject
0001:00190b80* __ZN9TimeStamp11qt_propertyEiiP8QVariant
0001:00190b9c* __ZN9TimeStamp18qt_static_propertyEP7QObjectiiP8QVariant
0002:00003370* __ZN9TimeStamp7metaObjE
0001:00190bb0  __ZTV9TimeStamp$w$7Isv4kRF8U6Ayq3V1
0001:00190d20  __ZNK9TimeStamp10metaObjectEv$w$7Isv4kRF8U6Ayq3V1
0001:00190c94  __ZN9TimeStampD1Ev$w$7Isv4kRF8U6Ayq3V1
0001:00190cd8  __ZN9TimeStampD0Ev$w$7Isv4kRF8U6Ayq3V1
0001:00190c10* __ZTV6QGList$w$7Isv4kRF8U6Ayq3V1
0001:00190c88* __ZNK6QGList5countEv$w$7Isv4kRF8U6Ayq3V1
Module: C:\200\trunk\lib\designercore.lib(moc_paletteeditoradvancedimpl.obj)
0001:00190d88* __ZNK21PaletteEditorAdvanced9classNameEv
0001:00190d94* __ZN21PaletteEditorAdvanced2trEPKcS1_
0001:00190dd4* __ZN21PaletteEditorAdvanced6trUtf8EPKcS1_
0001:001910bc* __ZN21PaletteEditorAdvanced16staticMetaObjectEv
0001:00191118* __ZN21PaletteEditorAdvanced7qt_castEPKc
0001:00191170* __ZN21PaletteEditorAdvanced9qt_invokeEiP8QUObject
0001:00191280* __ZN21PaletteEditorAdvanced7qt_emitEiP8QUObject
0001:0019129c* __ZN21PaletteEditorAdvanced11qt_propertyEiiP8QVariant
0001:001912b8* __ZN21PaletteEditorAdvanced18qt_static_propertyEP7QObjectiiP8QVariant
0002:00003390* __ZN21PaletteEditorAdvanced7metaObjE
0001:001912d0  __ZTV21PaletteEditorAdvanced$w$vUQJd0RF8U6ymn904
0001:001915bc  __ZNK21PaletteEditorAdvanced10metaObjectEv$w$vUQJd0RF8U6ymn904
0001:00191594* __ZN7QWidget9setWStateEj$w$vUQJd0RF8U6ymn904
0001:001915a8* __ZN7QWidget9setWFlagsEj$w$vUQJd0RF8U6ymn904
0001:00191510* __ZTV6QGList$w$vUQJd0RF8U6ymn904
0001:00191588* __ZNK6QGList5countEv$w$vUQJd0RF8U6ymn904
Module: C:\200\trunk\lib\designercore.lib(moc_actionlistview.obj)
0001:00191620* __ZNK14ActionListView9classNameEv
0001:0019162c  __ZN14ActionListView2trEPKcS1_
0001:0019166c* __ZN14ActionListView6trUtf8EPKcS1_
0001:0019188c* __ZN14ActionListView16staticMetaObjectEv
0001:001918e8* __ZN14ActionListView7qt_castEPKc
0001:00191940  __ZN14ActionListView12insertActionEv
0001:00191960  __ZN14ActionListView17insertActionGroupEv
0001:00191980  __ZN14ActionListView25insertDropDownActionGroupEv
0001:001919a4  __ZN14ActionListView12deleteActionEv
0001:001919c8  __ZN14ActionListView13connectActionEv
0001:001919ec* __ZN14ActionListView9qt_invokeEiP8QUObject
0001:00191a34* __ZN14ActionListView7qt_emitEiP8QUObject
0001:00191ac8* __ZN14ActionListView11qt_propertyEiiP8QVariant
0001:00191ae4* __ZN14ActionListView18qt_static_propertyEP7QObjectiiP8QVariant
0002:000033b0* __ZN14ActionListView7metaObjE
0001:00191af0  __ZTV14ActionListView$w$VjjHymQF8U6XZWhu2
0001:00191f70  __ZNK14ActionListView10metaObjectEv$w$VjjHymQF8U6XZWhu2
0001:00191f10  __ZN14ActionListViewD1Ev$w$VjjHymQF8U6XZWhu2
0001:00191f3c  __ZN14ActionListViewD0Ev$w$VjjHymQF8U6XZWhu2
0001:00191e94* __ZN7QWidget11setGeometryERK5QRect$w$VjjHymQF8U6XZWhu2
0001:00191ecc* __ZN7QWidget9setWStateEj$w$VjjHymQF8U6XZWhu2
0001:00191ee0* __ZN7QWidget9setWFlagsEj$w$VjjHymQF8U6XZWhu2
0001:00191ef4* __ZN9QListView10removeItemEP13QListViewItem$w$VjjHymQF8U6XZWhu2
0001:00191f34  __ZThn40_N14ActionListViewD1Ev$w$VjjHymQF8U6XZWhu2
0001:00191f68  __ZThn40_N14ActionListViewD0Ev$w$VjjHymQF8U6XZWhu2
0001:00191e10* __ZTV6QGList$w$VjjHymQF8U6XZWhu2
0001:00191e88* __ZNK6QGList5countEv$w$VjjHymQF8U6XZWhu2
Module: C:\200\trunk\lib\designercore.lib(moc_formwindow.obj)
0001:00191fbc* __ZNK10FormWindow9classNameEv
0001:00191fc8  __ZN10FormWindow2trEPKcS1_
0001:00192008* __ZN10FormWindow6trUtf8EPKcS1_
0001:00192690  __ZN10FormWindow16staticMetaObjectEv
0001:001926f0* __ZN10FormWindow7qt_castEPKc
0001:00192748  __ZN10FormWindow14showPropertiesEP7QObject
0001:001927d4  __ZN10FormWindow16updatePropertiesEP7QObject
0001:00192864* __ZN10FormWindow15undoRedoChangedEbbRK7QStringS2_
0001:00192958  __ZN10FormWindow16selectionChangedEv
0001:0019297c  __ZN10FormWindow19modificationChangedEbPS_
0001:00192a34  __ZN10FormWindow19modificationChangedEbRK7QString
0001:00192aec  __ZN10FormWindow15fileNameChangedERK7QStringPS_
0001:00192b94* __ZN10FormWindow9qt_invokeEiP8QUObject
0001:00192c7c* __ZN10FormWindow7qt_emitEiP8QUObject
0001:00192d58* __ZN10FormWindow11qt_propertyEiiP8QVariant
0001:00192e20* __ZN10FormWindow18qt_static_propertyEP7QObjectiiP8QVariant
0002:000033d0* __ZN10FormWindow7metaObjE
0001:00192e30  __ZTV10FormWindow$w$5FTlIqOF8U6QoFaU2
0001:00193214  __ZNK10FormWindow10metaObjectEv$w$5FTlIqOF8U6QoFaU2
0001:001931b4* __ZN7QWidget11setGeometryERK5QRect$w$5FTlIqOF8U6QoFaU2
0001:00193254  __ZN10FormWindow21mouseDoubleClickEventEP11QMouseEvent$w$5FTlIqOF8U6QoFaU2
0001:001931ec* __ZN7QWidget9setWStateEj$w$5FTlIqOF8U6QoFaU2
0001:00193200* __ZN7QWidget9setWFlagsEj$w$5FTlIqOF8U6QoFaU2
0001:00193220  __ZNK10FormWindow10mainWindowEv$w$5FTlIqOF8U6QoFaU2
0001:00193230  __ZNK10FormWindow13currentWidgetEv$w$5FTlIqOF8U6QoFaU2
0001:00193130* __ZTV6QGList$w$5FTlIqOF8U6QoFaU2
0001:001931a8* __ZNK6QGList5countEv$w$5FTlIqOF8U6QoFaU2
Module: C:\200\trunk\lib\designercore.lib(moc_actioneditor.obj)
0001:001932c4* __ZNK16ActionEditorBase9classNameEv
0001:001932d0  __ZN16ActionEditorBase2trEPKcS1_
0001:00193310* __ZN16ActionEditorBase6trUtf8EPKcS1_
0001:00193504  __ZN16ActionEditorBase16staticMetaObjectEv
0001:00193560  __ZN16ActionEditorBase7qt_castEPKc
0001:001935b8  __ZN16ActionEditorBase9qt_invokeEiP8QUObject
0001:00193684  __ZN16ActionEditorBase7qt_emitEiP8QUObject
0001:001936a0  __ZN16ActionEditorBase11qt_propertyEiiP8QVariant
0001:001936bc* __ZN16ActionEditorBase18qt_static_propertyEP7QObjectiiP8QVariant
0002:000033f0* __ZN16ActionEditorBase7metaObjE
0001:001936d0  __ZTV16ActionEditorBase$w$NvnTLnTF8U6zNQu52
0001:001939d4  __ZNK16ActionEditorBase10metaObjectEv$w$NvnTLnTF8U6zNQu52
0001:00193974* __ZN7QWidget11setGeometryERK5QRect$w$NvnTLnTF8U6zNQu52
0001:001939ac* __ZN7QWidget9setWStateEj$w$NvnTLnTF8U6zNQu52
0001:001939c0* __ZN7QWidget9setWFlagsEj$w$NvnTLnTF8U6zNQu52
0001:001938f0* __ZTV6QGList$w$NvnTLnTF8U6zNQu52
0001:00193968* __ZNK6QGList5countEv$w$NvnTLnTF8U6zNQu52
Module: C:\200\trunk\lib\designercore.lib(moc_richtextfontdialog.obj)
0001:00193a24* __ZNK18RichTextFontDialog9classNameEv
0001:00193a30  __ZN18RichTextFontDialog2trEPKcS1_
0001:00193a70* __ZN18RichTextFontDialog6trUtf8EPKcS1_
0001:00193c50* __ZN18RichTextFontDialog16staticMetaObjectEv
0001:00193cac* __ZN18RichTextFontDialog7qt_castEPKc
0001:00193d04* __ZN18RichTextFontDialog9qt_invokeEiP8QUObject
0001:00193e20* __ZN18RichTextFontDialog7qt_emitEiP8QUObject
0001:00193e3c* __ZN18RichTextFontDialog11qt_propertyEiiP8QVariant
0001:00193e58* __ZN18RichTextFontDialog18qt_static_propertyEP7QObjectiiP8QVariant
0002:00003410* __ZN18RichTextFontDialog7metaObjE
0001:00193e70  __ZTV18RichTextFontDialog$w$zm4Aa7UF8U6A5jXR3
0001:0019413c  __ZNK18RichTextFontDialog10metaObjectEv$w$zm4Aa7UF8U6A5jXR3
0001:00194114* __ZN7QWidget9setWStateEj$w$zm4Aa7UF8U6A5jXR3
0001:00194128* __ZN7QWidget9setWFlagsEj$w$zm4Aa7UF8U6A5jXR3
0001:00194090* __ZTV6QGList$w$zm4Aa7UF8U6A5jXR3
0001:00194108* __ZNK6QGList5countEv$w$zm4Aa7UF8U6A5jXR3
Module: C:\200\trunk\lib\designercore.lib(moc_listvieweditorimpl.obj)
0001:001941a0* __ZNK14ListViewEditor9classNameEv
0001:001941ac  __ZN14ListViewEditor2trEPKcS1_
0001:001941ec* __ZN14ListViewEditor6trUtf8EPKcS1_
0001:00194a18* __ZN14ListViewEditor16staticMetaObjectEv
0001:00194a74* __ZN14ListViewEditor7qt_castEPKc
0001:00194acc  __ZN14ListViewEditor11itemRenamedERK7QString
0001:00194b20* __ZN14ListViewEditor9qt_invokeEiP8QUObject
0001:00194d98* __ZN14ListViewEditor7qt_emitEiP8QUObject
0001:00194de0* __ZN14ListViewEditor11qt_propertyEiiP8QVariant
0001:00194dfc* __ZN14ListViewEditor18qt_static_propertyEP7QObjectiiP8QVariant
0002:00003430* __ZN14ListViewEditor7metaObjE
0001:00194e10  __ZTV14ListViewEditor$w$vKPtODPF8U6aFFGl3
0001:001951f4  __ZNK14ListViewEditor10metaObjectEv$w$vKPtODPF8U6aFFGl3
0001:0019513c  __ZN14ListViewEditorD1Ev$w$vKPtODPF8U6aFFGl3
0001:00195194  __ZN14ListViewEditorD0Ev$w$vKPtODPF8U6aFFGl3
0001:00195114* __ZN7QWidget9setWStateEj$w$vKPtODPF8U6aFFGl3
0001:00195128* __ZN7QWidget9setWFlagsEj$w$vKPtODPF8U6aFFGl3
0001:0019518c  __ZThn40_N14ListViewEditorD1Ev$w$vKPtODPF8U6aFFGl3
0001:001951ec  __ZThn40_N14ListViewEditorD0Ev$w$vKPtODPF8U6aFFGl3
0001:00195090* __ZTV6QGList$w$vKPtODPF8U6aFFGl3
0001:00195108* __ZNK6QGList5countEv$w$vKPtODPF8U6aFFGl3
0001:00195200  __ZN17QValueListPrivateIN14ListViewEditor6ColumnEED1Ev$w$vKPtODPF8U6aFFGl3
Module: C:\200\trunk\lib\designercore.lib(configtoolboxdialog.obj)
0001:0019532c  __ZN19ConfigToolboxDialog4initEv
0001:00195690  __ZN19ConfigToolboxDialog7addToolEv
0001:001958c4  __ZN19ConfigToolboxDialog10removeToolEv
0001:0019595c  __ZN19ConfigToolboxDialog10moveToolUpEv
0001:001959f0  __ZN19ConfigToolboxDialog12moveToolDownEv
0001:00195a84  __ZN19ConfigToolboxDialog18currentToolChangedEP13QListViewItem
0001:00195b3c  __ZN19ConfigToolboxDialog24currentCommonToolChangedEP13QListViewItem
0001:00195c54  __ZN19ConfigToolboxDialog2okEv
0001:00195f70* __ZN19ConfigToolboxDialogC2EP7QWidgetPKcbj
0001:00196f7c  __ZN19ConfigToolboxDialog14languageChangeEv
0001:00196720  __ZN19ConfigToolboxDialogC1EP7QWidgetPKcbj
0001:00196ed0* __ZN19ConfigToolboxDialogD2Ev
0001:00196ef4  __ZN19ConfigToolboxDialogD1Ev
0001:00196f20  __ZN19ConfigToolboxDialogD0Ev
0001:001971d0  __ZTV5QDictI13QListViewItemE$w$TO33wPNF8U6NV3yA4
0001:00196f18  __ZThn40_N19ConfigToolboxDialogD1Ev$w$TO33wPNF8U6NV3yA4
0001:00196f4c  __ZThn40_N19ConfigToolboxDialogD0Ev$w$TO33wPNF8U6NV3yA4
0001:001972ac  __ZNK5QDictI13QListViewItemE5countEv$w$TO33wPNF8U6NV3yA4
0001:00197270  __ZN5QDictI13QListViewItemE5clearEv$w$TO33wPNF8U6NV3yA4
0001:00197248  __ZN5QDictI13QListViewItemED1Ev$w$TO33wPNF8U6NV3yA4
0001:0019727c  __ZN5QDictI13QListViewItemED0Ev$w$TO33wPNF8U6NV3yA4
0001:001972b8  __ZN5QDictI13QListViewItemE10deleteItemEPv$w$TO33wPNF8U6NV3yA4
0001:00197210* __ZTV6QGList$w$TO33wPNF8U6NV3yA4
0001:0019723c* __ZNK6QGList5countEv$w$TO33wPNF8U6NV3yA4
Module: C:\200\trunk\lib\designercore.lib(listboxeditorimpl.obj)
0001:001973a0* __ZN13ListBoxEditorC2EP7QWidgetS1_P10FormWindow
0001:001976d0  __ZN13ListBoxEditorC1EP7QWidgetS1_P10FormWindow
0001:00197a0c  __ZN13ListBoxEditor13insertNewItemEv
0001:00197ac8  __ZN13ListBoxEditor17deleteCurrentItemEv
0001:00197b3c  __ZN13ListBoxEditor18currentItemChangedEP12QListBoxItem
0001:00197d7c  __ZN13ListBoxEditor18currentTextChangedERK7QString
0001:00197e68  __ZN13ListBoxEditor9okClickedEv
0001:00197e90  __ZN13ListBoxEditor13cancelClickedEv
0001:00197ec0  __ZN13ListBoxEditor12applyClickedEv
0001:00198174  __ZN13ListBoxEditor12choosePixmapEv
0001:00198308  __ZN13ListBoxEditor10moveItemUpEv
0001:001984c8  __ZN13ListBoxEditor12moveItemDownEv
0001:001986ac  __ZN13ListBoxEditor12deletePixmapEv
0001:00198754  __ZN17QValueListPrivateIN22PopulateListBoxCommand4ItemEEC1Ev$w$x9U3vJDF8U6mlsKi4
0001:0019885c  __ZN17QValueListPrivateIN22PopulateListBoxCommand4ItemEE6insertE18QValueListIteratorIS1_ERKS1_$w$x9U3vJDF8U6mlsKi4
0001:001987ac  __ZN17QValueListPrivateIN22PopulateListBoxCommand4ItemEED1Ev$w$x9U3vJDF8U6mlsKi4
0001:001988c8  __ZN10QValueListIN22PopulateListBoxCommand4ItemEE14detachInternalEv$w$x9U3vJDF8U6mlsKi4
0001:001988f8  __ZN17QValueListPrivateIN22PopulateListBoxCommand4ItemEEC1ERKS2_$w$x9U3vJDF8U6mlsKi4
0001:001989b0* __ZTV6QGList$w$x9U3vJDF8U6mlsKi4
0001:001989dc* __ZNK6QGList5countEv$w$x9U3vJDF8U6mlsKi4
Module: C:\200\trunk\lib\designercore.lib(moc_newformimpl.obj)
0001:001989f8* __ZNK7NewForm9classNameEv
0001:00198a04  __ZN7NewForm2trEPKcS1_
0001:00198a44* __ZN7NewForm6trUtf8EPKcS1_
0001:00198b48* __ZN7NewForm16staticMetaObjectEv
0001:00198ba4* __ZN7NewForm7qt_castEPKc
0001:00198bfc* __ZN7NewForm9qt_invokeEiP8QUObject
0001:00198c64* __ZN7NewForm7qt_emitEiP8QUObject
0001:00198c80* __ZN7NewForm11qt_propertyEiiP8QVariant
0001:00198c9c* __ZN7NewForm18qt_static_propertyEP7QObjectiiP8QVariant
0002:00003450* __ZN7NewForm7metaObjE
0001:00198cb0  __ZTV7NewForm$w$rsBQ5uPF8U6YSplp4
0001:00199024  __ZNK7NewForm10metaObjectEv$w$rsBQ5uPF8U6YSplp4
0001:00198f7c  __ZN7NewFormD1Ev$w$rsBQ5uPF8U6YSplp4
0001:00198fcc  __ZN7NewFormD0Ev$w$rsBQ5uPF8U6YSplp4
0001:00198f54* __ZN7QWidget9setWStateEj$w$rsBQ5uPF8U6YSplp4
0001:00198f68* __ZN7QWidget9setWFlagsEj$w$rsBQ5uPF8U6YSplp4
0001:00198fc4  __ZThn40_N7NewFormD1Ev$w$rsBQ5uPF8U6YSplp4
0001:0019901c  __ZThn40_N7NewFormD0Ev$w$rsBQ5uPF8U6YSplp4
0001:00198ed0* __ZTV6QGList$w$rsBQ5uPF8U6YSplp4
0001:00198f48* __ZNK6QGList5countEv$w$rsBQ5uPF8U6YSplp4
0001:00199030* __ZTV8QPtrListI13QIconViewItemE$w$rsBQ5uPF8U6YSplp4
0001:001990c0* __ZNK8QPtrListI13QIconViewItemE5countEv$w$rsBQ5uPF8U6YSplp4
0001:00199084* __ZN8QPtrListI13QIconViewItemE5clearEv$w$rsBQ5uPF8U6YSplp4
0001:0019905c* __ZN8QPtrListI13QIconViewItemED1Ev$w$rsBQ5uPF8U6YSplp4
0001:00199090* __ZN8QPtrListI13QIconViewItemED0Ev$w$rsBQ5uPF8U6YSplp4
0001:001990cc* __ZN8QPtrListI13QIconViewItemE10deleteItemEPv$w$rsBQ5uPF8U6YSplp4
Module: C:\200\trunk\lib\designercore.lib(variabledialog.obj)
0001:001992cc  __ZN18VariableDialogBaseC2EP7QWidgetPKcbj
0001:0019a1a8  __ZN18VariableDialogBase14languageChangeEv
0001:001999c4* __ZN18VariableDialogBaseC1EP7QWidgetPKcbj
0001:0019a0bc  __ZN18VariableDialogBaseD2Ev
0001:0019a0e0  __ZN18VariableDialogBaseD1Ev
0001:0019a10c  __ZN18VariableDialogBaseD0Ev
0001:0019a59c  __ZN18VariableDialogBase11addVariableEv
0001:0019a5e8  __ZN18VariableDialogBase14deleteVariableEv
0001:0019a634  __ZN18VariableDialogBase13accessChangedEv
0001:0019a67c  __ZN18VariableDialogBase11nameChangedEv
0001:0019a6c4  __ZN18VariableDialogBase9okClickedEv
0001:0019a720  __ZN18VariableDialogBase18currentItemChangedEP13QListViewItem
0001:0019a104  __ZThn40_N18VariableDialogBaseD1Ev$w$9LT4yHNF8U665oZ33
0001:0019a138  __ZThn40_N18VariableDialogBaseD0Ev$w$9LT4yHNF8U665oZ33
0001:0019a730* __ZTV6QGList$w$9LT4yHNF8U665oZ33
0001:0019a75c* __ZNK6QGList5countEv$w$9LT4yHNF8U665oZ33
Module: C:\200\trunk\lib\designercore.lib(moc_menubareditor.obj)
0001:0019a784* __ZNK17MenuBarEditorItem9classNameEv
0001:0019a790* __ZN17MenuBarEditorItem2trEPKcS1_
0001:0019a7d0* __ZN17MenuBarEditorItem6trUtf8EPKcS1_
0001:0019a810* __ZN17MenuBarEditorItem16staticMetaObjectEv
0001:0019a868* __ZN17MenuBarEditorItem7qt_castEPKc
0001:0019a8c0* __ZN17MenuBarEditorItem9qt_invokeEiP8QUObject
0001:0019a8dc* __ZN17MenuBarEditorItem7qt_emitEiP8QUObject
0001:0019a8f8* __ZN17MenuBarEditorItem11qt_propertyEiiP8QVariant
0001:0019a914* __ZN17MenuBarEditorItem18qt_static_propertyEP7QObjectiiP8QVariant
0001:0019a92c* __ZNK13MenuBarEditor9classNameEv
0001:0019a938  __ZN13MenuBarEditor2trEPKcS1_
0001:0019a978* __ZN13MenuBarEditor6trUtf8EPKcS1_
0001:0019aa34  __ZN13MenuBarEditor16staticMetaObjectEv
0001:0019aa90* __ZN13MenuBarEditor7qt_castEPKc
0001:0019aae8* __ZN13MenuBarEditor9qt_invokeEiP8QUObject
0001:0019ab54* __ZN13MenuBarEditor7qt_emitEiP8QUObject
0001:0019ab70* __ZN13MenuBarEditor11qt_propertyEiiP8QVariant
0001:0019ab8c* __ZN13MenuBarEditor18qt_static_propertyEP7QObjectiiP8QVariant
0002:00003470* __ZN17MenuBarEditorItem7metaObjE
0002:00003474* __ZN13MenuBarEditor7metaObjE
0001:0019abb0  __ZTV13MenuBarEditor$w$PMnt6oSF8U6lqRfy4
0001:0019b01c  __ZNK13MenuBarEditor10metaObjectEv$w$PMnt6oSF8U6lqRfy4
0001:0019af24* __ZN7QWidget11setGeometryERK5QRect$w$PMnt6oSF8U6lqRfy4
0001:0019b028  __ZNK13MenuBarEditor15minimumSizeHintEv$w$PMnt6oSF8U6lqRfy4
0001:0019b03c  __ZN13MenuBarEditor11resizeEventEP12QResizeEvent$w$PMnt6oSF8U6lqRfy4
0001:0019af5c* __ZN7QWidget9setWStateEj$w$PMnt6oSF8U6lqRfy4
0001:0019af70* __ZN7QWidget9setWFlagsEj$w$PMnt6oSF8U6lqRfy4
0001:0019ae10  __ZTV17MenuBarEditorItem$w$PMnt6oSF8U6lqRfy4
0001:0019af84  __ZNK17MenuBarEditorItem10metaObjectEv$w$PMnt6oSF8U6lqRfy4
0001:0019af90  __ZN17MenuBarEditorItemD1Ev$w$PMnt6oSF8U6lqRfy4
0001:0019afd4  __ZN17MenuBarEditorItemD0Ev$w$PMnt6oSF8U6lqRfy4
0001:0019ae70* __ZTV6QGList$w$PMnt6oSF8U6lqRfy4
0001:0019af18* __ZNK6QGList5countEv$w$PMnt6oSF8U6lqRfy4
Module: C:\200\trunk\lib\designercore.lib(moc_previewwidget.obj)
0001:0019b0a4* __ZNK17PreviewWidgetBase9classNameEv
0001:0019b0b0  __ZN17PreviewWidgetBase2trEPKcS1_
0001:0019b0f0* __ZN17PreviewWidgetBase6trUtf8EPKcS1_
0001:0019b1d4  __ZN17PreviewWidgetBase16staticMetaObjectEv
0001:0019b230  __ZN17PreviewWidgetBase7qt_castEPKc
0001:0019b288  __ZN17PreviewWidgetBase9qt_invokeEiP8QUObject
0001:0019b2fc  __ZN17PreviewWidgetBase7qt_emitEiP8QUObject
0001:0019b318  __ZN17PreviewWidgetBase11qt_propertyEiiP8QVariant
0001:0019b334* __ZN17PreviewWidgetBase18qt_static_propertyEP7QObjectiiP8QVariant
0002:000034a0* __ZN17PreviewWidgetBase7metaObjE
0001:0019b350  __ZTV17PreviewWidgetBase$w$BvUyfMTF8U6GmFMl1
0001:0019b634  __ZNK17PreviewWidgetBase10metaObjectEv$w$BvUyfMTF8U6GmFMl1
0001:0019b5d4* __ZN7QWidget11setGeometryERK5QRect$w$BvUyfMTF8U6GmFMl1
0001:0019b60c* __ZN7QWidget9setWStateEj$w$BvUyfMTF8U6GmFMl1
0001:0019b620* __ZN7QWidget9setWFlagsEj$w$BvUyfMTF8U6GmFMl1
0001:0019b550* __ZTV6QGList$w$BvUyfMTF8U6GmFMl1
0001:0019b5c8* __ZNK6QGList5countEv$w$BvUyfMTF8U6GmFMl1
Module: C:\200\trunk\lib\designercore.lib(gotolinedialog.obj)
0001:0019b670  __ZN14GotoLineDialog4initEv
0001:0019b684  __ZN14GotoLineDialog7destroyEv
0001:0019b6ac  __ZN14GotoLineDialog8gotoLineEv
0001:0019b6f4  __ZN14GotoLineDialog9setEditorEP15EditorInterface
0001:0019b78c* __ZN14GotoLineDialogC2EP7QWidgetPKcbj
0001:0019bf30  __ZN14GotoLineDialog14languageChangeEv
0001:0019bafc  __ZN14GotoLineDialogC1EP7QWidgetPKcbj
0001:0019be6c* __ZN14GotoLineDialogD2Ev
0001:0019be9c  __ZN14GotoLineDialogD1Ev
0001:0019bed4  __ZN14GotoLineDialogD0Ev
0001:0019becc  __ZThn40_N14GotoLineDialogD1Ev$w$Rx3pZFMF8U6RZntx3
0001:0019bf08  __ZThn40_N14GotoLineDialogD0Ev$w$Rx3pZFMF8U6RZntx3
0001:0019c070* __ZTV6QGList$w$Rx3pZFMF8U6RZntx3
0001:0019c09c* __ZNK6QGList5countEv$w$Rx3pZFMF8U6RZntx3
Module: C:\200\trunk\lib\designercore.lib(moc_formsettingsimpl.obj)
0001:0019c0c0* __ZNK12FormSettings9classNameEv
0001:0019c0cc* __ZN12FormSettings2trEPKcS1_
0001:0019c10c* __ZN12FormSettings6trUtf8EPKcS1_
0001:0019c17c* __ZN12FormSettings16staticMetaObjectEv
0001:0019c1d8* __ZN12FormSettings7qt_castEPKc
0001:0019c230* __ZN12FormSettings9qt_invokeEiP8QUObject
0001:0019c274* __ZN12FormSettings7qt_emitEiP8QUObject
0001:0019c290* __ZN12FormSettings11qt_propertyEiiP8QVariant
0001:0019c2ac* __ZN12FormSettings18qt_static_propertyEP7QObjectiiP8QVariant
0002:000034c0* __ZN12FormSettings7metaObjE
0001:0019c2d0  __ZTV12FormSettings$w$pFo808QF8U6Lkzmc0
0001:0019c5dc  __ZNK12FormSettings10metaObjectEv$w$pFo808QF8U6Lkzmc0
0001:0019c57c  __ZN12FormSettingsD1Ev$w$pFo808QF8U6Lkzmc0
0001:0019c5a8  __ZN12FormSettingsD0Ev$w$pFo808QF8U6Lkzmc0
0001:0019c554* __ZN7QWidget9setWStateEj$w$pFo808QF8U6Lkzmc0
0001:0019c568* __ZN7QWidget9setWFlagsEj$w$pFo808QF8U6Lkzmc0
0001:0019c5a0  __ZThn40_N12FormSettingsD1Ev$w$pFo808QF8U6Lkzmc0
0001:0019c5d4  __ZThn40_N12FormSettingsD0Ev$w$pFo808QF8U6Lkzmc0
0001:0019c4d0* __ZTV6QGList$w$pFo808QF8U6Lkzmc0
0001:0019c548* __ZNK6QGList5countEv$w$pFo808QF8U6Lkzmc0
Module: C:\200\trunk\lib\designercore.lib(actiondnd.obj)
0001:0019c688* __ZN10ActionDragC2EP7QActionP7QWidget
0001:0019c6e4  __ZN10ActionDragC1EP7QActionP7QWidget
0001:0019c764* __ZN10ActionDragC2EP12QActionGroupP7QWidget
0001:0019c7c0  __ZN10ActionDragC1EP12QActionGroupP7QWidget
0001:0019c81c* __ZN10ActionDragC2ERK7QStringP7QActionP7QWidget
0001:0019c880* __ZN10ActionDragC1ERK7QStringP7QActionP7QWidget
0001:0019c908* __ZN10ActionDrag9canDecodeEP10QDropEvent
0001:0019c964* __ZN10ActionDragD2Ev
0001:0019c990  __ZN10ActionDragD1Ev
0001:0019c9c4  __ZN10ActionDragD0Ev
0001:0019ca04  __ZN15QDesignerAction4initEv
0001:0019ca78  __ZN20QDesignerActionGroup4initEv
0001:0019caec  __ZN15QDesignerAction5addToEP7QWidget
0001:0019cb6c  __ZN15QDesignerAction10removeFromEP7QWidget
0001:0019cba0* __ZN15QDesignerAction6removeEv
0001:0019cc40* __ZN25QDesignerToolBarSeparatorC2EN2Qt11OrientationEP8QToolBarPKc
0001:0019cd38  __ZN25QDesignerToolBarSeparator14setOrientationEN2Qt11OrientationE
0001:0019ccbc* __ZN25QDesignerToolBarSeparatorC1EN2Qt11OrientationEP8QToolBarPKc
0001:0019cd48  __ZN25QDesignerToolBarSeparator11styleChangeER6QStyle
0001:0019cd58  __ZNK25QDesignerToolBarSeparator8sizeHintEv
0001:0019cdac  __ZN25QDesignerToolBarSeparator10paintEventEP11QPaintEvent
0001:0019ce8c* __ZN16QSeparatorActionC2EP7QObject
0001:0019cebc  __ZN16QSeparatorActionC1EP7QObject
0001:0019ceec  __ZN16QSeparatorAction5addToEP7QWidget
0001:0019cf6c  __ZN16QSeparatorAction10removeFromEP7QWidget
0001:0019cfd4  __ZNK16QSeparatorAction6widgetEv
0001:0019cff8* __ZN16QDesignerToolBarC2EP11QMainWindow
0001:0019d4e0* __ZN16QDesignerToolBar14findFormWindowEv
0001:0019d13c  __ZN16QDesignerToolBarC1EP11QMainWindow
0001:0019d280* __ZN16QDesignerToolBarC2EP11QMainWindowN2Qt4DockE
0001:0019d3b0  __ZN16QDesignerToolBarC1EP11QMainWindowN2Qt4DockE
0001:0019d534  __ZN16QDesignerToolBar9addActionEP7QAction
0001:0019d698  __ZN16QDesignerToolBar11eventFilterEP7QObjectP6QEvent
0001:0019db5c* __ZN16QDesignerToolBar23buttonMouseReleaseEventEP11QMouseEventP7QObject
0001:0019e744* __ZN16QDesignerToolBar20buttonMouseMoveEventEP11QMouseEventP7QObject
0001:0019dc90* __ZN16QDesignerToolBar22buttonContextMenuEventEP17QContextMenuEventP7QObject
0001:0019e434* __ZN16QDesignerToolBar21buttonMousePressEventEP11QMouseEventP7QObject
0001:0019d818  __ZN16QDesignerToolBar10paintEventEP11QPaintEvent
0001:0019d8b4  __ZN16QDesignerToolBar16contextMenuEventEP17QContextMenuEvent
0001:0019da88  __ZN16QDesignerToolBar15mousePressEventEP11QMouseEvent
0001:0019db14  __ZN16QDesignerToolBar17mouseReleaseEventEP11QMouseEvent
0001:0019f928* __ZN16QDesignerToolBar14doInsertWidgetERK6QPoint
0001:0019f558* __ZN16QDesignerToolBar16calcIndicatorPosERK6QPoint
0001:0019e4d8  __ZN16QDesignerToolBar12removeWidgetEP7QWidget
0001:0019ee38  __ZN16QDesignerToolBar14dragEnterEventEP15QDragEnterEvent
0001:0019ee84  __ZN16QDesignerToolBar13dragMoveEventEP14QDragMoveEvent
0001:0019f7b8* __ZN16QDesignerToolBar13drawIndicatorERK6QPoint
0001:0019eed0  __ZN16QDesignerToolBar14dragLeaveEventEP15QDragLeaveEvent
0001:0019ef80  __ZN16QDesignerToolBar9dropEventEP10QDropEvent
0001:0019f3d4  __ZN16QDesignerToolBar8reInsertEv
0001:0019f530  __ZN16QDesignerToolBar13actionRemovedEv
0001:0019fc84  __ZN16QDesignerToolBar19installEventFiltersEP7QWidget
0001:0019fc14  __ZN16QDesignerToolBar5clearEv
0001:0019fd08* __ZNK24QDesignerIndicatorWidget9classNameEv
0001:0019fd14* __ZN24QDesignerIndicatorWidget2trEPKcS1_
0001:0019fd54* __ZN24QDesignerIndicatorWidget6trUtf8EPKcS1_
0001:0019fd94* __ZN24QDesignerIndicatorWidget16staticMetaObjectEv
0001:0019fdec* __ZN24QDesignerIndicatorWidget7qt_castEPKc
0001:0019fe44* __ZN24QDesignerIndicatorWidget9qt_invokeEiP8QUObject
0001:0019fe60* __ZN24QDesignerIndicatorWidget7qt_emitEiP8QUObject
0001:0019fe7c* __ZN24QDesignerIndicatorWidget11qt_propertyEiiP8QVariant
0001:0019fe98* __ZN24QDesignerIndicatorWidget18qt_static_propertyEP7QObjectiiP8QVariant
0002:000034e0  __ZN10ActionDrag10the_actionE
0002:000034e4* __ZN24QDesignerIndicatorWidget7metaObjE
0001:0019c9bc  __ZThn40_N10ActionDragD1Ev$w$jKOdXBGF8U6MNrr03
0001:0019c9fc  __ZThn40_N10ActionDragD0Ev$w$jKOdXBGF8U6MNrr03
0001:0019ff20* __Z7qt_castIP10QPopupMenuET_PK7QObject$w$jKOdXBGF8U6MNrr03
0001:0019ff3c* __Z7qt_castIP8QToolBarET_PK7QObject$w$jKOdXBGF8U6MNrr03
0001:001a0610* __ZTV8QPtrListI7QActionE$w$jKOdXBGF8U6MNrr03
0001:0019ff58  __ZN11QMapPrivateIP7QWidgetP7QActionEC1Ev$w$jKOdXBGF8U6MNrr03
0001:001a0390  __ZTV24QDesignerIndicatorWidget$w$jKOdXBGF8U6MNrr03
0001:0019ff94* __Z7qt_castIP10FormWindowET_PK7QObject$w$jKOdXBGF8U6MNrr03
0001:0019fea0* __Z7qt_castIP12QActionGroupET_PK7QObject$w$jKOdXBGF8U6MNrr03
0001:0019febc  __ZN4QMapIP7QWidgetP7QActionE6insertERKS1_RKS3_b$w$jKOdXBGF8U6MNrr03
0001:0019ffb0* __Z7qt_castIP16QSeparatorActionET_PK7QObject$w$jKOdXBGF8U6MNrr03
0001:0019ffcc* __Z7qt_castIP16QDesignerToolBarET_PK7QObject$w$jKOdXBGF8U6MNrr03
0001:001a0590  __ZTV20RemoveToolBarCommand$w$jKOdXBGF8U6MNrr03
0001:0019ffe8  __ZNK11QMapPrivateIP7QWidgetP7QActionE4findERKS1_$w$jKOdXBGF8U6MNrr03
0001:001a0038  __ZN4QMapIP7QWidgetP7QActionE14detachInternalEv$w$jKOdXBGF8U6MNrr03
0001:001a05d0  __ZTV30RemoveActionFromToolBarCommand$w$jKOdXBGF8U6MNrr03
0001:001a0068* __Z7qt_castIP15QDesignerActionET_PK7QObject$w$jKOdXBGF8U6MNrr03
0001:001a0084* __Z7qt_castIP20QDesignerActionGroupET_PK7QObject$w$jKOdXBGF8U6MNrr03
0001:001a00a0  __ZN4QMapIP7QWidgetP7QActionE5clearEv$w$jKOdXBGF8U6MNrr03
0001:001a00e4  __ZN11QMapPrivateIP7QWidgetP7QActionE12insertSingleERKS1_$w$jKOdXBGF8U6MNrr03
0001:001a0180  __ZN11QMapPrivateIP7QWidgetP7QActionEC1EPKS4_$w$jKOdXBGF8U6MNrr03
0001:001a08d4  __ZN11QMapPrivateIP7QWidgetP7QActionE5clearEv$w$jKOdXBGF8U6MNrr03
0001:001a0218  __ZN11QMapPrivateIP7QWidgetP7QActionE6insertEP12QMapNodeBaseS6_RKS1_$w$jKOdXBGF8U6MNrr03
0001:001a02ac  __ZN12QMapIteratorIP7QWidgetP7QActionE3decEv$w$jKOdXBGF8U6MNrr03
0001:001a0304  __ZN11QMapPrivateIP7QWidgetP7QActionE4copyEP8QMapNodeIS1_S3_E$w$jKOdXBGF8U6MNrr03
0001:001a088c  __ZNK24QDesignerIndicatorWidget10metaObjectEv$w$jKOdXBGF8U6MNrr03
0001:001a082c  __ZN24QDesignerIndicatorWidgetD1Ev$w$jKOdXBGF8U6MNrr03
0001:001a0858  __ZN24QDesignerIndicatorWidgetD0Ev$w$jKOdXBGF8U6MNrr03
0001:001a06d4  __ZN7QWidget11setGeometryERK5QRect$w$jKOdXBGF8U6MNrr03
0001:001a070c  __ZN7QWidget9setWStateEj$w$jKOdXBGF8U6MNrr03
0001:001a0720  __ZN7QWidget9setWFlagsEj$w$jKOdXBGF8U6MNrr03
0001:001a0850  __ZThn40_N24QDesignerIndicatorWidgetD1Ev$w$jKOdXBGF8U6MNrr03
0001:001a0884  __ZThn40_N24QDesignerIndicatorWidgetD0Ev$w$jKOdXBGF8U6MNrr03
0001:001a07c4  __ZN20RemoveToolBarCommandD1Ev$w$jKOdXBGF8U6MNrr03
0001:001a07e0  __ZN20RemoveToolBarCommandD0Ev$w$jKOdXBGF8U6MNrr03
0001:001a0808  __ZN20RemoveToolBarCommand7executeEv$w$jKOdXBGF8U6MNrr03
0001:001a0814  __ZN20RemoveToolBarCommand9unexecuteEv$w$jKOdXBGF8U6MNrr03
0001:001a0820  __ZNK20RemoveToolBarCommand4typeEv$w$jKOdXBGF8U6MNrr03
0001:001a075c  __ZN30RemoveActionFromToolBarCommandD1Ev$w$jKOdXBGF8U6MNrr03
0001:001a0778  __ZN30RemoveActionFromToolBarCommandD0Ev$w$jKOdXBGF8U6MNrr03
0001:001a07a0  __ZN30RemoveActionFromToolBarCommand7executeEv$w$jKOdXBGF8U6MNrr03
0001:001a07ac  __ZN30RemoveActionFromToolBarCommand9unexecuteEv$w$jKOdXBGF8U6MNrr03
0001:001a07b8  __ZNK30RemoveActionFromToolBarCommand4typeEv$w$jKOdXBGF8U6MNrr03
0001:001a094c* __ZNK8QPtrListI7QActionE5countEv$w$jKOdXBGF8U6MNrr03
0001:001a0898* __ZN8QPtrListI7QActionE5clearEv$w$jKOdXBGF8U6MNrr03
0001:001a0734* __ZN8QPtrListI7QActionED1Ev$w$jKOdXBGF8U6MNrr03
0001:001a08a4* __ZN8QPtrListI7QActionED0Ev$w$jKOdXBGF8U6MNrr03
0001:001a0958* __ZN8QPtrListI7QActionE10deleteItemEPv$w$jKOdXBGF8U6MNrr03
0001:001a0650* __ZTV6QGList$w$jKOdXBGF8U6MNrr03
0001:001a06c8* __ZNK6QGList5countEv$w$jKOdXBGF8U6MNrr03
0001:001a0910  __ZN11QMapPrivateIP7QWidgetP7QActionE5clearEP8QMapNodeIS1_S3_E$w$jKOdXBGF8U6MNrr03
Module: C:\200\trunk\lib\designercore.lib(richtextfontdialog.obj)
0001:001a09b0  __ZN18RichTextFontDialog4initEv
0001:001a0a14  __ZN18RichTextFontDialog11selectColorEv
0001:001a0ab0  __ZN18RichTextFontDialog6acceptEv
0001:001a0b54  __ZN18RichTextFontDialog6rejectEv
0001:001a0b70  __ZN18RichTextFontDialog7getSizeEv
0001:001a0b94  __ZN18RichTextFontDialog8getColorEv
0001:001a0bb8  __ZN18RichTextFontDialog7getFontEv
0001:001a0ca8* __ZN18RichTextFontDialogC2EP7QWidgetPKcbj
0001:001a1c94  __ZN18RichTextFontDialog14languageChangeEv
0001:001a13c0  __ZN18RichTextFontDialogC1EP7QWidgetPKcbj
0001:001a1ad8* __ZN18RichTextFontDialogD2Ev
0001:001a1b48  __ZN18RichTextFontDialogD1Ev
0001:001a1bc0  __ZN18RichTextFontDialogD0Ev
0001:001a212c* __ZN17QValueListPrivateI7QStringED1Ev$w$1J6nWoNF8U64K81Q3
0001:001a1bb8  __ZThn40_N18RichTextFontDialogD1Ev$w$1J6nWoNF8U64K81Q3
0001:001a1c34  __ZThn40_N18RichTextFontDialogD0Ev$w$1J6nWoNF8U64K81Q3
0001:001a21d0* __ZTV6QGList$w$1J6nWoNF8U64K81Q3
0001:001a21fc* __ZNK6QGList5countEv$w$1J6nWoNF8U64K81Q3
Module: C:\200\trunk\lib\designercore.lib(connectiondialog.obj)
0001:001a2534  __ZN16ConnectionDialog4initEv
0001:001a2804  __ZN16ConnectionDialog13addConnectionEv
0001:001a28dc  __ZN16ConnectionDialog13addConnectionEP7QObjectS1_RK7QStringS4_
0001:001a2e70  __ZN16ConnectionDialog21updateConnectionStateEP19ConnectionContainer
0001:001a3364  __ZN16ConnectionDialog9okClickedEv
0001:001a3ba8  __ZN16ConnectionDialog13cancelClickedEv
0001:001a3bc0  __ZN16ConnectionDialog13deleteClickedEv
0001:001a3c30  __ZN16ConnectionDialog9editSlotsEv
0001:001a3ec0  __ZN16ConnectionDialog10setDefaultEP7QObjectS1_
0001:001a3edc  __ZN16ConnectionDialog21updateEditSlotsButtonEv
0001:001a3fe0  __ZN16ConnectionDialog26updateConnectionContainersEv
0001:001a40e4  __ZN16ConnectionDialog23ensureConnectionVisibleEv
0001:001a41f4* __ZN16ConnectionDialogC2EP7QWidgetPKcbj
0001:001a4b74  __ZN16ConnectionDialog14languageChangeEv
0001:001a45fc  __ZN16ConnectionDialogC1EP7QWidgetPKcbj
0001:001a4a04* __ZN16ConnectionDialogD2Ev
0001:001a4a5c  __ZN16ConnectionDialogD1Ev
0001:001a4abc  __ZN16ConnectionDialogD0Ev
0001:001a4d70* __ZN17QValueListPrivateIN12MetaDataBase10ConnectionEED1Ev$w$fgkPKBNF8U68PZdw4
0001:001a4dec* __ZN10QValueListIN12MetaDataBase10ConnectionEE14detachInternalEv$w$fgkPKBNF8U68PZdw4
0001:001a54b0* __ZTV8QPtrListI7CommandE$w$fgkPKBNF8U68PZdw4
0001:001a4e1c* __ZN11QMapPrivateIP13QListViewItemiE5clearEv$w$fgkPKBNF8U68PZdw4
0001:001a4e58* __ZN17QValueListPrivateI7QStringED1Ev$w$fgkPKBNF8U68PZdw4
0001:001a4ee8* __ZN17QValueListPrivateIN12MetaDataBase8FunctionEED1Ev$w$fgkPKBNF8U68PZdw4
0001:001a50ac* __ZN17QValueListPrivateIN13EditFunctions9FunctItemEED1Ev$w$fgkPKBNF8U68PZdw4
0001:001a54f0  __ZTV8QPtrListI19ConnectionContainerE$w$fgkPKBNF8U68PZdw4
0001:001a4ab4  __ZThn40_N16ConnectionDialogD1Ev$w$fgkPKBNF8U68PZdw4
0001:001a4b1c  __ZThn40_N16ConnectionDialogD0Ev$w$fgkPKBNF8U68PZdw4
0001:001a5344* __ZN17QValueListPrivateIN12MetaDataBase10ConnectionEEC1ERKS2_$w$fgkPKBNF8U68PZdw4
0001:001a53e8* __ZN11QMapPrivateIP13QListViewItemiE5clearEP8QMapNodeIS1_iE$w$fgkPKBNF8U68PZdw4
0001:001a555c* __ZN7QStringD1Ev$w$fgkPKBNF8U68PZdw4
0001:001a5424* __ZN17QValueListPrivateIN12MetaDataBase10ConnectionEE6insertE18QValueListIteratorIS1_ERKS1_$w$fgkPKBNF8U68PZdw4
0001:001a5664* __ZNK8QPtrListI7CommandE5countEv$w$fgkPKBNF8U68PZdw4
0001:001a55b8* __ZN8QPtrListI7CommandE5clearEv$w$fgkPKBNF8U68PZdw4
0001:001a5590* __ZN8QPtrListI7CommandED1Ev$w$fgkPKBNF8U68PZdw4
0001:001a55c4* __ZN8QPtrListI7CommandED0Ev$w$fgkPKBNF8U68PZdw4
0001:001a5670* __ZN8QPtrListI7CommandE10deleteItemEPv$w$fgkPKBNF8U68PZdw4
0001:001a55f4  __ZNK8QPtrListI19ConnectionContainerE5countEv$w$fgkPKBNF8U68PZdw4
0001:001a5628  __ZN8QPtrListI19ConnectionContainerE5clearEv$w$fgkPKBNF8U68PZdw4
0001:001a5600  __ZN8QPtrListI19ConnectionContainerED1Ev$w$fgkPKBNF8U68PZdw4
0001:001a5634  __ZN8QPtrListI19ConnectionContainerED0Ev$w$fgkPKBNF8U68PZdw4
0001:001a5698  __ZN8QPtrListI19ConnectionContainerE10deleteItemEPv$w$fgkPKBNF8U68PZdw4
0001:001a5530* __ZTV6QGList$w$fgkPKBNF8U68PZdw4
0001:001a5584* __ZNK6QGList5countEv$w$fgkPKBNF8U68PZdw4
Module: C:\200\trunk\lib\designercore.lib(projectsettingsimpl.obj)
0001:001a5700* __ZN15ProjectSettingsC2EP7ProjectP7QWidgetPKcbj
0001:001a5a80  __ZN15ProjectSettingsC1EP7ProjectP7QWidgetPKcbj
0001:001a5e00* __ZN15ProjectSettingsD2Ev
0001:001a5e24  __ZN15ProjectSettingsD1Ev
0001:001a5e50  __ZN15ProjectSettingsD0Ev
0001:001a5eac  __ZN15ProjectSettings18chooseDatabaseFileEv
0001:001a5fb8  __ZN15ProjectSettings17chooseProjectFileEv
0001:001a609c  __ZN15ProjectSettings11helpClickedEv
0001:001a60a4  __ZN15ProjectSettings9okClickedEv
0001:001a61ac  __ZN15ProjectSettings15languageChangedERK7QString
0001:001a61b4* __ZN17QValueListPrivateI7QStringED1Ev$w$z4VrI4HF8U6M23of3
0001:001a5e48  __ZThn40_N15ProjectSettingsD1Ev$w$z4VrI4HF8U6M23of3
0001:001a5e7c  __ZThn40_N15ProjectSettingsD0Ev$w$z4VrI4HF8U6M23of3
0001:001a6250* __ZTV6QGList$w$z4VrI4HF8U6M23of3
0001:001a627c* __ZNK6QGList5countEv$w$z4VrI4HF8U6M23of3
Module: C:\200\trunk\lib\designercore.lib(iconvieweditorimpl.obj)
0001:001a62b0* __ZN14IconViewEditorC2EP7QWidgetS1_P10FormWindow
0001:001a649c  __ZN14IconViewEditorC1EP7QWidgetS1_P10FormWindow
0001:001a6690  __ZN14IconViewEditor13insertNewItemEv
0001:001a673c  __ZN14IconViewEditor17deleteCurrentItemEv
0001:001a67a4  __ZN14IconViewEditor18currentItemChangedEP13QIconViewItem
0001:001a69cc  __ZN14IconViewEditor18currentTextChangedERK7QString
0001:001a6a08  __ZN14IconViewEditor9okClickedEv
0001:001a6a30  __ZN14IconViewEditor13cancelClickedEv
0001:001a6a60  __ZN14IconViewEditor12applyClickedEv
0001:001a6d10  __ZN14IconViewEditor12choosePixmapEv
0001:001a6e50  __ZN14IconViewEditor12deletePixmapEv
0001:001a6f18  __ZN17QValueListPrivateIN23PopulateIconViewCommand4ItemEEC1Ev$w$LyZ1r9FF8U6BT9EB0
0001:001a7020  __ZN17QValueListPrivateIN23PopulateIconViewCommand4ItemEE6insertE18QValueListIteratorIS1_ERKS1_$w$LyZ1r9FF8U6BT9EB0
0001:001a6f70  __ZN17QValueListPrivateIN23PopulateIconViewCommand4ItemEED1Ev$w$LyZ1r9FF8U6BT9EB0
0001:001a708c  __ZN10QValueListIN23PopulateIconViewCommand4ItemEE14detachInternalEv$w$LyZ1r9FF8U6BT9EB0
0001:001a70bc  __ZN17QValueListPrivateIN23PopulateIconViewCommand4ItemEEC1ERKS2_$w$LyZ1r9FF8U6BT9EB0
0001:001a7170* __ZTV6QGList$w$LyZ1r9FF8U6BT9EB0
0001:001a719c* __ZNK6QGList5countEv$w$LyZ1r9FF8U6BT9EB0
Module: C:\200\trunk\lib\designercore.lib(moc_workspace.obj)
0001:001a71bc* __ZNK9Workspace9classNameEv
0001:001a71c8  __ZN9Workspace2trEPKcS1_
0001:001a7208* __ZN9Workspace6trUtf8EPKcS1_
0001:001a77e4* __ZN9Workspace16staticMetaObjectEv
0001:001a7840* __ZN9Workspace7qt_castEPKc
0001:001a7898* __ZN9Workspace9qt_invokeEiP8QUObject
0001:001a7a10* __ZN9Workspace7qt_emitEiP8QUObject
0001:001a7a2c* __ZN9Workspace11qt_propertyEiiP8QVariant
0001:001a7a48* __ZN9Workspace18qt_static_propertyEP7QObjectiiP8QVariant
0002:00003520* __ZN9Workspace7metaObjE
0001:001a7a50  __ZTV9Workspace$w$515igzPF8U6XYyuS1
0001:001a7ed0  __ZNK9Workspace10metaObjectEv$w$515igzPF8U6XYyuS1
0001:001a7e70  __ZN9WorkspaceD1Ev$w$515igzPF8U6XYyuS1
0001:001a7e9c  __ZN9WorkspaceD0Ev$w$515igzPF8U6XYyuS1
0001:001a7df4* __ZN7QWidget11setGeometryERK5QRect$w$515igzPF8U6XYyuS1
0001:001a7e2c* __ZN7QWidget9setWStateEj$w$515igzPF8U6XYyuS1
0001:001a7e40* __ZN7QWidget9setWFlagsEj$w$515igzPF8U6XYyuS1
0001:001a7e54* __ZN9QListView10removeItemEP13QListViewItem$w$515igzPF8U6XYyuS1
0001:001a7e94  __ZThn40_N9WorkspaceD1Ev$w$515igzPF8U6XYyuS1
0001:001a7ec8  __ZThn40_N9WorkspaceD0Ev$w$515igzPF8U6XYyuS1
0001:001a7d70* __ZTV6QGList$w$515igzPF8U6XYyuS1
0001:001a7de8* __ZNK6QGList5countEv$w$515igzPF8U6XYyuS1
Module: C:\200\trunk\lib\designercore.lib(moc_paletteeditorimpl.obj)
0001:001a7f20* __ZNK13PaletteEditor9classNameEv
0001:001a7f2c* __ZN13PaletteEditor2trEPKcS1_
0001:001a7f6c* __ZN13PaletteEditor6trUtf8EPKcS1_
0001:001a80c0* __ZN13PaletteEditor16staticMetaObjectEv
0001:001a811c* __ZN13PaletteEditor7qt_castEPKc
0001:001a8174* __ZN13PaletteEditor9qt_invokeEiP8QUObject
0001:001a8204* __ZN13PaletteEditor7qt_emitEiP8QUObject
0001:001a8220* __ZN13PaletteEditor11qt_propertyEiiP8QVariant
0001:001a823c* __ZN13PaletteEditor18qt_static_propertyEP7QObjectiiP8QVariant
0002:00003540* __ZN13PaletteEditor7metaObjE
0001:001a8250  __ZTV13PaletteEditor$w$DgOdyNPF8U6SBWwS3
0001:001a851c  __ZNK13PaletteEditor10metaObjectEv$w$DgOdyNPF8U6SBWwS3
0001:001a84f4* __ZN7QWidget9setWStateEj$w$DgOdyNPF8U6SBWwS3
0001:001a8508* __ZN7QWidget9setWFlagsEj$w$DgOdyNPF8U6SBWwS3
0001:001a8470* __ZTV6QGList$w$DgOdyNPF8U6SBWwS3
0001:001a84e8* __ZNK6QGList5countEv$w$DgOdyNPF8U6SBWwS3
Module: C:\200\trunk\lib\designercore.lib(syntaxhighlighter_html.obj)
0001:001a8570* __ZN22SyntaxHighlighter_HTMLC2Ev
0001:001a8df0* __ZN22SyntaxHighlighter_HTML9addFormatEiP11QTextFormat
0001:001a8700  __ZN22SyntaxHighlighter_HTMLC1Ev
0001:001a8890* __ZN22SyntaxHighlighter_HTMLD2Ev
0001:001a88cc* __ZN22SyntaxHighlighter_HTMLD1Ev
0001:001a8908* __ZN22SyntaxHighlighter_HTMLD0Ev
0001:001a894c* __ZN22SyntaxHighlighter_HTML7processEP13QTextDocumentP14QTextParagraphib
0001:001a8d9c* __ZN22SyntaxHighlighter_HTML6formatEi
0001:001a8e10  __ZTV22SyntaxHighlighter_HTML$w$55bsu4JF8U6iNCMr3
0001:001a8e30  __ZTV8QIntDictI11QTextFormatE$w$55bsu4JF8U6iNCMr3
0001:001a8e58  __ZTV17QTextPreProcessor$w$55bsu4JF8U6iNCMr3
0001:001a8fe0  __ZNK8QIntDictI11QTextFormatE5countEv$w$55bsu4JF8U6iNCMr3
0001:001a8fa4  __ZN8QIntDictI11QTextFormatE5clearEv$w$55bsu4JF8U6iNCMr3
0001:001a8f7c  __ZN8QIntDictI11QTextFormatED1Ev$w$55bsu4JF8U6iNCMr3
0001:001a8fb0  __ZN8QIntDictI11QTextFormatED0Ev$w$55bsu4JF8U6iNCMr3
0001:001a8fec  __ZN8QIntDictI11QTextFormatE10deleteItemEPv$w$55bsu4JF8U6iNCMr3
0001:001a8f58  __ZN17QTextPreProcessorD1Ev$w$55bsu4JF8U6iNCMr3
0001:001a8f68  __ZN17QTextPreProcessorD0Ev$w$55bsu4JF8U6iNCMr3
0001:001a8e70* __ZTV19QTextCommandHistory$w$55bsu4JF8U6iNCMr3
0001:001a8ec8* __ZN19QTextCommandHistoryD1Ev$w$55bsu4JF8U6iNCMr3
0001:001a8f0c* __ZN19QTextCommandHistoryD0Ev$w$55bsu4JF8U6iNCMr3
0001:001a8e90* __ZTV6QGList$w$55bsu4JF8U6iNCMr3
0001:001a8ebc* __ZNK6QGList5countEv$w$55bsu4JF8U6iNCMr3
0001:001a9030* __ZTV8QPtrListI12QTextCommandE$w$55bsu4JF8U6iNCMr3
0001:001a9090* __ZNK8QPtrListI12QTextCommandE5countEv$w$55bsu4JF8U6iNCMr3
0001:001a9084* __ZN8QPtrListI12QTextCommandE5clearEv$w$55bsu4JF8U6iNCMr3
0001:001a905c* __ZN8QPtrListI12QTextCommandED1Ev$w$55bsu4JF8U6iNCMr3
0001:001a909c* __ZN8QPtrListI12QTextCommandED0Ev$w$55bsu4JF8U6iNCMr3
0001:001a90cc* __ZN8QPtrListI12QTextCommandE10deleteItemEPv$w$55bsu4JF8U6iNCMr3
Module: C:\200\trunk\lib\designercore.lib(moc_pixmapfunction.obj)
0001:001a9120* __ZNK14PixmapFunction9classNameEv
0001:001a912c  __ZN14PixmapFunction2trEPKcS1_
0001:001a916c* __ZN14PixmapFunction6trUtf8EPKcS1_
0001:001a91e8* __ZN14PixmapFunction16staticMetaObjectEv
0001:001a9244* __ZN14PixmapFunction7qt_castEPKc
0001:001a929c* __ZN14PixmapFunction9qt_invokeEiP8QUObject
0001:001a92e0* __ZN14PixmapFunction7qt_emitEiP8QUObject
0001:001a92fc* __ZN14PixmapFunction11qt_propertyEiiP8QVariant
0001:001a9318* __ZN14PixmapFunction18qt_static_propertyEP7QObjectiiP8QVariant
0002:00003560* __ZN14PixmapFunction7metaObjE
0001:001a9330  __ZTV14PixmapFunction$w$DYmIGfTF8U6ROCPH2
0001:001a95dc  __ZNK14PixmapFunction10metaObjectEv$w$DYmIGfTF8U6ROCPH2
0001:001a95b4* __ZN7QWidget9setWStateEj$w$DYmIGfTF8U6ROCPH2
0001:001a95c8* __ZN7QWidget9setWFlagsEj$w$DYmIGfTF8U6ROCPH2
0001:001a9530* __ZTV6QGList$w$DYmIGfTF8U6ROCPH2
0001:001a95a8* __ZNK6QGList5countEv$w$DYmIGfTF8U6ROCPH2
Module: C:\200\trunk\lib\designercore.lib(tableeditor.obj)
0001:001a9b1c  __ZN15TableEditorBaseC2EP7QWidgetPKcbj
0001:001ac85c  __ZN15TableEditorBase14languageChangeEv
0001:001ad414  __ZN15TableEditorBase4initEv
0001:001aaff4* __ZN15TableEditorBaseC1EP7QWidgetPKcbj
0001:001ac4cc  __ZN15TableEditorBaseD2Ev
0001:001ad41c  __ZN15TableEditorBase7destroyEv
0001:001ac4fc  __ZN15TableEditorBaseD1Ev
0001:001ac534  __ZN15TableEditorBaseD0Ev
0001:001ad45c  __ZN15TableEditorBase12applyClickedEv
0001:001ad4ac  __ZN15TableEditorBase22chooseRowPixmapClickedEv
0001:001ad504  __ZN15TableEditorBase17columnTextChangedERK7QString
0001:001ad54c  __ZN15TableEditorBase15columnUpClickedEv
0001:001ad5a8  __ZN15TableEditorBase20currentColumnChangedEP12QListBoxItem
0001:001ad604  __ZN15TableEditorBase19currentFieldChangedERK7QString
0001:001ad65c  __ZN15TableEditorBase17currentRowChangedEP12QListBoxItem
0001:001ad6ac  __ZN15TableEditorBase22deleteColPixmapClickedEv
0001:001ad6f8  __ZN15TableEditorBase19deleteColumnClickedEv
0001:001ad744  __ZN15TableEditorBase16deleteRowClickedEv
0001:001ad794  __ZN15TableEditorBase22deleteRowPixmapClickedEv
0001:001ad7e0  __ZN15TableEditorBase16newColumnClickedEv
0001:001ad828  __ZN15TableEditorBase13newRowClickedEv
0001:001ad878  __ZN15TableEditorBase22chooseColPixmapClickedEv
0001:001ad8bc  __ZN15TableEditorBase9okClickedEv
0001:001ad904  __ZN15TableEditorBase14rowDownClickedEv
0001:001ad95c  __ZN15TableEditorBase14rowTextChangedERK7QString
0001:001ad9a4  __ZN15TableEditorBase12rowUpClickedEv
0001:001ad9f0  __ZN15TableEditorBase17columnDownClickedEv
0001:001ac52c  __ZThn40_N15TableEditorBaseD1Ev$w$L4WDnXNF8U63bMOQ2
0001:001ac568  __ZThn40_N15TableEditorBaseD0Ev$w$L4WDnXNF8U63bMOQ2
0001:001ada10* __ZTV6QGList$w$L4WDnXNF8U63bMOQ2
0001:001ada3c* __ZNK6QGList5countEv$w$L4WDnXNF8U63bMOQ2
Module: C:\200\trunk\lib\designercore.lib(moc_project.obj)
0001:001ada58* __ZNK7Project9classNameEv
0001:001ada64  __ZN7Project2trEPKcS1_
0001:001adaa4* __ZN7Project6trUtf8EPKcS1_
0001:001add90* __ZN7Project16staticMetaObjectEv
0001:001addec* __ZN7Project7qt_castEPKc
0001:001ade44  __ZN7Project15projectModifiedEv
0001:001ade64  __ZN7Project15sourceFileAddedEP10SourceFile
0001:001adef4  __ZN7Project17sourceFileRemovedEP10SourceFile
0001:001adf84  __ZN7Project13formFileAddedEP8FormFile
0001:001ae014  __ZN7Project15formFileRemovedEP8FormFile
0001:001ae0a4  __ZN7Project11objectAddedEP7QObject
0001:001ae134  __ZN7Project13objectRemovedEP7QObject
0001:001ae1c4  __ZN7Project13newFormOpenedEP10FormWindow
0001:001ae254* __ZN7Project9qt_invokeEiP8QUObject
0001:001ae270* __ZN7Project7qt_emitEiP8QUObject
0001:001ae34c* __ZN7Project11qt_propertyEiiP8QVariant
0001:001ae368* __ZN7Project18qt_static_propertyEP7QObjectiiP8QVariant
0002:00003580* __ZN7Project7metaObjE
0001:001ae370  __ZTV7Project$w$Lu3vgzQF8U6rYSB72
0001:001ae454  __ZNK7Project10metaObjectEv$w$Lu3vgzQF8U6rYSB72
0001:001ae3d0* __ZTV6QGList$w$Lu3vgzQF8U6rYSB72
0001:001ae448* __ZNK6QGList5countEv$w$Lu3vgzQF8U6rYSB72
Module: C:\200\trunk\lib\designercore.lib(moc_widgetaction.obj)
0001:001ae4a0* __ZNK12WidgetAction9classNameEv
0001:001ae4ac* __ZN12WidgetAction2trEPKcS1_
0001:001ae4ec* __ZN12WidgetAction6trUtf8EPKcS1_
0001:001ae52c* __ZN12WidgetAction16staticMetaObjectEv
0001:001ae584* __ZN12WidgetAction7qt_castEPKc
0001:001ae5dc* __ZN12WidgetAction9qt_invokeEiP8QUObject
0001:001ae5f8* __ZN12WidgetAction7qt_emitEiP8QUObject
0001:001ae614* __ZN12WidgetAction11qt_propertyEiiP8QVariant
0001:001ae630* __ZN12WidgetAction18qt_static_propertyEP7QObjectiiP8QVariant
0002:000035a0* __ZN12WidgetAction7metaObjE
0001:001ae650  __ZTV12WidgetAction$w$Lg4lxtRF8U6SMCWv2
0001:001ae774  __ZNK12WidgetAction10metaObjectEv$w$Lg4lxtRF8U6SMCWv2
0001:001ae6f0* __ZTV6QGList$w$Lg4lxtRF8U6SMCWv2
0001:001ae768* __ZNK6QGList5countEv$w$Lg4lxtRF8U6SMCWv2
Module: C:\200\trunk\lib\designercore.lib(moc_iconvieweditorimpl.obj)
0001:001ae7c0* __ZNK14IconViewEditor9classNameEv
0001:001ae7cc  __ZN14IconViewEditor2trEPKcS1_
0001:001ae80c* __ZN14IconViewEditor6trUtf8EPKcS1_
0001:001aeabc* __ZN14IconViewEditor16staticMetaObjectEv
0001:001aeb18* __ZN14IconViewEditor7qt_castEPKc
0001:001aeb70* __ZN14IconViewEditor9qt_invokeEiP8QUObject
0001:001aec6c* __ZN14IconViewEditor7qt_emitEiP8QUObject
0001:001aec88* __ZN14IconViewEditor11qt_propertyEiiP8QVariant
0001:001aeca4* __ZN14IconViewEditor18qt_static_propertyEP7QObjectiiP8QVariant
0002:000035c0* __ZN14IconViewEditor7metaObjE
0001:001aecb0  __ZTV14IconViewEditor$w$hhKubWPF8U67fkAD0
0001:001aeffc  __ZNK14IconViewEditor10metaObjectEv$w$hhKubWPF8U67fkAD0
0001:001aef9c  __ZN14IconViewEditorD1Ev$w$hhKubWPF8U67fkAD0
0001:001aefc8  __ZN14IconViewEditorD0Ev$w$hhKubWPF8U67fkAD0
0001:001aef74* __ZN7QWidget9setWStateEj$w$hhKubWPF8U67fkAD0
0001:001aef88* __ZN7QWidget9setWFlagsEj$w$hhKubWPF8U67fkAD0
0001:001aefc0  __ZThn40_N14IconViewEditorD1Ev$w$hhKubWPF8U67fkAD0
0001:001aeff4  __ZThn40_N14IconViewEditorD0Ev$w$hhKubWPF8U67fkAD0
0001:001aeef0* __ZTV6QGList$w$hhKubWPF8U67fkAD0
0001:001aef68* __ZNK6QGList5countEv$w$hhKubWPF8U67fkAD0
Module: C:\200\trunk\lib\designercore.lib(replacedialog.obj)
0001:001af050  __ZN13ReplaceDialog4initEv
0001:001af06c  __ZN13ReplaceDialog7destroyEv
0001:001af0a8  __ZN13ReplaceDialog9doReplaceEv
0001:001af1d4  __ZN13ReplaceDialog12doReplaceAllEv
0001:001af300  __ZN13ReplaceDialog9setEditorEP15EditorInterfaceP7QObject
0001:001af47c* __ZN13ReplaceDialogC2EP7QWidgetPKcbj
0001:001b0584  __ZN13ReplaceDialog14languageChangeEv
0001:001afc64  __ZN13ReplaceDialogC1EP7QWidgetPKcbj
0001:001b044c* __ZN13ReplaceDialogD2Ev
0001:001b047c  __ZN13ReplaceDialogD1Ev
0001:001b04b4  __ZN13ReplaceDialogD0Ev
0001:001b04ac  __ZThn40_N13ReplaceDialogD1Ev$w$1z7eUAMF8U6Qnpmy0
0001:001b04e8  __ZThn40_N13ReplaceDialogD0Ev$w$1z7eUAMF8U6Qnpmy0
0001:001b0930* __ZTV6QGList$w$1z7eUAMF8U6Qnpmy0
0001:001b095c* __ZNK6QGList5countEv$w$1z7eUAMF8U6Qnpmy0
Module: C:\200\trunk\lib\designercore.lib(moc_listviewdnd.obj)
0001:001b097c* __ZNK11ListViewDnd9classNameEv
0001:001b0988* __ZN11ListViewDnd2trEPKcS1_
0001:001b09c8* __ZN11ListViewDnd6trUtf8EPKcS1_
0001:001b0ab0* __ZN11ListViewDnd16staticMetaObjectEv
0001:001b0b0c* __ZN11ListViewDnd7qt_castEPKc
0001:001b0b64  __ZN11ListViewDnd7droppedEP13QListViewItem
0001:001b0bf0* __ZN11ListViewDnd9qt_invokeEiP8QUObject
0001:001b0c38* __ZN11ListViewDnd7qt_emitEiP8QUObject
0001:001b0c80* __ZN11ListViewDnd11qt_propertyEiiP8QVariant
0001:001b0c9c* __ZN11ListViewDnd18qt_static_propertyEP7QObjectiiP8QVariant
0002:000035e0* __ZN11ListViewDnd7metaObjE
0001:001b0cb0  __ZTV11ListViewDnd$w$T6zYHVRF8U6v5ZOo0
0001:001b0e40  __ZNK11ListViewDnd10metaObjectEv$w$T6zYHVRF8U6v5ZOo0
0001:001b0db4  __ZN11ListViewDndD1Ev$w$T6zYHVRF8U6v5ZOo0
0001:001b0df8  __ZN11ListViewDndD0Ev$w$T6zYHVRF8U6v5ZOo0
0001:001b0d30* __ZTV6QGList$w$T6zYHVRF8U6v5ZOo0
0001:001b0da8* __ZNK6QGList5countEv$w$T6zYHVRF8U6v5ZOo0
0001:001b0e50* __ZTV8QPtrListI13QListViewItemE$w$T6zYHVRF8U6v5ZOo0
0001:001b0ee0* __ZNK8QPtrListI13QListViewItemE5countEv$w$T6zYHVRF8U6v5ZOo0
0001:001b0ea4* __ZN8QPtrListI13QListViewItemE5clearEv$w$T6zYHVRF8U6v5ZOo0
0001:001b0e7c* __ZN8QPtrListI13QListViewItemED1Ev$w$T6zYHVRF8U6v5ZOo0
0001:001b0eb0* __ZN8QPtrListI13QListViewItemED0Ev$w$T6zYHVRF8U6v5ZOo0
0001:001b0eec* __ZN8QPtrListI13QListViewItemE10deleteItemEPv$w$T6zYHVRF8U6v5ZOo0
Module: C:\200\trunk\lib\designercore.lib(startdialog.obj)
0001:001b10fc  __ZN15StartDialogBaseC2EP7QWidgetPKcbj
0001:001b21bc  __ZN15StartDialogBase14languageChangeEv
0001:001b18d8* __ZN15StartDialogBaseC1EP7QWidgetPKcbj
0001:001b20b4  __ZN15StartDialogBaseD2Ev
0001:001b20d8  __ZN15StartDialogBaseD1Ev
0001:001b2104  __ZN15StartDialogBaseD0Ev
0001:001b245c  __ZN15StartDialogBase17recentItemChangedEP13QIconViewItem
0001:001b24a4  __ZN15StartDialogBase13clearFileInfoEv
0001:001b24e4  __ZN15StartDialogBase6acceptEv
0001:001b2524  __ZN15StartDialogBase6rejectEv
0001:001b20fc  __ZThn40_N15StartDialogBaseD1Ev$w$FDjm1jNF8U6Q2BBh2
0001:001b2130  __ZThn40_N15StartDialogBaseD0Ev$w$FDjm1jNF8U6Q2BBh2
0001:001b2550* __ZTV6QGList$w$FDjm1jNF8U6Q2BBh2
0001:001b257c* __ZNK6QGList5countEv$w$FDjm1jNF8U6Q2BBh2
Module: C:\200\trunk\lib\designercore.lib(projectsettings.obj)
0001:001b2718  __ZN19ProjectSettingsBaseC2EP7QWidgetPKcbj
0001:001b36c8  __ZN19ProjectSettingsBase14languageChangeEv
0001:001b3b0c  __ZN19ProjectSettingsBase4initEv
0001:001b2e44* __ZN19ProjectSettingsBaseC1EP7QWidgetPKcbj
0001:001b3570  __ZN19ProjectSettingsBaseD2Ev
0001:001b3abc  __ZN19ProjectSettingsBase7destroyEv
0001:001b35a0  __ZN19ProjectSettingsBaseD1Ev
0001:001b35d8  __ZN19ProjectSettingsBaseD0Ev
0001:001b3a5c  __ZN19ProjectSettingsBase18chooseDatabaseFileEv
0001:001b3aac  __ZN19ProjectSettingsBase17chooseProjectFileEv
0001:001b3afc  __ZN19ProjectSettingsBase11helpClickedEv
0001:001b3b60  __ZN19ProjectSettingsBase15languageChangedERK7QString
0001:001b3ba8  __ZN19ProjectSettingsBase9okClickedEv
0001:001b35d0  __ZThn40_N19ProjectSettingsBaseD1Ev$w$PaoHEoMF8U6SIC4I3
0001:001b360c  __ZThn40_N19ProjectSettingsBaseD0Ev$w$PaoHEoMF8U6SIC4I3
0001:001b3bd0* __ZTV6QGList$w$PaoHEoMF8U6SIC4I3
0001:001b3bfc* __ZNK6QGList5countEv$w$PaoHEoMF8U6SIC4I3
Module: C:\200\trunk\lib\designercore.lib(moc_connectiontable.obj)
0001:001b3c20* __ZNK15ConnectionTable9classNameEv
0001:001b3c2c  __ZN15ConnectionTable2trEPKcS1_
0001:001b3c6c* __ZN15ConnectionTable6trUtf8EPKcS1_
0001:001b3cdc* __ZN15ConnectionTable16staticMetaObjectEv
0001:001b3d38* __ZN15ConnectionTable7qt_castEPKc
0001:001b3d90  __ZN15ConnectionTable8resortedEv
0001:001b3db0* __ZN15ConnectionTable9qt_invokeEiP8QUObject
0001:001b3dcc* __ZN15ConnectionTable7qt_emitEiP8QUObject
0001:001b3e0c* __ZN15ConnectionTable11qt_propertyEiiP8QVariant
0001:001b3e28* __ZN15ConnectionTable18qt_static_propertyEP7QObjectiiP8QVariant
0002:00003600* __ZN15ConnectionTable7metaObjE
0001:001b3e30  __ZTV15ConnectionTable$w$TcqEyeSF8U6OJfSs4
0001:001b4354  __ZNK15ConnectionTable10metaObjectEv$w$TcqEyeSF8U6OJfSs4
0001:001b42f4  __ZN15ConnectionTableD1Ev$w$TcqEyeSF8U6OJfSs4
0001:001b4320  __ZN15ConnectionTableD0Ev$w$TcqEyeSF8U6OJfSs4
0001:001b4294* __ZN7QWidget11setGeometryERK5QRect$w$TcqEyeSF8U6OJfSs4
0001:001b42cc* __ZN7QWidget9setWStateEj$w$TcqEyeSF8U6OJfSs4
0001:001b42e0* __ZN7QWidget9setWFlagsEj$w$TcqEyeSF8U6OJfSs4
0001:001b4318  __ZThn40_N15ConnectionTableD1Ev$w$TcqEyeSF8U6OJfSs4
0001:001b434c  __ZThn40_N15ConnectionTableD0Ev$w$TcqEyeSF8U6OJfSs4
0001:001b4210* __ZTV6QGList$w$TcqEyeSF8U6OJfSs4
0001:001b4288* __ZNK6QGList5countEv$w$TcqEyeSF8U6OJfSs4
Module: C:\200\trunk\lib\designercore.lib(listvieweditor.obj)
0001:001b4918  __ZN18ListViewEditorBaseC2EP7QWidgetPKcbj
0001:001b8430  __ZN18ListViewEditorBase14languageChangeEv
0001:001b9734  __ZN18ListViewEditorBase4initEv
0001:001b606c* __ZN18ListViewEditorBaseC1EP7QWidgetPKcbj
0001:001b77c0  __ZN18ListViewEditorBaseD2Ev
0001:001b973c  __ZN18ListViewEditorBase7destroyEv
0001:001b77f0  __ZN18ListViewEditorBaseD1Ev
0001:001b7828  __ZN18ListViewEditorBaseD0Ev
0001:001b977c  __ZN18ListViewEditorBase12applyClickedEv
0001:001b97cc  __ZN18ListViewEditorBase15columnClickableEb
0001:001b981c  __ZN18ListViewEditorBase17columnDownClickedEv
0001:001b986c  __ZN18ListViewEditorBase18columnPixmapChosenEv
0001:001b98bc  __ZN18ListViewEditorBase19columnPixmapDeletedEv
0001:001b990c  __ZN18ListViewEditorBase15columnResizableEb
0001:001b9968  __ZN18ListViewEditorBase17columnTextChangedERK7QString
0001:001b99b4  __ZN18ListViewEditorBase15columnUpClickedEv
0001:001b9a14  __ZN18ListViewEditorBase20currentColumnChangedEP12QListBoxItem
0001:001b9a70  __ZN18ListViewEditorBase18currentItemChangedEP13QListViewItem
0001:001b9ac0  __ZN18ListViewEditorBase19deleteColumnClickedEv
0001:001b9b18  __ZN18ListViewEditorBase11initTabPageERK7QString
0001:001b9b68  __ZN18ListViewEditorBase14itemColChangedEi
0001:001b9bb8  __ZN18ListViewEditorBase17itemDeleteClickedEv
0001:001b9c04  __ZN18ListViewEditorBase15itemDownClickedEv
0001:001b9c50  __ZN18ListViewEditorBase15itemLeftClickedEv
0001:001b9c9c  __ZN18ListViewEditorBase14itemNewClickedEv
0001:001b9cec  __ZN18ListViewEditorBase17itemNewSubClickedEv
0001:001b9d3c  __ZN18ListViewEditorBase17itemPixmapChoosenEv
0001:001b9d8c  __ZN18ListViewEditorBase17itemPixmapDeletedEv
0001:001b9de8  __ZN18ListViewEditorBase15itemTextChangedERK7QString
0001:001b9e34  __ZN18ListViewEditorBase13itemUpClickedEv
0001:001b9e80  __ZN18ListViewEditorBase16newColumnClickedEv
0001:001b9ecc  __ZN18ListViewEditorBase16itemRightClickedEv
0001:001b9f14  __ZN18ListViewEditorBase9okClickedEv
0001:001b7820  __ZThn40_N18ListViewEditorBaseD1Ev$w$5n4uneLF8U6c4YBQ2
0001:001b785c  __ZThn40_N18ListViewEditorBaseD0Ev$w$5n4uneLF8U6c4YBQ2
0001:001b9f30* __ZTV6QGList$w$5n4uneLF8U6c4YBQ2
0001:001b9f5c* __ZNK6QGList5countEv$w$5n4uneLF8U6c4YBQ2
Module: C:\200\trunk\lib\designercore.lib(moc_sourcefile.obj)
0001:001b9f7c* __ZNK10SourceFile9classNameEv
0001:001b9f88  __ZN10SourceFile2trEPKcS1_
0001:001b9fc8* __ZN10SourceFile6trUtf8EPKcS1_
0001:001ba008  __ZN10SourceFile16staticMetaObjectEv
0001:001ba060* __ZN10SourceFile7qt_castEPKc
0001:001ba0b8* __ZN10SourceFile9qt_invokeEiP8QUObject
0001:001ba0d4* __ZN10SourceFile7qt_emitEiP8QUObject
0001:001ba0f0* __ZN10SourceFile11qt_propertyEiiP8QVariant
0001:001ba10c* __ZN10SourceFile18qt_static_propertyEP7QObjectiiP8QVariant
0002:00003620* __ZN10SourceFile7metaObjE
0001:001ba130  __ZTV10SourceFile$w$xvNuf4RF8U6Z0MIy3
0001:001ba214  __ZNK10SourceFile10metaObjectEv$w$xvNuf4RF8U6Z0MIy3
0001:001ba190* __ZTV6QGList$w$xvNuf4RF8U6Z0MIy3
0001:001ba208* __ZNK6QGList5countEv$w$xvNuf4RF8U6Z0MIy3
Module: C:\200\trunk\lib\designercore.lib(editfunctionsimpl.obj)
0001:001ba360* __ZN13EditFunctionsC2EP7QWidgetP10FormWindowb
0001:001babc4  __ZN13EditFunctionsC1EP7QWidgetP10FormWindowb
0001:001bb4fc  __ZN13EditFunctions9okClickedEv
0001:001bccc4  __ZN13EditFunctions11functionAddERK7QStringS2_
0001:001bd4cc  __ZN13EditFunctions14functionRemoveEv
0001:001bd784  __ZN13EditFunctions18currentItemChangedEP13QListViewItem
0001:001bdae0  __ZN13EditFunctions18currentTextChangedERK7QString
0001:001bdf68* __ZN13EditFunctions10changeItemEP13QListViewItemNS_9AttributeERK7QString
0001:001bdca4  __ZN13EditFunctions23currentSpecifierChangedERK7QString
0001:001bdcf8  __ZN13EditFunctions20currentAccessChangedERK7QString
0001:001bdd4c  __ZN13EditFunctions24currentReturnTypeChangedERK7QString
0001:001bdda0  __ZN13EditFunctions18currentTypeChangedERK7QString
0001:001be0c4  __ZN13EditFunctions18setCurrentFunctionERK7QString
0001:001be1f8  __ZN13EditFunctions12displaySlotsEb
0001:001be530  __ZN13EditFunctions15emitItemRenamedEP13QListViewItemiRK7QString
0001:001be5e8  __ZN11QMapPrivateIP13QListViewItemiEC1Ev$w$dBN8IzJF8U6FtG1B1
0001:001be624* __ZN17QValueListPrivateI7QStringEC1Ev$w$dBN8IzJF8U6FtG1B1
0001:001be670* __ZN17QValueListPrivateIN12MetaDataBase8FunctionEEC1Ev$w$dBN8IzJF8U6FtG1B1
0001:001be8f4  __ZN17QValueListPrivateIN13EditFunctions9FunctItemEEC1Ev$w$dBN8IzJF8U6FtG1B1
0001:001be540  __ZN10QValueListIN13EditFunctions9FunctItemEE5clearEv$w$dBN8IzJF8U6FtG1B1
0001:001bfa78  __ZN13EditFunctions9FunctItemC1Ev$w$dBN8IzJF8U6FtG1B1
0001:001bebfc  __ZN17QValueListPrivateIN13EditFunctions9FunctItemEE6insertE18QValueListIteratorIS1_ERKS1_$w$dBN8IzJF8U6FtG1B1
0001:001be584  __ZN4QMapIP13QListViewItemiE6insertERKS1_RKib$w$dBN8IzJF8U6FtG1B1
0001:001bf91c* __ZN7QStringD1Ev$w$dBN8IzJF8U6FtG1B1
0001:001bec58  __ZN10QValueListIN13EditFunctions9FunctItemEE14detachInternalEv$w$dBN8IzJF8U6FtG1B1
0001:001be730* __ZN17QValueListPrivateIN12MetaDataBase8FunctionEED1Ev$w$dBN8IzJF8U6FtG1B1
0001:001bebcc* __ZN10QValueListIN12MetaDataBase8FunctionEE14detachInternalEv$w$dBN8IzJF8U6FtG1B1
0001:001bf830* __ZTV8QPtrListI7CommandE$w$dBN8IzJF8U6FtG1B1
0001:001be934* __ZN17QValueListPrivateIN13EditFunctions9FunctItemEED1Ev$w$dBN8IzJF8U6FtG1B1
0001:001bf870* __ZTV8QStrList$w$dBN8IzJF8U6FtG1B1
0001:001bf8b0* __ZTV8QPtrListIcE$w$dBN8IzJF8U6FtG1B1
0001:001becd4  __ZN17QValueListPrivateIN13EditFunctions9FunctItemEE6removeE18QValueListIteratorIS1_E$w$dBN8IzJF8U6FtG1B1
0001:001beea4  __ZN12QMapIteratorIP13QListViewItemiE3incEv$w$dBN8IzJF8U6FtG1B1
0001:001bee74  __ZN4QMapIP13QListViewItemiE14detachInternalEv$w$dBN8IzJF8U6FtG1B1
0001:001bf000* __ZN17QValueListPrivateI7QStringE6insertE18QValueListIteratorIS0_ERKS0_$w$dBN8IzJF8U6FtG1B1
0001:001beef0  __ZN4QMapIP13QListViewItemiEixERKS1_$w$dBN8IzJF8U6FtG1B1
0001:001bef64  __ZN4QMapIP13QListViewItemiE6removeERKS1_$w$dBN8IzJF8U6FtG1B1
0001:001bf05c* __ZN10QValueListI7QStringE14detachInternalEv$w$dBN8IzJF8U6FtG1B1
0001:001bf08c  __ZNK11QMapPrivateIP13QListViewItemiE4findERKS1_$w$dBN8IzJF8U6FtG1B1
0001:001bf0dc  __ZN4QMapIP13QListViewItemiE5clearEv$w$dBN8IzJF8U6FtG1B1
0001:001bf120  __ZN17QValueListPrivateIN13EditFunctions9FunctItemEE5clearEv$w$dBN8IzJF8U6FtG1B1
0001:001bf290  __ZN11QMapPrivateIP13QListViewItemiE12insertSingleERKS1_$w$dBN8IzJF8U6FtG1B1
0001:001bf32c* __ZN17QValueListPrivateIN12MetaDataBase8FunctionEEC1ERKS2_$w$dBN8IzJF8U6FtG1B1
0001:001bfb80  __ZN13EditFunctions9FunctItemC1ERKS0_$w$dBN8IzJF8U6FtG1B1
0001:001bf440  __ZN17QValueListPrivateIN13EditFunctions9FunctItemEEC1ERKS2_$w$dBN8IzJF8U6FtG1B1
0001:001bf4cc  __ZN11QMapPrivateIP13QListViewItemiEC1EPKS2_$w$dBN8IzJF8U6FtG1B1
0001:001bf564* __ZN17QValueListPrivateI7QStringEC1ERKS1_$w$dBN8IzJF8U6FtG1B1
0001:001bfcec* __ZN11QMapPrivateIP13QListViewItemiE5clearEv$w$dBN8IzJF8U6FtG1B1
0001:001bf5f8  __ZN11QMapPrivateIP13QListViewItemiE6insertEP12QMapNodeBaseS4_RKS1_$w$dBN8IzJF8U6FtG1B1
0001:001bf68c  __ZN12QMapIteratorIP13QListViewItemiE3decEv$w$dBN8IzJF8U6FtG1B1
0001:001bf6e4* __ZN17QValueListPrivateIN12MetaDataBase8FunctionEE6insertE18QValueListIteratorIS1_ERKS1_$w$dBN8IzJF8U6FtG1B1
0001:001bf794  __ZN11QMapPrivateIP13QListViewItemiE4copyEP8QMapNodeIS1_iE$w$dBN8IzJF8U6FtG1B1
0001:001bfd64* __ZNK8QPtrListI7CommandE5countEv$w$dBN8IzJF8U6FtG1B1
0001:001bfc58* __ZN8QPtrListI7CommandE5clearEv$w$dBN8IzJF8U6FtG1B1
0001:001bfc30* __ZN8QPtrListI7CommandED1Ev$w$dBN8IzJF8U6FtG1B1
0001:001bfc64* __ZN8QPtrListI7CommandED0Ev$w$dBN8IzJF8U6FtG1B1
0001:001bfd70* __ZN8QPtrListI7CommandE10deleteItemEPv$w$dBN8IzJF8U6FtG1B1
0001:001bfd98* __ZNK8QPtrListIcE5countEv$w$dBN8IzJF8U6FtG1B1
0001:001bf950* __ZN8QPtrListIcE5clearEv$w$dBN8IzJF8U6FtG1B1
0001:001bf95c* __ZN8QStrListD1Ev$w$dBN8IzJF8U6FtG1B1
0001:001bf990* __ZN8QStrListD0Ev$w$dBN8IzJF8U6FtG1B1
0001:001bf9cc* __ZN8QStrList7newItemEPv$w$dBN8IzJF8U6FtG1B1
0001:001bf9f0* __ZN8QStrList10deleteItemEPv$w$dBN8IzJF8U6FtG1B1
0001:001bfa10* __ZN8QStrList12compareItemsEPvS0_$w$dBN8IzJF8U6FtG1B1
0001:001bfa44* __ZN8QStrList4readER11QDataStreamRPv$w$dBN8IzJF8U6FtG1B1
0001:001bfa60* __ZNK8QStrList5writeER11QDataStreamPv$w$dBN8IzJF8U6FtG1B1
0001:001bfc94* __ZN8QPtrListIcED1Ev$w$dBN8IzJF8U6FtG1B1
0001:001bfcbc* __ZN8QPtrListIcED0Ev$w$dBN8IzJF8U6FtG1B1
0001:001bfda4* __ZN8QPtrListIcE10deleteItemEPv$w$dBN8IzJF8U6FtG1B1
0001:001bf8f0* __ZTV6QGList$w$dBN8IzJF8U6FtG1B1
0001:001bf944* __ZNK6QGList5countEv$w$dBN8IzJF8U6FtG1B1
0001:001bfd28* __ZN11QMapPrivateIP13QListViewItemiE5clearEP8QMapNodeIS1_iE$w$dBN8IzJF8U6FtG1B1
Module: C:\200\trunk\lib\designercore.lib(preferences.obj)
0001:001bffd4* __ZN11PreferencesC2EP7QWidgetPKcbj
0001:001c2794  __ZN11Preferences14languageChangeEv
0001:001c3568  __ZN11Preferences4initEv
0001:001c1078  __ZN11PreferencesC1EP7QWidgetPKcbj
0001:001c211c* __ZN11PreferencesD2Ev
0001:001c3570  __ZN11Preferences7destroyEv
0001:001c2158  __ZN11PreferencesD1Ev
0001:001c219c  __ZN11PreferencesD0Ev
0001:001c2194  __ZThn40_N11PreferencesD1Ev$w$DMKrkILF8U64Yt4Y3
0001:001c21e0  __ZThn40_N11PreferencesD0Ev$w$DMKrkILF8U64Yt4Y3
0001:001c3590* __ZTV6QGList$w$DMKrkILF8U64Yt4Y3
0001:001c35bc* __ZNK6QGList5countEv$w$DMKrkILF8U64Yt4Y3
Module: C:\200\trunk\lib\designercore.lib(moc_wizardeditor.obj)
0001:001c35e4* __ZNK16WizardEditorBase9classNameEv
0001:001c35f0  __ZN16WizardEditorBase2trEPKcS1_
0001:001c3630* __ZN16WizardEditorBase6trUtf8EPKcS1_
0001:001c394c  __ZN16WizardEditorBase16staticMetaObjectEv
0001:001c39a8  __ZN16WizardEditorBase7qt_castEPKc
0001:001c3a00  __ZN16WizardEditorBase9qt_invokeEiP8QUObject
0001:001c3b50  __ZN16WizardEditorBase7qt_emitEiP8QUObject
0001:001c3b6c  __ZN16WizardEditorBase11qt_propertyEiiP8QVariant
0001:001c3b88* __ZN16WizardEditorBase18qt_static_propertyEP7QObjectiiP8QVariant
0002:00003640* __ZN16WizardEditorBase7metaObjE
0001:001c3b90  __ZTV16WizardEditorBase$w$vqPgXUTF8U6MSoEM2
0001:001c3e7c  __ZNK16WizardEditorBase10metaObjectEv$w$vqPgXUTF8U6MSoEM2
0001:001c3e54* __ZN7QWidget9setWStateEj$w$vqPgXUTF8U6MSoEM2
0001:001c3e68* __ZN7QWidget9setWFlagsEj$w$vqPgXUTF8U6MSoEM2
0001:001c3dd0* __ZTV6QGList$w$vqPgXUTF8U6MSoEM2
0001:001c3e48* __ZNK6QGList5countEv$w$vqPgXUTF8U6MSoEM2
Module: C:\200\trunk\lib\designercore.lib(moc_paletteeditor.obj)
0001:001c3ee4* __ZNK17PaletteEditorBase9classNameEv
0001:001c3ef0  __ZN17PaletteEditorBase2trEPKcS1_
0001:001c3f30* __ZN17PaletteEditorBase6trUtf8EPKcS1_
0001:001c4104  __ZN17PaletteEditorBase16staticMetaObjectEv
0001:001c4160  __ZN17PaletteEditorBase7qt_castEPKc
0001:001c41b8  __ZN17PaletteEditorBase9qt_invokeEiP8QUObject
0001:001c4284  __ZN17PaletteEditorBase7qt_emitEiP8QUObject
0001:001c42a0  __ZN17PaletteEditorBase11qt_propertyEiiP8QVariant
0001:001c42bc* __ZN17PaletteEditorBase18qt_static_propertyEP7QObjectiiP8QVariant
0002:00003660* __ZN17PaletteEditorBase7metaObjE
0001:001c42d0  __ZTV17PaletteEditorBase$w$vAkUYQSF8U6GAgcw4
0001:001c459c  __ZNK17PaletteEditorBase10metaObjectEv$w$vAkUYQSF8U6GAgcw4
0001:001c4574* __ZN7QWidget9setWStateEj$w$vAkUYQSF8U6GAgcw4
0001:001c4588* __ZN7QWidget9setWFlagsEj$w$vAkUYQSF8U6GAgcw4
0001:001c44f0* __ZTV6QGList$w$vAkUYQSF8U6GAgcw4
0001:001c4568* __ZNK6QGList5countEv$w$vAkUYQSF8U6GAgcw4
Module: C:\200\trunk\lib\designercore.lib(moc_editfunctions.obj)
0001:001c4604* __ZNK17EditFunctionsBase9classNameEv
0001:001c4610  __ZN17EditFunctionsBase2trEPKcS1_
0001:001c4650* __ZN17EditFunctionsBase6trUtf8EPKcS1_
0001:001c4a8c  __ZN17EditFunctionsBase16staticMetaObjectEv
0001:001c4ae8  __ZN17EditFunctionsBase7qt_castEPKc
0001:001c4b40  __ZN17EditFunctionsBase9qt_invokeEiP8QUObject
0001:001c4ca4  __ZN17EditFunctionsBase7qt_emitEiP8QUObject
0001:001c4cc0  __ZN17EditFunctionsBase11qt_propertyEiiP8QVariant
0001:001c4cdc* __ZN17EditFunctionsBase18qt_static_propertyEP7QObjectiiP8QVariant
0002:00003680* __ZN17EditFunctionsBase7metaObjE
0001:001c4cf0  __ZTV17EditFunctionsBase$w$jWGoiASF8U6xpHoX2
0001:001c4fdc  __ZNK17EditFunctionsBase10metaObjectEv$w$jWGoiASF8U6xpHoX2
0001:001c4fb4* __ZN7QWidget9setWStateEj$w$jWGoiASF8U6xpHoX2
0001:001c4fc8* __ZN7QWidget9setWFlagsEj$w$jWGoiASF8U6xpHoX2
0001:001c4f30* __ZTV6QGList$w$jWGoiASF8U6xpHoX2
0001:001c4fa8* __ZNK6QGList5countEv$w$jWGoiASF8U6xpHoX2
Module: C:\200\trunk\lib\designercore.lib(moc_sourceeditor.obj)
0001:001c5040* __ZNK12SourceEditor9classNameEv
0001:001c504c* __ZN12SourceEditor2trEPKcS1_
0001:001c508c* __ZN12SourceEditor6trUtf8EPKcS1_
0001:001c50cc  __ZN12SourceEditor16staticMetaObjectEv
0001:001c5124* __ZN12SourceEditor7qt_castEPKc
0001:001c517c* __ZN12SourceEditor9qt_invokeEiP8QUObject
0001:001c5198* __ZN12SourceEditor7qt_emitEiP8QUObject
0001:001c51b4* __ZN12SourceEditor11qt_propertyEiiP8QVariant
0001:001c51d0* __ZN12SourceEditor18qt_static_propertyEP7QObjectiiP8QVariant
0002:000036a0* __ZN12SourceEditor7metaObjE
0001:001c51f0  __ZTV12SourceEditor$w$tXo6vHQF8U6eNkBF4
0001:001c54f4  __ZNK12SourceEditor10metaObjectEv$w$tXo6vHQF8U6eNkBF4
0001:001c5494* __ZN7QWidget11setGeometryERK5QRect$w$tXo6vHQF8U6eNkBF4
0001:001c54cc* __ZN7QWidget9setWStateEj$w$tXo6vHQF8U6eNkBF4
0001:001c54e0* __ZN7QWidget9setWFlagsEj$w$tXo6vHQF8U6eNkBF4
0001:001c5410* __ZTV6QGList$w$tXo6vHQF8U6eNkBF4
0001:001c5488* __ZNK6QGList5countEv$w$tXo6vHQF8U6eNkBF4
Module: C:\200\trunk\lib\designercore.lib(moc_customwidgeteditor.obj)
0001:001c5548* __ZNK22CustomWidgetEditorBase9classNameEv
0001:001c5554  __ZN22CustomWidgetEditorBase2trEPKcS1_
0001:001c5594* __ZN22CustomWidgetEditorBase6trUtf8EPKcS1_
0001:001c5f5c  __ZN22CustomWidgetEditorBase16staticMetaObjectEv
0001:001c5fb8  __ZN22CustomWidgetEditorBase7qt_castEPKc
0001:001c6010  __ZN22CustomWidgetEditorBase9qt_invokeEiP8QUObject
0001:001c6330  __ZN22CustomWidgetEditorBase7qt_emitEiP8QUObject
0001:001c634c  __ZN22CustomWidgetEditorBase11qt_propertyEiiP8QVariant
0001:001c6368* __ZN22CustomWidgetEditorBase18qt_static_propertyEP7QObjectiiP8QVariant
0002:000036c0* __ZN22CustomWidgetEditorBase7metaObjE
0001:001c6370  __ZTV22CustomWidgetEditorBase$w$R55dVMSF8U6IB46h3
0001:001c669c  __ZNK22CustomWidgetEditorBase10metaObjectEv$w$R55dVMSF8U6IB46h3
0001:001c6674* __ZN7QWidget9setWStateEj$w$R55dVMSF8U6IB46h3
0001:001c6688* __ZN7QWidget9setWFlagsEj$w$R55dVMSF8U6IB46h3
0001:001c65f0* __ZTV6QGList$w$R55dVMSF8U6IB46h3
0001:001c6668* __ZNK6QGList5countEv$w$R55dVMSF8U6IB46h3
Module: C:\200\trunk\lib\designercore.lib(actioneditorimpl.obj)
0001:001c67f4* __ZN12ActionEditorC2EP7QWidgetPKcj
0001:001c6a80  __ZN12ActionEditorC1EP7QWidgetPKcj
0001:001c6d0c  __ZN12ActionEditor10closeEventEP11QCloseEvent
0001:001c6d28  __ZN12ActionEditor20currentActionChangedEP13QListViewItem
0001:001c6dc0  __ZN12ActionEditor16setCurrentActionEP7QAction
0001:001c6ea4  __ZN12ActionEditor11newActionExEv
0001:001c70d4  __ZN12ActionEditor12deleteActionEv
0001:001c7214  __ZN12ActionEditor9newActionEv
0001:001c75f8  __ZN12ActionEditor14newActionGroupEv
0001:001c79b4  __ZN12ActionEditor22newDropDownActionGroupEv
0001:001c7a04  __ZN12ActionEditor13setFormWindowEP10FormWindow
0001:001c7bf4* __ZN12ActionEditor18insertChildActionsEP10ActionItem
0001:001c7d74  __ZN12ActionEditor16updateActionNameEP7QAction
0001:001c7e34  __ZN12ActionEditor16updateActionIconEP7QAction
0001:001c7efc  __ZN12ActionEditor18connectionsClickedEv
0001:001c7f68  __ZN12ActionEditor17removeConnectionsEP7QObject
0001:001c82b0  __ZTV10ActionItem$w$FrBOJfGF8U6BSt7X0
0001:001c8030* __Z7qt_castIP12QActionGroupET_PK7QObject$w$FrBOJfGF8U6BSt7X0
0001:001c804c* __ZN11QMapPrivateIP7QActionP7QWidgetEC1Ev$w$FrBOJfGF8U6BSt7X0
0001:001c8088* __Z7qt_castIP11QMainWindowET_PK7QObject$w$FrBOJfGF8U6BSt7X0
0001:001c80a4* __Z7qt_castIP7QActionET_PK7QObject$w$FrBOJfGF8U6BSt7X0
0001:001c80c0* __ZN17QValueListPrivateIN12MetaDataBase10ConnectionEED1Ev$w$FrBOJfGF8U6BSt7X0
0001:001c813c* __ZN10QValueListIN12MetaDataBase10ConnectionEE14detachInternalEv$w$FrBOJfGF8U6BSt7X0
0001:001c816c* __ZN17QValueListPrivateIN12MetaDataBase10ConnectionEEC1ERKS2_$w$FrBOJfGF8U6BSt7X0
0001:001c8210* __ZN17QValueListPrivateIN12MetaDataBase10ConnectionEE6insertE18QValueListIteratorIS1_ERKS1_$w$FrBOJfGF8U6BSt7X0
0001:001c83c0  __ZN10ActionItemD1Ev$w$FrBOJfGF8U6BSt7X0
0001:001c83dc  __ZN10ActionItemD0Ev$w$FrBOJfGF8U6BSt7X0
0001:001c83a8* __ZN13QListViewItem10removeItemEPS_$w$FrBOJfGF8U6BSt7X0
0001:001c8370* __ZTV6QGList$w$FrBOJfGF8U6BSt7X0
0001:001c839c* __ZNK6QGList5countEv$w$FrBOJfGF8U6BSt7X0
Module: C:\200\trunk\lib\designercore.lib(moc_styledbutton.obj)
0001:001c8420* __ZNK12StyledButton9classNameEv
0001:001c842c* __ZN12StyledButton2trEPKcS1_
0001:001c846c* __ZN12StyledButton6trUtf8EPKcS1_
0001:001c85f0* __ZN12StyledButton16staticMetaObjectEv
0001:001c8654* __ZN12StyledButton7qt_castEPKc
0001:001c86ac  __ZN12StyledButton7changedEv
0001:001c86cc* __ZN12StyledButton9qt_invokeEiP8QUObject
0001:001c8710* __ZN12StyledButton7qt_emitEiP8QUObject
0001:001c8750* __ZN12StyledButton11qt_propertyEiiP8QVariant
0001:001c88fc* __ZN12StyledButton18qt_static_propertyEP7QObjectiiP8QVariant
0002:000036e0* __ZN12StyledButton7metaObjE
0001:001c8910  __ZTV12StyledButton$w$lvmdURPF8U6lutqs4
0001:001c8c14  __ZNK12StyledButton10metaObjectEv$w$lvmdURPF8U6lutqs4
0001:001c8bb4* __ZN7QWidget11setGeometryERK5QRect$w$lvmdURPF8U6lutqs4
0001:001c8bec* __ZN7QWidget9setWStateEj$w$lvmdURPF8U6lutqs4
0001:001c8c00* __ZN7QWidget9setWFlagsEj$w$lvmdURPF8U6lutqs4
0001:001c8b30* __ZTV6QGList$w$lvmdURPF8U6lutqs4
0001:001c8ba8* __ZNK6QGList5countEv$w$lvmdURPF8U6lutqs4
Module: C:\200\trunk\lib\designercore.lib(pixmapcollection.obj)
0001:001c8c50* __ZN16PixmapCollectionC2EP7Project
0001:001c8cb4  __ZN16PixmapCollectionC1EP7Project
0001:001c8d18* __ZN16PixmapCollectionD2Ev
0001:001c8d70  __ZN16PixmapCollectionD1Ev
0001:001c8dc8  __ZN16PixmapCollection9addPixmapERKNS_6PixmapEb
0001:001c9308* __ZN16PixmapCollection10savePixmapERNS_6PixmapE
0001:001c8fc0  __ZN16PixmapCollection12removePixmapERK7QString
0001:001c908c  __ZNK16PixmapCollection7pixmapsEv
0001:001c90a4* __ZN16PixmapCollection9unifyNameERK7QString
0001:001c9220  __ZN16PixmapCollection9setActiveEb
0001:001c9258  __ZN16PixmapCollection6pixmapERK7QString
0001:001c9864* __ZNK16PixmapCollection8imageDirEv
0001:001c994c* __ZN16PixmapCollection5mkdirEv
0001:001c9a34  __ZN16PixmapCollection4loadERK7QString
0001:001c9db0  __ZN16PixmapCollection5iFaceEv
0001:001c9dbc  __ZNK16PixmapCollection7isEmptyEv
0001:001c9dd4  __ZN17QValueListPrivateIN16PixmapCollection6PixmapEEC1Ev$w$BL63uEHF8U61MUT81
0001:001c9e40* __ZN17QValueListPrivateIN16PixmapCollection6PixmapEED1Ev$w$BL63uEHF8U61MUT81
0001:001c9f60* __ZN17QValueListPrivateIN16PixmapCollection6PixmapEE6insertE18QValueListIteratorIS1_ERKS1_$w$BL63uEHF8U61MUT81
0001:001c9f30* __ZN10QValueListIN16PixmapCollection6PixmapEE14detachInternalEv$w$BL63uEHF8U61MUT81
0001:001ca028  __ZN17QValueListPrivateIN16PixmapCollection6PixmapEE6removeE18QValueListIteratorIS1_E$w$BL63uEHF8U61MUT81
0001:001ca0e8* __ZN17QValueListPrivateIN16PixmapCollection6PixmapEEC1ERKS2_$w$BL63uEHF8U61MUT81
0001:001ca1b0* __ZTV6QGList$w$BL63uEHF8U61MUT81
0001:001ca1dc* __ZNK6QGList5countEv$w$BL63uEHF8U61MUT81
Module: C:\200\trunk\lib\designercore.lib(moc_listdnd.obj)
0001:001ca1f8* __ZNK7ListDnd9classNameEv
0001:001ca204* __ZN7ListDnd2trEPKcS1_
0001:001ca244* __ZN7ListDnd6trUtf8EPKcS1_
0001:001ca284  __ZN7ListDnd16staticMetaObjectEv
0001:001ca2dc  __ZN7ListDnd7qt_castEPKc
0001:001ca334  __ZN7ListDnd9qt_invokeEiP8QUObject
0001:001ca350  __ZN7ListDnd7qt_emitEiP8QUObject
0001:001ca36c  __ZN7ListDnd11qt_propertyEiiP8QVariant
0001:001ca388* __ZN7ListDnd18qt_static_propertyEP7QObjectiiP8QVariant
0002:00003700* __ZN7ListDnd7metaObjE
0001:001ca390  __ZTV7ListDnd$w$dL6uF4SF8U6cbuCk0
0001:001ca4d8  __ZNK7ListDnd10metaObjectEv$w$dL6uF4SF8U6cbuCk0
0001:001ca494  __ZN7ListDndD1Ev$w$dL6uF4SF8U6cbuCk0
0001:001ca4b0  __ZN7ListDndD0Ev$w$dL6uF4SF8U6cbuCk0
0001:001ca410* __ZTV6QGList$w$dL6uF4SF8U6cbuCk0
0001:001ca488* __ZNK6QGList5countEv$w$dL6uF4SF8U6cbuCk0
Module: C:\200\trunk\lib\designercore.lib(moc_startdialog.obj)
0001:001ca540* __ZNK15StartDialogBase9classNameEv
0001:001ca54c  __ZN15StartDialogBase2trEPKcS1_
0001:001ca58c* __ZN15StartDialogBase6trUtf8EPKcS1_
0001:001ca70c  __ZN15StartDialogBase16staticMetaObjectEv
0001:001ca768  __ZN15StartDialogBase7qt_castEPKc
0001:001ca7c0  __ZN15StartDialogBase9qt_invokeEiP8QUObject
0001:001ca86c  __ZN15StartDialogBase7qt_emitEiP8QUObject
0001:001ca888  __ZN15StartDialogBase11qt_propertyEiiP8QVariant
0001:001ca8a4* __ZN15StartDialogBase18qt_static_propertyEP7QObjectiiP8QVariant
0002:00003720* __ZN15StartDialogBase7metaObjE
0001:001ca8b0  __ZTV15StartDialogBase$w$bMNjb3UF8U6ADrrq4
0001:001cab7c  __ZNK15StartDialogBase10metaObjectEv$w$bMNjb3UF8U6ADrrq4
0001:001cab54* __ZN7QWidget9setWStateEj$w$bMNjb3UF8U6ADrrq4
0001:001cab68* __ZN7QWidget9setWFlagsEj$w$bMNjb3UF8U6ADrrq4
0001:001caad0* __ZTV6QGList$w$bMNjb3UF8U6ADrrq4
0001:001cab48* __ZNK6QGList5countEv$w$bMNjb3UF8U6ADrrq4
Module: C:\200\trunk\lib\designercore.lib(previewwidget.obj)
0001:001cacc4  __ZN17PreviewWidgetBaseC2EP7QWidgetPKcj
0001:001cbc20  __ZN17PreviewWidgetBase14languageChangeEv
0001:001cbf84  __ZN17PreviewWidgetBase4initEv
0001:001cb3c0* __ZN17PreviewWidgetBaseC1EP7QWidgetPKcj
0001:001cbabc  __ZN17PreviewWidgetBaseD2Ev
0001:001cbf8c  __ZN17PreviewWidgetBase7destroyEv
0001:001cbaec  __ZN17PreviewWidgetBaseD1Ev
0001:001cbb24  __ZN17PreviewWidgetBaseD0Ev
0001:001cbb1c  __ZThn40_N17PreviewWidgetBaseD1Ev$w$BHGSUTMF8U6QUWnQ2
0001:001cbb58  __ZThn40_N17PreviewWidgetBaseD0Ev$w$BHGSUTMF8U6QUWnQ2
0001:001cbfb0* __ZTV6QGList$w$BHGSUTMF8U6QUWnQ2
0001:001cbfdc* __ZNK6QGList5countEv$w$BHGSUTMF8U6QUWnQ2
Module: C:\200\trunk\lib\designercore.lib(moc_tableeditorimpl.obj)
0001:001cbffc* __ZNK11TableEditor9classNameEv
0001:001cc008  __ZN11TableEditor2trEPKcS1_
0001:001cc048* __ZN11TableEditor6trUtf8EPKcS1_
0001:001cc5f4* __ZN11TableEditor16staticMetaObjectEv
0001:001cc650* __ZN11TableEditor7qt_castEPKc
0001:001cc6a8* __ZN11TableEditor9qt_invokeEiP8QUObject
0001:001cc87c* __ZN11TableEditor7qt_emitEiP8QUObject
0001:001cc898* __ZN11TableEditor11qt_propertyEiiP8QVariant
0001:001cc8b4* __ZN11TableEditor18qt_static_propertyEP7QObjectiiP8QVariant
0002:00003740* __ZN11TableEditor7metaObjE
0001:001cc8d0  __ZTV11TableEditor$w$TKtnhsSF8U6btnKZ2
0001:001ccbdc  __ZNK11TableEditor10metaObjectEv$w$TKtnhsSF8U6btnKZ2
0001:001ccbb4* __ZN7QWidget9setWStateEj$w$TKtnhsSF8U6btnKZ2
0001:001ccbc8* __ZN7QWidget9setWFlagsEj$w$TKtnhsSF8U6btnKZ2
0001:001ccb30* __ZTV6QGList$w$TKtnhsSF8U6btnKZ2
0001:001ccba8* __ZNK6QGList5countEv$w$TKtnhsSF8U6btnKZ2
Module: C:\200\trunk\lib\designercore.lib(sourcefile.obj)
0001:001ccc30* __ZN10SourceFileC2ERK7QStringbP7Project
0001:001cda40* __ZN10SourceFile4loadEv
0001:001ce37c* __ZN10SourceFile13checkFileNameEb
0001:001ccd30  __ZN10SourceFileC1ERK7QStringbP7Project
0001:001cce30* __ZN10SourceFileD2Ev
0001:001ccee8  __ZN10SourceFileD1Ev
0001:001ccfa0  __ZN10SourceFileD0Ev
0001:001cd060  __ZNK10SourceFile4textEv
0001:001cd080  __ZN10SourceFile7setTextERK7QString
0001:001cd094  __ZN10SourceFile4saveEb
0001:001cd3b0  __ZN10SourceFile6saveAsEb
0001:001cde18  __ZN10SourceFile11setModifiedEb
0001:001cdb8c  __ZNK10SourceFile10isModifiedEv
0001:001ce110* __ZNK10SourceFile7projectEv
0001:001cdb44  __ZN10SourceFile5iFaceEv
0001:001cdb7c  __ZN10SourceFile9setEditorEP12SourceEditor
0001:001cdbb8  __ZN10SourceFile21createUnnamedFileNameERK7QString
0001:001cde6c  __ZN10SourceFile10closeEventEv
0001:001ce0e0  __ZN10SourceFile5closeEv
0001:001ce174  __ZN10SourceFile14checkTimeStampEv
0001:001ce76c* __ZN17QValueListPrivateI7QStringED1Ev$w$dfYfG5IF8U6pt2Vm0
0001:001ce7fc* __ZN10QValueListI7QStringE14detachInternalEv$w$dfYfG5IF8U6pt2Vm0
0001:001ce8e8* __ZNK11QMapPrivateI7QStringiE4findERKS0_$w$dfYfG5IF8U6pt2Vm0
0001:001ce99c  __ZN4QMapI7QStringiE6removeERKS0_$w$dfYfG5IF8U6pt2Vm0
0001:001ce82c* __ZN4QMapI7QStringiE6insertERKS0_RKib$w$dfYfG5IF8U6pt2Vm0
0001:001ce96c* __ZN4QMapI7QStringiE14detachInternalEv$w$dfYfG5IF8U6pt2Vm0
0001:001ce890* __ZN11QMapPrivateI7QStringiEC1Ev$w$dfYfG5IF8U6pt2Vm0
0001:001cea6c* __ZN17QValueListPrivateI7QStringEC1ERKS1_$w$dfYfG5IF8U6pt2Vm0
0001:001ceb00* __ZN11QMapPrivateI7QStringiE12insertSingleERKS0_$w$dfYfG5IF8U6pt2Vm0
0001:001cebb4* __ZN11QMapPrivateI7QStringiEC1EPKS1_$w$dfYfG5IF8U6pt2Vm0
0001:001cee88* __ZN17QValueListPrivateI7QStringE6insertE18QValueListIteratorIS0_ERKS0_$w$dfYfG5IF8U6pt2Vm0
0001:001cec64* __ZN11QMapPrivateI7QStringiE6insertEP12QMapNodeBaseS3_RKS0_$w$dfYfG5IF8U6pt2Vm0
0001:001ced48* __ZN12QMapIteratorI7QStringiE3decEv$w$dfYfG5IF8U6pt2Vm0
0001:001ceda0* __ZN11QMapPrivateI7QStringiE4copyEP8QMapNodeIS0_iE$w$dfYfG5IF8U6pt2Vm0
0001:001cee50* __ZTV6QGList$w$dfYfG5IF8U6pt2Vm0
0001:001cee7c* __ZNK6QGList5countEv$w$dfYfG5IF8U6pt2Vm0
Module: C:\200\trunk\lib\designercore.lib(moc_listboxeditor.obj)
0001:001cef04* __ZNK17ListBoxEditorBase9classNameEv
0001:001cef10  __ZN17ListBoxEditorBase2trEPKcS1_
0001:001cef50* __ZN17ListBoxEditorBase6trUtf8EPKcS1_
0001:001cf2d8  __ZN17ListBoxEditorBase16staticMetaObjectEv
0001:001cf334  __ZN17ListBoxEditorBase7qt_castEPKc
0001:001cf38c  __ZN17ListBoxEditorBase9qt_invokeEiP8QUObject
0001:001cf4f0  __ZN17ListBoxEditorBase7qt_emitEiP8QUObject
0001:001cf50c  __ZN17ListBoxEditorBase11qt_propertyEiiP8QVariant
0001:001cf528* __ZN17ListBoxEditorBase18qt_static_propertyEP7QObjectiiP8QVariant
0002:00003770* __ZN17ListBoxEditorBase7metaObjE
0001:001cf530  __ZTV17ListBoxEditorBase$w$nGRiiwSF8U6oschD1
0001:001cf81c  __ZNK17ListBoxEditorBase10metaObjectEv$w$nGRiiwSF8U6oschD1
0001:001cf7f4* __ZN7QWidget9setWStateEj$w$nGRiiwSF8U6oschD1
0001:001cf808* __ZN7QWidget9setWFlagsEj$w$nGRiiwSF8U6oschD1
0001:001cf770* __ZTV6QGList$w$nGRiiwSF8U6oschD1
0001:001cf7e8* __ZNK6QGList5countEv$w$nGRiiwSF8U6oschD1
Module: C:\200\trunk\lib\designercore.lib(moc_formsettings.obj)
0001:001cf884* __ZNK16FormSettingsBase9classNameEv
0001:001cf890  __ZN16FormSettingsBase2trEPKcS1_
0001:001cf8d0* __ZN16FormSettingsBase6trUtf8EPKcS1_
0001:001cf97c  __ZN16FormSettingsBase16staticMetaObjectEv
0001:001cf9d8  __ZN16FormSettingsBase7qt_castEPKc
0001:001cfa30  __ZN16FormSettingsBase9qt_invokeEiP8QUObject
0001:001cfa8c  __ZN16FormSettingsBase7qt_emitEiP8QUObject
0001:001cfaa8  __ZN16FormSettingsBase11qt_propertyEiiP8QVariant
0001:001cfac4* __ZN16FormSettingsBase18qt_static_propertyEP7QObjectiiP8QVariant
0002:00003790* __ZN16FormSettingsBase7metaObjE
0001:001cfad0  __ZTV16FormSettingsBase$w$ZZxOB7TF8U6tkJJT3
0001:001cfd7c  __ZNK16FormSettingsBase10metaObjectEv$w$ZZxOB7TF8U6tkJJT3
0001:001cfd54* __ZN7QWidget9setWStateEj$w$ZZxOB7TF8U6tkJJT3
0001:001cfd68* __ZN7QWidget9setWFlagsEj$w$ZZxOB7TF8U6tkJJT3
0001:001cfcd0* __ZTV6QGList$w$ZZxOB7TF8U6tkJJT3
0001:001cfd48* __ZNK6QGList5countEv$w$ZZxOB7TF8U6tkJJT3
Module: C:\200\trunk\lib\designercore.lib(iconvieweditor.obj)
0001:001cfff8  __ZN18IconViewEditorBaseC2EP7QWidgetPKcbj
0001:001d16a4  __ZN18IconViewEditorBase14languageChangeEv
0001:001d1ddc  __ZN18IconViewEditorBase4initEv
0001:001d0978* __ZN18IconViewEditorBaseC1EP7QWidgetPKcbj
0001:001d12f8  __ZN18IconViewEditorBaseD2Ev
0001:001d1de4  __ZN18IconViewEditorBase7destroyEv
0001:001d1328  __ZN18IconViewEditorBaseD1Ev
0001:001d1360  __ZN18IconViewEditorBaseD0Ev
0001:001d1e24  __ZN18IconViewEditorBase12applyClickedEv
0001:001d1e70  __ZN18IconViewEditorBase13cancelClickedEv
0001:001d1eb8  __ZN18IconViewEditorBase12choosePixmapEv
0001:001d1f14  __ZN18IconViewEditorBase18currentItemChangedEP13QIconViewItem
0001:001d1f70  __ZN18IconViewEditorBase18currentTextChangedERK7QString
0001:001d1fc0  __ZN18IconViewEditorBase17deleteCurrentItemEv
0001:001d200c  __ZN18IconViewEditorBase13insertNewItemEv
0001:001d2054  __ZN18IconViewEditorBase12deletePixmapEv
0001:001d209c  __ZN18IconViewEditorBase9okClickedEv
0001:001d1358  __ZThn40_N18IconViewEditorBaseD1Ev$w$pxylvALF8U6xKL5G1
0001:001d1394  __ZThn40_N18IconViewEditorBaseD0Ev$w$pxylvALF8U6xKL5G1
0001:001d20b0* __ZTV6QGList$w$pxylvALF8U6xKL5G1
0001:001d20dc* __ZNK6QGList5countEv$w$pxylvALF8U6xKL5G1
Module: C:\200\trunk\lib\designercore.lib(moc_gotolinedialog.obj)
0001:001d2100* __ZNK14GotoLineDialog9classNameEv
0001:001d210c  __ZN14GotoLineDialog2trEPKcS1_
0001:001d214c* __ZN14GotoLineDialog6trUtf8EPKcS1_
0001:001d22ac  __ZN14GotoLineDialog16staticMetaObjectEv
0001:001d2308* __ZN14GotoLineDialog7qt_castEPKc
0001:001d2360* __ZN14GotoLineDialog9qt_invokeEiP8QUObject
0001:001d240c* __ZN14GotoLineDialog7qt_emitEiP8QUObject
0001:001d2428* __ZN14GotoLineDialog11qt_propertyEiiP8QVariant
0001:001d2444* __ZN14GotoLineDialog18qt_static_propertyEP7QObjectiiP8QVariant
0002:000037b0* __ZN14GotoLineDialog7metaObjE
0001:001d2450  __ZTV14GotoLineDialog$w$76XqdETF8U6bLuh81
0001:001d271c  __ZNK14GotoLineDialog10metaObjectEv$w$76XqdETF8U6bLuh81
0001:001d26f4* __ZN7QWidget9setWStateEj$w$76XqdETF8U6bLuh81
0001:001d2708* __ZN7QWidget9setWFlagsEj$w$76XqdETF8U6bLuh81
0001:001d2670* __ZTV6QGList$w$76XqdETF8U6bLuh81
0001:001d26e8* __ZNK6QGList5countEv$w$76XqdETF8U6bLuh81
Module: C:\200\trunk\lib\designercore.lib(wizardeditorimpl.obj)
0001:001d2828* __ZN12WizardEditorC2EP7QWidgetP7QWizardP10FormWindow
0001:001d34d0* __ZN12WizardEditor11fillListBoxEv
0001:001d2928  __ZN12WizardEditorC1EP7QWidgetP7QWizardP10FormWindow
0001:001d2a28* __ZN12WizardEditorD2Ev
0001:001d2a74  __ZN12WizardEditorD1Ev
0001:001d2ac8  __ZN12WizardEditorD0Ev
0001:001d2b24  __ZN12WizardEditor9okClickedEv
0001:001d2b4c  __ZN12WizardEditor13cancelClickedEv
0001:001d2b78  __ZN12WizardEditor12applyClickedEv
0001:001d2d4c  __ZN12WizardEditor11helpClickedEv
0001:001d2d68  __ZN12WizardEditor10addClickedEv
0001:001d3754* __ZN12WizardEditor13updateButtonsEv
0001:001d2f0c  __ZN12WizardEditor13removeClickedEv
0001:001d30d0  __ZN12WizardEditor9upClickedEv
0001:001d32d0  __ZN12WizardEditor11downClickedEv
0001:001d3574  __ZN12WizardEditor15itemHighlightedEi
0001:001d3594  __ZN12WizardEditor12itemSelectedEi
0001:001d37fc  __ZN12WizardEditor11itemDraggedEP12QListBoxItem
0001:001d3838  __ZN12WizardEditor11itemDroppedEP12QListBoxItem
0001:001d39f0  __ZTV8QPtrListI7CommandE$w$FF0kVfIF8U6afzA23
0001:001d2ac0  __ZThn40_N12WizardEditorD1Ev$w$FF0kVfIF8U6afzA23
0001:001d2b1c  __ZThn40_N12WizardEditorD0Ev$w$FF0kVfIF8U6afzA23
0001:001d3acc  __ZNK8QPtrListI7CommandE5countEv$w$FF0kVfIF8U6afzA23
0001:001d3a90  __ZN8QPtrListI7CommandE5clearEv$w$FF0kVfIF8U6afzA23
0001:001d3a68  __ZN8QPtrListI7CommandED1Ev$w$FF0kVfIF8U6afzA23
0001:001d3a9c  __ZN8QPtrListI7CommandED0Ev$w$FF0kVfIF8U6afzA23
0001:001d3ad8  __ZN8QPtrListI7CommandE10deleteItemEPv$w$FF0kVfIF8U6afzA23
0001:001d3a30* __ZTV6QGList$w$FF0kVfIF8U6afzA23
0001:001d3a5c* __ZNK6QGList5countEv$w$FF0kVfIF8U6afzA23
Module: C:\200\trunk\lib\designercore.lib(moc_projectsettingsimpl.obj)
0001:001d3b20* __ZNK15ProjectSettings9classNameEv
0001:001d3b2c  __ZN15ProjectSettings2trEPKcS1_
0001:001d3b6c* __ZN15ProjectSettings6trUtf8EPKcS1_
0001:001d3d0c* __ZN15ProjectSettings16staticMetaObjectEv
0001:001d3d68* __ZN15ProjectSettings7qt_castEPKc
0001:001d3dc0* __ZN15ProjectSettings9qt_invokeEiP8QUObject
0001:001d3e6c* __ZN15ProjectSettings7qt_emitEiP8QUObject
0001:001d3e88* __ZN15ProjectSettings11qt_propertyEiiP8QVariant
0001:001d3ea4* __ZN15ProjectSettings18qt_static_propertyEP7QObjectiiP8QVariant
0002:000037d0* __ZN15ProjectSettings7metaObjE
0001:001d3eb0  __ZTV15ProjectSettings$w$H0FbpDQF8U6Ouylh4
0001:001d417c  __ZNK15ProjectSettings10metaObjectEv$w$H0FbpDQF8U6Ouylh4
0001:001d4154* __ZN7QWidget9setWStateEj$w$H0FbpDQF8U6Ouylh4
0001:001d4168* __ZN7QWidget9setWFlagsEj$w$H0FbpDQF8U6Ouylh4
0001:001d40d0* __ZTV6QGList$w$H0FbpDQF8U6Ouylh4
0001:001d4148* __ZNK6QGList5countEv$w$H0FbpDQF8U6Ouylh4
Module: C:\200\trunk\lib\designercore.lib(moc_replacedialog.obj)
0001:001d41e0* __ZNK13ReplaceDialog9classNameEv
0001:001d41ec  __ZN13ReplaceDialog2trEPKcS1_
0001:001d422c* __ZN13ReplaceDialog6trUtf8EPKcS1_
0001:001d43f8  __ZN13ReplaceDialog16staticMetaObjectEv
0001:001d4454* __ZN13ReplaceDialog7qt_castEPKc
0001:001d44ac* __ZN13ReplaceDialog9qt_invokeEiP8QUObject
0001:001d4570* __ZN13ReplaceDialog7qt_emitEiP8QUObject
0001:001d458c* __ZN13ReplaceDialog11qt_propertyEiiP8QVariant
0001:001d45a8* __ZN13ReplaceDialog18qt_static_propertyEP7QObjectiiP8QVariant
0002:000037f0* __ZN13ReplaceDialog7metaObjE
0001:001d45b0  __ZTV13ReplaceDialog$w$l9dw7ATF8U6K1nqK3
0001:001d487c  __ZNK13ReplaceDialog10metaObjectEv$w$l9dw7ATF8U6K1nqK3
0001:001d4854* __ZN7QWidget9setWStateEj$w$l9dw7ATF8U6K1nqK3
0001:001d4868* __ZN7QWidget9setWFlagsEj$w$l9dw7ATF8U6K1nqK3
0001:001d47d0* __ZTV6QGList$w$l9dw7ATF8U6K1nqK3
0001:001d4848* __ZNK6QGList5countEv$w$l9dw7ATF8U6K1nqK3
Module: C:\200\trunk\lib\qassistantclient.lib(moc_qassistantclient.obj)
0001:001d48e4* __ZNK16QAssistantClient9classNameEv
0001:001d48f0  __ZN16QAssistantClient2trEPKcS1_
0001:001d4930* __ZN16QAssistantClient6trUtf8EPKcS1_
0001:001d4c58* __ZN16QAssistantClient16staticMetaObjectEv
0001:001d4cb8* __ZN16QAssistantClient7qt_castEPKc
0001:001d4d10  __ZN16QAssistantClient15assistantOpenedEv
0001:001d4d30  __ZN16QAssistantClient15assistantClosedEv
0001:001d4d50  __ZN16QAssistantClient5errorERK7QString
0001:001d4da8* __ZN16QAssistantClient9qt_invokeEiP8QUObject
0001:001d4e74* __ZN16QAssistantClient7qt_emitEiP8QUObject
0001:001d4ee4* __ZN16QAssistantClient11qt_propertyEiiP8QVariant
0001:001d4f64* __ZN16QAssistantClient18qt_static_propertyEP7QObjectiiP8QVariant
0002:00003810* __ZN16QAssistantClient7metaObjE
0001:001d4f70  __ZTV16QAssistantClient$w$PG6S2QvF8U6O05Yh2
0001:001d5074  __ZNK16QAssistantClient10metaObjectEv$w$PG6S2QvF8U6O05Yh2
0001:001d4ff0* __ZTV6QGList$w$PG6S2QvF8U6O05Yh2
0001:001d5068* __ZNK6QGList5countEv$w$PG6S2QvF8U6O05Yh2
Module: C:\200\trunk\lib\designercore.lib(moc_orderindicator.obj)
0001:001d50c0* __ZNK14OrderIndicator9classNameEv
0001:001d50cc* __ZN14OrderIndicator2trEPKcS1_
0001:001d510c* __ZN14OrderIndicator6trUtf8EPKcS1_
0001:001d514c  __ZN14OrderIndicator16staticMetaObjectEv
0001:001d51a4* __ZN14OrderIndicator7qt_castEPKc
0001:001d51fc* __ZN14OrderIndicator9qt_invokeEiP8QUObject
0001:001d5218* __ZN14OrderIndicator7qt_emitEiP8QUObject
0001:001d5234* __ZN14OrderIndicator11qt_propertyEiiP8QVariant
0001:001d5250* __ZN14OrderIndicator18qt_static_propertyEP7QObjectiiP8QVariant
0002:00003830* __ZN14OrderIndicator7metaObjE
0001:001d5270  __ZTV14OrderIndicator$w$pHrhO1PF8U6tWfO94
0001:001d5554  __ZNK14OrderIndicator10metaObjectEv$w$pHrhO1PF8U6tWfO94
0001:001d54f4* __ZN7QWidget11setGeometryERK5QRect$w$pHrhO1PF8U6tWfO94
0001:001d552c* __ZN7QWidget9setWStateEj$w$pHrhO1PF8U6tWfO94
0001:001d5540* __ZN7QWidget9setWFlagsEj$w$pHrhO1PF8U6tWfO94
0001:001d5470* __ZTV6QGList$w$pHrhO1PF8U6tWfO94
0001:001d54e8* __ZNK6QGList5countEv$w$pHrhO1PF8U6tWfO94
Module: C:\200\trunk\lib\designercore.lib(moc_configtoolboxdialog.obj)
0001:001d55a4* __ZNK19ConfigToolboxDialog9classNameEv
0001:001d55b0  __ZN19ConfigToolboxDialog2trEPKcS1_
0001:001d55f0* __ZN19ConfigToolboxDialog6trUtf8EPKcS1_
0001:001d5830* __ZN19ConfigToolboxDialog16staticMetaObjectEv
0001:001d588c* __ZN19ConfigToolboxDialog7qt_castEPKc
0001:001d58e4* __ZN19ConfigToolboxDialog9qt_invokeEiP8QUObject
0001:001d59c4* __ZN19ConfigToolboxDialog7qt_emitEiP8QUObject
0001:001d59e0* __ZN19ConfigToolboxDialog11qt_propertyEiiP8QVariant
0001:001d59fc* __ZN19ConfigToolboxDialog18qt_static_propertyEP7QObjectiiP8QVariant
0002:00003850* __ZN19ConfigToolboxDialog7metaObjE
0001:001d5a10  __ZTV19ConfigToolboxDialog$w$7kUxLkUF8U6LbkQV0
0001:001d5cdc  __ZNK19ConfigToolboxDialog10metaObjectEv$w$7kUxLkUF8U6LbkQV0
0001:001d5cb4* __ZN7QWidget9setWStateEj$w$7kUxLkUF8U6LbkQV0
0001:001d5cc8* __ZN7QWidget9setWFlagsEj$w$7kUxLkUF8U6LbkQV0
0001:001d5c30* __ZTV6QGList$w$7kUxLkUF8U6LbkQV0
0001:001d5ca8* __ZNK6QGList5countEv$w$7kUxLkUF8U6LbkQV0
Module: C:\200\trunk\lib\designercore.lib(moc_createtemplate.obj)
0001:001d5d40* __ZNK14CreateTemplate9classNameEv
0001:001d5d4c  __ZN14CreateTemplate2trEPKcS1_
0001:001d5d8c* __ZN14CreateTemplate6trUtf8EPKcS1_
0001:001d5e08  __ZN14CreateTemplate16staticMetaObjectEv
0001:001d5e64* __ZN14CreateTemplate7qt_castEPKc
0001:001d5ebc* __ZN14CreateTemplate9qt_invokeEiP8QUObject
0001:001d5f00* __ZN14CreateTemplate7qt_emitEiP8QUObject
0001:001d5f1c* __ZN14CreateTemplate11qt_propertyEiiP8QVariant
0001:001d5f38* __ZN14CreateTemplate18qt_static_propertyEP7QObjectiiP8QVariant
0002:00003870* __ZN14CreateTemplate7metaObjE
0001:001d5f50  __ZTV14CreateTemplate$w$jAZXKjTF8U6up0yG2
0001:001d61fc  __ZNK14CreateTemplate10metaObjectEv$w$jAZXKjTF8U6up0yG2
0001:001d61d4* __ZN7QWidget9setWStateEj$w$jAZXKjTF8U6up0yG2
0001:001d61e8* __ZN7QWidget9setWFlagsEj$w$jAZXKjTF8U6up0yG2
0001:001d6150* __ZTV6QGList$w$jAZXKjTF8U6up0yG2
0001:001d61c8* __ZNK6QGList5countEv$w$jAZXKjTF8U6up0yG2
Module: C:\200\trunk\lib\designercore.lib(moc_outputwindow.obj)
0001:001d6260* __ZNK12OutputWindow9classNameEv
0001:001d626c  __ZN12OutputWindow2trEPKcS1_
0001:001d62ac* __ZN12OutputWindow6trUtf8EPKcS1_
0001:001d635c* __ZN12OutputWindow16staticMetaObjectEv
0001:001d63b8* __ZN12OutputWindow7qt_castEPKc
0001:001d6410* __ZN12OutputWindow9qt_invokeEiP8QUObject
0001:001d6458* __ZN12OutputWindow7qt_emitEiP8QUObject
0001:001d6474* __ZN12OutputWindow11qt_propertyEiiP8QVariant
0001:001d6490* __ZN12OutputWindow18qt_static_propertyEP7QObjectiiP8QVariant
0002:00003890* __ZN12OutputWindow7metaObjE
0001:001d64b0  __ZTV12OutputWindow$w$n8Y03MQF8U65iJwS1
0001:001d67b4  __ZNK12OutputWindow10metaObjectEv$w$n8Y03MQF8U65iJwS1
0001:001d6754* __ZN7QWidget11setGeometryERK5QRect$w$n8Y03MQF8U65iJwS1
0001:001d678c* __ZN7QWidget9setWStateEj$w$n8Y03MQF8U65iJwS1
0001:001d67a0* __ZN7QWidget9setWFlagsEj$w$n8Y03MQF8U65iJwS1
0001:001d66d0* __ZTV6QGList$w$n8Y03MQF8U65iJwS1
0001:001d6748* __ZNK6QGList5countEv$w$n8Y03MQF8U65iJwS1
Module: C:\200\trunk\lib\designercore.lib(variabledialogimpl.obj)
0001:001d67f0* __ZN14VariableDialogC2EP10FormWindowP7QWidget
0001:001d6958  __ZN14VariableDialogC1EP10FormWindowP7QWidget
0001:001d6ac0* __ZN14VariableDialogD2Ev
0001:001d6ae4  __ZN14VariableDialogD1Ev
0001:001d6b10  __ZN14VariableDialogD0Ev
0001:001d6b44  __ZN14VariableDialog14setCurrentItemE7QString
0001:001d6be4  __ZN14VariableDialog9okClickedEv
0001:001d7524  __ZN14VariableDialog11addVariableEv
0001:001d7624  __ZN14VariableDialog14deleteVariableEv
0001:001d768c  __ZN14VariableDialog18currentItemChangedEP13QListViewItem
0001:001d7818  __ZN14VariableDialog11nameChangedEv
0001:001d7888  __ZN14VariableDialog13accessChangedEv
0001:001d78f8* __ZN17QValueListPrivateIN12MetaDataBase8VariableEED1Ev$w$l9Tf0KJF8U6GWeHQ0
0001:001d79d0* __ZN10QValueListIN12MetaDataBase8VariableEE14detachInternalEv$w$l9Tf0KJF8U6GWeHQ0
0001:001d6b08  __ZThn40_N14VariableDialogD1Ev$w$l9Tf0KJF8U6GWeHQ0
0001:001d6b3c  __ZThn40_N14VariableDialogD0Ev$w$l9Tf0KJF8U6GWeHQ0
0001:001d7a00* __ZN17QValueListPrivateIN12MetaDataBase8VariableEEC1Ev$w$l9Tf0KJF8U6GWeHQ0
0001:001d7a60* __ZN17QValueListPrivateIN12MetaDataBase8VariableEE6insertE18QValueListIteratorIS1_ERKS1_$w$l9Tf0KJF8U6GWeHQ0
0001:001d7acc* __ZN17QValueListPrivateIN12MetaDataBase8VariableEEC1ERKS2_$w$l9Tf0KJF8U6GWeHQ0
0001:001d7b90* __ZTV6QGList$w$l9Tf0KJF8U6GWeHQ0
0001:001d7bbc* __ZNK6QGList5countEv$w$l9Tf0KJF8U6GWeHQ0
Module: C:\200\trunk\lib\designercore.lib(moc_preferences.obj)
0001:001d7bdc* __ZNK11Preferences9classNameEv
0001:001d7be8  __ZN11Preferences2trEPKcS1_
0001:001d7c28* __ZN11Preferences6trUtf8EPKcS1_
0001:001d7cf4  __ZN11Preferences16staticMetaObjectEv
0001:001d7d50* __ZN11Preferences7qt_castEPKc
0001:001d7da8* __ZN11Preferences9qt_invokeEiP8QUObject
0001:001d7e1c* __ZN11Preferences7qt_emitEiP8QUObject
0001:001d7e38* __ZN11Preferences11qt_propertyEiiP8QVariant
0001:001d7e54* __ZN11Preferences18qt_static_propertyEP7QObjectiiP8QVariant
0002:000038b0* __ZN11Preferences7metaObjE
0001:001d7e70  __ZTV11Preferences$w$d3GvdZSF8U6Km5fq1
0001:001d813c  __ZNK11Preferences10metaObjectEv$w$d3GvdZSF8U6Km5fq1
0001:001d8114* __ZN7QWidget9setWStateEj$w$d3GvdZSF8U6Km5fq1
0001:001d8128* __ZN7QWidget9setWFlagsEj$w$d3GvdZSF8U6Km5fq1
0001:001d8090* __ZTV6QGList$w$d3GvdZSF8U6Km5fq1
0001:001d8108* __ZNK6QGList5countEv$w$d3GvdZSF8U6Km5fq1
Module: C:\200\trunk\lib\designercore.lib(startdialogimpl.obj)
0001:001d8190* __ZN10FileDialogC2ERK7QStringP7QWidget
0001:001d81c4* __ZN10FileDialogC1ERK7QStringP7QWidget
0001:001d81f8  __ZN10FileDialog6acceptEv
0001:001d8278* __ZN11StartDialogC2EP7QWidgetRK7QString
0001:001d8d58* __ZN11StartDialog12initFileOpenEv
0001:001d836c  __ZN11StartDialogC1EP7QWidgetRK7QString
0001:001d8474  __ZN11StartDialog6acceptEv
0001:001d874c  __ZN11StartDialog6rejectEv
0001:001d878c  __ZN11StartDialog17recentItemChangedEP13QIconViewItem
0001:001d8aa0  __ZN11StartDialog13clearFileInfoEv
0001:001d8ab8  __ZN11StartDialog16setRecentlyFilesER11QStringList
0001:001d8b14* __ZN11StartDialog17insertRecentItemsER11QStringListb
0001:001d8ad0  __ZN11StartDialog19setRecentlyProjectsER11QStringList
0001:001d949c* __ZN11QMapPrivateIi7QStringEC1Ev$w$ZFHE3ZIF8U6usMz72
0001:001d945c* __ZN4QMapIi7QStringE5clearEv$w$ZFHE3ZIF8U6usMz72
0001:001d9530  __ZN4QMapIi7QStringEixERKi$w$ZFHE3ZIF8U6usMz72
0001:001d95e0* __ZN10QValueListI7QStringE14detachInternalEv$w$ZFHE3ZIF8U6usMz72
0001:001d96a0* __ZN17QValueListPrivateI7QStringEC1Ev$w$ZFHE3ZIF8U6usMz72
0001:001d96ec* __ZN17QValueListPrivateI7QStringE6insertE18QValueListIteratorIS0_ERKS0_$w$ZFHE3ZIF8U6usMz72
0001:001d9610* __ZN17QValueListPrivateI7QStringED1Ev$w$ZFHE3ZIF8U6usMz72
0001:001d94f4* __ZN11QMapPrivateIi7QStringE5clearEv$w$ZFHE3ZIF8U6usMz72
0001:001d9748* __ZN11QMapPrivateIi7QStringE5clearEP8QMapNodeIiS0_E$w$ZFHE3ZIF8U6usMz72
0001:001d97ac* __ZNK11QMapPrivateIi7QStringE4findERKi$w$ZFHE3ZIF8U6usMz72
0001:001d97fc* __ZN4QMapIi7QStringE6insertERKiRKS0_b$w$ZFHE3ZIF8U6usMz72
0001:001d9868* __ZN4QMapIi7QStringE14detachInternalEv$w$ZFHE3ZIF8U6usMz72
0001:001d9898* __ZN17QValueListPrivateI7QStringEC1ERKS1_$w$ZFHE3ZIF8U6usMz72
0001:001d992c* __ZN11QMapPrivateIi7QStringE12insertSingleERKi$w$ZFHE3ZIF8U6usMz72
0001:001d99c8* __ZN11QMapPrivateIi7QStringEC1EPKS1_$w$ZFHE3ZIF8U6usMz72
0001:001d9a78* __ZN11QMapPrivateIi7QStringE6insertEP12QMapNodeBaseS3_RKi$w$ZFHE3ZIF8U6usMz72
0001:001d9b20* __ZN12QMapIteratorIi7QStringE3decEv$w$ZFHE3ZIF8U6usMz72
0001:001d9b78* __ZN11QMapPrivateIi7QStringE4copyEP8QMapNodeIiS0_E$w$ZFHE3ZIF8U6usMz72
0001:001d9c30* __ZTV6QGList$w$ZFHE3ZIF8U6usMz72
0001:001d9c5c* __ZNK6QGList5countEv$w$ZFHE3ZIF8U6usMz72
Module: C:\200\trunk\lib\designercore.lib(actioneditor.obj)
0001:001d9df0  __ZN16ActionEditorBaseC2EP7QWidgetPKcj
0001:001da718  __ZN16ActionEditorBase14languageChangeEv
0001:001da868  __ZN16ActionEditorBase4initEv
0001:001da1f8* __ZN16ActionEditorBaseC1EP7QWidgetPKcj
0001:001da600  __ZN16ActionEditorBaseD2Ev
0001:001da870  __ZN16ActionEditorBase7destroyEv
0001:001da63c  __ZN16ActionEditorBaseD1Ev
0001:001da680  __ZN16ActionEditorBaseD0Ev
0001:001da8b4  __ZN16ActionEditorBase18connectionsClickedEv
0001:001da910  __ZN16ActionEditorBase20currentActionChangedEP13QListViewItem
0001:001da958  __ZN16ActionEditorBase12deleteActionEv
0001:001da99c  __ZN16ActionEditorBase9newActionEv
0001:001da678  __ZThn40_N16ActionEditorBaseD1Ev$w$zc38bjMF8U63axSH1
0001:001da6c4  __ZThn40_N16ActionEditorBaseD0Ev$w$zc38bjMF8U63axSH1
0001:001da9b0* __ZTV6QGList$w$zc38bjMF8U63axSH1
0001:001da9dc* __ZNK6QGList5countEv$w$zc38bjMF8U63axSH1
Module: C:\200\trunk\lib\designercore.lib(customwidgeteditor.obj)
0001:001db100  __ZN22CustomWidgetEditorBaseC2EP7QWidgetPKcbj
0001:001dfb18  __ZN22CustomWidgetEditorBase14languageChangeEv
0001:001e1bac  __ZN22CustomWidgetEditorBase4initEv
0001:001dcc9c* __ZN22CustomWidgetEditorBaseC1EP7QWidgetPKcbj
0001:001de838  __ZN22CustomWidgetEditorBaseD2Ev
0001:001e1bb4  __ZN22CustomWidgetEditorBase7destroyEv
0001:001de868  __ZN22CustomWidgetEditorBaseD1Ev
0001:001de8a0  __ZN22CustomWidgetEditorBaseD0Ev
0001:001e1bf8  __ZN22CustomWidgetEditorBase11addPropertyEv
0001:001e1c44  __ZN22CustomWidgetEditorBase9addSignalEv
0001:001e1c94  __ZN22CustomWidgetEditorBase16addWidgetClickedEv
0001:001e1ce0  __ZN22CustomWidgetEditorBase12chooseHeaderEv
0001:001e1d40  __ZN22CustomWidgetEditorBase16classNameChangedERK7QString
0001:001e1d8c  __ZN22CustomWidgetEditorBase12closeClickedEv
0001:001e1df0  __ZN22CustomWidgetEditorBase22currentPropertyChangedEP13QListViewItem
0001:001e1e54  __ZN22CustomWidgetEditorBase20currentSignalChangedEP12QListBoxItem
0001:001e1eb4  __ZN22CustomWidgetEditorBase18currentSlotChangedEP13QListViewItem
0001:001e1f18  __ZN22CustomWidgetEditorBase20currentWidgetChangedEP12QListBoxItem
0001:001e1f6c  __ZN22CustomWidgetEditorBase19deleteWidgetClickedEv
0001:001e1fcc  __ZN22CustomWidgetEditorBase17headerFileChangedERK7QString
0001:001e201c  __ZN22CustomWidgetEditorBase13heightChangedEi
0001:001e2070  __ZN22CustomWidgetEditorBase14horDataChangedEi
0001:001e20c8  __ZN22CustomWidgetEditorBase20includePolicyChangedEi
0001:001e2118  __ZN22CustomWidgetEditorBase15loadDescriptionEv
0001:001e2160  __ZN22CustomWidgetEditorBase7addSlotEv
0001:001e21b0  __ZN22CustomWidgetEditorBase13pixmapChoosenEv
0001:001e2214  __ZN22CustomWidgetEditorBase19propertyNameChangedERK7QString
0001:001e2278  __ZN22CustomWidgetEditorBase19propertyTypeChangedERK7QString
