** EXPERIMENTAL (HLL) ** Open Watcom Linker Version 1.6beta1 Limited Availability
Portions Copyright (c) 1985-2002 Sybase, Inc. All Rights Reserved.
Created on:       14/11/02 20:40:16
Executable Image: ..\..\..\bin\linguist.exe
creating an OS/2 EMX executable


                        +------------+
                        |   Groups   |
                        +------------+

Group                           Address              Size
=====                           =======              ====

CGROUP                          0001:00000000        0003e810
DGROUP                          0002:00000000        00000970



                        +--------------+
                        |   Segments   |
                        +--------------+

Segment                Class          Group          Address         Size
=======                =====          =====          =======         ====

TEXT32                 CODE           CGROUP         0001:00000000   0003e810
________TEXT           CODE           CGROUP         0001:0003e810   00000000
DATA32                 DATA           DGROUP         0002:00000000   00000730
SET1__os2dll           DATA           DGROUP         0002:00000730   00000004
SET2__os2dll           DATA           DGROUP         0002:00000734   00000000
SET3__os2dll           DATA           DGROUP         0002:00000734   00000004
SET1___CTOR_LIST__     DATA           DGROUP         0002:00000738   00000004
SET2___CTOR_LIST__     DATA           DGROUP         0002:0000073c   00000024
SET3___CTOR_LIST__     DATA           DGROUP         0002:00000760   00000004
SET1___DTOR_LIST__     DATA           DGROUP         0002:00000764   00000004
SET2___DTOR_LIST__     DATA           DGROUP         0002:00000768   00000024
SET3___DTOR_LIST__     DATA           DGROUP         0002:0000078c   00000004
SET1___crtinit1__      DATA           DGROUP         0002:00000790   00000004
SET2___crtinit1__      DATA           DGROUP         0002:00000794   00000000
SET3___crtinit1__      DATA           DGROUP         0002:00000794   00000004
SET1___crtexit1__      DATA           DGROUP         0002:00000798   00000004
SET2___crtexit1__      DATA           DGROUP         0002:0000079c   00000000
SET3___crtexit1__      DATA           DGROUP         0002:0000079c   00000004
SET1___eh_frame__      DATA           DGROUP         0002:000007a0   00000004
SET2___eh_frame__      DATA           DGROUP         0002:000007a4   00000000
SET3___eh_frame__      DATA           DGROUP         0002:000007a4   00000004
SET1___eh_init__       DATA           DGROUP         0002:000007a8   00000004
SET2___eh_init__       DATA           DGROUP         0002:000007ac   00000000
SET3___eh_init__       DATA           DGROUP         0002:000007ac   00000004
SET1___eh_term__       DATA           DGROUP         0002:000007b0   00000004
SET2___eh_term__       DATA           DGROUP         0002:000007b4   00000000
SET3___eh_term__       DATA           DGROUP         0002:000007b4   00000004
________DATA           DATA           DGROUP         0002:000007c0   00000000
SET1___fork_child1__   DATA           DGROUP         0002:000007c0   00000000
SET2___fork_child1__   DATA           DGROUP         0002:000007c0   00000004
SET3___fork_child1__   DATA           DGROUP         0002:000007c4   00000000
BSS32                  BSS            DGROUP         0002:000007d0   000001a0
c_common               BSS            DGROUP         0002:00000970   00000000
________BSS            BSS            DGROUP         0002:00000970   00000000
STACK                  STACK          AUTO           0003:00000000   00800000


                        +----------------+
                        |   Memory Map   |
                        +----------------+

* = unreferenced symbol
+ = symbol only referenced locally

Address        Symbol
=======        ======

Module: C:\usr\lib\crt0nofork.obj({standard input})
0001:00000000* __text
0002:00000000* __data
0002:00000000* ___data_start
0002:000007d0* ___bss_start
0002:00000730+ __os2dll
0002:00000738  ___CTOR_LIST__
0002:00000764  ___DTOR_LIST__
0002:00000790* ___crtinit1__
0002:00000798* ___crtexit1__
0002:000007a0* ___eh_frame__
0002:000007a8  ___eh_init__
0002:000007b0  ___eh_term__
Module: C:\200\trunk\tools\linguist\linguist\tmp\obj\release_mt_shared\finddialog.obj(finddialog.obj)
0001:0000043c* __ZN10FindDialogC2EbP7QWidgetPKcb
0001:00000ec8  __ZN10FindDialogC1EbP7QWidgetPKcb
0001:00001954  __ZN10FindDialog12emitFindNextEv
0001:000019f8  __ZN10FindDialog11emitReplaceEv
0001:00001a88  __ZN10FindDialog14emitReplaceAllEv
0001:00001b20  __ZTV6QGList$w$Fnt3Hn3G8U6RNZ1q3
0001:00001b4c  __ZNK6QGList5countEv$w$Fnt3Hn3G8U6RNZ1q3
Module: C:\200\trunk\tools\linguist\linguist\tmp\obj\release_mt_shared\main.obj(main.obj)
0001:00001bb0  _main
0001:000021c0* __ZTV6QGList$w$Xq4OCs3G8U67Cqo51
0001:000021ec* __ZNK6QGList5countEv$w$Xq4OCs3G8U67Cqo51
Module: C:\200\trunk\tools\linguist\linguist\tmp\obj\release_mt_shared\msgedit.obj(msgedit.obj)
0001:0000222c* __Z8richMetaRK7QString
0001:00002344* __Z8richTextRK7QString
0001:000027ac* __ZN12ShadowWidgetC2EP7QWidgetPKc
0001:000027ec* __ZN12ShadowWidgetC1EP7QWidgetPKc
0001:0000282c* __ZN12ShadowWidgetC2EP7QWidgetS1_PKc
0001:000028c4* __ZN12ShadowWidget9setWidgetEP7QWidget
0001:00002878* __ZN12ShadowWidgetC1EP7QWidgetS1_PKc
0001:00002900* __ZN12ShadowWidget11resizeEventEP12QResizeEvent
0001:00002964* __ZN12ShadowWidget10paintEventEP11QPaintEvent
0001:00002c24* __ZN10EditorPageC2EP7QWidgetPKc
0001:00003944* __ZN10EditorPage18updateCommentFieldEv
0001:000032b4* __ZN10EditorPageC1EP7QWidgetPKc
0001:000039cc* __ZN10EditorPage13layoutWidgetsEv
0001:00003d00  __ZN10EditorPage11resizeEventEP12QResizeEvent
0001:00003d30  __ZN10EditorPage24handleTranslationChangesEv
0001:00003d4c  __ZN10EditorPage19handleSourceChangesEv
0001:00003d68  __ZN10EditorPage20handleCommentChangesEv
0001:00003d84* __ZN10EditorPage20calculateFieldHeightEP9QTextView
0001:00003e0c  __ZN10EditorPage10fontChangeERK5QFont
0001:0000430c* __ZN13MessageEditorC2EP14MetaTranslatorP7QWidgetPKc
0001:00004e28  __ZN13MessageEditorC1EP14MetaTranslatorP7QWidgetPKc
0001:00005944  __ZN13MessageEditor14toggleFinishedEv
0001:0000596c  __ZN13MessageEditor11eventFilterEP7QObjectP6QEvent
0001:00005c70  __ZN13MessageEditor16updatePageHeightEi
0001:00005ca8  __ZN13MessageEditor11resizeEventEP12QResizeEvent
0001:00005cf8  __ZNK13MessageEditor14sourceTextListEv
0001:00005d04  __ZNK13MessageEditor10phraseListEv
0001:00005d14  __ZN13MessageEditor11showNothingEv
0001:00005db8  __ZN13MessageEditor11showContextERK7QStringb
0001:000068d8* __ZN13MessageEditor17setEditionEnabledEb
0001:00006838* __ZN13MessageEditor14setTranslationERK7QStringb
0001:00006f78  __ZN13MessageEditor11setFinishedEb
0001:00005f84  __ZN13MessageEditor11showMessageERK7QStringS2_S2_S2_N21MetaTranslatorMessage4TypeERK10QValueListI6PhraseE
0001:00006d40  __ZN13MessageEditor13updateButtonsEv
0001:00006ec8  __ZN13MessageEditor14updateCanPasteEv
0001:00006958  __ZN13MessageEditor4undoEv
0001:0000697c  __ZN13MessageEditor4redoEv
0001:000069a0  __ZN13MessageEditor3cutEv
0001:000069c4  __ZN13MessageEditor4copyEv
0001:000069e8  __ZN13MessageEditor5pasteEv
0001:00006a0c  __ZN13MessageEditor3delEv
0001:00006a30  __ZN13MessageEditor9selectAllEv
0001:00006a60  __ZN13MessageEditor22emitTranslationChangedEv
0001:00006ab4  __ZN13MessageEditor14guessActivatedEi
0001:00006b04  __ZN13MessageEditor25insertPhraseInTranslationEP13QListViewItem
0001:00006c14  __ZN13MessageEditor33insertPhraseInTranslationAndLeaveEP13QListViewItem
0001:00006e2c  __ZN13MessageEditor15beginFromSourceEv
0001:00006e7c  __ZN13MessageEditor13finishAndNextEv
0001:00006f9c  __ZN13MessageEditor14toggleGuessingEv
0001:00007320* __ZTV12ShadowWidget$w$bU3wkE3G8U6jUim43
0001:00007520* __ZTV3MED$w$bU3wkE3G8U6jUim43
0001:000079d4* __ZN8PageCurlC1EP7QWidgetPKcj$w$bU3wkE3G8U6jUim43
0001:00006fd4  __ZN17QValueListPrivateI7QStringEC1Ev$w$bU3wkE3G8U6jUim43
0001:00007020* __Z7qt_castIP9QTextEditET_PK7QObject$w$bU3wkE3G8U6jUim43
0001:0000703c* __Z7qt_castIP9QListViewET_PK7QObject$w$bU3wkE3G8U6jUim43
0001:00007058* __ZN10QValueListI7QStringE5clearEv$w$bU3wkE3G8U6jUim43
0001:0000709c* __ZN17QValueListPrivateI9CandidateED1Ev$w$bU3wkE3G8U6jUim43
0001:00007174* __ZN10QValueListI9CandidateE14detachInternalEv$w$bU3wkE3G8U6jUim43
0001:000071a4* __ZN17QValueListPrivateI7QStringE5clearEv$w$bU3wkE3G8U6jUim43
0001:00007208* __ZN17QValueListPrivateI9CandidateEC1ERKS1_$w$bU3wkE3G8U6jUim43
0001:000072b4* __ZN17QValueListPrivateI9CandidateE6insertE18QValueListIteratorIS0_ERKS0_$w$bU3wkE3G8U6jUim43
0001:00007938* __ZNK7QWidget10metaObjectEv$w$bU3wkE3G8U6jUim43
0001:00007b4c* __ZN12ShadowWidgetD1Ev$w$bU3wkE3G8U6jUim43
0001:00007b78* __ZN12ShadowWidgetD0Ev$w$bU3wkE3G8U6jUim43
0001:00007944* __ZN7QWidget11setGeometryERK5QRect$w$bU3wkE3G8U6jUim43
0001:0000797c* __ZN7QWidget9setWStateEj$w$bU3wkE3G8U6jUim43
0001:00007990* __ZN7QWidget9setWFlagsEj$w$bU3wkE3G8U6jUim43
0001:00007b70* __ZThn40_N12ShadowWidgetD1Ev$w$bU3wkE3G8U6jUim43
0001:00007ba4* __ZThn40_N12ShadowWidgetD0Ev$w$bU3wkE3G8U6jUim43
0001:00007bac* __ZNK9QTextEdit10metaObjectEv$w$bU3wkE3G8U6jUim43
0001:00007cc8* __ZN3MEDD1Ev$w$bU3wkE3G8U6jUim43
0001:00007cf4* __ZN3MEDD0Ev$w$bU3wkE3G8U6jUim43
0001:00007bb8* __ZN9QTextEdit6zoomInEv$w$bU3wkE3G8U6jUim43
0001:00007bd4* __ZN9QTextEdit7zoomOutEv$w$bU3wkE3G8U6jUim43
0001:00007c2c* __ZN9QTextEdit14setCurrentFontERK5QFont$w$bU3wkE3G8U6jUim43
0001:00007bf0* __ZN9QTextEdit16setOverwriteModeEb$w$bU3wkE3G8U6jUim43
0001:00007c14* __ZNK9QTextEdit12linksEnabledEv$w$bU3wkE3G8U6jUim43
0001:00007c1c* __ZN9QTextEdit15emitHighlightedERK7QString$w$bU3wkE3G8U6jUim43
0001:00007c24* __ZN9QTextEdit15emitLinkClickedERK7QString$w$bU3wkE3G8U6jUim43
0001:00007cec* __ZThn40_N3MEDD1Ev$w$bU3wkE3G8U6jUim43
0001:00007d20* __ZThn40_N3MEDD0Ev$w$bU3wkE3G8U6jUim43
0001:000078d8* __ZTV19QTextCommandHistory$w$bU3wkE3G8U6jUim43
0001:00007c38* __ZN19QTextCommandHistoryD1Ev$w$bU3wkE3G8U6jUim43
0001:00007c7c* __ZN19QTextCommandHistoryD0Ev$w$bU3wkE3G8U6jUim43
0001:00007900* __ZTV6QGList$w$bU3wkE3G8U6jUim43
0001:0000792c* __ZNK6QGList5countEv$w$bU3wkE3G8U6jUim43
0001:00007d40* __ZTV8QPtrListI12QTextCommandE$w$bU3wkE3G8U6jUim43
0001:00007da0* __ZNK8QPtrListI12QTextCommandE5countEv$w$bU3wkE3G8U6jUim43
0001:00007d94* __ZN8QPtrListI12QTextCommandE5clearEv$w$bU3wkE3G8U6jUim43
0001:00007d6c* __ZN8QPtrListI12QTextCommandED1Ev$w$bU3wkE3G8U6jUim43
0001:00007dac* __ZN8QPtrListI12QTextCommandED0Ev$w$bU3wkE3G8U6jUim43
0001:00007ddc* __ZN8QPtrListI12QTextCommandE10deleteItemEPv$w$bU3wkE3G8U6jUim43
Module: C:\200\trunk\tools\linguist\linguist\tmp\obj\release_mt_shared\phrase.obj(phrase.obj)
0001:00008088* __ZN6PhraseC2ERK7QStringS2_S2_
0001:000080c0  __ZN6PhraseC1ERK7QStringS2_S2_
0001:000080f8* __ZeqRK6PhraseS1_
0001:000082b4* __ZN10QphHandler12startElementERK7QStringS2_S2_RK14QXmlAttributes
0001:00008368* __ZN10QphHandler10endElementERK7QStringS2_S2_
0001:000085a8* __ZN10QphHandler10charactersERK7QString
0001:000085f8* __ZN10QphHandler10fatalErrorERK18QXmlParseException
0001:000087c4  __ZN10PhraseBook4loadERK7QString
0001:00008b10  __ZNK10PhraseBook4saveERK7QString
0001:00008e74* __ZN17QValueListPrivateI6PhraseE6insertE18QValueListIteratorIS0_ERKS0_$w$vOfe8J3G8U69elyw3
0001:00008ef0* __ZN10QValueListI6PhraseE14detachInternalEv$w$vOfe8J3G8U69elyw3
0001:0000871c* __ZThn4_N10QphHandler10fatalErrorERK18QXmlParseException$w$vOfe8J3G8U69elyw3
0001:00009160* __ZTV10QphHandler$w$vOfe8J3G8U69elyw3
0001:00008f20* __ZN10QValueListI6PhraseE5clearEv$w$vOfe8J3G8U69elyw3
0001:00008fdc* __ZN17QValueListPrivateI6PhraseEC1ERKS1_$w$vOfe8J3G8U69elyw3
0001:00008f64* __ZN17QValueListPrivateI6PhraseEC1Ev$w$vOfe8J3G8U69elyw3
0001:000090a0* __ZN17QValueListPrivateI6PhraseE5clearEv$w$vOfe8J3G8U69elyw3
0001:00009298* __ZN10QphHandlerD1Ev$w$vOfe8J3G8U69elyw3
0001:0000937c* __ZN10QphHandlerD0Ev$w$vOfe8J3G8U69elyw3
0001:00009260* __ZTV6QGList$w$vOfe8J3G8U69elyw3
0001:0000928c* __ZNK6QGList5countEv$w$vOfe8J3G8U69elyw3
Module: C:\200\trunk\tools\linguist\linguist\tmp\obj\release_mt_shared\phrasebookbox.obj(phrasebookbox.obj)
0001:0000981c* __ZN13PhraseBookBoxC2ERK7QStringRK10PhraseBookP7QWidgetPKcb
0001:0000b044* __ZN13PhraseBookBox13enableDisableEv
0001:00009ff8  __ZN13PhraseBookBoxC1ERK7QStringRK10PhraseBookP7QWidgetPKcb
0001:0000a7d4  __ZN13PhraseBookBox13keyPressEventEP9QKeyEvent
0001:0000a928  __ZN13PhraseBookBox9newPhraseEv
0001:0000b00c* __ZN13PhraseBookBox10selectItemEP13QListViewItem
0001:0000aa68  __ZN13PhraseBookBox12removePhraseEv
0001:0000ab08  __ZN13PhraseBookBox4saveEv
0001:0000ae00  __ZN13PhraseBookBox13sourceChangedERK7QString
0001:0000aec4  __ZN13PhraseBookBox13targetChangedERK7QString
0001:0000af88  __ZN13PhraseBookBox17definitionChangedERK7QString
0001:0000b004  __ZN13PhraseBookBox16selectionChangedEP13QListViewItem
0001:0000b598* __ZTV9QKeyEvent$w$vG3wvP3G8U6BUiPK1
0001:0000b2b8* __ZN10QValueListI6PhraseE5clearEv$w$vG3wvP3G8U6BUiPK1
0001:0000b2fc* __ZN17QValueListPrivateI6PhraseE6insertE18QValueListIteratorIS0_ERKS0_$w$vG3wvP3G8U6BUiPK1
0001:0000b378* __ZN10QValueListI6PhraseE14detachInternalEv$w$vG3wvP3G8U6BUiPK1
0001:0000b3a8* __ZN17QValueListPrivateI6PhraseEC1Ev$w$vG3wvP3G8U6BUiPK1
0001:0000b420* __ZN17QValueListPrivateI6PhraseE5clearEv$w$vG3wvP3G8U6BUiPK1
0001:0000b4d4* __ZN17QValueListPrivateI6PhraseEC1ERKS1_$w$vG3wvP3G8U6BUiPK1
0001:0000b5f8* __ZN9QKeyEventD1Ev$w$vG3wvP3G8U6BUiPK1
0001:0000b63c* __ZN9QKeyEventD0Ev$w$vG3wvP3G8U6BUiPK1
0001:0000b5c0* __ZTV6QGList$w$vG3wvP3G8U6BUiPK1
0001:0000b5ec* __ZNK6QGList5countEv$w$vG3wvP3G8U6BUiPK1
Module: C:\200\trunk\tools\linguist\linguist\tmp\obj\release_mt_shared\phraselv.obj(phraselv.obj)
0001:0000b6a0* __ZN10WhatPhraseC2EP8PhraseLV
0001:0000b6c8* __ZN10WhatPhraseC1EP8PhraseLV
0001:0000b7dc* __ZN10WhatPhrase4textERK6QPoint
0001:0000bad8* __ZN9PhraseLVIC2EP8PhraseLVRK6Phrasei
0001:0000bd10* __ZN9PhraseLVI9setPhraseERK6Phrase
0001:0000bb3c  __ZN9PhraseLVIC1EP8PhraseLVRK6Phrasei
0001:0000bba0* __ZNK9PhraseLVI3keyEib
0001:0000bc88* __ZN9PhraseLVI7setTextEiRK7QString
0001:0000bf78* __ZNK9PhraseLVI7makeKeyERK7QString
0001:0000beb4  __ZNK9PhraseLVI6phraseEv
0001:0000c110* __ZN8PhraseLVC2EP7QWidgetPKc
0001:0000c260  __ZN8PhraseLVC1EP7QWidgetPKc
0001:0000c3b0* __ZN8PhraseLVD2Ev
0001:0000c3d4  __ZN8PhraseLVD1Ev
0001:0000c400  __ZN8PhraseLVD0Ev
0001:0000c434  __ZNK8PhraseLV8sizeHintEv
0001:0000c508* __ZTV10WhatPhrase$w$VrV4CU3G8U6xP41R1
0001:0000c460* __ZTV9PhraseLVI$w$VrV4CU3G8U6xP41R1
0001:0000c3f8* __ZThn40_N8PhraseLVD1Ev$w$VrV4CU3G8U6xP41R1
0001:0000c42c* __ZThn40_N8PhraseLVD0Ev$w$VrV4CU3G8U6xP41R1
0001:0000c570* __ZN9PhraseLVID1Ev$w$VrV4CU3G8U6xP41R1
0001:0000c5d4* __ZN9PhraseLVID0Ev$w$VrV4CU3G8U6xP41R1
0001:0000c558* __ZN13QListViewItem10removeItemEPS_$w$VrV4CU3G8U6xP41R1
0001:0000c63c* __ZN10WhatPhraseD1Ev$w$VrV4CU3G8U6xP41R1
0001:0000c658* __ZN10WhatPhraseD0Ev$w$VrV4CU3G8U6xP41R1
0001:0000c520* __ZTV6QGList$w$VrV4CU3G8U6xP41R1
0001:0000c54c* __ZNK6QGList5countEv$w$VrV4CU3G8U6xP41R1
Module: C:\200\trunk\tools\linguist\linguist\tmp\obj\release_mt_shared\printout.obj(printout.obj)
0001:0000c680* __ZTV6QGList$w$vAYarW3G8U6Z9egP1
0001:0000c6ac* __ZNK6QGList5countEv$w$vAYarW3G8U6Z9egP1
Module: C:\200\trunk\tools\linguist\linguist\tmp\obj\release_mt_shared\simtexth.obj(simtexth.obj)
0001:0000c6c0  __Z30similarTextHeuristicCandidatesPK14MetaTranslatorPKci
0001:0000cdd0* __ZN17QValueListPrivateIiEC1Ev$w$dNpNe04G8U6sI82j4
0001:0000ce3c* __ZN17QValueListPrivateI9CandidateEC1Ev$w$dNpNe04G8U6sI82j4
0001:0000cff4* __ZNK17QValueListPrivateIiE2atEj$w$dNpNe04G8U6sI82j4
0001:0000d13c* __ZNK17QValueListPrivateI9CandidateE2atEj$w$dNpNe04G8U6sI82j4
0001:0000d184* __ZN17QValueListPrivateIiE6insertE18QValueListIteratorIiERKi$w$dNpNe04G8U6sI82j4
0001:0000d1d4* __ZN17QValueListPrivateI9CandidateE6insertE18QValueListIteratorIS0_ERKS0_$w$dNpNe04G8U6sI82j4
0001:0000d10c* __ZN10QValueListI9CandidateE14detachInternalEv$w$dNpNe04G8U6sI82j4
0001:0000d03c* __ZN10QValueListIiE14detachInternalEv$w$dNpNe04G8U6sI82j4
0001:0000d06c* __ZN17QValueListPrivateI9CandidateE6removeERKS0_$w$dNpNe04G8U6sI82j4
0001:0000ce00* __ZN17QValueListPrivateIiED1Ev$w$dNpNe04G8U6sI82j4
0001:0000ce9c* __ZN17QValueListPrivateI21MetaTranslatorMessageED1Ev$w$dNpNe04G8U6sI82j4
0001:0000cf7c* __ZN10QValueListI21MetaTranslatorMessageE14detachInternalEv$w$dNpNe04G8U6sI82j4
0001:0000d240* __ZN17QValueListPrivateI21MetaTranslatorMessageEC1ERKS1_$w$dNpNe04G8U6sI82j4
0001:0000d2cc* __ZN17QValueListPrivateIiEC1ERKS0_$w$dNpNe04G8U6sI82j4
0001:0000d358* __ZN17QValueListPrivateI9CandidateE6removeE18QValueListIteratorIS0_E$w$dNpNe04G8U6sI82j4
0001:0000d40c* __ZN17QValueListPrivateI9CandidateEC1ERKS1_$w$dNpNe04G8U6sI82j4
0001:0000d4b8* __ZN17QValueListPrivateI21MetaTranslatorMessageE6insertE18QValueListIteratorIS0_ERKS0_$w$dNpNe04G8U6sI82j4
0001:0000d520* __ZTV6QGList$w$dNpNe04G8U6sI82j4
0001:0000d54c* __ZNK6QGList5countEv$w$dNpNe04G8U6sI82j4
Module: C:\200\trunk\tools\linguist\linguist\tmp\obj\release_mt_shared\trwindow.obj(trwindow.obj)
0001:0000df84* __ZN6ActionC2EP10QPopupMenuRK7QStringP7QObjectPKcS4_ib
0001:0000e0dc* __ZN6ActionC1EP10QPopupMenuRK7QStringP7QObjectPKcS4_ib
0001:0000e234* __ZN6ActionC2EP10QPopupMenuRK7QStringib
0001:0000e298* __ZN6ActionC1EP10QPopupMenuRK7QStringib
0001:0000e2fc* __ZN6Action12setWhatsThisERK7QString
0001:0000e324* __ZN6Action12addToToolbarEP8QToolBarRK7QString
0001:0000e358  __ZN8TrWindow8pageCurlEv
0001:0000e7b4* __ZN8TrWindowC2Ev
0001:00015254* __ZN8TrWindow12setupMenuBarEv
0001:00017e98* __ZN8TrWindow13setupToolBarsEv
0001:00018bd4* __ZN8TrWindow14updateProgressEv
0001:00012a38  __ZN8TrWindow13updateCaptionEv
0001:00012e28  __ZN8TrWindow14showNewCurrentEP13QListViewItem
0001:00019ca4* __ZN8TrWindow10readConfigEv
0001:0000f2ac  __ZN8TrWindowC1Ev
0001:0000fda4* __ZN8TrWindowD2Ev
0001:0001ae34* __ZN8TrWindow11writeConfigEv
0001:0000ff94  __ZN8TrWindowD1Ev
0001:00010190  __ZN8TrWindowD0Ev
0001:000103f4  __ZN8TrWindow8openFileERK7QString
0001:000193cc* __ZN8TrWindow6dangerERK7QStringS2_b
0001:0001c27c* __ZN8TrWindow14doCharCountingERK7QStringRiS3_S3_
0001:0001bdb0* __ZN8TrWindow21addRecentlyOpenedFileERK7QStringR11QStringList
0001:0001c0b0  __ZN8TrWindow16updateStatisticsEv
0001:00010e68  __ZN8TrWindow4openEv
0001:00012910  __ZN8TrWindow9maybeSaveEv
0001:00010f38  __ZN8TrWindow4saveEv
0001:00011084  __ZN8TrWindow6saveAsEv
0001:000111a8  __ZN8TrWindow7releaseEv
0001:00011474  __ZN8TrWindow5printEv
0001:0001147c  __ZN8TrWindow4findEv
0001:000114fc  __ZN8TrWindow9findAgainEv
0001:00011a5c* __ZN8TrWindow11itemToIndexEP9QListViewP13QListViewItem
0001:00011a9c* __ZN8TrWindow11indexToItemEP9QListViewi
0001:0001857c* __ZN8TrWindow21setCurrentContextItemEP13QListViewItem
0001:000185b4* __ZN8TrWindow21setCurrentMessageItemEP13QListViewItem
0001:00011adc* __ZN8TrWindow10searchItemERK7QStringP13QListViewItemS4_
0001:00011a0c  __ZN8TrWindow7replaceEv
0001:00011c20  __ZN8TrWindow13newPhraseBookEv
0001:00018a8c* __ZN8TrWindow14savePhraseBookER7QStringRK10PhraseBook
0001:00018704* __ZN8TrWindow14openPhraseBookERK7QString
0001:00011f0c  __ZN8TrWindow14openPhraseBookEv
0001:00012168  __ZN8TrWindow15closePhraseBookEi
0001:00018d94* __ZN8TrWindow16updatePhraseDictEv
0001:00012298  __ZN8TrWindow14editPhraseBookEi
0001:000185ec* __ZN8TrWindow22friendlyPhraseBookNameEi
0001:00012598  __ZN8TrWindow15printPhraseBookEi
0001:000125a0  __ZN8TrWindow13revertSortingEv
0001:000125f4  __ZN8TrWindow6manualEv
0001:00012710  __ZN8TrWindow5aboutEv
0001:00012814  __ZN8TrWindow7aboutQtEv
0001:00012864  __ZN8TrWindow11setupPhraseEv
0001:000128d8  __ZN8TrWindow10closeEventEP11QCloseEvent
0001:00012cac  __ZN8TrWindow12showNewScopeEP13QListViewItem
0001:00019044* __ZN8TrWindow10getPhrasesERK7QString
0001:0001330c  __ZN8TrWindow17updateTranslationERK7QString
0001:000134ec  __ZN8TrWindow14updateFinishedEb
0001:000136ac  __ZN8TrWindow11doneAndNextEv
0001:0001382c  __ZN8TrWindow14toggleFinishedEP13QListViewItemRK6QPointi
0001:00013b90  __ZN8TrWindow14nextUnfinishedEv
0001:00013dec  __ZN8TrWindow14prevUnfinishedEv
0001:00013fec  __ZN8TrWindow4prevEv
0001:000140c8  __ZN8TrWindow4nextEv
0001:000141a8  __ZN8TrWindow8findNextERK7QStringib
0001:0001425c  __ZN8TrWindow10revalidateEv
0001:00014494* __ZN8TrWindow14friendlyStringERK7QString
0001:0001bc94  __ZN8TrWindow20setupRecentFilesMenuEv
0001:0001bd40  __ZN8TrWindow19recentFileActivatedEi
0001:0001bec8  __ZN8TrWindow14toggleGuessingEv
0001:0001bedc  __ZN8TrWindow15focusSourceListEv
0001:0001bef8  __ZN8TrWindow15focusPhraseListEv
0001:0001bf14  __ZN8TrWindow21updateClosePhraseBookEv
0001:0001bfd8  __ZN8TrWindow16toggleStatisticsEv
0001:0001c164* __ZN8TrWindow10countStatsEP13QListViewItemS1_RiS2_S2_
0002:000007d0  __ZN8TrWindow4pxOnE
0002:000007d4  __ZN8TrWindow5pxOffE
0002:000007d8  __ZN8TrWindow10pxObsoleteE
0002:000007dc  __ZN8TrWindow8pxDangerE
0001:0001cd60* __ZTV6Action$w$rmS0Uh4G8U6Ug9CW0
0001:0001ce00* __ZTV7QBitmap$w$rmS0Uh4G8U6Ug9CW0
0001:0001c3c4* __ZN17QValueListPrivateI7QStringEC1Ev$w$rmS0Uh4G8U6Ug9CW0
0001:0001ce80* __ZTV5QDictI10PhraseBookE$w$rmS0Uh4G8U6Ug9CW0
0001:0001ce40* __ZTV8QPtrListI10PhraseBookE$w$rmS0Uh4G8U6Ug9CW0
0001:0001c388* __ZN11QMapPrivateI21MetaTranslatorMessageiE5clearEv$w$rmS0Uh4G8U6Ug9CW0
0001:0001c410  __ZN17QValueListPrivateI7QStringED1Ev$w$rmS0Uh4G8U6Ug9CW0
0001:00010184* __ZThn40_N8TrWindowD1Ev$w$rmS0Uh4G8U6Ug9CW0
0001:00010388* __ZThn40_N8TrWindowD0Ev$w$rmS0Uh4G8U6Ug9CW0
0001:0001cd20* __ZTV5QDictI10ContextLVIE$w$rmS0Uh4G8U6Ug9CW0
0001:0001c4a0* __ZN17QValueListPrivateI21MetaTranslatorMessageED1Ev$w$rmS0Uh4G8U6Ug9CW0
0001:0001c580* __ZN10QValueListI21MetaTranslatorMessageE14detachInternalEv$w$rmS0Uh4G8U6Ug9CW0
0001:0001c5b0* __ZN17QValueListPrivateI6PhraseEC1Ev$w$rmS0Uh4G8U6Ug9CW0
0001:0001c628* __ZN17QValueListPrivateI6PhraseED1Ev$w$rmS0Uh4G8U6Ug9CW0
0001:0001c744* __ZNK17QValueListPrivateI7QStringE8containsERKS0_$w$rmS0Uh4G8U6Ug9CW0
0001:0001c878* __ZNK17QValueListPrivateI7QStringE2atEj$w$rmS0Uh4G8U6Ug9CW0
0001:0001c7e4* __ZN17QValueListPrivateI7QStringE6removeE18QValueListIteratorIS0_E$w$rmS0Uh4G8U6Ug9CW0
0001:0001c8c0  __ZN10QValueListI7QStringE14detachInternalEv$w$rmS0Uh4G8U6Ug9CW0
0001:0001c8f0  __ZN17QValueListPrivateI7QStringE6insertE18QValueListIteratorIS0_ERKS0_$w$rmS0Uh4G8U6Ug9CW0
0001:0001c97c* __ZN17QValueListPrivateI6PhraseE6insertE18QValueListIteratorIS0_ERKS0_$w$rmS0Uh4G8U6Ug9CW0
0001:0001c94c* __ZN10QValueListI6PhraseE14detachInternalEv$w$rmS0Uh4G8U6Ug9CW0
0001:0001c9f8* __ZNK17QValueListPrivateI7QStringE4findEP14QValueListNodeIS0_ERKS0_$w$rmS0Uh4G8U6Ug9CW0
0001:0001ca50* __ZN11QMapPrivateI21MetaTranslatorMessageiE5clearEP8QMapNodeIS0_iE$w$rmS0Uh4G8U6Ug9CW0
0001:0001cadc* __ZN17QValueListPrivateI21MetaTranslatorMessageEC1ERKS1_$w$rmS0Uh4G8U6Ug9CW0
0001:0001cb68  __ZN17QValueListPrivateI7QStringEC1ERKS1_$w$rmS0Uh4G8U6Ug9CW0
0001:0001cbfc* __ZN17QValueListPrivateI6PhraseEC1ERKS1_$w$rmS0Uh4G8U6Ug9CW0
0001:0001ccc0* __ZN17QValueListPrivateI21MetaTranslatorMessageE6insertE18QValueListIteratorIS0_ERKS0_$w$rmS0Uh4G8U6Ug9CW0
0001:0001d248* __ZNK5QDictI10ContextLVIE5countEv$w$rmS0Uh4G8U6Ug9CW0
0001:0001d07c* __ZN5QDictI10ContextLVIE5clearEv$w$rmS0Uh4G8U6Ug9CW0
0001:0001d054* __ZN5QDictI10ContextLVIED1Ev$w$rmS0Uh4G8U6Ug9CW0
0001:0001d088* __ZN5QDictI10ContextLVIED0Ev$w$rmS0Uh4G8U6Ug9CW0
0001:0001d254* __ZN5QDictI10ContextLVIE10deleteItemEPv$w$rmS0Uh4G8U6Ug9CW0
0001:0001cf3c* __ZNK7QAction10metaObjectEv$w$rmS0Uh4G8U6Ug9CW0
0001:0001cf48* __ZN6ActionD1Ev$w$rmS0Uh4G8U6Ug9CW0
0001:0001cf64* __ZN6ActionD0Ev$w$rmS0Uh4G8U6Ug9CW0
0001:0001cf20* __ZN7QBitmapD1Ev$w$rmS0Uh4G8U6Ug9CW0
0001:0001cef8* __ZN7QBitmapD0Ev$w$rmS0Uh4G8U6Ug9CW0
0001:0001d0b8* __ZNK8QPtrListI10PhraseBookE5countEv$w$rmS0Uh4G8U6Ug9CW0
0001:0001d018* __ZN8QPtrListI10PhraseBookE5clearEv$w$rmS0Uh4G8U6Ug9CW0
0001:0001cfb4* __ZN8QPtrListI10PhraseBookED1Ev$w$rmS0Uh4G8U6Ug9CW0
0001:0001d024* __ZN8QPtrListI10PhraseBookED0Ev$w$rmS0Uh4G8U6Ug9CW0
0001:0001d27c* __ZN8QPtrListI10PhraseBookE10deleteItemEPv$w$rmS0Uh4G8U6Ug9CW0
0001:0001d2c8* __ZNK5QDictI10PhraseBookE5countEv$w$rmS0Uh4G8U6Ug9CW0
0001:0001cfdc* __ZN5QDictI10PhraseBookE5clearEv$w$rmS0Uh4G8U6Ug9CW0
0001:0001cf8c* __ZN5QDictI10PhraseBookED1Ev$w$rmS0Uh4G8U6Ug9CW0
0001:0001cfe8* __ZN5QDictI10PhraseBookED0Ev$w$rmS0Uh4G8U6Ug9CW0
0001:0001d2d4* __ZN5QDictI10PhraseBookE10deleteItemEPv$w$rmS0Uh4G8U6Ug9CW0
0001:0001cec0* __ZTV6QGList$w$rmS0Uh4G8U6Ug9CW0
0001:0001ceec* __ZNK6QGList5countEv$w$rmS0Uh4G8U6Ug9CW0
Module: C:\200\trunk\tools\linguist\linguist\tmp\obj\release_mt_shared\listviews.obj(listviews.obj)
0001:0001d360* __ZN3LVIC2EP9QListView7QString
0001:0001d598* __ZN3LVIC1EP9QListView7QString
0001:0001d7d0* __ZN3LVIC2EP13QListViewItem7QString
0001:0001da08* __ZN3LVIC1EP13QListViewItem7QString
0001:0001dc44* __ZN3LVI16drawObsoleteTextEP8QPainterRK11QColorGroupiii
0001:0001e098* __ZNK3LVI7compareEP13QListViewItemib
0001:0001e39c* __ZN10MessageLVIC2EP9QListViewRK21MetaTranslatorMessageRK7QStringS7_P10ContextLVI
0001:0001e904  __ZN10MessageLVI11setFinishedEb
0001:0001e528  __ZN10MessageLVIC1EP9QListViewRK21MetaTranslatorMessageRK7QStringS7_P10ContextLVI
0001:0001e6b4  __ZN10MessageLVI21updateTranslationTextEv
0001:0001e738* __ZN10MessageLVI9paintCellEP8QPainterRK11QColorGroupiii
0001:0001e8f0  __ZN10MessageLVI14setTranslationERK7QString
0001:0001ee50* __ZN10ContextLVI24decrementUnfinishedCountEv
0001:0001ee34* __ZN10ContextLVI24incrementUnfinishedCountEv
0001:0001e968  __ZN10MessageLVI9setDangerEb
0001:0001ee6c* __ZN10ContextLVI20incrementDangerCountEv
0001:0001ee88* __ZN10ContextLVI20decrementDangerCountEv
0001:0001e9b8* __ZNK10MessageLVI7contextEv
0001:0001e9e0  __ZNK10MessageLVI7messageEv
0001:0001ea00* __ZN10ContextLVIC2EP9QListViewRK7QString
0001:0001eab0  __ZN10ContextLVIC1EP9QListViewRK7QString
0001:0001eb60  __ZN10ContextLVI22instantiateMessageItemEP9QListViewP10MessageLVI
0001:0001eb6c  __ZN10ContextLVI17appendMessageItemEP9QListViewP10MessageLVI
0001:0001eba4  __ZN10ContextLVI12updateStatusEv
0001:0001ec1c* __ZN10ContextLVI9paintCellEP8QPainterRK11QColorGroupiii
0001:0001eec0* __ZN10ContextLVI17isContextObsoleteEv
0001:0001edc4  __ZN10ContextLVI15appendToCommentERK7QString
0001:0001eea4  __ZN10ContextLVI22incrementObsoleteCountEv
0001:0001eed4  __ZNK10ContextLVI11fullContextEv
0002:000007f0* __ZN3LVI5countE
0001:0001f0c0* __ZTV3LVI$w$L8KCMo4G8U6GdqiN3
0001:0001f000* __ZTV10MessageLVI$w$L8KCMo4G8U6GdqiN3
0001:0001ef40* __ZTV10ContextLVI$w$L8KCMo4G8U6GdqiN3
0001:0001f180* __ZTV8QPtrListI10MessageLVIE$w$L8KCMo4G8U6GdqiN3
0001:0001f25c* __ZN10ContextLVID1Ev$w$L8KCMo4G8U6GdqiN3
0001:0001f2c0* __ZN10ContextLVID0Ev$w$L8KCMo4G8U6GdqiN3
0001:0001f1f8* __ZN13QListViewItem10removeItemEPS_$w$L8KCMo4G8U6GdqiN3
0001:0001f32c* __ZNK10ContextLVI6dangerEv$w$L8KCMo4G8U6GdqiN3
0001:0001f34c* __ZN10MessageLVID1Ev$w$L8KCMo4G8U6GdqiN3
0001:0001f3fc* __ZN10MessageLVID0Ev$w$L8KCMo4G8U6GdqiN3
0001:0001f4b4* __ZNK10MessageLVI6dangerEv$w$L8KCMo4G8U6GdqiN3
0001:0001f238* __ZN3LVID1Ev$w$L8KCMo4G8U6GdqiN3
0001:0001f210* __ZN3LVID0Ev$w$L8KCMo4G8U6GdqiN3
0001:0001f254* __ZNK3LVI6dangerEv$w$L8KCMo4G8U6GdqiN3
0001:0001f340* __ZNK8QPtrListI10MessageLVIE5countEv$w$L8KCMo4G8U6GdqiN3
0001:0001f4e8* __ZN8QPtrListI10MessageLVIE5clearEv$w$L8KCMo4G8U6GdqiN3
0001:0001f4c0* __ZN8QPtrListI10MessageLVIED1Ev$w$L8KCMo4G8U6GdqiN3
0001:0001f4f4* __ZN8QPtrListI10MessageLVIED0Ev$w$L8KCMo4G8U6GdqiN3
0001:0001f524* __ZN8QPtrListI10MessageLVIE10deleteItemEPv$w$L8KCMo4G8U6GdqiN3
0001:0001f1c0* __ZTV6QGList$w$L8KCMo4G8U6GdqiN3
0001:0001f1ec* __ZNK6QGList5countEv$w$L8KCMo4G8U6GdqiN3
Module: C:\200\trunk\tools\linguist\linguist\tmp\obj\release_mt_shared\metatranslator.obj(metatranslator.obj)
0001:0001f7b8* __ZN9TsHandler12startElementERK7QStringS2_S2_RK14QXmlAttributes
0001:0001fda8* __ZN9TsHandler10endElementERK7QStringS2_S2_
0001:000225e4* __ZN14MetaTranslator8setCodecEPKc
0001:00020bd8* __ZN21MetaTranslatorMessageC1EPKcS1_S1_RK7QStringbNS_4TypeE
0001:000221d0  __ZN14MetaTranslator6insertERK21MetaTranslatorMessage
0001:000203c0* __ZN9TsHandler10charactersERK7QString
0001:000204c8* __ZN9TsHandler10fatalErrorERK18QXmlParseException
0001:00020b08* __ZN21MetaTranslatorMessageC2Ev
0001:00020b2c  __ZN21MetaTranslatorMessageC1Ev
0001:00020b50* __ZN21MetaTranslatorMessageC2EPKcS1_S1_RK7QStringbNS_4TypeE
0001:00020c60* __ZN21MetaTranslatorMessageC2ERKS_
0001:00020c8c  __ZN21MetaTranslatorMessageC1ERKS_
0001:00020cb8* __ZN21MetaTranslatorMessageaSERKS_
0001:00020ce4* __ZNK21MetaTranslatorMessageeqERKS_
0001:00020d98* __ZNK21MetaTranslatorMessageltERKS_
0001:00020e54* __ZN14MetaTranslatorC2Ev
0001:00020f90  __ZN14MetaTranslator5clearEv
0001:00020e98  __ZN14MetaTranslatorC1Ev
0001:00020edc* __ZN14MetaTranslatorC2ERKS_
0001:00020f14* __ZN14MetaTranslatorC1ERKS_
0001:00020f4c* __ZN14MetaTranslatoraSERKS_
0001:00021080  __ZN14MetaTranslator4loadERK7QString
0001:000213a4  __ZNK14MetaTranslator4saveERK7QString
0001:00021d74  __ZNK14MetaTranslator7releaseERK7QStringbN11QTranslator8SaveModeE
0001:00022134* __ZNK14MetaTranslator8containsEPKcS1_S1_
0001:00022268* __ZN14MetaTranslator21stripObsoleteMessagesEv
0001:000223a8* __ZN14MetaTranslator18stripEmptyContextsEv
0001:00022650  __ZNK14MetaTranslator9toUnicodeEPKcb
0001:0002269c  __ZNK14MetaTranslator8messagesEv
0001:000227c8  __ZNK14MetaTranslator18translatedMessagesEv
0001:00020618* __ZThn4_N9TsHandler10fatalErrorERK18QXmlParseException$w$zSY8Wv4G8U6jmQvs2
0001:00022894* __ZN11QMapPrivateI21MetaTranslatorMessageiEC1Ev$w$zSY8Wv4G8U6jmQvs2
0001:0002291c* __ZN4QMapI21MetaTranslatorMessageiEaSERKS1_$w$zSY8Wv4G8U6jmQvs2
0001:000229d8* __ZN4QMapI21MetaTranslatorMessageiE5clearEv$w$zSY8Wv4G8U6jmQvs2
0001:000239e8* __ZN9TsHandlerC1EP14MetaTranslator$w$zSY8Wv4G8U6jmQvs2
0001:00022a88* __ZN11QMapPrivateIi21MetaTranslatorMessageEC1Ev$w$zSY8Wv4G8U6jmQvs2
0001:00022b10* __ZN17QMapConstIteratorI21MetaTranslatorMessageiE3incEv$w$zSY8Wv4G8U6jmQvs2
0001:00022b8c* __ZN12QMapIteratorIi21MetaTranslatorMessageE3incEv$w$zSY8Wv4G8U6jmQvs2
0001:00022ad4* __ZN11QMapPrivateIi21MetaTranslatorMessageE5clearEv$w$zSY8Wv4G8U6jmQvs2
0001:00022b5c* __ZN4QMapIi21MetaTranslatorMessageE14detachInternalEv$w$zSY8Wv4G8U6jmQvs2
0001:00022a1c* __ZN4QMapIi21MetaTranslatorMessageE6insertERKiRKS0_b$w$zSY8Wv4G8U6jmQvs2
0001:00022bd8* __ZNK11QMapPrivateI21MetaTranslatorMessageiE4findERKS0_$w$zSY8Wv4G8U6jmQvs2
0001:00022c8c* __ZN4QMapI21MetaTranslatorMessageiE6removeERKS0_$w$zSY8Wv4G8U6jmQvs2
0001:00022d88* __ZN4QMapI21MetaTranslatorMessageiE6insertERKS0_RKib$w$zSY8Wv4G8U6jmQvs2
0001:00022c5c* __ZN4QMapI21MetaTranslatorMessageiE14detachInternalEv$w$zSY8Wv4G8U6jmQvs2
0001:00022dec* __ZN12QMapIteratorI21MetaTranslatorMessageiE3incEv$w$zSY8Wv4G8U6jmQvs2
0001:000228e0* __ZN11QMapPrivateI21MetaTranslatorMessageiE5clearEv$w$zSY8Wv4G8U6jmQvs2
0001:00022e38* __ZN17QValueListPrivateI21MetaTranslatorMessageEC1Ev$w$zSY8Wv4G8U6jmQvs2
0001:00022e78* __ZN17QValueListPrivateI21MetaTranslatorMessageE6insertE18QValueListIteratorIS0_ERKS0_$w$zSY8Wv4G8U6jmQvs2
0001:00022ed4* __ZN10QValueListI21MetaTranslatorMessageE14detachInternalEv$w$zSY8Wv4G8U6jmQvs2
0001:00022f04* __ZN11QMapPrivateI21MetaTranslatorMessageiE5clearEP8QMapNodeIS0_iE$w$zSY8Wv4G8U6jmQvs2
0001:00022f90* __ZN11QMapPrivateIi21MetaTranslatorMessageE12insertSingleERKi$w$zSY8Wv4G8U6jmQvs2
0001:0002302c* __ZN11QMapPrivateIi21MetaTranslatorMessageE5clearEP8QMapNodeIiS0_E$w$zSY8Wv4G8U6jmQvs2
0001:000230b8* __ZN11QMapPrivateIi21MetaTranslatorMessageEC1EPKS1_$w$zSY8Wv4G8U6jmQvs2
0001:0002315c* __ZN11QMapPrivateI21MetaTranslatorMessageiEC1EPKS1_$w$zSY8Wv4G8U6jmQvs2
0001:00023200* __ZN11QMapPrivateI21MetaTranslatorMessageiE12insertSingleERKS0_$w$zSY8Wv4G8U6jmQvs2
0001:000232b4* __ZN17QValueListPrivateI21MetaTranslatorMessageEC1ERKS1_$w$zSY8Wv4G8U6jmQvs2
0001:00023340* __ZN11QMapPrivateIi21MetaTranslatorMessageE6insertEP12QMapNodeBaseS3_RKi$w$zSY8Wv4G8U6jmQvs2
0001:000233e0* __ZN12QMapIteratorIi21MetaTranslatorMessageE3decEv$w$zSY8Wv4G8U6jmQvs2
0001:00023438* __ZN11QMapPrivateIi21MetaTranslatorMessageE4copyEP8QMapNodeIiS0_E$w$zSY8Wv4G8U6jmQvs2
0001:000234d8* __ZN11QMapPrivateI21MetaTranslatorMessageiE4copyEP8QMapNodeIS0_iE$w$zSY8Wv4G8U6jmQvs2
0001:00023578* __ZN11QMapPrivateI21MetaTranslatorMessageiE6insertEP12QMapNodeBaseS3_RKS0_$w$zSY8Wv4G8U6jmQvs2
0001:00023644* __ZN12QMapIteratorI21MetaTranslatorMessageiE3decEv$w$zSY8Wv4G8U6jmQvs2
0001:000236a0* __ZTV9TsHandler$w$zSY8Wv4G8U6jmQvs2
0001:000237d8* __ZN9TsHandlerD1Ev$w$zSY8Wv4G8U6jmQvs2
0001:000238dc* __ZN9TsHandlerD0Ev$w$zSY8Wv4G8U6jmQvs2
0001:000237a0* __ZTV6QGList$w$zSY8Wv4G8U6jmQvs2
0001:000237cc* __ZNK6QGList5countEv$w$zSY8Wv4G8U6jmQvs2
Module: C:\200\trunk\tools\linguist\linguist\tmp\obj\release_mt_shared\about.obj(about.obj)
0001:00023b48* __ZN11AboutDialogC2EP7QWidgetPKcbj
0001:00024810  __ZN11AboutDialog14languageChangeEv
0001:0002493c  __ZN11AboutDialog4initEv
0001:00024014  __ZN11AboutDialogC1EP7QWidgetPKcbj
0001:000244e0* __ZN11AboutDialogD2Ev
0001:00024944  __ZN11AboutDialog7destroyEv
0001:00024510  __ZN11AboutDialogD1Ev
0001:00024548  __ZN11AboutDialogD0Ev
0001:00024540* __ZThn40_N11AboutDialogD1Ev$w$9tu4eB4G8U6hatd00
0001:0002457c* __ZThn40_N11AboutDialogD0Ev$w$9tu4eB4G8U6hatd00
0001:00024960* __ZTV6QGList$w$9tu4eB4G8U6hatd00
0001:0002498c* __ZNK6QGList5countEv$w$9tu4eB4G8U6hatd00
Module: C:\200\trunk\tools\linguist\linguist\tmp\obj\release_mt_shared\statistics.obj(statistics.obj)
0001:000249a0* __ZN10Statistics4initEv
0001:000249d0  __ZN10Statistics11updateStatsEiiiiii
0001:00024b94  __ZN10Statistics10closeEventEP11QCloseEvent
0001:00024c84* __ZN10StatisticsC2EP7QWidgetPKcbj
0001:000259a8  __ZN10Statistics14languageChangeEv
0001:000252b0  __ZN10StatisticsC1EP7QWidgetPKcbj
0001:000258dc* __ZN10StatisticsD2Ev
0001:00025900  __ZN10StatisticsD1Ev
0001:0002592c  __ZN10StatisticsD0Ev
0001:00025924* __ZThn40_N10StatisticsD1Ev$w$pZucxH4G8U6zzNJI0
0001:00025958* __ZThn40_N10StatisticsD0Ev$w$pZucxH4G8U6zzNJI0
0001:00025d60* __ZTV6QGList$w$pZucxH4G8U6zzNJI0
0001:00025d8c* __ZNK6QGList5countEv$w$pZucxH4G8U6zzNJI0
Module: C:\200\trunk\tools\linguist\linguist\tmp\obj\release_mt_shared\qmake_image_collection.obj(qmake_image_collection.obj)
0001:000261c4* __Z20qInitImages_linguistv
0001:00026214* __Z23qCleanupImages_linguistv
0001:000262f0* __ZTV9QMemArrayIcE$w$pjDV4N4G8U6ycWDp0
0001:00026280* __ZTV26MimeSourceFactory_linguist$w$pjDV4N4G8U6ycWDp0
0001:00026390* __ZN26MimeSourceFactory_linguistD1Ev$w$pjDV4N4G8U6ycWDp0
0001:000263ac* __ZN26MimeSourceFactory_linguistD0Ev$w$pjDV4N4G8U6ycWDp0
0001:000263d4* __ZNK26MimeSourceFactory_linguist4dataERK7QString$w$pjDV4N4G8U6ycWDp0
0001:000262c0* __ZTV6QGList$w$pjDV4N4G8U6ycWDp0
0001:0002635c* __ZNK6QGList5countEv$w$pjDV4N4G8U6ycWDp0
0001:00026340* __ZN9QMemArrayIcED1Ev$w$pjDV4N4G8U6ycWDp0
0001:00026368* __ZN9QMemArrayIcED0Ev$w$pjDV4N4G8U6ycWDp0
0001:00036cb8* __ZN9QMemArrayIcE6detachEv$w$pjDV4N4G8U6ycWDp0
Module: C:\200\trunk\tools\linguist\linguist\tmp\obj\release_mt_shared\moc_finddialog.obj(moc_finddialog.obj)
0001:00036d0c* __ZNK10FindDialog9classNameEv
0001:00036d18  __ZN10FindDialog2trEPKcS1_
0001:00036d58* __ZN10FindDialog6trUtf8EPKcS1_
0001:00036f84* __ZN10FindDialog16staticMetaObjectEv
0001:00036fe0* __ZN10FindDialog7qt_castEPKc
0001:00037038  __ZN10FindDialog8findNextERK7QStringib
0001:00037100  __ZN10FindDialog7replaceERK7QStringS2_bb
0001:000371f8* __ZN10FindDialog9qt_invokeEiP8QUObject
0001:00037264* __ZN10FindDialog7qt_emitEiP8QUObject
0001:000372d8* __ZN10FindDialog11qt_propertyEiiP8QVariant
0001:000372f4* __ZN10FindDialog18qt_static_propertyEP7QObjectiiP8QVariant
0002:00000820* __ZN10FindDialog7metaObjE
0001:00037300* __ZTV10FindDialog$w$vESYoR4G8U6n9uaV1
0001:0003760c* __ZNK10FindDialog10metaObjectEv$w$vESYoR4G8U6n9uaV1
0001:000375ac* __ZN10FindDialogD1Ev$w$vESYoR4G8U6n9uaV1
0001:000375d8* __ZN10FindDialogD0Ev$w$vESYoR4G8U6n9uaV1
0001:00037584* __ZN7QWidget9setWStateEj$w$vESYoR4G8U6n9uaV1
0001:00037598* __ZN7QWidget9setWFlagsEj$w$vESYoR4G8U6n9uaV1
0001:000375d0* __ZThn40_N10FindDialogD1Ev$w$vESYoR4G8U6n9uaV1
0001:00037604* __ZThn40_N10FindDialogD0Ev$w$vESYoR4G8U6n9uaV1
0001:00037500* __ZTV6QGList$w$vESYoR4G8U6n9uaV1
0001:00037578* __ZNK6QGList5countEv$w$vESYoR4G8U6n9uaV1
Module: C:\200\trunk\tools\linguist\linguist\tmp\obj\release_mt_shared\moc_msgedit.obj(moc_msgedit.obj)
0001:0003766c* __ZNK8PageCurl9classNameEv
0001:00037678  __ZN8PageCurl2trEPKcS1_
0001:000376b8* __ZN8PageCurl6trUtf8EPKcS1_
0001:00037758* __ZN8PageCurl16staticMetaObjectEv
0001:000377b4* __ZN8PageCurl7qt_castEPKc
0001:0003780c* __ZN8PageCurl8prevPageEv
0001:0003782c* __ZN8PageCurl8nextPageEv
0001:0003784c* __ZN8PageCurl9qt_invokeEiP8QUObject
0001:00037868* __ZN8PageCurl7qt_emitEiP8QUObject
0001:000378c0* __ZN8PageCurl11qt_propertyEiiP8QVariant
0001:000378dc* __ZN8PageCurl18qt_static_propertyEP7QObjectiiP8QVariant
0001:000378f0* __ZNK10EditorPage9classNameEv
0001:000378fc  __ZN10EditorPage2trEPKcS1_
0001:0003793c* __ZN10EditorPage6trUtf8EPKcS1_
0001:00037ac0* __ZN10EditorPage16staticMetaObjectEv
0001:00037b1c* __ZN10EditorPage7qt_castEPKc
0001:00037b74  __ZN10EditorPage17pageHeightUpdatedEi
0001:00037b94* __ZN10EditorPage9qt_invokeEiP8QUObject
0001:00037c00* __ZN10EditorPage7qt_emitEiP8QUObject
0001:00037c48* __ZN10EditorPage11qt_propertyEiiP8QVariant
0001:00037c64* __ZN10EditorPage18qt_static_propertyEP7QObjectiiP8QVariant
0001:00037c7c* __ZNK13MessageEditor9classNameEv
0001:00037c88  __ZN13MessageEditor2trEPKcS1_
0001:00037cc8* __ZN13MessageEditor6trUtf8EPKcS1_
0001:000384f0* __ZN13MessageEditor16staticMetaObjectEv
0001:0003854c* __ZN13MessageEditor7qt_castEPKc
0001:000385a4  __ZN13MessageEditor18translationChangedERK7QString
0001:000385f8  __ZN13MessageEditor8finishedEb
0001:00038620* __ZN13MessageEditor14prevUnfinishedEv
0001:00038644  __ZN13MessageEditor14nextUnfinishedEv
0001:00038668  __ZN13MessageEditor13updateActionsEb
0001:00038694* __ZN13MessageEditor13undoAvailableEb
0001:000386c0* __ZN13MessageEditor13redoAvailableEb
0001:000386ec  __ZN13MessageEditor12cutAvailableEb
0001:00038718  __ZN13MessageEditor13copyAvailableEb
0001:00038744  __ZN13MessageEditor14pasteAvailableEb
0001:00038770  __ZN13MessageEditor15focusSourceListEv
0001:00038794* __ZN13MessageEditor15focusPhraseListEv
0001:000387b8* __ZN13MessageEditor9qt_invokeEiP8QUObject
0001:00038938* __ZN13MessageEditor7qt_emitEiP8QUObject
0001:00038a6c* __ZN13MessageEditor11qt_propertyEiiP8QVariant
0001:00038a88* __ZN13MessageEditor18qt_static_propertyEP7QObjectiiP8QVariant
0002:00000840* __ZN8PageCurl7metaObjE
0002:00000844* __ZN10EditorPage7metaObjE
0002:00000848* __ZN13MessageEditor7metaObjE
0001:00038aa0* __ZTV13MessageEditor$w$P8RCAX4G8U6ZaYKT1
0001:00039410* __ZNK13MessageEditor10metaObjectEv$w$P8RCAX4G8U6ZaYKT1
0001:0003930c* __ZN13MessageEditorD1Ev$w$P8RCAX4G8U6ZaYKT1
0001:00039388* __ZN13MessageEditorD0Ev$w$P8RCAX4G8U6ZaYKT1
0001:000391a8* __ZN7QWidget11setGeometryERK5QRect$w$P8RCAX4G8U6ZaYKT1
0001:000391e0* __ZN7QWidget9setWStateEj$w$P8RCAX4G8U6ZaYKT1
0001:000391f4* __ZN7QWidget9setWFlagsEj$w$P8RCAX4G8U6ZaYKT1
0001:00039380* __ZThn40_N13MessageEditorD1Ev$w$P8RCAX4G8U6ZaYKT1
0001:00039404* __ZThn40_N13MessageEditorD0Ev$w$P8RCAX4G8U6ZaYKT1
0001:00038ca0* __ZTV10EditorPage$w$P8RCAX4G8U6ZaYKT1
0001:00039300* __ZNK10EditorPage10metaObjectEv$w$P8RCAX4G8U6ZaYKT1
0001:000392a0* __ZN10EditorPageD1Ev$w$P8RCAX4G8U6ZaYKT1
0001:000392cc* __ZN10EditorPageD0Ev$w$P8RCAX4G8U6ZaYKT1
0001:000392c4* __ZThn40_N10EditorPageD1Ev$w$P8RCAX4G8U6ZaYKT1
0001:000392f8* __ZThn40_N10EditorPageD0Ev$w$P8RCAX4G8U6ZaYKT1
0001:00038ec0* __ZTV8PageCurl$w$P8RCAX4G8U6ZaYKT1
0001:00039268* __ZNK8PageCurl10metaObjectEv$w$P8RCAX4G8U6ZaYKT1
0001:00039208* __ZN8PageCurlD1Ev$w$P8RCAX4G8U6ZaYKT1
0001:00039234* __ZN8PageCurlD0Ev$w$P8RCAX4G8U6ZaYKT1
0001:00039274* __ZN8PageCurl17mouseReleaseEventEP11QMouseEvent$w$P8RCAX4G8U6ZaYKT1
0001:0003922c* __ZThn40_N8PageCurlD1Ev$w$P8RCAX4G8U6ZaYKT1
0001:00039260* __ZThn40_N8PageCurlD0Ev$w$P8RCAX4G8U6ZaYKT1
0001:000390c0* __ZTV6QGList$w$P8RCAX4G8U6ZaYKT1
0001:0003919c* __ZNK6QGList5countEv$w$P8RCAX4G8U6ZaYKT1
0001:0003941c* __ZN17QValueListPrivateI7QStringED1Ev$w$P8RCAX4G8U6ZaYKT1
Module: C:\200\trunk\tools\linguist\linguist\tmp\obj\release_mt_shared\moc_phrasebookbox.obj(moc_phrasebookbox.obj)
0001:000394f0* __ZNK13PhraseBookBox9classNameEv
0001:000394fc  __ZN13PhraseBookBox2trEPKcS1_
0001:0003953c* __ZN13PhraseBookBox6trUtf8EPKcS1_
0001:000397b4* __ZN13PhraseBookBox16staticMetaObjectEv
0001:00039810* __ZN13PhraseBookBox7qt_castEPKc
0001:00039868* __ZN13PhraseBookBox9qt_invokeEiP8QUObject
0001:0003992c* __ZN13PhraseBookBox7qt_emitEiP8QUObject
0001:00039948* __ZN13PhraseBookBox11qt_propertyEiiP8QVariant
0001:00039964* __ZN13PhraseBookBox18qt_static_propertyEP7QObjectiiP8QVariant
0002:00000880* __ZN13PhraseBookBox7metaObjE
0001:00039980* __ZTV13PhraseBookBox$w$fCPd025G8U6rm1eg0
0001:00039d30* __ZNK13PhraseBookBox10metaObjectEv$w$fCPd025G8U6rm1eg0
0001:00039c2c* __ZN13PhraseBookBoxD1Ev$w$fCPd025G8U6rm1eg0
0001:00039ca8* __ZN13PhraseBookBoxD0Ev$w$fCPd025G8U6rm1eg0
0001:00039c04* __ZN7QWidget9setWStateEj$w$fCPd025G8U6rm1eg0
0001:00039c18* __ZN7QWidget9setWFlagsEj$w$fCPd025G8U6rm1eg0
0001:00039ca0* __ZThn40_N13PhraseBookBoxD1Ev$w$fCPd025G8U6rm1eg0
0001:00039d24* __ZThn40_N13PhraseBookBoxD0Ev$w$fCPd025G8U6rm1eg0
0001:00039b80* __ZTV6QGList$w$fCPd025G8U6rm1eg0
0001:00039bf8* __ZNK6QGList5countEv$w$fCPd025G8U6rm1eg0
0001:00039d3c* __ZN17QValueListPrivateI6PhraseED1Ev$w$fCPd025G8U6rm1eg0
Module: C:\200\trunk\tools\linguist\linguist\tmp\obj\release_mt_shared\moc_phraselv.obj(moc_phraselv.obj)
0001:00039eac* __ZNK8PhraseLV9classNameEv
0001:00039eb8  __ZN8PhraseLV2trEPKcS1_
0001:00039ef8* __ZN8PhraseLV6trUtf8EPKcS1_
0001:00039f38* __ZN8PhraseLV16staticMetaObjectEv
0001:00039f90* __ZN8PhraseLV7qt_castEPKc
0001:00039fe8* __ZN8PhraseLV9qt_invokeEiP8QUObject
0001:0003a004* __ZN8PhraseLV7qt_emitEiP8QUObject
0001:0003a020* __ZN8PhraseLV11qt_propertyEiiP8QVariant
0001:0003a03c* __ZN8PhraseLV18qt_static_propertyEP7QObjectiiP8QVariant
0002:000008a0* __ZN8PhraseLV7metaObjE
0001:0003a060* __ZTV8PhraseLV$w$foioI65G8U6pg0tI0
0001:0003a480* __ZNK8PhraseLV10metaObjectEv$w$foioI65G8U6pg0tI0
0001:0003a404* __ZN7QWidget11setGeometryERK5QRect$w$foioI65G8U6pg0tI0
0001:0003a43c* __ZN7QWidget9setWStateEj$w$foioI65G8U6pg0tI0
0001:0003a450* __ZN7QWidget9setWFlagsEj$w$foioI65G8U6pg0tI0
0001:0003a464* __ZN9QListView10removeItemEP13QListViewItem$w$foioI65G8U6pg0tI0
0001:0003a380* __ZTV6QGList$w$foioI65G8U6pg0tI0
0001:0003a3f8* __ZNK6QGList5countEv$w$foioI65G8U6pg0tI0
Module: C:\200\trunk\tools\linguist\linguist\tmp\obj\release_mt_shared\moc_trwindow.obj(moc_trwindow.obj)
0001:0003a4cc* __ZNK8TrWindow9classNameEv
0001:0003a4d8  __ZN8TrWindow2trEPKcS1_
0001:0003a518* __ZN8TrWindow6trUtf8EPKcS1_
0001:0003b030* __ZN8TrWindow16staticMetaObjectEv
0001:0003b08c* __ZN8TrWindow7qt_castEPKc
0001:0003b0e4  __ZN8TrWindow12statsChangedEiiiiii
0001:0003b1e4* __ZN8TrWindow9qt_invokeEiP8QUObject
0001:0003b524* __ZN8TrWindow7qt_emitEiP8QUObject
0001:0003b578* __ZN8TrWindow11qt_propertyEiiP8QVariant
0001:0003b594* __ZN8TrWindow18qt_static_propertyEP7QObjectiiP8QVariant
0002:000008c0* __ZN8TrWindow7metaObjE
0001:0003b5a0* __ZTV8TrWindow$w$fGjKHb5G8U6QTjJu4
0001:0003b8e4* __ZNK8TrWindow10metaObjectEv$w$fGjKHb5G8U6QTjJu4
0001:0003b884* __ZN7QWidget11setGeometryERK5QRect$w$fGjKHb5G8U6QTjJu4
0001:0003b8bc* __ZN7QWidget9setWStateEj$w$fGjKHb5G8U6QTjJu4
0001:0003b8d0* __ZN7QWidget9setWFlagsEj$w$fGjKHb5G8U6QTjJu4
0001:0003b800* __ZTV6QGList$w$fGjKHb5G8U6QTjJu4
0001:0003b878* __ZNK6QGList5countEv$w$fGjKHb5G8U6QTjJu4
Module: C:\200\trunk\tools\linguist\linguist\tmp\obj\release_mt_shared\moc_about.obj(moc_about.obj)
0001:0003b92c* __ZNK11AboutDialog9classNameEv
0001:0003b938  __ZN11AboutDialog2trEPKcS1_
0001:0003b978* __ZN11AboutDialog6trUtf8EPKcS1_
0001:0003ba44* __ZN11AboutDialog16staticMetaObjectEv
0001:0003baa0* __ZN11AboutDialog7qt_castEPKc
0001:0003baf8* __ZN11AboutDialog9qt_invokeEiP8QUObject
0001:0003bb6c* __ZN11AboutDialog7qt_emitEiP8QUObject
0001:0003bb88* __ZN11AboutDialog11qt_propertyEiiP8QVariant
0001:0003bba4* __ZN11AboutDialog18qt_static_propertyEP7QObjectiiP8QVariant
0002:000008e0* __ZN11AboutDialog7metaObjE
0001:0003bbc0* __ZTV11AboutDialog$w$vO5NEf5G8U6LIyHG2
0001:0003be8c* __ZNK11AboutDialog10metaObjectEv$w$vO5NEf5G8U6LIyHG2
0001:0003be64* __ZN7QWidget9setWStateEj$w$vO5NEf5G8U6LIyHG2
0001:0003be78* __ZN7QWidget9setWFlagsEj$w$vO5NEf5G8U6LIyHG2
0001:0003bde0* __ZTV6QGList$w$vO5NEf5G8U6LIyHG2
0001:0003be58* __ZNK6QGList5countEv$w$vO5NEf5G8U6LIyHG2
Module: C:\200\trunk\tools\linguist\linguist\tmp\obj\release_mt_shared\moc_statistics.obj(moc_statistics.obj)
0001:0003beec* __ZNK10Statistics9classNameEv
0001:0003bef8  __ZN10Statistics2trEPKcS1_
0001:0003bf38* __ZN10Statistics6trUtf8EPKcS1_
0001:0003c110* __ZN10Statistics16staticMetaObjectEv
0001:0003c16c* __ZN10Statistics7qt_castEPKc
0001:0003c1c4  __ZN10Statistics6closedEv
0001:0003c1e4* __ZN10Statistics9qt_invokeEiP8QUObject
0001:0003c274* __ZN10Statistics7qt_emitEiP8QUObject
0001:0003c2b4* __ZN10Statistics11qt_propertyEiiP8QVariant
0001:0003c2d0* __ZN10Statistics18qt_static_propertyEP7QObjectiiP8QVariant
0002:00000900* __ZN10Statistics7metaObjE
0001:0003c2e0* __ZTV10Statistics$w$lJNdDj5G8U697xxU3
0001:0003c58c* __ZNK10Statistics10metaObjectEv$w$lJNdDj5G8U697xxU3
0001:0003c564* __ZN7QWidget9setWStateEj$w$lJNdDj5G8U697xxU3
0001:0003c578* __ZN7QWidget9setWFlagsEj$w$lJNdDj5G8U697xxU3
0001:0003c4e0* __ZTV6QGList$w$lJNdDj5G8U697xxU3
0001:0003c558* __ZNK6QGList5countEv$w$lJNdDj5G8U697xxU3
Module: C:\usr\lib\libend.lib(src/libend/386/end.asm)
0001:0003e810* _etext
0001:0003e810* __etext
0000:00000000* WEAK$ZERO
0002:00000970  __end
0002:000007c0  __edata
Module: C:\usr\lib\gcc-lib\i386-pc-os2-emx\3.3.5\libgcc_so_d.lib(__main.obj)
0001:0003c5e0* ___do_global_dtors
0001:0003c5e6* ___do_global_ctors
0001:0003c5f6* ___POST$__do_global_ctors
0001:0003c5f8  ___main
0001:0003c602* ___POST$__main
Module: C:\200\trunk\lib\qassistantclient.lib(qassistantclient.obj)
0001:0003c78c* __ZN16QAssistantClientC2ERK7QStringP7QObjectPKc
0001:0003c994  __ZN16QAssistantClientC1ERK7QStringP7QObjectPKc
0001:0003cb9c* __ZN16QAssistantClientD2Ev
0001:0003cd24  __ZN16QAssistantClientD1Ev
0001:0003ceac  __ZN16QAssistantClientD0Ev
0001:0003d08c  __ZN16QAssistantClient13openAssistantEv
0001:0003d384  __ZN16QAssistantClient8readPortEv
0001:0003d444  __ZN16QAssistantClient14closeAssistantEv
0001:0003d478  __ZN16QAssistantClient8showPageERK7QString
0001:0003d4fc  __ZNK16QAssistantClient6isOpenEv
0001:0003d508  __ZN16QAssistantClient15socketConnectedEv
0001:0003d540  __ZN16QAssistantClient22socketConnectionClosedEv
0001:0003d5c8  __ZN16QAssistantClient11socketErrorEi
0001:0003d644  __ZN16QAssistantClient12readStdErrorEv
0001:0003d77c* __ZN16QAssistantClient12setArgumentsERK11QStringList
0001:0003d7cc  __ZN4QMapIPK16QAssistantClientP23QAssistantClientPrivateEixERKS2_$w$pJGsULvF8U6s2iX52
0001:0003d8e0* __ZN17QValueListPrivateI7QStringEC1Ev$w$pJGsULvF8U6s2iX52
0001:0003d840  __ZN4QMapIPK16QAssistantClientP23QAssistantClientPrivateE6insertERKS2_RKS4_b$w$pJGsULvF8U6s2iX52
0001:0003d8a4  __ZN11QMapPrivateIPK16QAssistantClientP23QAssistantClientPrivateEC1Ev$w$pJGsULvF8U6s2iX52
0001:0003d9bc  __ZN4QMapIPK16QAssistantClientP23QAssistantClientPrivateE6removeERKS2_$w$pJGsULvF8U6s2iX52
0001:0003da58  __ZN11QMapPrivateIPK16QAssistantClientP23QAssistantClientPrivateE5clearEv$w$pJGsULvF8U6s2iX52
0001:0003d92c* __ZN17QValueListPrivateI7QStringED1Ev$w$pJGsULvF8U6s2iX52
0001:0003da94* __ZN10QValueListI7QStringE14detachInternalEv$w$pJGsULvF8U6s2iX52
0001:0003dac4  __ZNK11QMapPrivateIPK16QAssistantClientP23QAssistantClientPrivateE4findERKS2_$w$pJGsULvF8U6s2iX52
0001:0003db14  __ZN4QMapIPK16QAssistantClientP23QAssistantClientPrivateE14detachInternalEv$w$pJGsULvF8U6s2iX52
0001:0003db44  __ZN11QMapPrivateIPK16QAssistantClientP23QAssistantClientPrivateE12insertSingleERKS2_$w$pJGsULvF8U6s2iX52
0001:0003dbe0  __ZN11QMapPrivateIPK16QAssistantClientP23QAssistantClientPrivateE5clearEP8QMapNodeIS2_S4_E$w$pJGsULvF8U6s2iX52
0001:0003dc1c* __ZN17QValueListPrivateI7QStringEC1ERKS1_$w$pJGsULvF8U6s2iX52
0001:0003dcb0  __ZN11QMapPrivateIPK16QAssistantClientP23QAssistantClientPrivateEC1EPKS5_$w$pJGsULvF8U6s2iX52
0001:0003dd48  __ZN11QMapPrivateIPK16QAssistantClientP23QAssistantClientPrivateE6insertEP12QMapNodeBaseS7_RKS2_$w$pJGsULvF8U6s2iX52
0001:0003dddc  __ZN12QMapIteratorIPK16QAssistantClientP23QAssistantClientPrivateE3decEv$w$pJGsULvF8U6s2iX52
0001:0003df08* __ZN17QValueListPrivateI7QStringE6insertE18QValueListIteratorIS0_ERKS0_$w$pJGsULvF8U6s2iX52
0001:0003de34  __ZN11QMapPrivateIPK16QAssistantClientP23QAssistantClientPrivateE4copyEP8QMapNodeIS2_S4_E$w$pJGsULvF8U6s2iX52
0001:0003ded0* __ZTV6QGList$w$pJGsULvF8U6s2iX52
0001:0003defc* __ZNK6QGList5countEv$w$pJGsULvF8U6s2iX52
Module: C:\200\trunk\lib\qassistantclient.lib(moc_qassistantclient.obj)
0001:0003df84* __ZNK16QAssistantClient9classNameEv
0001:0003df90  __ZN16QAssistantClient2trEPKcS1_
0001:0003dfd0* __ZN16QAssistantClient6trUtf8EPKcS1_
0001:0003e2f8* __ZN16QAssistantClient16staticMetaObjectEv
0001:0003e358* __ZN16QAssistantClient7qt_castEPKc
0001:0003e3b0  __ZN16QAssistantClient15assistantOpenedEv
0001:0003e3d0  __ZN16QAssistantClient15assistantClosedEv
0001:0003e3f0  __ZN16QAssistantClient5errorERK7QString
0001:0003e448* __ZN16QAssistantClient9qt_invokeEiP8QUObject
0001:0003e514* __ZN16QAssistantClient7qt_emitEiP8QUObject
0001:0003e584* __ZN16QAssistantClient11qt_propertyEiiP8QVariant
0001:0003e604* __ZN16QAssistantClient18qt_static_propertyEP7QObjectiiP8QVariant
0002:00000940* __ZN16QAssistantClient7metaObjE
0001:0003e610  __ZTV16QAssistantClient$w$PG6S2QvF8U6O05Yh2
0001:0003e714  __ZNK16QAssistantClient10metaObjectEv$w$PG6S2QvF8U6O05Yh2
0001:0003e690* __ZTV6QGList$w$PG6S2QvF8U6O05Yh2
0001:0003e708* __ZNK6QGList5countEv$w$PG6S2QvF8U6O05Yh2
Module: C:\usr\lib\gcc-lib\i386-pc-os2-emx\3.3.5\libgcc_so_d.lib(emx-ctordtor.obj)
0001:0003e750  ___ctordtorInit
0001:0003e75a* ___POST$__ctordtorInit
0001:0003e77e  ___ctordtorTerm
0001:0003e788* ___POST$__ctordtorTerm


                        +----------------------+
                        |   Imported Symbols   |
                        +----------------------+

Symbol                              Module
======                              ======

___init_app                         libc064
__CRT_init                          libc064
__ZN7QDialogC2EP7QWidgetPKcbj       myqt
__Znwj                              libc064
__ZN9QLineEditC1EP7QWidgetPKc       myqt
__ZN6QLabelC1EP7QWidgetRK7QStringS1_PKcj myqt
__ZN7QString11shared_nullE          myqt
__ZN11QStringData10deleteSelfEv     myqt
__ZN11QPushButtonC1ERK7QStringP7QWidgetPKc myqt
__ZN7QObject7connectEPKS_PKcS1_S3_  myqt
__ZN11QVBoxLayoutC1EiPKc            myqt
__ZN10QBoxLayout9addWidgetEP7QWidgetii myqt
__ZN9QCheckBoxC1ERK7QStringP7QWidgetPKc myqt
__ZN10QWhatsThis3addEP7QWidgetRK7QString myqt
__ZN7QWidget11setTabOrderEPS_S0_    myqt
__ZN11QGridLayoutC1EP7QWidgetiiiiPKc myqt
__ZN11QGridLayout9addWidgetEP7QWidgetiii myqt
__ZN11QGridLayout18addMultiCellWidgetEP7QWidgetiiiii myqt
__ZN11QGridLayout12addMultiCellEP11QLayoutItemiiiii myqt
__ZN10QBoxLayout10addStretchEi      myqt
__ZN7QDialog6resizeEii              myqt
__ZN7QWidget16setMaximumHeightEi    myqt
__ZN11QGridLayout13addColSpacingEii myqt
__ZNK9QLineEdit4textEv              myqt
__ZN6QGList5clearEv                 myqt
__ZN6QGListD1Ev                     myqt
__ZN6QGListD0Ev                     myqt
__ZN14QPtrCollection7newItemEPv     myqt
___cxa_pure_virtual                 libc064
__ZN6QGList12compareItemsEPvS0_     myqt
__ZN6QGList4readER11QDataStreamRPv  myqt
__ZNK6QGList5writeER11QDataStreamPv myqt
__alloca                            libc064
__ZN12QApplicationC1ERiPPc          myqt
__ZN2Qt10waitCursorE                myqt
__ZN12QApplication17setOverrideCursorERK7QCursorb myqt
__ZN11QTranslatorC1EP7QObjectPKc    myqt
__ZN7QStringC1EPKc                  myqt
__ZN10QTextCodec6localeEv           myqt
__ZN7QStringC1ERKS_                 myqt
__ZN7QString9fromAsciiEPKci         myqt
__ZN7QStringpLERKS_                 myqt
__ZN7QString4nullE                  myqt
__ZN11QTranslator4loadERK7QStringS2_S2_S2_ myqt
__ZN12QApplication17installTranslatorEP11QTranslator myqt
__ZN7QPixmap14fromMimeSourceERK7QString myqt
__ZN13QSplashScreenC1ERK7QPixmapj   myqt
__ZN7QPixmapD1Ev                    myqt
__ZN12QApplication13setMainWidgetEP7QWidget myqt
__ZN7QString6numberEii              myqt
__ZN9QSettingsC1Ev                  myqt
__ZN9QSettings16insertSearchPathENS_6SystemERK7QString myqt
__ZN9QSettings13readBoolEntryERK7QStringbPb myqt
__ZN13QSplashScreen6finishEP7QWidget myqt
__ZN12QApplication21restoreOverrideCursorEv myqt
__ZN12QApplication4execEv           myqt
__ZN9QSettingsD1Ev                  myqt
__ZN11QTranslatorD1Ev               myqt
__ZN12QApplicationD1Ev              myqt
__ZN5QChar4nullE                    myqt
__ZN7QStringpLE5QChar               myqt
__ZN7QStringpLEc                    myqt
__ZN7QString14makeSharedNullEv      myqt
__ZN7QWidgetC2EPS_PKcj              myqt
__ZN7QWidget8reparentEPS_RK6QPointb myqt
__ZN8QPainterC1Ev                   myqt
__ZN8QPainter5beginEPK12QPaintDeviceb myqt
__ZN7QWidget10paintEventEP11QPaintEvent myqt
__ZN8QPainterD1Ev                   myqt
__ZNK7QWidget10colorGroupEv         myqt
__ZN8QPainter6setPenERK6QColor      myqt
__ZN8QPainter9drawPointEii          myqt
__ZN8QPainter8drawLineEiiii         myqt
__ZN8QPainter3endEv                 myqt
__ZN6QFrameC2EP7QWidgetPKcj         myqt
__ZN6QFrame12setLineWidthEi         myqt
__ZN6QFrame13setFrameStyleEi        myqt
__ZN8QPaletteC1ERKS_                myqt
__ZN2Qt5whiteE                      myqt
__ZN6QColorC1ERKS_                  myqt
__ZN8QPalette8setColorENS_10ColorGroupEN11QColorGroup9ColorRoleERK6QColor myqt
__ZNK11QColorGroup5colorENS_9ColorRoleE myqt
__ZN7QWidget10setPaletteERK8QPalette myqt
__ZN6QLabelC1ERK7QStringP7QWidgetPKcj myqt
__ZN5QFontC1ERKS_                   myqt
__ZN5QFont9setWeightEi              myqt
__ZN9QTextViewC1EP7QWidgetPKc       myqt
__ZN8QPaletteaSERKS_                myqt
__ZN6QColor6setRgbEiii              myqt
__ZN9QTextEditC2EP7QWidgetPKc       myqt
__ZN7QWidget14setFocusPolicyENS_11FocusPolicyE myqt
__ZN7QWidget13setFocusProxyEPS_     myqt
__ZN5QFontD1Ev                      myqt
__ZN8QPaletteD1Ev                   myqt
__ZNK9QTextEdit4textEv              myqt
__ZN12QFontMetricsC1ERK5QFont       myqt
__ZNK12QFontMetrics5widthERK7QStringi myqt
__ZNK7QWidget1yEv                   myqt
__ZN12QFontMetricsD1Ev              myqt
__ZNK11QScrollView14contentsHeightEv myqt
__ZN7QWidget6updateEv               myqt
__ZN11QVBoxLayoutC1EP7QWidgetiiPKc  myqt
__ZN9QDockAreaC1EN2Qt11OrientationENS_14HandlePositionEP7QWidgetPKc myqt
__ZN7QWidget16setMinimumHeightEi    myqt
__ZN11QDockWindowC1ENS_5PlaceEP7QWidgetPKcj myqt
__ZNK7QWidget14topLevelWidgetEv     myqt
__ZN9QListViewC1EP7QWidgetPKcj      myqt
__ZNK9QListView6headerEv            myqt
__ZN7QObject18installEventFilterEPKS_ myqt
__ZN11QScrollViewC1EP7QWidgetPKcj   myqt
__ZNK11QScrollView8viewportEv       myqt
__ZN7QWidgetC1EPS_PKcj              myqt
__ZN11QHBoxLayoutC1EP7QWidgetiiPKc  myqt
__ZN10QBoxLayout9addLayoutEP7QLayouti myqt
__ZN6QAccelC1EP7QWidgetPKc          myqt
__ZN12QKeySequenceC1Ei              myqt
__ZN6QAccel10insertItemERK12QKeySequencei myqt
__ZN12QKeySequenceD1Ev              myqt
__ZN12QApplication9clipboardEv      myqt
__ZN7QObject11eventFilterEPS_P6QEvent myqt
__ZNK11QTextCursor1yEv              myqt
__ZNK7QWidget1xEv                   myqt
__ZNK11QTextCursor1xEv              myqt
__ZN11QScrollView13ensureVisibleEii myqt
__ZNK11QScrollView17verticalScrollBarEv myqt
__ZN13QRangeControl12subtractLineEv myqt
__ZN13QRangeControl7addPageEv       myqt
__ZN13QRangeControl12subtractPageEv myqt
__ZN13QRangeControl7addLineEv       myqt
__ZN7QStringaSERKS_                 myqt
__ZNK7QString18simplifyWhiteSpaceEv myqt
__ZNK7QString6latin1Ev              myqt
__ZNK12QKeySequencecv7QStringEv     myqt
__ZNK7QString3argERKS_i             myqt
__ZdlPv                             libc064
__ZN7QObject12blockSignalsEb        myqt
__ZNK9QListView10firstChildEv       myqt
__ZN9QTextEdit6insertERK7QStringj   myqt
__ZNK7QString15stripWhiteSpaceEv    myqt
__ZNK7QWidget8hasFocusEv            myqt
__ZNK10QClipboard4textEv            myqt
__ZN9QTextEdit16staticMetaObjectEv  myqt
__Z14qt_inheritedByP11QMetaObjectPK7QObject myqt
__ZN9QListView16staticMetaObjectEv  myqt
__ZNK7QWidget9classNameEv           myqt
__ZN7QWidget7qt_castEPKc            myqt
__ZN7QWidget9qt_invokeEiP8QUObject  myqt
__ZN7QWidget7qt_emitEiP8QUObject    myqt
__ZN7QWidget11qt_propertyEiiP8QVariant myqt
__ZN7QWidget5eventEP6QEvent         myqt
__ZN7QWidget7setNameEPKc            myqt
__ZN7QObject11insertChildEPS_       myqt
__ZN7QObject11removeChildEPS_       myqt
__ZN7QObject11setPropertyEPKcRK8QVariant myqt
__ZNK7QObject8propertyEPKc          myqt
__ZN7QObject10timerEventEP11QTimerEvent myqt
__ZN7QObject10childEventEP11QChildEvent myqt
__ZN7QObject11customEventEP12QCustomEvent myqt
__ZN7QObject13connectNotifyEPKc     myqt
__ZN7QObject16disconnectNotifyEPKc  myqt
__ZN7QObject16checkConnectArgsEPKcPKS_S1_ myqt
__ZN7QWidget10setEnabledEb          myqt
__ZN7QWidget14setMinimumSizeEii     myqt
__ZN7QWidget14setMaximumSizeEii     myqt
__ZN7QWidget16setSizeIncrementEii   myqt
__ZN7QWidget17setBackgroundModeEN2Qt14BackgroundModeE myqt
__ZN7QWidget13setEraseColorERK6QColor myqt
__ZN7QWidget14setErasePixmapERK7QPixmap myqt
__ZN7QWidget25setPaletteBackgroundColorERK6QColor myqt
__ZN7QWidget26setPaletteBackgroundPixmapERK7QPixmap myqt
__ZN7QWidget7setFontERK5QFont       myqt
__ZN7QWidget9setCursorERK7QCursor   myqt
__ZN7QWidget11unsetCursorEv         myqt
__ZN7QWidget7setMaskERK7QBitmap     myqt
__ZN7QWidget7setMaskERK7QRegion     myqt
__ZN7QWidget18setBackgroundColorERK6QColor myqt
__ZN7QWidget19setBackgroundPixmapERK7QPixmap myqt
__ZN7QWidget10setCaptionERK7QString myqt
__ZN7QWidget7setIconERK7QPixmap     myqt
__ZN7QWidget11setIconTextERK7QString myqt
__ZN7QWidget16setMouseTrackingEb    myqt
__ZN7QWidget8setFocusEv             myqt
__ZN7QWidget15setActiveWindowEv     myqt
__ZN7QWidget17setUpdatesEnabledEb   myqt
__ZN7QWidget4showEv                 myqt
__ZN7QWidget4hideEv                 myqt
__ZN7QWidget13showMinimizedEv       myqt
__ZN7QWidget13showMaximizedEv       myqt
__ZN7QWidget10showNormalEv          myqt
__ZN7QWidget6polishEv               myqt
__ZN7QWidget4moveEii                myqt
__ZN7QWidget6resizeEii              myqt
__ZN7QWidget11setGeometryEiiii      myqt
__ZN7QWidget5closeEb                myqt
__ZNK7QWidget8sizeHintEv            myqt
__ZNK7QWidget15minimumSizeHintEv    myqt
__ZNK7QWidget10sizePolicyEv         myqt
__ZN7QWidget13setSizePolicyE11QSizePolicy myqt
__ZNK7QWidget14heightForWidthEi     myqt
__ZN7QWidget10adjustSizeEv          myqt
__ZN7QWidget8reparentEPS_jRK6QPointb myqt
__ZN7QWidget14setAcceptDropsEb      myqt
__ZN7QWidget11setAutoMaskEb         myqt
__ZN7QWidget19setBackgroundOriginENS_16BackgroundOriginE myqt
__ZNK7QWidget15customWhatsThisEv    myqt
__ZN7QWidget15mousePressEventEP11QMouseEvent myqt
__ZN7QWidget17mouseReleaseEventEP11QMouseEvent myqt
__ZN7QWidget21mouseDoubleClickEventEP11QMouseEvent myqt
__ZN7QWidget14mouseMoveEventEP11QMouseEvent myqt
__ZN7QWidget10wheelEventEP11QWheelEvent myqt
__ZN7QWidget13keyPressEventEP9QKeyEvent myqt
__ZN7QWidget15keyReleaseEventEP9QKeyEvent myqt
__ZN7QWidget12focusInEventEP11QFocusEvent myqt
__ZN7QWidget13focusOutEventEP11QFocusEvent myqt
__ZN7QWidget10enterEventEP6QEvent   myqt
__ZN7QWidget10leaveEventEP6QEvent   myqt
__ZN7QWidget9moveEventEP10QMoveEvent myqt
__ZN7QWidget10closeEventEP11QCloseEvent myqt
__ZN7QWidget16contextMenuEventEP17QContextMenuEvent myqt
__ZN7QWidget12imStartEventEP8QIMEvent myqt
__ZN7QWidget14imComposeEventEP8QIMEvent myqt
__ZN7QWidget10imEndEventEP8QIMEvent myqt
__ZN7QWidget11tabletEventEP12QTabletEvent myqt
__ZN7QWidget14dragEnterEventEP15QDragEnterEvent myqt
__ZN7QWidget13dragMoveEventEP14QDragMoveEvent myqt
__ZN7QWidget14dragLeaveEventEP15QDragLeaveEvent myqt
__ZN7QWidget9dropEventEP10QDropEvent myqt
__ZN7QWidget9showEventEP10QShowEvent myqt
__ZN7QWidget9hideEventEP10QHideEvent myqt
__ZN7QWidget7pmEventEP5_QMSG        myqt
__ZN7QWidget10updateMaskEv          myqt
__ZN7QWidget11styleChangeER6QStyle  myqt
__ZN7QWidget13enabledChangeEb       myqt
__ZN7QWidget13paletteChangeERK8QPalette myqt
__ZN7QWidget10fontChangeERK5QFont   myqt
__ZN7QWidget22windowActivationChangeEb myqt
__ZNK7QWidget6metricEi              myqt
__ZN7QWidget6createEmbb             myqt
__ZN7QWidget7destroyEbb             myqt
__ZN7QWidget18focusNextPrevChildEb  myqt
__ZN7QWidget17setKeyCompressionEb   myqt
__ZN7QWidget17setMicroFocusHintEiiiibP5QFont myqt
__ZN12QPaintDevice13setResolutionEi myqt
__ZNK12QPaintDevice10resolutionEv   myqt
__ZNK12QPaintDevice6handleEv        myqt
__ZN12QPaintDevice3cmdEiP8QPainterP13QPDevCmdParam myqt
__ZThn40_NK7QWidget6metricEi        myqt
__ZNK12QPaintDevice7fontMetEP5QFontiPKci myqt
__ZNK12QPaintDevice7fontInfEP5QFonti myqt
__ZNK9QTextEdit9classNameEv         myqt
__ZN9QTextEdit7qt_castEPKc          myqt
__ZN9QTextEdit9qt_invokeEiP8QUObject myqt
__ZN9QTextEdit7qt_emitEiP8QUObject  myqt
__ZN9QTextEdit11qt_propertyEiiP8QVariant myqt
__ZN9QTextEdit5eventEP6QEvent       myqt
__ZN9QTextEdit11eventFilterEP7QObjectP6QEvent myqt
__ZN11QScrollView11removeChildEP7QObject myqt
__ZN9QTextEdit10setEnabledEb        myqt
__ZN9QTextEdit10setPaletteERK8QPalette myqt
__ZN9QTextEdit7setFontERK5QFont     myqt
__ZN11QScrollView4showEv            myqt
__ZN9QTextEdit6polishEv             myqt
__ZN11QScrollView6resizeEii         myqt
__ZNK9QTextEdit8sizeHintEv          myqt
__ZNK11QScrollView15minimumSizeHintEv myqt
__ZNK9QTextEdit14heightForWidthEi   myqt
__ZN11QScrollView15mousePressEventEP11QMouseEvent myqt
__ZN11QScrollView17mouseReleaseEventEP11QMouseEvent myqt
__ZN11QScrollView21mouseDoubleClickEventEP11QMouseEvent myqt
__ZN11QScrollView14mouseMoveEventEP11QMouseEvent myqt
__ZN11QScrollView10wheelEventEP11QWheelEvent myqt
__ZN9QTextEdit13keyPressEventEP9QKeyEvent myqt
__ZN6QFrame10paintEventEP11QPaintEvent myqt
__ZN9QTextEdit11resizeEventEP12QResizeEvent myqt
__ZN11QScrollView16contextMenuEventEP17QContextMenuEvent myqt
__ZN9QTextEdit12imStartEventEP8QIMEvent myqt
__ZN9QTextEdit14imComposeEventEP8QIMEvent myqt
__ZN9QTextEdit10imEndEventEP8QIMEvent myqt
__ZN11QScrollView11styleChangeER6QStyle myqt
__ZN11QScrollView10fontChangeERK5QFont myqt
__ZN9QTextEdit22windowActivationChangeEb myqt
__ZN9QTextEdit18focusNextPrevChildEb myqt
__ZN6QFrame9setMarginEi             myqt
__ZN6QFrame15setMidLineWidthEi      myqt
__ZN6QFrame12setFrameRectERK5QRect  myqt
__ZN6QFrame9drawFrameEP8QPainter    myqt
__ZN9QTextEdit12drawContentsEP8QPainter myqt
__ZN11QScrollView12frameChangedEv   myqt
__ZN11QScrollView15setResizePolicyENS_12ResizePolicyE myqt
__ZN11QScrollView8addChildEP7QWidgetii myqt
__ZN11QScrollView9moveChildEP7QWidgetii myqt
__ZN11QScrollView17setVScrollBarModeENS_13ScrollBarModeE myqt
__ZN11QScrollView17setHScrollBarModeENS_13ScrollBarModeE myqt
__ZN11QScrollView15setCornerWidgetEP7QWidget myqt
__ZN11QScrollView17setDragAutoScrollEb myqt
__ZN11QScrollView14resizeContentsEii myqt
__ZN11QScrollView14setContentsPosEii myqt
__ZN9QTextEdit12drawContentsEP8QPainteriiii myqt
__ZN11QScrollView18drawContentsOffsetEP8QPainteriiiiii myqt
__ZN9QTextEdit23contentsMousePressEventEP11QMouseEvent myqt
__ZN9QTextEdit25contentsMouseReleaseEventEP11QMouseEvent myqt
__ZN9QTextEdit29contentsMouseDoubleClickEventEP11QMouseEvent myqt
__ZN9QTextEdit22contentsMouseMoveEventEP11QMouseEvent myqt
__ZN9QTextEdit22contentsDragEnterEventEP15QDragEnterEvent myqt
__ZN9QTextEdit21contentsDragMoveEventEP14QDragMoveEvent myqt
__ZN9QTextEdit22contentsDragLeaveEventEP15QDragLeaveEvent myqt
__ZN9QTextEdit17contentsDropEventEP10QDropEvent myqt
__ZN9QTextEdit18contentsWheelEventEP11QWheelEvent myqt
__ZN9QTextEdit24contentsContextMenuEventEP17QContextMenuEvent myqt
__ZN11QScrollView18viewportPaintEventEP11QPaintEvent myqt
__ZN9QTextEdit19viewportResizeEventEP12QResizeEvent myqt
__ZN11QScrollView23viewportMousePressEventEP11QMouseEvent myqt
__ZN11QScrollView25viewportMouseReleaseEventEP11QMouseEvent myqt
__ZN11QScrollView29viewportMouseDoubleClickEventEP11QMouseEvent myqt
__ZN11QScrollView22viewportMouseMoveEventEP11QMouseEvent myqt
__ZN11QScrollView22viewportDragEnterEventEP15QDragEnterEvent myqt
__ZN11QScrollView21viewportDragMoveEventEP14QDragMoveEvent myqt
__ZN11QScrollView22viewportDragLeaveEventEP15QDragLeaveEvent myqt
__ZN11QScrollView17viewportDropEventEP10QDropEvent myqt
__ZN11QScrollView18viewportWheelEventEP11QWheelEvent myqt
__ZN11QScrollView24viewportContextMenuEventEP17QContextMenuEvent myqt
__ZN11QScrollView10setMarginsEiiii  myqt
__ZN11QScrollView15setHBarGeometryER10QScrollBariiii myqt
__ZN11QScrollView15setVBarGeometryER10QScrollBariiii myqt
__ZN9QTextEdit4findERK7QStringbbbPiS3_ myqt
__ZN9QTextEdit9getFormatEiiP5QFontP6QColorPNS_17VerticalAlignmentE myqt
__ZN9QTextEdit18getParagraphFormatEiP5QFontP6QColorPNS_17VerticalAlignmentEPiPN15QStyleSheetItem11DisplayModeEPNS7_9ListStyleES6_ myqt
__ZN9QTextEdit20setMimeSourceFactoryEP18QMimeSourceFactory myqt
__ZN9QTextEdit13setStyleSheetEP11QStyleSheet myqt
__ZN9QTextEdit14scrollToAnchorERK7QString myqt
__ZN9QTextEdit8setPaperERK6QBrush   myqt
__ZN9QTextEdit16setLinkUnderlineEb  myqt
__ZN9QTextEdit11setWordWrapENS_8WordWrapE myqt
__ZN9QTextEdit20setWrapColumnOrWidthEi myqt
__ZN9QTextEdit13setWrapPolicyENS_10WrapPolicyE myqt
__ZN9QTextEdit4copyEv               myqt
__ZN9QTextEdit6appendERK7QString    myqt
__ZN9QTextEdit7setTextERK7QStringS2_ myqt
__ZN9QTextEdit13setTextFormatEN2Qt10TextFormatE myqt
__ZN9QTextEdit9selectAllEb          myqt
__ZN9QTextEdit15setTabStopWidthEi   myqt
__ZN9QTextEdit6zoomInEi             myqt
__ZN9QTextEdit7zoomOutEi            myqt
__ZN9QTextEdit6zoomToEi             myqt
__ZN9QTextEdit4syncEv               myqt
__ZN9QTextEdit11setReadOnlyEb       myqt
__ZN9QTextEdit4undoEv               myqt
__ZN9QTextEdit4redoEv               myqt
__ZN9QTextEdit3cutEv                myqt
__ZN9QTextEdit5pasteEv              myqt
__ZN9QTextEdit12pasteSubTypeERK8QCString myqt
__ZN9QTextEdit5clearEv              myqt
__ZN9QTextEdit3delEv                myqt
__ZN9QTextEdit6indentEv             myqt
__ZN9QTextEdit9setItalicEb          myqt
__ZN9QTextEdit7setBoldEb            myqt
__ZN9QTextEdit12setUnderlineEb      myqt
__ZN9QTextEdit9setFamilyERK7QString myqt
__ZN9QTextEdit12setPointSizeEi      myqt
__ZN9QTextEdit8setColorERK6QColor   myqt
__ZN9QTextEdit20setVerticalAlignmentENS_17VerticalAlignmentE myqt
__ZN9QTextEdit12setAlignmentEi      myqt
__ZN9QTextEdit12setParagTypeEN15QStyleSheetItem11DisplayModeENS0_9ListStyleE myqt
__ZN9QTextEdit17setCursorPositionEii myqt
__ZN9QTextEdit12setSelectionEiiiii  myqt
__ZN9QTextEdit22setSelectionAttributesEiRK6QColorb myqt
__ZN9QTextEdit11setModifiedEb       myqt
__ZN9QTextEdit11resetFormatEv       myqt
__ZN9QTextEdit12setUndoDepthEi      myqt
__ZN9QTextEdit9setFormatEP11QTextFormati myqt
__ZN9QTextEdit19ensureCursorVisibleEv myqt
__ZN9QTextEdit11placeCursorERK6QPointP11QTextCursor myqt
__ZN9QTextEdit10moveCursorENS_12CursorActionEb myqt
__ZN9QTextEdit16doKeyboardActionENS_14KeyboardActionE myqt
__ZN9QTextEdit18removeSelectedTextEi myqt
__ZN9QTextEdit15removeSelectionEi   myqt
__ZN9QTextEdit14scrollToBottomEv    myqt
__ZN9QTextEdit6insertERK7QStringbbb myqt
__ZN9QTextEdit8insertAtERK7QStringii myqt
__ZN9QTextEdit15removeParagraphEi   myqt
__ZN9QTextEdit15insertParagraphERK7QStringi myqt
__ZN9QTextEdit27setParagraphBackgroundColorEiRK6QColor myqt
__ZN9QTextEdit24clearParagraphBackgroundEi myqt
__ZN9QTextEdit18setUndoRedoEnabledEb myqt
__ZN9QTextEdit15createPopupMenuERK6QPoint myqt
__ZN9QTextEdit15createPopupMenuEv   myqt
__ZN9QTextEdit16doChangeIntervalEv  myqt
__ZN7QWidget16staticMetaObjectEv    myqt
__ZN7QWidget12setFixedSizeERK5QSize myqt
__ZN8QToolTip3addEP7QWidgetRK5QRectRK7QString myqt
__ZN5QRect7setSizeERK5QSize         myqt
__ZN7QWidgetD2Ev                    myqt
__ZN9QTextEdit15setFontInternalERK5QFont myqt
__ZN6QGListD2Ev                     myqt
__ZN9QTextEditD2Ev                  myqt
__ZN7QString7replaceERKS_S1_        myqt
__ZeqRK7QStringS1_                  myqt
__ZN7QString8truncateEj             myqt
__ZNK18QXmlParseException7messageEv myqt
__ZNK18QXmlParseException12columnNumberEv myqt
__ZNK18QXmlParseException10lineNumberEv myqt
__ZN7QString7sprintfEPKcz           myqt
__ZN7QObject2trEPKcS1_              myqt
__ZN12QApplication11main_widgetE    myqt
__ZN11QMessageBox11informationEP7QWidgetRK7QStringS4_S4_S4_S4_ii myqt
__ZN5QFileC1ERK7QString             myqt
__ZN5QFile4openEi                   myqt
__ZN5QFileD1Ev                      myqt
__ZN11QTextStreamC1EP9QIODevice     myqt
__ZN15QXmlInputSourceC1ER11QTextStream myqt
__ZN16QXmlSimpleReaderC1Ev          myqt
__ZN16QXmlSimpleReader10setFeatureERK7QStringb myqt
__ZN16QXmlSimpleReader17setContentHandlerEP18QXmlContentHandler myqt
__ZN16QXmlSimpleReader15setErrorHandlerEP16QXmlErrorHandler myqt
__ZN16QXmlSimpleReader5parseERK15QXmlInputSource myqt
__ZN5QFile5closeEv                  myqt
__ZN16QXmlSimpleReaderD1Ev          myqt
__ZN15QXmlInputSourceD1Ev           myqt
__ZN11QTextStreamD1Ev               myqt
__ZN11QTextStream11setEncodingENS_8EncodingE myqt
__ZN11QTextStreamlsEPKc             myqt
__ZN11QTextStreamlsERK7QString      myqt
__ZN18QXmlDefaultHandler18setDocumentLocatorEP11QXmlLocator myqt
__ZN18QXmlDefaultHandler13startDocumentEv myqt
__ZN18QXmlDefaultHandler11endDocumentEv myqt
__ZN18QXmlDefaultHandler18startPrefixMappingERK7QStringS2_ myqt
__ZN18QXmlDefaultHandler16endPrefixMappingERK7QString myqt
__ZN18QXmlDefaultHandler19ignorableWhitespaceERK7QString myqt
__ZN18QXmlDefaultHandler21processingInstructionERK7QStringS2_ myqt
__ZN18QXmlDefaultHandler13skippedEntityERK7QString myqt
__ZN18QXmlDefaultHandler11errorStringEv myqt
__ZN18QXmlDefaultHandler7warningERK18QXmlParseException myqt
__ZN18QXmlDefaultHandler5errorERK18QXmlParseException myqt
__ZN18QXmlDefaultHandler12notationDeclERK7QStringS2_S2_ myqt
__ZN18QXmlDefaultHandler18unparsedEntityDeclERK7QStringS2_S2_S2_ myqt
__ZN18QXmlDefaultHandler13resolveEntityERK7QStringS2_RP15QXmlInputSource myqt
__ZN18QXmlDefaultHandler8startDTDERK7QStringS2_S2_ myqt
__ZN18QXmlDefaultHandler6endDTDEv   myqt
__ZN18QXmlDefaultHandler11startEntityERK7QString myqt
__ZN18QXmlDefaultHandler9endEntityERK7QString myqt
__ZN18QXmlDefaultHandler10startCDATAEv myqt
__ZN18QXmlDefaultHandler8endCDATAEv myqt
__ZN18QXmlDefaultHandler7commentERK7QString myqt
__ZN18QXmlDefaultHandler13attributeDeclERK7QStringS2_S2_S2_S2_ myqt
__ZN18QXmlDefaultHandler18internalEntityDeclERK7QStringS2_ myqt
__ZN18QXmlDefaultHandler18externalEntityDeclERK7QStringS2_S2_ myqt
__ZThn4_N18QXmlDefaultHandler7warningERK18QXmlParseException myqt
__ZThn4_N18QXmlDefaultHandler5errorERK18QXmlParseException myqt
__ZThn4_N18QXmlDefaultHandler11errorStringEv myqt
__ZThn8_N18QXmlDefaultHandler12notationDeclERK7QStringS2_S2_ myqt
__ZThn8_N18QXmlDefaultHandler18unparsedEntityDeclERK7QStringS2_S2_S2_ myqt
__ZThn8_N18QXmlDefaultHandler11errorStringEv myqt
__ZThn12_N18QXmlDefaultHandler13resolveEntityERK7QStringS2_RP15QXmlInputSource myqt
__ZThn12_N18QXmlDefaultHandler11errorStringEv myqt
__ZThn16_N18QXmlDefaultHandler8startDTDERK7QStringS2_S2_ myqt
__ZThn16_N18QXmlDefaultHandler6endDTDEv myqt
__ZThn16_N18QXmlDefaultHandler11startEntityERK7QString myqt
__ZThn16_N18QXmlDefaultHandler9endEntityERK7QString myqt
__ZThn16_N18QXmlDefaultHandler10startCDATAEv myqt
__ZThn16_N18QXmlDefaultHandler8endCDATAEv myqt
__ZThn16_N18QXmlDefaultHandler7commentERK7QString myqt
__ZThn16_N18QXmlDefaultHandler11errorStringEv myqt
__ZThn20_N18QXmlDefaultHandler13attributeDeclERK7QStringS2_S2_S2_S2_ myqt
__ZThn20_N18QXmlDefaultHandler18internalEntityDeclERK7QStringS2_ myqt
__ZThn20_N18QXmlDefaultHandler18externalEntityDeclERK7QStringS2_S2_ myqt
__ZThn20_N18QXmlDefaultHandler11errorStringEv myqt
__ZTV18QXmlDefaultHandler           myqt
__ZN7QDialog13keyPressEventEP9QKeyEvent myqt
_qApp                               myqt
__ZNK9QListView11currentItemEv      myqt
__ZN13QListViewItem9itemBelowEv     myqt
__ZN13QListViewItem9itemAboveEv     myqt
__ZN11QMessageBox7warningEP7QWidgetRK7QStringS4_S4_S4_S4_ii myqt
__ZneRK7QStringS1_                  myqt
__ZN9QListView17ensureItemVisibleEPK13QListViewItem myqt
__ZN6QEventD2Ev                     myqt
__ZN10QWhatsThisC2EP7QWidget        myqt
__ZNK9QListView6itemAtERK6QPoint    myqt
__ZNK9QListView10columnTextEi       myqt
__ZN13QListViewItemC2EP9QListView   myqt
__ZN13QListViewItem7setTextEiRK7QString myqt
__ZNK5QChar5lowerEv                 myqt
__ZN9QListViewC2EP7QWidgetPKcj      myqt
__ZN9QListView22setAllColumnsShowFocusEb myqt
__ZN9QListView20setShowSortIndicatorEb myqt
__ZN9QListView9addColumnERK7QStringi myqt
__ZN9QListView13setColumnTextEiRK7QString myqt
__ZN9QListViewD2Ev                  myqt
__ZNK9QListView8sizeHintEv          myqt
__ZN13QListViewItem10insertItemEPS_ myqt
__ZN13QListViewItem8takeItemEPS_    myqt
__ZN13QListViewItem16invalidateHeightEv myqt
__ZNK13QListViewItem5widthERK12QFontMetricsPK9QListViewi myqt
__ZNK13QListViewItem4textEi         myqt
__ZN13QListViewItem9setPixmapEiRK7QPixmap myqt
__ZNK13QListViewItem6pixmapEi       myqt
__ZNK13QListViewItem7compareEPS_ib  myqt
__ZN13QListViewItem14sortChildItemsEib myqt
__ZN13QListViewItem7setOpenEb       myqt
__ZN13QListViewItem5setupEv         myqt
__ZN13QListViewItem11setSelectedEb  myqt
__ZN13QListViewItem9paintCellEP8QPainterRK11QColorGroupiii myqt
__ZN13QListViewItem13paintBranchesEP8QPainterRK11QColorGroupiii myqt
__ZN13QListViewItem10paintFocusEP8QPainterRK11QColorGroupRK5QRect myqt
__ZN13QListViewItem13setSelectableEb myqt
__ZN13QListViewItem13setExpandableEb myqt
__ZN13QListViewItem4sortEv          myqt
__ZN13QListViewItem14setDragEnabledEb myqt
__ZN13QListViewItem14setDropEnabledEb myqt
__ZNK13QListViewItem10acceptDropEPK11QMimeSource myqt
__ZN13QListViewItem16setRenameEnabledEib myqt
__ZN13QListViewItem11startRenameEi  myqt
__ZN13QListViewItem10setEnabledEb   myqt
__ZNK13QListViewItem4rttiEv         myqt
__ZN13QListViewItem20setMultiLinesEnabledEb myqt
__ZNK13QListViewItem16enforceSortOrderEv myqt
__ZN13QListViewItem9setHeightEi     myqt
__ZN13QListViewItem8activateEv      myqt
__ZN13QListViewItem7droppedEP10QDropEvent myqt
__ZN13QListViewItem11dragEnteredEv  myqt
__ZN13QListViewItem8dragLeftEv      myqt
__ZN13QListViewItem8okRenameEi      myqt
__ZN13QListViewItem12cancelRenameEi myqt
__ZN10QWhatsThis7clickedERK7QString myqt
__ZN13QListViewItemD2Ev             myqt
__ZN10QWhatsThisD2Ev                myqt
__ZN8QCStringD1Ev                   myqt
__Z8qWarningPKcz                    myqt
__ZNK7QString5rightEj               myqt
__ZNK7QString8endsWithERKS_         myqt
__ZN7QActionC2EP7QObjectPKcb        myqt
__ZN7QAction11setMenuTextERK7QString myqt
__ZN7QAction8setAccelERK12QKeySequence myqt
__ZN7QAction5addToEP7QWidget        myqt
__ZN8QIconSetC1ERK7QPixmapNS_4SizeE myqt
__ZneRK7QStringPKc                  myqt
__ZN7QAction10setIconSetERK8QIconSet myqt
__ZN8QIconSetD1Ev                   myqt
__ZN8QIconSet9setPixmapERK7QPixmapNS_4SizeENS_4ModeENS_5StateE myqt
__ZN7QAction12setWhatsThisERK7QString myqt
__ZN7QPixmapC1Ev                    myqt
__ZN7QPixmapaSERKS_                 myqt
__ZN7QBitmapC1EiiPKhb               myqt
__ZN7QPixmap7setMaskERK7QBitmap     myqt
__ZN7QPixmapD2Ev                    myqt
__ZN11QMainWindowC2EP7QWidgetPKcj   myqt
__ZN6QGDictC2EjNS_7KeyTypeEbb       myqt
__ZN6QGListC2Ev                     myqt
__ZN11QMainWindow13addDockWindowEP11QDockWindowRK7QStringN2Qt4DockEb myqt
__ZN11QMainWindow16setCentralWidgetEP7QWidget myqt
__ZNK11QMainWindow9statusBarEv      myqt
__ZN6QLabelC1EP7QWidgetPKcj         myqt
__ZN12QApplication7desktopEv        myqt
__ZN6QGDict5clearEv                 myqt
__ZN6QGDictD2Ev                     myqt
__ZN11QMainWindowD2Ev               myqt
__ZN10QStatusBar7messageERK7QString myqt
__ZN12QApplication13processEventsEv myqt
__ZN7QWidget7repaintEb              myqt
__ZN6QGDict11look_stringERK7QStringPvi myqt
__ZN8QCStringC1EPKc                 myqt
__ZN9QListView13triggerUpdateEv     myqt
__ZNK7QString3argExii               myqt
__ZN10QStatusBar7messageERK7QStringi myqt
__ZNK9QListView10childCountEv       myqt
__ZN10QStatusBar5clearEv            myqt
__ZN11QFileDialog15getOpenFileNameERK7QStringS2_P7QWidgetPKcS2_PS0_b myqt
__ZN11QFileDialog15getSaveFileNameERK7QStringS2_P7QWidgetPKcS2_PS0_b myqt
__ZN7QRegExpC1ERK7QStringbb         myqt
__ZN7QString7replaceERK7QRegExpRKS_ myqt
__ZN7QRegExpD1Ev                    myqt
__ZN7QWidget5raiseEv                myqt
__ZN12QApplication4beepEv           myqt
__ZNK7QString4findERKS_ib           myqt
__ZN5QFile6existsERK7QString        myqt
__Z16qInstallPathDatav              myqt
__ZN6QGList6locateEj                myqt
__ZNK9QMenuData7indexOfEi           myqt
__ZN6QGList8removeAtEj              myqt
__ZNK9QMenuData4idAtEi              myqt
__ZN9QMenuData10removeItemEi        myqt
__ZN7QDialog4execEv                 myqt
__ZN7QDialogD2Ev                    myqt
__Z16qInstallPathBinsv              myqt
__Z16qInstallPathDocsv              myqt
__ZN11QMessageBox7aboutQtEP7QWidgetRK7QString myqt
__ZN9QMenuData14setItemEnabledEib   myqt
__ZN11QMessageBox11informationEP7QWidgetRK7QStringS4_iii myqt
__ZN6QGList6takeAtEj                myqt
__ZNK7QAction9isEnabledEv           myqt
__ZNK7QString5lowerEv               myqt
__ZNK11QMainWindow7menuBarEv        myqt
__ZN10QPopupMenuC1EP7QWidgetPKc     myqt
__ZN9QMenuData10insertItemERK7QStringP10QPopupMenuii myqt
__ZN9QMenuData15insertSeparatorEi   myqt
__ZN6QAccel11stringToKeyERK7QString myqt
__ZNK12QKeySequencecviEv            myqt
__ZN7QActionC1EP7QObjectPKc         myqt
__ZNK11QMainWindow20createDockWindowMenuENS_11DockWindowsE myqt
__ZNK7QAction9whatsThisEv           myqt
__ZN8QToolBarC1ERK7QStringP11QMainWindowN2Qt4DockEbPKc myqt
__ZN8QToolBar12addSeparatorEv       myqt
__ZN9QFileInfoC1ERK7QString         myqt
__ZNK9QFileInfo8fileNameEv          myqt
__ZN9QFileInfoD1Ev                  myqt
__ZN6QGList6appendEPv               myqt
__ZN9QMenuData10insertItemERK7QStringii myqt
__ZN9QMenuData12setWhatsThisEiRK7QString myqt
__ZNK7QString8containsEPKcb         myqt
__ZN7QStringpLEPKc                  myqt
__ZN14QGListIteratorC2ERK6QGList    myqt
__ZN11QStringList5splitERK5QCharRK7QStringb myqt
__ZN14QGListIteratorppEv            myqt
__ZN14QGListIteratorD2Ev            myqt
__ZNK7QAction4isOnEv                myqt
__ZN6QAccel11shortcutKeyERK7QString myqt
__ZNK7QWidget3posEv                 myqt
__ZN5QRectC1ERK6QPointRK5QSize      myqt
__ZN9QSettings13readListEntryERK7QStringPb myqt
__ZN9QSettings12readNumEntryERK7QStringiPb myqt
__ZN5QRect8setWidthEi               myqt
__ZN5QRect9setHeightEi              myqt
__ZN12QApplication16sendPostedEventsEv myqt
__ZNK5QRect9intersectERKS_          myqt
__ZN9QSettings10writeEntryERK7QStringRK11QStringList myqt
__ZNK7QWidget11isMaximizedEv        myqt
__ZN9QSettings10writeEntryERK7QStringb myqt
__ZN9QSettings10writeEntryERK7QStringi myqt
__ZN9QMenuData5clearEv              myqt
__ZN6QGList5firstEv                 myqt
__ZN6QGList4nextEv                  myqt
__ZNK5QChar16isLetterOrNumberEv     myqt
__ZNK5QChar7isSpaceEv               myqt
__ZN6QGDict4readER11QDataStreamRPv  myqt
__ZNK6QGDict5writeER11QDataStreamPv myqt
__ZNK7QAction9classNameEv           myqt
__ZN7QAction7qt_castEPKc            myqt
__ZN7QAction9qt_invokeEiP8QUObject  myqt
__ZN7QAction7qt_emitEiP8QUObject    myqt
__ZN7QAction11qt_propertyEiiP8QVariant myqt
__ZN7QObject5eventEP6QEvent         myqt
__ZN7QObject7setNameEPKc            myqt
__ZN7QAction7setTextERK7QString     myqt
__ZN7QAction10setToolTipERK7QString myqt
__ZN7QAction12setStatusTipERK7QString myqt
__ZN7QAction15setToggleActionEb     myqt
__ZN7QAction10removeFromEP7QWidget  myqt
__ZN7QAction7addedToEP7QWidgetS1_   myqt
__ZN7QAction7addedToEiP10QPopupMenu myqt
__ZN7QAction5setOnEb                myqt
__ZN7QAction10setEnabledEb          myqt
__ZNK7QPixmap6metricEi              myqt
__ZN7QPixmap6detachEv               myqt
__ZN7QAction16staticMetaObjectEv    myqt
__ZN7QActionD2Ev                    myqt
__ZN13QListViewItemC2EP9QListView7QStringS2_S2_S2_S2_S2_S2_S2_ myqt
__ZN13QListViewItemC2EPS_7QStringS1_S1_S1_S1_S1_S1_S1_ myqt
__ZNK13QListViewItem8listViewEv     myqt
__ZNK9QListView10itemMarginEv       myqt
__ZNK11QColorGroup5brushENS_9ColorRoleE myqt
__ZNK13QListViewItem6heightEv       myqt
__ZN8QPainter8fillRectEiiiiRK6QBrush myqt
__ZNK9QListView19allColumnsShowFocusEv myqt
__ZNK8QPainter11fontMetricsEv       myqt
__ZN8QPainter8drawTextERK5QRectiRK7QStringiPS0_PP10QTextParag myqt
__ZN7QStringaSEPKc                  myqt
__ZN7QString6removeEjj              myqt
__ZNK7QString4leftEj                myqt
__ZNK7QString8containsE5QCharb      myqt
__ZNK7QString18localeAwareCompareERKS_ myqt
__ZN8QPainter10drawPixmapEiiRK7QPixmapiiii myqt
__ZNK13QListViewItem7repaintEv      myqt
__ZNK13QListViewItem3keyEib         myqt
__ZNK14QXmlAttributes6lengthEv      myqt
__ZNK14QXmlAttributes5qNameEi       myqt
__ZNK14QXmlAttributes5valueEi       myqt
__ZNK7QString10startsWithERKS_      myqt
__ZNK7QString6toUIntEPbi            myqt
__ZNK7QString3midEjj                myqt
__ZNK7QString5asciiEv               myqt
__ZNK7QString4utf8Ev                myqt
___stderrp                          libc064
__ZN7QGArray9msg_indexEj            myqt
__ZN18QTranslatorMessageC2Ev        myqt
__ZN18QTranslatorMessageC2EPKcS1_S1_RK7QString myqt
__ZN18QTranslatorMessageC2ERKS_     myqt
__ZN18QTranslatorMessageaSERKS_     myqt
__ZN7QGArrayC2Ev                    myqt
__ZTV8QCString                      myqt
__ZN7QGArrayC2ERKS_                 myqt
__ZN7QGArray6assignERKS_            myqt
__ZN7QGArray9duplicateEPKcj         myqt
__ZN10QTextCodec12codecForNameEPKci myqt
__ZN11QTextStream8setCodecEP10QTextCodec myqt
__ZN11QTextStreamlsERK8QCString     myqt
__ZN11QTranslator4saveERK7QStringNS_8SaveModeE myqt
__ZN11QTranslator6insertERK18QTranslatorMessage myqt
__ZNK11QTranslator11findMessageEPKcS1_S1_ myqt
__ZN18QTranslatorMessageC1EPKcS1_S1_RK7QString myqt
__ZNK10QTextCodec9toUnicodeEPKc     myqt
__ZN7QString8fromUtf8EPKci          myqt
__Znaj                              libc064
__ZdaPv                             libc064
__ZN15QMapPrivateBase18removeAndRebalanceEP12QMapNodeBaseRS1_S2_S2_ myqt
__ZN15QMapPrivateBase9rebalanceEP12QMapNodeBaseRS1_ myqt
__ZN6QLabel17setScaledContentsEb    myqt
__ZTV11QSpacerItem                  myqt
__ZN11QPushButtonC1EP7QWidgetPKc    myqt
__ZNK7QDialog15minimumSizeHintEv    myqt
__ZN7QDialog6resizeERK5QSize        myqt
__ZN7QWidget14setFixedHeightEi      myqt
__ZN7QDialog10closeEventEP11QCloseEvent myqt
__ZN11QGridLayout9addLayoutEP7QLayoutii myqt
__ZN6QFrameC1EP7QWidgetPKcj         myqt
__ZN6QImageC1Ev                     myqt
__Z11qUncompressPKhi                myqt
__ZN7QGArrayD2Ev                    myqt
__ZN6QImageC1EPhiiiPjiNS_6EndianE   myqt
__ZNK6QImage4copyEv                 myqt
__ZN6QImageaSERKS_                  myqt
__ZN6QImageD1Ev                     myqt
__ZN6QImageC1ERKS_                  myqt
__ZN6QImage14setAlphaBufferEb       myqt
__ZN18QMimeSourceFactoryC2Ev        myqt
__ZN18QMimeSourceFactory14defaultFactoryEv myqt
__ZN18QMimeSourceFactory10addFactoryEPS_ myqt
__ZN18QMimeSourceFactory13removeFactoryEPS_ myqt
__ZNK18QMimeSourceFactory12makeAbsoluteERK7QStringS2_ myqt
__ZN18QMimeSourceFactory7setTextERK7QStringS2_ myqt
__ZN18QMimeSourceFactory8setImageERK7QStringRK6QImage myqt
__ZN18QMimeSourceFactory9setPixmapERK7QStringRK7QPixmap myqt
__ZN18QMimeSourceFactory7setDataERK7QStringP11QMimeSource myqt
__ZN18QMimeSourceFactory11setFilePathERK11QStringList myqt
__ZNK18QMimeSourceFactory8filePathEv myqt
__ZN18QMimeSourceFactory16setExtensionTypeERK7QStringPKc myqt
__ZN7QGArray7newDataEv              myqt
__ZN7QGArray10deleteDataEPNS_10array_dataE myqt
__ZN18QMimeSourceFactoryD2Ev        myqt
__ZNK18QMimeSourceFactory4dataERK7QString myqt
__ZN7QGArray9duplicateERKS_         myqt
__ZNK12QApplication9translateEPKcS1_S1_NS_8EncodingE myqt
__ZN7QString10fromLatin1EPKci       myqt
_static_QUType_QString              myqt
_static_QUType_int                  myqt
_static_QUType_bool                 myqt
__ZN7QDialog16staticMetaObjectEv    myqt
__ZN11QMetaObject14new_metaobjectEPKcPS_PK9QMetaDataiS5_iPK13QMetaPropertyiPK9QMetaEnumiPK10QClassInfoi myqt
__ZN18QMetaObjectCleanUp13setMetaObjectERP11QMetaObject myqt
__ZN7QDialog7qt_castEPKc            myqt
__ZNK7QObject9receiversEi           myqt
_static_QUType_Null                 myqt
__ZN14QUType_QString3setEP8QUObjectRK7QString myqt
__ZN10QUType_int3setEP8QUObjecti    myqt
__ZN11QUType_bool3setEP8QUObjectb   myqt
__ZN7QObject15activate_signalEP15QConnectionListP8QUObject myqt
__ZN7QDialog9qt_invokeEiP8QUObject  myqt
__ZN7QDialog7qt_emitEiP8QUObject    myqt
__ZN7QDialog11qt_propertyEiiP8QVariant myqt
__ZN7QDialog11eventFilterEP7QObjectP6QEvent myqt
__ZN7QDialog4showEv                 myqt
__ZN7QDialog4hideEv                 myqt
__ZN7QDialog4moveEii                myqt
__ZN7QDialog11setGeometryEiiii      myqt
__ZN7QDialog11setGeometryERK5QRect  myqt
__ZNK7QDialog8sizeHintEv            myqt
__ZN7QDialog11resizeEventEP12QResizeEvent myqt
__ZN7QDialog16contextMenuEventEP17QContextMenuEvent myqt
__ZN7QDialog4doneEi                 myqt
__ZN7QDialog6acceptEv               myqt
__ZN7QDialog6rejectEv               myqt
__ZN18QMetaObjectCleanUpD1Ev        myqt
__ZN18QMetaObjectCleanUpC1EPKcPFP11QMetaObjectvE myqt
__ZN7QObject15activate_signalEi     myqt
__ZN6QFrame16staticMetaObjectEv     myqt
__ZN6QFrame7qt_castEPKc             myqt
__ZN7QObject15activate_signalEii    myqt
__ZN6QFrame9qt_invokeEiP8QUObject   myqt
__ZN6QFrame7qt_emitEiP8QUObject     myqt
__ZN6QFrame11qt_propertyEiiP8QVariant myqt
_static_QUType_ptr                  myqt
__ZN7QObject15activate_signalEi7QString myqt
__ZN7QObject20activate_signal_boolEib myqt
__ZNK6QFrame8sizeHintEv             myqt
__ZN6QFrame11styleChangeER6QStyle   myqt
__ZN6QFrame12drawContentsEP8QPainter myqt
__ZN6QFrame12frameChangedEv         myqt
__ZN7QWidget11resizeEventEP12QResizeEvent myqt
__ZTV6QFrame                        myqt
__ZN9QListView7qt_castEPKc          myqt
__ZN9QListView9qt_invokeEiP8QUObject myqt
__ZN9QListView7qt_emitEiP8QUObject  myqt
__ZN9QListView11qt_propertyEiiP8QVariant myqt
__ZN9QListView11eventFilterEP7QObjectP6QEvent myqt
__ZN11QScrollView10setEnabledEb     myqt
__ZN9QListView10setPaletteERK8QPalette myqt
__ZN9QListView7setFontERK5QFont     myqt
__ZN9QListView4showEv               myqt
__ZNK9QListView15minimumSizeHintEv  myqt
__ZN9QListView13keyPressEventEP9QKeyEvent myqt
__ZN9QListView12focusInEventEP11QFocusEvent myqt
__ZN9QListView13focusOutEventEP11QFocusEvent myqt
__ZN9QListView11resizeEventEP12QResizeEvent myqt
__ZN9QListView9showEventEP10QShowEvent myqt
__ZN9QListView11styleChangeER6QStyle myqt
__ZN9QListView22windowActivationChangeEb myqt
__ZN11QScrollView18focusNextPrevChildEb myqt
__ZN11QScrollView12drawContentsEP8QPainter myqt
__ZN9QListView14setContentsPosEii   myqt
__ZN11QScrollView12drawContentsEP8QPainteriiii myqt
__ZN9QListView18drawContentsOffsetEP8QPainteriiiiii myqt
__ZN9QListView23contentsMousePressEventEP11QMouseEvent myqt
__ZN9QListView25contentsMouseReleaseEventEP11QMouseEvent myqt
__ZN9QListView29contentsMouseDoubleClickEventEP11QMouseEvent myqt
__ZN9QListView22contentsMouseMoveEventEP11QMouseEvent myqt
__ZN9QListView22contentsDragEnterEventEP15QDragEnterEvent myqt
__ZN9QListView21contentsDragMoveEventEP14QDragMoveEvent myqt
__ZN9QListView22contentsDragLeaveEventEP15QDragLeaveEvent myqt
__ZN9QListView17contentsDropEventEP10QDropEvent myqt
__ZN11QScrollView18contentsWheelEventEP11QWheelEvent myqt
__ZN9QListView24contentsContextMenuEventEP17QContextMenuEvent myqt
__ZN9QListView19viewportResizeEventEP12QResizeEvent myqt
__ZN9QListView15setTreeStepSizeEi   myqt
__ZN9QListView10insertItemEP13QListViewItem myqt
__ZN9QListView8takeItemEP13QListViewItem myqt
__ZN9QListView9addColumnERK8QIconSetRK7QStringi myqt
__ZN9QListView12removeColumnEi      myqt
__ZN9QListView13setColumnTextEiRK8QIconSetRK7QString myqt
__ZN9QListView14setColumnWidthEii   myqt
__ZN9QListView18setColumnWidthModeEiNS_9WidthModeE myqt
__ZN9QListView18setColumnAlignmentEii myqt
__ZN9QListView17setMultiSelectionEb myqt
__ZN9QListView14clearSelectionEv    myqt
__ZN9QListView11setSelectedEP13QListViewItemb myqt
__ZN9QListView7setOpenEP13QListViewItemb myqt
__ZN9QListView14setCurrentItemEP13QListViewItem myqt
__ZN9QListView13setItemMarginEi     myqt
__ZN9QListView18setRootIsDecoratedEb myqt
__ZN9QListView10setSortingEib       myqt
__ZN9QListView4sortEv               myqt
__ZN9QListView15setShowToolTipsEb   myqt
__ZN9QListView13setResizeModeENS_10ResizeModeE myqt
__ZN9QListView22setDefaultRenameActionENS_12RenameActionE myqt
__ZN9QListView5clearEv              myqt
__ZN9QListView15invertSelectionEv   myqt
__ZN9QListView9selectAllEb          myqt
__ZN9QListView10dragObjectEv        myqt
__ZN9QListView9startDragEv          myqt
__ZN9QListView14paintEmptyAreaEP8QPainterRK5QRect myqt
_static_QUType_varptr               myqt
__ZN11QMainWindow16staticMetaObjectEv myqt
__ZN11QMainWindow7qt_castEPKc       myqt
__ZN11QMainWindow9qt_invokeEiP8QUObject myqt
__ZN11QMainWindow7qt_emitEiP8QUObject myqt
__ZN11QMainWindow11qt_propertyEiiP8QVariant myqt
__ZN11QMainWindow5eventEP6QEvent    myqt
__ZN11QMainWindow11eventFilterEP7QObjectP6QEvent myqt
__ZN11QMainWindow10childEventEP11QChildEvent myqt
__ZN11QMainWindow4showEv            myqt
__ZN11QMainWindow4hideEv            myqt
__ZNK11QMainWindow8sizeHintEv       myqt
__ZNK11QMainWindow15minimumSizeHintEv myqt
__ZN11QMainWindow10paintEventEP11QPaintEvent myqt
__ZN11QMainWindow11styleChangeER6QStyle myqt
__ZN11QMainWindow14setDockEnabledEN2Qt4DockEb myqt
__ZN11QMainWindow14setDockEnabledEP11QDockWindowN2Qt4DockEb myqt
__ZN11QMainWindow13addDockWindowEP11QDockWindowN2Qt4DockEb myqt
__ZN11QMainWindow14moveDockWindowEP11QDockWindowN2Qt4DockE myqt
__ZN11QMainWindow14moveDockWindowEP11QDockWindowN2Qt4DockEbii myqt
__ZN11QMainWindow16removeDockWindowEP11QDockWindow myqt
__ZN11QMainWindow11dockingAreaERK6QPoint myqt
__ZNK11QMainWindow14isCustomizableEv myqt
__ZN11QMainWindow21setRightJustificationEb myqt
__ZN11QMainWindow17setUsesBigPixmapsEb myqt
__ZN11QMainWindow16setUsesTextLabelEb myqt
__ZN11QMainWindow21setDockWindowsMovableEb myqt
__ZN11QMainWindow15setOpaqueMovingEb myqt
__ZN11QMainWindow18setDockMenuEnabledEb myqt
__ZN11QMainWindow9whatsThisEv       myqt
__ZN11QMainWindow14setAppropriateEP11QDockWindowb myqt
__ZN11QMainWindow9customizeEv       myqt
__ZN11QMainWindow11setUpLayoutEv    myqt
__ZN11QMainWindow12showDockMenuERK6QPoint myqt
__ZN11QMainWindow10setMenuBarEP8QMenuBar myqt
__ZN11QMainWindow12setStatusBarEP10QStatusBar myqt
__ZN11QMainWindow15setToolTipGroupEP13QToolTipGroup myqt
__std_exit                          libc064
__std_strchr                        libc064
__std_strcmp                        libc064
__ZN7QObjectC2EPS_PKc               myqt
__ZN7QSocketC1EP7QObjectPKc         myqt
__ZN8QProcessC1EP7QObjectPKc        myqt
__ZNK9QFileInfo5isDirEv             myqt
__ZN7QObjectD2Ev                    myqt
__ZNK8QProcess9isRunningEv          myqt
__ZNK8QProcess12tryTerminateEv      myqt
__ZNK8QProcess4killEv               myqt
__ZN8QProcess14clearArgumentsEv     myqt
__ZNK8QProcess9argumentsEv          myqt
__ZNK11QStringList4joinERK7QString  myqt
__ZNK7QString8toUShortEPbi          myqt
__ZN7QObject10disconnectEPKS_PKcS1_S3_ myqt
__ZNK8QProcess17canReadLineStderrEv myqt
__std_fprintf                       libc064
__ZN7QObject16staticMetaObjectEv    myqt
__ZN7QObject7qt_castEPKc            myqt
__ZN7QObject9qt_invokeEiP8QUObject  myqt
__ZN7QObject7qt_emitEiP8QUObject    myqt
__ZN8QVariantC1Ebi                  myqt
__ZN8QVariantaSERKS_                myqt
__ZN8QVariantD1Ev                   myqt
__ZN7QObject11qt_propertyEiiP8QVariant myqt
___ctordtorInit1                    libc064
___ctordtorTerm1                    libc064
__std_atexit                        libc064


                        +--------------------+
                        |   Libraries Used   |
                        +--------------------+

C:\200\trunk\lib\qassistantclient.lib
C:\200\trunk\lib\myqt.lib
C:\usr\lib\libc_dll.lib
C:\usr\lib\libc_alias.lib
C:\usr\lib\gcc-lib\i386-pc-os2-emx\3.3.5\libgcc_so_d.lib
C:\usr\lib\libend.lib


                        +-----------------------+
                        |   Linker Statistics   |
                        +-----------------------+

Stack size:  00800000 (8388608.)
Memory size:  0083f180 (8647040.)
Entry point address: 0001:00000000
Link time: 00:00.67
