** EXPERIMENTAL (HLL) ** Open Watcom Linker Version 1.6beta1 Limited Availability
Portions Copyright (c) 1985-2002 Sybase, Inc. All Rights Reserved.
Created on:       14/11/02 20:23:56
Executable Image: ..\..\bin\moc.exe
creating an OS/2 EMX executable


                        +------------+
                        |   Groups   |
                        +------------+

Group                           Address              Size
=====                           =======              ====

CGROUP                          0001:00000000        00072ed0
DGROUP                          0002:00000000        00004ca0



                        +--------------+
                        |   Segments   |
                        +--------------+

Segment                Class          Group          Address         Size
=======                =====          =====          =======         ====

TEXT32                 CODE           CGROUP         0001:00000000   00072ed0
________TEXT           CODE           CGROUP         0001:00072ed0   00000000
DATA32                 DATA           DGROUP         0002:00000000   00002cc0
SET1__os2dll           DATA           DGROUP         0002:00002cc0   00000004
SET2__os2dll           DATA           DGROUP         0002:00002cc4   00000000
SET3__os2dll           DATA           DGROUP         0002:00002cc4   00000004
SET1___CTOR_LIST__     DATA           DGROUP         0002:00002cc8   00000004
SET2___CTOR_LIST__     DATA           DGROUP         0002:00002ccc   00000018
SET3___CTOR_LIST__     DATA           DGROUP         0002:00002ce4   00000004
SET1___DTOR_LIST__     DATA           DGROUP         0002:00002ce8   00000004
SET2___DTOR_LIST__     DATA           DGROUP         0002:00002cec   00000010
SET3___DTOR_LIST__     DATA           DGROUP         0002:00002cfc   00000004
SET1___crtinit1__      DATA           DGROUP         0002:00002d00   00000004
SET2___crtinit1__      DATA           DGROUP         0002:00002d04   00000000
SET3___crtinit1__      DATA           DGROUP         0002:00002d04   00000004
SET1___crtexit1__      DATA           DGROUP         0002:00002d08   00000004
SET2___crtexit1__      DATA           DGROUP         0002:00002d0c   00000000
SET3___crtexit1__      DATA           DGROUP         0002:00002d0c   00000004
SET1___eh_frame__      DATA           DGROUP         0002:00002d10   00000004
SET2___eh_frame__      DATA           DGROUP         0002:00002d14   00000000
SET3___eh_frame__      DATA           DGROUP         0002:00002d14   00000004
SET1___eh_init__       DATA           DGROUP         0002:00002d18   00000004
SET2___eh_init__       DATA           DGROUP         0002:00002d1c   00000000
SET3___eh_init__       DATA           DGROUP         0002:00002d1c   00000004
SET1___eh_term__       DATA           DGROUP         0002:00002d20   00000004
SET2___eh_term__       DATA           DGROUP         0002:00002d24   00000000
SET3___eh_term__       DATA           DGROUP         0002:00002d24   00000004
SET1___fork_parent1__  DATA           DGROUP         0002:00002d28   00000004
SET2___fork_parent1__  DATA           DGROUP         0002:00002d2c   00000000
SET3___fork_parent1__  DATA           DGROUP         0002:00002d2c   00000004
SET1___fork_child1__   DATA           DGROUP         0002:00002d30   00000004
SET2___fork_child1__   DATA           DGROUP         0002:00002d34   00000004
SET3___fork_child1__   DATA           DGROUP         0002:00002d38   00000004
________DATA           DATA           DGROUP         0002:00002d40   00000000
BSS32                  BSS            DGROUP         0002:00002d40   00001f60
c_common               BSS            DGROUP         0002:00004ca0   00000000
________BSS            BSS            DGROUP         0002:00004ca0   00000000
STACK                  STACK          AUTO           0003:00000000   00800000


                        +----------------+
                        |   Memory Map   |
                        +----------------+

* = unreferenced symbol
+ = symbol only referenced locally

Address        Symbol
=======        ======

Module: C:\usr\lib\crt0.obj({standard input})
0001:00000000* __text
0002:00000000* __data
0002:00000000* ___data_start
0002:00002d40* ___bss_start
0002:00002cc0+ __os2dll
0002:00002cc8  ___CTOR_LIST__
0002:00002ce8  ___DTOR_LIST__
0002:00002d00* ___crtinit1__
0002:00002d08* ___crtexit1__
0002:00002d10* ___eh_frame__
0002:00002d18  ___eh_init__
0002:00002d20  ___eh_term__
0002:00002d28+ ___fork_parent1__
0002:00002d30+ ___fork_child1__
Module: C:\200\trunk\src\moc\tmp\obj\release_mt_shared\qbuffer.obj(qbuffer.obj)
0001:00000030* __ZN7QBufferC2Ev
0001:0000007c* __ZN7QBufferC1Ev
0001:000000c8* __ZN7QBufferC2E9QMemArrayIcE
0001:00000130  __ZN7QBufferC1E9QMemArrayIcE
0001:00000198* __ZN7QBufferD2Ev
0001:000001c8* __ZN7QBufferD1Ev
0001:000001f8* __ZN7QBufferD0Ev
0001:00000254* __ZN7QBuffer9setBufferE9QMemArrayIcE
0001:000002ec* __ZN7QBuffer4openEi
0001:00000390* __ZN7QBuffer5closeEv
0001:000003bc* __ZN7QBuffer5flushEv
0001:00000408* __ZN7QBuffer2atEm
0001:000004d4* __ZN7QBuffer9readBlockEPcm
0001:00000628* __ZN7QBuffer10writeBlockEPKcm
0001:000007b0* __ZN7QBuffer8readLineEPcm
0001:000008b0* __ZN7QBuffer5getchEv
0001:00000968* __ZN7QBuffer5putchEi
0001:00000a4c* __ZN7QBuffer7ungetchEi
0001:00000ab0* __ZTV7QBuffer$w$91wy9nVE8U6doFjx1
0001:00000af8* __ZTV9QMemArrayIcE$w$91wy9nVE8U6doFjx1
0001:00000b30* __ZNK7QBuffer4sizeEv$w$91wy9nVE8U6doFjx1
0001:00000b44* __ZNK7QBuffer2atEv$w$91wy9nVE8U6doFjx1
0001:00000b14* __ZN9QMemArrayIcED1Ev$w$91wy9nVE8U6doFjx1
0001:00000b50* __ZN9QMemArrayIcED0Ev$w$91wy9nVE8U6doFjx1
0001:00000b78* __ZN9QMemArrayIcE6detachEv$w$91wy9nVE8U6doFjx1
Module: C:\200\trunk\src\moc\tmp\obj\release_mt_shared\qptrcollection.obj(qptrcollection.obj)
0001:00000b90  __ZN14QPtrCollection7newItemEPv
0001:00000bb0* __ZTV14QPtrCollection$w$vMaQwnVE8U6ZwZum2
0001:00000bd0* __ZN14QPtrCollectionD1Ev$w$vMaQwnVE8U6ZwZum2
0001:00000be0* __ZN14QPtrCollectionD0Ev$w$vMaQwnVE8U6ZwZum2
Module: C:\200\trunk\src\moc\tmp\obj\release_mt_shared\qcstring.obj(qcstring.obj)
0001:00000c10* __Z8qmemmovePvPKvj
0001:00000c74  __Z7qstrdupPKc
0001:00000cc8* __Z8qstrncpyPcPKcj
0001:00000d00  __Z8qstricmpPKcS0_
0001:00000d84* __Z9qstrnicmpPKcS0_j
0001:00000e98* __Z9qChecksumPKcj
0001:00000f04* __ZlsR11QDataStreamRK9QMemArrayIcE
0001:00000f54* __ZrsR11QDataStreamR9QMemArrayIcE
0001:00000ff8* __ZN8QCStringC2Ei
0001:00001038  __ZN8QCStringC1Ei
0001:00001078* __ZN8QCStringC2EPKc
0001:000010c0  __ZN8QCStringC1EPKc
0001:00001108* __ZN8QCStringC2EPKcj
0001:00001174* __ZN8QCStringC1EPKcj
0001:000011e0* __ZN8QCStringD2Ev
0001:000011fc  __ZN8QCStringD1Ev
0001:00001218* __ZN8QCStringD0Ev
0001:00001240  __ZN8QCString6resizeEj
0001:000012a4  __ZN8QCString7sprintfEPKcz
0001:00001320* __ZN8QCString4fillEci
0001:00001394  __ZNK8QCString4findEcib
0001:0000146c  __ZNK8QCString4findEPKcib
0001:000014b4* __ZNK8QCString4findEPKcibj
0001:00001764  __ZNK8QCString7findRevEcib
0001:00001840  __ZNK8QCString7findRevEPKcib
0001:00001b04* __ZNK8QCString8containsEcb
0001:00001ba8  __ZNK8QCString8containsEPKcb
0001:00001c14  __ZNK8QCString4leftEj
0001:00001cc4  __ZNK8QCString5rightEj
0001:00001d50  __ZNK8QCString3midEjj
0001:00001e14* __ZNK8QCString11leftJustifyEjcb
0001:00001f28* __ZNK8QCString12rightJustifyEjcb
0001:0000203c* __ZNK8QCString5lowerEv
0001:0000209c* __ZNK8QCString5upperEv
0001:00002100  __ZNK8QCString15stripWhiteSpaceEv
0001:00002278  __ZNK8QCString18simplifyWhiteSpaceEv
0001:00002380  __ZN8QCString6insertEjPKc
0001:0000248c* __ZN8QCString6insertEjc
0001:000024b0  __ZN8QCString6removeEjj
0001:00002550* __ZN8QCString7replaceEjjPKc
0001:0000257c* __ZN8QCString7replaceEcPKc
0001:000025a0* __ZN8QCString7replaceEPKcS1_
0001:000029a0* __ZN8QCString7replaceEcc
0001:00002a04* __ZNK8QCString4findERK7QRegExpi
0001:00002a58* __ZNK8QCString7findRevERK7QRegExpi
0001:00002aac* __ZNK8QCString8containsERK7QRegExp
0001:00002afc  __ZN8QCString7replaceERK7QRegExpPKc
0001:00002f44* __ZN8QCString6setStrEPKc
0001:00002b94* __ZNK8QCString6toLongEPb
0001:00002cf4* __ZNK8QCString7toULongEPb
0001:00002e2c* __ZNK8QCString7toShortEPb
0001:00002e64* __ZNK8QCString8toUShortEPb
0001:00002e94* __ZNK8QCString5toIntEPb
0001:00002eac* __ZNK8QCString6toUIntEPb
0001:00002ec4* __ZNK8QCString8toDoubleEPb
0001:00002f28* __ZNK8QCString7toFloatEPb
0001:00002f94* __ZN8QCString6setNumEl
0001:00003028* __ZN8QCString6setNumEm
0001:000030bc* __ZN8QCString6setNumEdci
0001:0000317c* __ZN8QCString9setExpandEjc
0001:00003224  __ZN8QCStringpLEPKc
0001:000032bc  __ZN8QCStringpLEc
0001:00003328  __ZlsR11QDataStreamRK8QCString
0001:00003374  __ZrsR11QDataStreamR8QCString
0001:00003420* __ZTV8QCString$w$lnSVfqVE8U6Ziato4
0001:00003480* __ZTV9QMemArrayIcE$w$lnSVfqVE8U6Ziato4
0001:000034ec* __ZN9QMemArrayIcE6detachEv$w$lnSVfqVE8U6Ziato4
0001:00003450* __ZTV6QGList$w$lnSVfqVE8U6Ziato4
0001:000034b8* __ZNK6QGList5countEv$w$lnSVfqVE8U6Ziato4
0001:0000349c* __ZN9QMemArrayIcED1Ev$w$lnSVfqVE8U6Ziato4
0001:000034c4* __ZN9QMemArrayIcED0Ev$w$lnSVfqVE8U6Ziato4
Module: C:\200\trunk\src\moc\tmp\obj\release_mt_shared\qdatastream.obj(qdatastream.obj)
0001:00003510* __ZN11QDataStreamC2Ev
0001:0000356c* __ZN11QDataStreamC1Ev
0001:000035c8* __ZN11QDataStreamC2EP9QIODevice
0001:00003620* __ZN11QDataStreamC1EP9QIODevice
0001:00003678* __ZN11QDataStreamC2E9QMemArrayIcEi
0001:00003728* __ZN11QDataStreamC1E9QMemArrayIcEi
0001:000037d8* __ZN11QDataStreamD2Ev
0001:00003808* __ZN11QDataStreamD1Ev
0001:00003838* __ZN11QDataStreamD0Ev
0001:00003870* __ZN11QDataStream9setDeviceEP9QIODevice
0001:000038a4* __ZN11QDataStream11unsetDeviceEv
0001:000038bc* __ZN11QDataStream12setByteOrderEi
0001:00003940* __ZN11QDataStreamrsERa
0001:000039c8* __ZN11QDataStreamrsERs
0001:00003a40  __ZN11QDataStreamrsERi
0001:00003ac4* __ZN11QDataStreamrsERx
0001:00003bac* __ZN11QDataStreamrsERl
0001:00003c78* __ZN11QDataStreamrsERf
0001:00003cfc* __ZN11QDataStreamrsERd
0001:00003d98  __ZN11QDataStreamrsERPc
0001:00003dd0* __ZN11QDataStream9readBytesERPcRj
0001:00003e80  __ZN11QDataStream12readRawBytesEPcj
0001:00003f18* __ZN11QDataStreamlsEa
0001:00003fd4* __ZN11QDataStreamlsEs
0001:0000406c  __ZN11QDataStreamlsEi
0001:00004110* __ZN11QDataStreamlsEx
0001:00004220* __ZN11QDataStreamlsEl
0001:000042c8* __ZN11QDataStreamlsEf
0001:000043a4* __ZN11QDataStreamlsEd
0001:000044a0  __ZN11QDataStreamlsEPKc
0001:00004548  __ZN11QDataStream13writeRawBytesEPKcj
0001:000044fc  __ZN11QDataStream10writeBytesEPKcj
0001:000045e0* __ZTV11QDataStream$w$fSjNKrVE8U6b5dsf3
0001:000045f0* __ZTV9QMemArrayIcE$w$fSjNKrVE8U6b5dsf3
0001:0000460c* __ZN9QMemArrayIcED1Ev$w$fSjNKrVE8U6b5dsf3
0001:00004628* __ZN9QMemArrayIcED0Ev$w$fSjNKrVE8U6b5dsf3
0001:00004650* __ZN9QMemArrayIcE6detachEv$w$fSjNKrVE8U6b5dsf3
Module: C:\200\trunk\src\moc\tmp\obj\release_mt_shared\qdatetime.obj(qdatetime.obj)
0001:00006618* __ZNK5QTime4hourEv
0001:000053c0* __ZNK5QDate3dayEv
0001:0000539c* __ZNK5QDate5monthEv
0001:000053e4* __ZNK5QDate9dayOfWeekEv
0001:0000577c* __ZN5QDate12shortDayNameEi
0001:00005858* __ZN5QDate11longDayNameEi
0001:000055e0* __ZN5QDate14shortMonthNameEi
0001:000056b0* __ZN5QDate13longMonthNameEi
0001:00005378* __ZNK5QDate4yearEv
0001:0000662c* __ZNK5QTime6minuteEv
0001:00006668* __ZNK5QTime6secondEv
0001:0000668c* __ZNK5QTime4msecEv
0001:00006604* __ZNK5QTime7isValidEv
0001:00005364* __ZNK5QDate7isValidEv
0001:0000533c* __ZN5QDateC2Eiii
0001:00005dbc* __ZN5QDate6setYMDEiii
0001:00005350* __ZN5QDateC1Eiii
0001:00006524* __ZN5QDate17julianToGregorianEjRiS0_S0_
0001:000053fc* __ZNK5QDate9dayOfYearEv
0001:00006474* __ZN5QDate17gregorianToJulianEiii
0001:00005424* __ZNK5QDate11daysInMonthEv
0001:00006438* __ZN5QDate8leapYearEi
0001:00005474* __ZNK5QDate10daysInYearEv
0001:000054ac* __ZNK5QDate10weekNumberEPi
0001:00005914* __ZNK5QDate8toStringEN2Qt10DateFormatE
0001:00005d70* __ZNK5QDate8toStringERK7QString
0001:000063b0* __ZN5QDate7isValidEiii
0001:00005e58* __ZNK5QDate7addDaysEi
0001:00005e68* __ZNK5QDate9addMonthsEi
0001:00005f54* __ZNK5QDate8addYearsEi
0001:00005fd0* __ZNK5QDate6daysToERKS_
0001:00005fe0* __ZN5QDate11currentDateEv
0001:00005ff0* __ZN5QDate11currentDateEN2Qt8TimeSpecE
0001:0000606c* __ZN5QDate10fromStringERK7QStringN2Qt10DateFormatE
0001:000065ec* __ZN5QTimeC2Eiiii
0001:00006850* __ZN5QTime6setHMSEiiii
0001:000065f8* __ZN5QTimeC1Eiiii
0001:000066b8* __ZNK5QTime8toStringEN2Qt10DateFormatE
0001:00006800* __ZNK5QTime8toStringERK7QString
0001:00006c58* __ZN5QTime7isValidEiiii
0001:000068d8* __ZNK5QTime7addSecsEi
0001:00006918* __ZNK5QTime8addMSecsEi
0001:000068f8* __ZNK5QTime6secsToERKS_
0001:00006994* __ZNK5QTime7msecsToERKS_
0001:000069a4* __ZN5QTime11currentTimeEv
0001:000069b4* __ZN5QTime11currentTimeEN2Qt8TimeSpecE
0001:00006ba8* __ZN5QTime11currentTimeEPS_N2Qt8TimeSpecE
0001:00006a00* __ZN5QTime10fromStringERK7QStringN2Qt10DateFormatE
0001:00006b58* __ZN5QTime11currentTimeEPS_
0001:00006c84* __ZN5QTime5startEv
0001:00006c98* __ZN5QTime7restartEv
0001:00006cd4* __ZNK5QTime7elapsedEv
0001:00006d04* __ZN9QDateTimeC2ERK5QDate
0001:00006d1c* __ZN9QDateTimeC1ERK5QDate
0001:00006d34* __ZN9QDateTimeC2ERK5QDateRK5QTime
0001:00006d4c* __ZN9QDateTimeC1ERK5QDateRK5QTime
0001:00006d64* __ZNK9QDateTime8toTime_tEv
0001:00006de4  __ZN9QDateTime9setTime_tEj
0001:00006dfc* __ZN9QDateTime9setTime_tEjN2Qt8TimeSpecE
0001:00006edc  __ZNK9QDateTime8toStringEN2Qt10DateFormatE
0001:00007270* __ZNK9QDateTime8toStringERK7QString
0001:00007294* __ZNK9QDateTime7addDaysEi
0001:000072c4* __ZNK9QDateTime9addMonthsEi
0001:000072f4* __ZNK9QDateTime8addYearsEi
0001:00007324* __ZNK9QDateTime7addSecsEi
0001:0000740c* __ZNK9QDateTime6daysToERKS_
0001:00007418  __ZNK9QDateTime6secsToERKS_
0001:00007460* __ZNK9QDateTimeeqERKS_
0001:00007488* __ZNK9QDateTimeneERKS_
0001:000074b0* __ZNK9QDateTimeltERKS_
0001:000074e0* __ZNK9QDateTimeleERKS_
0001:00007510* __ZNK9QDateTimegtERKS_
0001:00007540* __ZNK9QDateTimegeERKS_
0001:00007570  __ZN9QDateTime15currentDateTimeEv
0001:00007580* __ZN9QDateTime15currentDateTimeEN2Qt8TimeSpecE
0001:00007634* __ZN9QDateTime10fromStringERK7QStringN2Qt10DateFormatE
0001:00007aa8* __ZlsR11QDataStreamRK5QDate
0001:00007abc* __ZrsR11QDataStreamR5QDate
0001:00007ae4* __ZlsR11QDataStreamRK5QTime
0001:00007af8* __ZrsR11QDataStreamR5QTime
0001:00007b20* __ZlsR11QDataStreamRK9QDateTime
0001:00007b44* __ZrsR11QDataStreamR9QDateTime
0001:00007b70* __ZTV6QGList$w$jkRvEvVE8U6atf4A2
0001:00007b9c* __ZNK6QGList5countEv$w$jkRvEvVE8U6atf4A2
Module: C:\200\trunk\src\moc\tmp\obj\release_mt_shared\qfile.obj(qfile.obj)
0001:00007c98* __ZN5QFileC2Ev
0001:00007fa8  __ZN5QFile4initEv
0001:00007cf4  __ZN5QFileC1Ev
0001:00007d50* __ZN5QFileC2ERK7QString
0001:00007da0* __ZN5QFileC1ERK7QString
0001:00007df0* __ZN5QFileD2Ev
0001:00007e80* __ZN5QFileD1Ev
0001:00007f10* __ZN5QFileD0Ev
0001:000089b4  __ZN5QFile14setErrorStringERK7QString
0001:000080ac* __ZN5QFile7setNameERK7QString
0001:000080f8* __ZNK5QFile6existsEv
0001:00008114  __ZN5QFile6existsERK7QString
0001:0000812c* __ZN5QFile6removeEv
0001:00008150* __ZN5QFile5flushEv
0001:0000819c* __ZNK5QFile5atEndEv
0001:00008268* __ZN5QFile8readLineEPcm
0001:00008394* __ZN5QFile8readLineER7QStringm
0001:0000847c* __ZN5QFile5getchEv
0001:0000862c* __ZN5QFile5putchEi
0001:00008780* __ZN5QFile7ungetchEi
0001:000088f4  __ZN5QFile10encodeNameERK7QString
0001:00008914* __ZN5QFile19setEncodingFunctionEPF8QCStringRK7QStringE
0001:00008948  __ZN5QFile10decodeNameERK8QCString
0001:00008968* __ZN5QFile19setDecodingFunctionEPF7QStringRK8QCStringE
0001:00008978* __ZNK5QFile11errorStringEv
0001:00008a20  __ZN5QFile19setErrorStringErrnoEi
0002:00000050* _qt_fileerr_unknown
0002:00000054  _qt_fileerr_read
0002:00000058* _qt_fileerr_write
0001:00008ad0* __ZTV5QFile$w$hNgT1xVE8U6roPVn0
0001:00008b18* __ZTV9QMemArrayIcE$w$hNgT1xVE8U6roPVn0
0001:00008b34* __ZNK5QFile2atEv$w$hNgT1xVE8U6roPVn0
0001:00008b40* __ZN9QMemArrayIcED1Ev$w$hNgT1xVE8U6roPVn0
0001:00008b5c* __ZN9QMemArrayIcED0Ev$w$hNgT1xVE8U6roPVn0
0001:00008b84* __ZN9QMemArrayIcE6detachEv$w$hNgT1xVE8U6roPVn0
Module: C:\200\trunk\src\moc\tmp\obj\release_mt_shared\qdir.obj(qdir.obj)
0001:00008bb4* __ZN4QDirC2Ev
0001:000090e4* __ZN4QDir4initEv
0001:00008c48* __ZN4QDirC1Ev
0001:00008ce0* __ZN4QDirC2ERK7QStringS2_ii
0001:0000ad58  __ZN4QDir12cleanDirPathERK7QString
0001:00008e38  __ZN4QDirC1ERK7QStringS2_ii
0001:00008f90* __ZN4QDirC2ERKS_
0001:00009034* __ZN4QDirC1ERKS_
0001:000090d8* __ZNK4QDir7refreshEv
0001:00009160* __ZN4QDirD2Ev
0001:0000920c  __ZN4QDirD1Ev
0001:000092b8* __ZN4QDirD0Ev
0001:0000936c* __ZN4QDir7setPathERK7QString
0001:0000940c* __ZNK4QDir7absPathEv
0001:00009520* __ZNK4QDir7dirNameEv
0001:00009580* __ZNK4QDir8filePathERK7QStringb
0001:0000969c* __ZNK4QDir11absFilePathERK7QStringb
0001:00009aec* __ZN4QDir17convertSeparatorsERK7QString
0001:00009c04* __ZN4QDir2cdERK7QStringb
0001:0000a080* __ZN4QDir4cdUpEv
0001:0000a0d8* __ZN4QDir13setNameFilterERK7QString
0001:0000a14c* __ZN4QDir9setFilterEi
0001:0000a164* __ZN4QDir10setSortingEi
0001:0000a17c* __ZN4QDir15setMatchAllDirsEb
0001:0000a1ac* __ZNK4QDir5countEv
0001:0000a1f8* __ZNK4QDirixEi
0001:0000a298* __ZNK4QDir16encodedEntryListEii
0001:0000a384* __ZNK4QDir16encodedEntryListERK7QStringii
0001:0000a474* __ZNK4QDir9entryListEii
0001:0000a4c4* __ZNK4QDir9entryListERK7QStringii
0001:0000a538* __ZNK4QDir13entryInfoListEii
0001:0000a574* __ZNK4QDir13entryInfoListERK7QStringii
0001:0000a5c0* __ZNK4QDir6existsEv
0001:0000a618* __ZNK4QDir10isRelativeEv
0001:0000a630* __ZN4QDir12convertToAbsEv
0001:0000a67c* __ZN4QDiraSERKS_
0001:0000a740* __ZN4QDiraSERK7QString
0001:0000a798* __ZNK4QDireqERKS_
0001:0000a830* __ZN4QDir6removeERK7QStringb
0001:0000a8c8* __ZN4QDir6existsERK7QStringb
0001:0000a938* __ZN4QDir9separatorEv
0001:0000a944  __ZN4QDir7currentEv
0001:0000a994* __ZN4QDir4homeEv
0001:0000a9e4* __ZN4QDir4rootEv
0001:0000aa34  __Z17qt_makeFilterListRK7QString
0001:0000ac18  __Z18qt_matchFilterListRK10QValueListI7QRegExpERK7QString
0001:0000ac7c* __ZN4QDir5matchERK11QStringListRK7QString
0001:0000ad04* __ZN4QDir5matchERK7QStringS2_
0001:0000b3ac  _qt_cmp_si
0001:0000b654* __ZN4QDir6detachEv
0002:00002d90  _qt_cmp_si_sortSpec
0001:0000bc90* __ZTV4QDir$w$xTVyqAVE8U6qUHfS3
0001:0000b88c* __ZN17QValueListPrivateI7QStringED1Ev$w$xTVyqAVE8U6qUHfS3
0001:0000b964* __ZNK17QValueListPrivateI7QStringE2atEj$w$xTVyqAVE8U6qUHfS3
0001:0000b9ac* __ZN10QValueListI7QStringE14detachInternalEv$w$xTVyqAVE8U6qUHfS3
0001:0000bd70* __ZTV8QStrList$w$xTVyqAVE8U6qUHfS3
0001:0000b9dc* __ZN17QValueListPrivateI7QStringEC1Ev$w$xTVyqAVE8U6qUHfS3
0001:0000ba28* __ZN17QValueListPrivateI7QRegExpEC1Ev$w$xTVyqAVE8U6qUHfS3
0001:0000bacc* __ZN17QValueListPrivateI7QRegExpE6insertE18QValueListIteratorIS0_ERKS0_$w$xTVyqAVE8U6qUHfS3
0001:0000bb28* __ZN10QValueListI7QRegExpE14detachInternalEv$w$xTVyqAVE8U6qUHfS3
0001:0000ba68* __ZN17QValueListPrivateI7QRegExpED1Ev$w$xTVyqAVE8U6qUHfS3
0001:0000bd30* __ZTV8QPtrListI9QFileInfoE$w$xTVyqAVE8U6qUHfS3
0001:0000bb58* __ZN17QValueListPrivateI7QStringEC1ERKS1_$w$xTVyqAVE8U6qUHfS3
0001:0000bbec* __ZN17QValueListPrivateI7QRegExpEC1ERKS1_$w$xTVyqAVE8U6qUHfS3
0001:0000bfb0* __ZN17QValueListPrivateI7QStringE6insertE18QValueListIteratorIS0_ERKS0_$w$xTVyqAVE8U6qUHfS3
0001:0000bf10* __ZNK4QDir4pathEv$w$xTVyqAVE8U6qUHfS3
0001:0000bf30* __ZNK4QDirneERKS_$w$xTVyqAVE8U6qUHfS3
0001:0000c00c* __ZNK8QPtrListI9QFileInfoE5countEv$w$xTVyqAVE8U6qUHfS3
0001:0000bf7c* __ZN8QPtrListI9QFileInfoE5clearEv$w$xTVyqAVE8U6qUHfS3
0001:0000bf88* __ZN8QPtrListI9QFileInfoED1Ev$w$xTVyqAVE8U6qUHfS3
0001:0000bf4c* __ZN8QPtrListI9QFileInfoED0Ev$w$xTVyqAVE8U6qUHfS3
0001:0000c018* __ZN8QPtrListI9QFileInfoE10deleteItemEPv$w$xTVyqAVE8U6qUHfS3
0001:0000c050* __ZNK8QPtrListIcE5countEv$w$xTVyqAVE8U6qUHfS3
0001:0000bde8* __ZN8QPtrListIcE5clearEv$w$xTVyqAVE8U6qUHfS3
0001:0000bdf4* __ZN8QStrListD1Ev$w$xTVyqAVE8U6qUHfS3
0001:0000be28* __ZN8QStrListD0Ev$w$xTVyqAVE8U6qUHfS3
0001:0000be64* __ZN8QStrList7newItemEPv$w$xTVyqAVE8U6qUHfS3
0001:0000be88* __ZN8QStrList10deleteItemEPv$w$xTVyqAVE8U6qUHfS3
0001:0000bea8* __ZN8QStrList12compareItemsEPvS0_$w$xTVyqAVE8U6qUHfS3
0001:0000bedc* __ZN8QStrList4readER11QDataStreamRPv$w$xTVyqAVE8U6qUHfS3
0001:0000bef8* __ZNK8QStrList5writeER11QDataStreamPv$w$xTVyqAVE8U6qUHfS3
0001:0000bdb0* __ZTV6QGList$w$xTVyqAVE8U6qUHfS3
0001:0000bddc* __ZNK6QGList5countEv$w$xTVyqAVE8U6qUHfS3
0001:0000c070* __ZTV8QPtrListIcE$w$xTVyqAVE8U6qUHfS3
0001:0000c09c* __ZN8QPtrListIcED1Ev$w$xTVyqAVE8U6qUHfS3
0001:0000c0c4* __ZN8QPtrListIcED0Ev$w$xTVyqAVE8U6qUHfS3
0001:0000c0f4* __ZN8QPtrListIcE10deleteItemEPv$w$xTVyqAVE8U6qUHfS3
Module: C:\200\trunk\src\moc\tmp\obj\release_mt_shared\qfileinfo.obj(qfileinfo.obj)
0001:0000c130* __ZN9QFileInfoC2Ev
0001:0000c160  __ZN9QFileInfoC1Ev
0001:0000c190* __ZN9QFileInfoC2ERK7QString
0001:0000c1d4  __ZN9QFileInfoC1ERK7QString
0001:0000c218* __ZN9QFileInfoC2ERK5QFile
0001:0000c298* __ZN9QFileInfoC1ERK5QFile
0001:0000c318* __ZN9QFileInfoC2ERK4QDirRK7QString
0001:0000c398  __ZN9QFileInfoC1ERK4QDirRK7QString
0001:0000c418* __ZN9QFileInfoC2ERKS_
0001:0000c494  __ZN9QFileInfoC1ERKS_
0001:0000c510* __ZN9QFileInfoD2Ev
0001:0000c54c  __ZN9QFileInfoD1Ev
0001:0000c59c* __ZN9QFileInfoaSERKS_
0001:0000c638* __ZN9QFileInfo7setFileERK7QString
0001:0000c66c* __ZN9QFileInfo7setFileERK5QFile
0001:0000c6d8  __ZN9QFileInfo7setFileERK4QDirRK7QString
0001:0000c748  __ZNK9QFileInfo6existsEv
0001:0000c760* __ZNK9QFileInfo7refreshEv
0001:0000c784* __ZN9QFileInfo10setCachingEb
0001:0000c7b8* __ZNK9QFileInfo8filePathEv
0001:0000c7d4* __ZNK9QFileInfo8baseNameEb
0001:0000c86c* __ZNK9QFileInfo9extensionEb
0001:0000c918  __ZNK9QFileInfo3dirEb
0001:0000c970* __ZNK9QFileInfo10isReadableEv
0001:0000c988* __ZNK9QFileInfo10isWritableEv
0001:0000c9a0* __ZNK9QFileInfo12isExecutableEv
0001:0000c9b8* __ZNK9QFileInfo10isRelativeEv
0001:0000c9cc* __ZN9QFileInfo12convertToAbsEv
0001:0000cb90  __ZNK9QFileInfo11absFilePathEv
0001:0000ca34  __ZNK9QFileInfo4sizeEv
0001:0000ca68* __ZNK9QFileInfo7createdEv
0001:0000cad0  __ZNK9QFileInfo12lastModifiedEv
0001:0000cb28* __ZNK9QFileInfo8lastReadEv
0001:0000cc98* __ZN9QFileInfo6detachEv
0001:0000cd50* __ZTV6QGList$w$DOP9QBVE8U65XH4f1
0001:0000cd7c* __ZNK6QGList5countEv$w$DOP9QBVE8U65XH4f1
Module: C:\200\trunk\src\moc\tmp\obj\release_mt_shared\qgarray.obj(qgarray.obj)
0001:0000cda8  __ZN7QGArrayC2Ev
0001:0000daec  __ZN7QGArray7newDataEv
0001:0000cde4* __ZN7QGArrayC1Ev
0001:0000ce20  __ZN7QGArrayC2Eii
0001:0000ce30* __ZN7QGArrayC1Eii
0001:0000ce74  __ZN7QGArrayC2Ei
0001:0000cf18* __ZN7QGArrayC1Ei
0001:0000cfbc  __ZN7QGArrayC2ERKS_
0001:0000cfd8* __ZN7QGArrayC1ERKS_
0001:0000cff4  __ZN7QGArrayD2Ev
0001:0000db14  __ZN7QGArray10deleteDataEPNS_10array_dataE
0001:0000d044* __ZN7QGArrayD1Ev
0001:0000d094* __ZN7QGArrayD0Ev
0001:0000d0ec* __ZNK7QGArray7isEqualERKS_
0001:0000d144  __ZN7QGArray6resizeEjNS_12OptimizationE
0001:0000d1d4  __ZN7QGArray6resizeEj
0001:0000d1ec  __ZN7QGArray4fillEPKcij
0001:0000d2c8  __ZN7QGArray6assignERKS_
0001:0000d31c* __ZN7QGArray6assignEPKcj
0001:0000d38c  __ZN7QGArray9duplicateERKS_
0001:0000d520  __ZN7QGArray9duplicateEPKcj
0001:0000d610  __ZN7QGArray5storeEPKcj
0001:0000d648* __ZN7QGArray10setRawDataEPKcj
0001:0000d6a4  __ZN7QGArray12resetRawDataEPKcj
0001:0000d708* __ZNK7QGArray4findEPKcjj
0001:0000d834* __ZNK7QGArray8containsEPKcj
0001:0000d980* __ZN7QGArray4sortEj
0001:0000d9bc  __ZNK7QGArray7bsearchEPKcj
0001:0000da54* __ZN7QGArray9setExpandEjPKcj
0001:0000dad4  __ZN7QGArray9msg_indexEj
0001:0000db28* __ZTV7QGArray$w$LOZVHCVE8U6FcDvt4
0001:0000db44* __ZN7QGArray6detachEv$w$LOZVHCVE8U6FcDvt4
Module: C:\200\trunk\src\moc\tmp\obj\release_mt_shared\qgdict.obj(qgdict.obj)
0001:0000db88* __ZN6QGDict13hashKeyStringERK7QString
0001:0000dc9c* __ZN6QGDict12hashKeyAsciiEPKc
0001:0000dd64  __ZN6QGDict4readER11QDataStreamRPv
0001:0000dd78  __ZNK6QGDict5writeER11QDataStreamPv
0001:0000dd80  __ZN6QGDictC2EjNS_7KeyTypeEbb
0001:0000ddf4* __ZN6QGDict4initEjNS_7KeyTypeEbb
0001:0000ddb0* __ZN6QGDictC1EjNS_7KeyTypeEbb
0001:0000dec8* __ZN6QGDictC2ERKS_
0001:0000f948* __ZN14QGDictIteratorC1ERK6QGDict
0001:0000fc2c* __ZN14QGDictIteratorppEv
0001:0000e8f8* __ZN6QGDict8look_ptrEPvS0_i
0001:0000e7f8  __ZN6QGDict8look_intElPvi
0001:0000e474  __ZN6QGDict11look_stringERK7QStringPvi
0001:0000e66c  __ZN6QGDict10look_asciiEPKcPvi
0001:0000fab4* __ZN14QGDictIteratorD1Ev
0001:0000e028* __ZN6QGDictC1ERKS_
0001:0000e188  __ZN6QGDictD2Ev
0001:0000f220  __ZN6QGDict5clearEv
0001:0000e208* __ZN6QGDictD1Ev
0001:0000e288* __ZN6QGDictD0Ev
0001:0000e310* __ZN6QGDictaSERKS_
0001:0000efb8  __ZN6QGDict13remove_stringERK7QStringPv
0001:0000f020  __ZN6QGDict12remove_asciiEPKcPv
0001:0000f080  __ZN6QGDict10remove_intElPv
0001:0000f0c4* __ZN6QGDict10remove_ptrEPvS0_
0001:0000e9d4* __ZN6QGDict6resizeEj
0001:0000fb14* __ZN14QGDictIterator7toFirstEv
0001:0000ec04* __ZN6QGDict13unlink_commonEiP11QBaseBucketS1_
0001:0000ec90* __ZN6QGDict13unlink_stringERK7QStringPv
0001:0000ee18* __ZN6QGDict12unlink_asciiEPKcPv
0001:0000eed8* __ZN6QGDict10unlink_intElPv
0001:0000ef48* __ZN6QGDict10unlink_ptrEPvS0_
0001:0000f108  __ZN6QGDict11take_stringERK7QString
0001:0000f160  __ZN6QGDict10take_asciiEPKc
0001:0000f1b8  __ZN6QGDict8take_intEl
0001:0000f1ec* __ZN6QGDict8take_ptrEPv
0001:0000f434  __ZNK6QGDict10statisticsEv
0001:0000f654* __ZrsR11QDataStreamR6QGDict
0001:0000f680* __ZN6QGDict4readER11QDataStream
0001:0000f668* __ZlsR11QDataStreamRK6QGDict
0001:0000f810* __ZNK6QGDict5writeER11QDataStream
0001:0000f8cc  __ZN14QGDictIteratorC2ERK6QGDict
0001:0000f9c4* __ZN14QGDictIteratorC2ERKS_
0001:0000f9fc* __ZN14QGDictIteratorC1ERKS_
0001:0000fa34* __ZN14QGDictIteratoraSERKS_
0001:0000fa8c  __ZN14QGDictIteratorD2Ev
0001:0000fbb8* __ZN14QGDictIteratorclEv
0001:0000fcbc* __ZN14QGDictIteratorpLEj
0001:0000fd00* __ZTV6QGDict$w$N3PYVEVE8U6wnyK43
0001:0000fd40* __ZTV9QGDItList$w$N3PYVEVE8U6wnyK43
0001:0000fdac* __ZNK6QGDict5countEv$w$N3PYVEVE8U6wnyK43
0001:0000fe40* __ZNK8QPtrListI14QGDictIteratorE5countEv$w$N3PYVEVE8U6wnyK43
0001:0000fdc4* __ZN8QPtrListI14QGDictIteratorE5clearEv$w$N3PYVEVE8U6wnyK43
0001:0000fdd0* __ZN9QGDItListD1Ev$w$N3PYVEVE8U6wnyK43
0001:0000fe04* __ZN9QGDItListD0Ev$w$N3PYVEVE8U6wnyK43
0001:0000fe4c* __ZN8QPtrListI14QGDictIteratorE10deleteItemEPv$w$N3PYVEVE8U6wnyK43
0001:0000fd80* __ZTV6QGList$w$N3PYVEVE8U6wnyK43
0001:0000fdb8* __ZNK6QGList5countEv$w$N3PYVEVE8U6wnyK43
0001:0000fea0* __ZTV8QPtrListI14QGDictIteratorE$w$N3PYVEVE8U6wnyK43
0001:0000fecc* __ZN8QPtrListI14QGDictIteratorED1Ev$w$N3PYVEVE8U6wnyK43
0001:0000fef4* __ZN8QPtrListI14QGDictIteratorED0Ev$w$N3PYVEVE8U6wnyK43
Module: C:\200\trunk\src\moc\tmp\obj\release_mt_shared\qglist.obj(qglist.obj)
0001:0000ff40  __ZN6QGList12compareItemsEPvS0_
0001:0000ff54  __ZN6QGList4readER11QDataStreamRPv
0001:0000ff68  __ZNK6QGList5writeER11QDataStreamPv
0001:0000ff70  __ZN6QGListC2Ev
0001:0000ffac* __ZN6QGListC1Ev
0001:0000ffe8  __ZN6QGListC2ERKS_
0001:000104dc  __ZN6QGList6appendEPv
0001:0001004c* __ZN6QGListC1ERKS_
0001:000100b0  __ZN6QGListD2Ev
0001:00010a60  __ZN6QGList5clearEv
0001:00010140  __ZN6QGListD1Ev
0001:000101d0  __ZN6QGListD0Ev
0001:00010268* __ZN6QGListaSERKS_
0001:000102c8* __ZNK6QGListeqERKS_
0001:00010354* __ZN6QGList6locateEj
0001:0001040c* __ZN6QGList6inSortEPv
0001:00010550  __ZN6QGList8insertAtEjPv
0001:00010468* __ZN6QGList7prependEPv
0001:000105fc  __ZN6QGList10relinkNodeEP6QLNode
0001:00010654* __ZN6QGList6unlinkEv
0001:00010720* __ZN6QGList10removeNodeEP6QLNode
0001:0001079c  __ZN6QGList6removeEPv
0001:00010b1c* __ZN6QGList4findEPvb
0001:000107f4  __ZN6QGList9removeRefEPv
0001:00010ad4* __ZN6QGList7findRefEPvb
0001:00010848* __ZN6QGList8removeAtEj
0001:000108a0* __ZN6QGList9replaceAtEjPv
0001:00010914  __ZN6QGList8takeNodeEP6QLNode
0001:00010988* __ZN6QGList4takeEv
0001:000109b4* __ZN6QGList6takeAtEj
0001:000109f8* __ZN6QGList9takeFirstEv
0001:00010bdc  __ZN6QGList5firstEv
0001:00010a2c* __ZN6QGList8takeLastEv
0001:00010bfc  __ZN6QGList4lastEv
0001:00010b74* __ZNK6QGList11containsRefEPv
0001:00010b9c  __ZNK6QGList8containsEPv
0001:00010c1c  __ZN6QGList4nextEv
0001:00010c50  __ZN6QGList4prevEv
0001:00010c84* __ZNK6QGList8toVectorEP8QGVector
0001:00010cdc* __ZN6QGList16heapSortPushDownEPPvii
0001:00010dc8* __ZN6QGList4sortEv
0001:00010ed8* __ZrsR11QDataStreamR6QGList
0001:00010f04* __ZN6QGList4readER11QDataStream
0001:00010eec* __ZlsR11QDataStreamRK6QGList
0001:00010fec* __ZNK6QGList5writeER11QDataStream
0001:00011034* __ZN6QGList5eraseEP6QLNode
0001:00011054  __ZN14QGListIteratorC2ERK6QGList
0001:00011194* __ZN14QGListIteratorC1ERK6QGList
0001:000112d4  __ZN14QGListIteratorC2ERKS_
0001:000113cc* __ZN14QGListIteratorC1ERKS_
0001:000114c4  __ZN14QGListIteratoraSERKS_
0001:00011674  __ZN14QGListIteratorD2Ev
0001:00011714* __ZN14QGListIteratorD1Ev
0001:000117e4  __ZN14QGListIterator7toFirstEv
0001:00011844  __ZN14QGListIterator6toLastEv
0001:00011874  __ZN14QGListIteratorclEv
0001:00011894  __ZN14QGListIteratorppEv
0001:000118b4  __ZN14QGListIteratorpLEj
0001:000118f4  __ZN14QGListIteratormmEv
0001:00011914  __ZN14QGListIteratormIEj
0001:00011be0* __ZTV6QGList$w$LO7k0HVE8U68rqNR0
0001:00011c18* __ZN18QGListIteratorList11notifyClearEb$w$LO7k0HVE8U68rqNR0
0001:00011954* __ZN17QValueListPrivateIP14QGListIteratorED1Ev$w$LO7k0HVE8U68rqNR0
0001:00011cc0* __ZN18QGListIteratorList12notifyRemoveEP6QLNodeS1_$w$LO7k0HVE8U68rqNR0
0001:00011990* __ZN17QValueListPrivateIP14QGListIteratorE6insertE18QValueListIteratorIS1_ERKS1_$w$LO7k0HVE8U68rqNR0
0001:000119e0* __ZN10QValueListIP14QGListIteratorE14detachInternalEv$w$LO7k0HVE8U68rqNR0
0001:00011a10* __ZN17QValueListPrivateIP14QGListIteratorEC1Ev$w$LO7k0HVE8U68rqNR0
0001:00011a40* __ZN17QValueListPrivateIP14QGListIteratorE6removeERKS1_$w$LO7k0HVE8U68rqNR0
0001:00011aa4* __ZN17QValueListPrivateIP14QGListIteratorEC1ERKS2_$w$LO7k0HVE8U68rqNR0
0001:00011b6c* __ZN17QValueListPrivateIP14QGListIteratorE6removeE18QValueListIteratorIS1_E$w$LO7k0HVE8U68rqNR0
0001:00011c0c* __ZNK6QGList5countEv$w$LO7k0HVE8U68rqNR0
Module: C:\200\trunk\src\moc\tmp\obj\release_mt_shared\qglobal.obj(qglobal.obj)
0001:00011d68* __Z8qVersionv
0001:00011d74* __Z12qSharedBuildv
0001:00011e48  __Z8qSysInfoPiPb
0001:000122b4  __Z6qFatalPKcz
0001:000121f4  __Z8qWarningPKcz
0001:00012134  __Z6qDebugPKcz
0001:00012194* __Z5debugPKcz
0001:00012254* __Z7warningPKcz
0001:0001231c* __Z5fatalPKcz
0001:000123c8* __Z14qSystemWarningPKci
0001:00012450  __Z16qt_check_pointerbPKci
0001:000125dc* __Z25qSuppressObsoleteWarningsb
0001:00012650* __Z9qObsoletePKcS0_S0_
0001:000126f8* __Z9qObsoletePKcS0_
0001:00012758* __Z9qObsoletePKc
0001:00012798* __Z18qInstallMsgHandlerPFv9QtMsgTypePKcE
0001:000127ac* __Z11qt_int_sqrtj
0001:00012820* __ZTV10QAsciiDictIiE$w$hJqjOIVE8U6kQhuL1
0001:00012848* __ZNK10QAsciiDictIiE5countEv$w$hJqjOIVE8U6kQhuL1
0001:00012854* __ZN10QAsciiDictIiE5clearEv$w$hJqjOIVE8U6kQhuL1
0001:00012860* __ZN10QAsciiDictIiED1Ev$w$hJqjOIVE8U6kQhuL1
0001:00012888* __ZN10QAsciiDictIiED0Ev$w$hJqjOIVE8U6kQhuL1
0001:000128b8* __ZN10QAsciiDictIiE10deleteItemEPv$w$hJqjOIVE8U6kQhuL1
Module: C:\200\trunk\src\moc\tmp\obj\release_mt_shared\qgvector.obj(qgvector.obj)
0001:000128e0  __ZN8QGVector12compareItemsEPvS0_
0001:000128f4  __ZN8QGVector4readER11QDataStreamRPv
0001:00012908  __ZNK8QGVector5writeER11QDataStreamPv
0001:00012910  __ZN8QGVectorC2Ev
0001:00012938* __ZN8QGVectorC1Ev
0001:00012978* __ZN8QGVectorC2Ej
0001:000129ec* __ZN8QGVectorC1Ej
0001:00012a60* __ZN8QGVectorC2ERKS_
0001:00012b2c* __ZN8QGVectorC1ERKS_
0001:00012bf8  __ZN8QGVectorD2Ev
0001:00012f00  __ZN8QGVector5clearEv
0001:00012c1c* __ZN8QGVectorD1Ev
0001:00012c40* __ZN8QGVectorD0Ev
0001:00012c6c* __ZN8QGVectoraSERKS_
0001:00012d68  __ZN8QGVector6insertEjPv
0001:00012e44* __ZN8QGVector6removeEj
0001:00012ec4* __ZN8QGVector4takeEj
0001:00012f6c  __ZN8QGVector6resizeEj
0001:00013080* __ZN8QGVector4fillEPvi
0001:000130fc* __ZN8QGVector4sortEv
0001:000131cc* __ZNK8QGVector7bsearchEPv
0001:000132b0* __ZNK8QGVector7findRefEPvj
0001:00013318* __ZNK8QGVector4findEPvj
0001:00013388* __ZNK8QGVector11containsRefEPv
0001:000133b8* __ZNK8QGVector8containsEPv
0001:00013418* __ZN8QGVector12insertExpandEjPv
0001:00013458* __ZNK8QGVector6toListEP6QGList
0001:000134d4  __ZN8QGVector17warningIndexRangeEj
0001:000134ec* __ZrsR11QDataStreamR8QGVector
0001:00013518* __ZN8QGVector4readER11QDataStream
0001:00013500* __ZlsR11QDataStreamRK8QGVector
0001:00013598* __ZNK8QGVector5writeER11QDataStream
0001:000135f4* __ZNK8QGVectoreqERKS_
0001:000136a0* __ZTV8QGVector$w$vQ2x7KVE8U6Zaadn3
0001:0001370c* __ZNK8QGVector5countEv$w$vQ2x7KVE8U6Zaadn3
0001:000136e0* __ZTV6QGList$w$vQ2x7KVE8U6Zaadn3
0001:00013718* __ZNK6QGList5countEv$w$vQ2x7KVE8U6Zaadn3
Module: C:\200\trunk\src\moc\tmp\obj\release_mt_shared\qiodevice.obj(qiodevice.obj)
0001:00013740  __ZN9QIODeviceC2Ev
0001:00013764* __ZN9QIODeviceC1Ev
0001:00013788  __ZN9QIODeviceD2Ev
0001:00013798* __ZN9QIODeviceD1Ev
0001:000137a8* __ZN9QIODeviceD0Ev
0001:000137ec  __ZN9QIODevice7setTypeEi
0001:00013854  __ZN9QIODevice7setModeEi
0001:000138bc  __ZN9QIODevice8setStateEi
0001:000138f4  __ZN9QIODevice9setStatusEi
0001:00013904* __ZNK9QIODevice2atEv
0001:00013938* __ZN9QIODevice2atEm
0001:00013978  __ZNK9QIODevice5atEndEv
0001:000139dc  __ZN9QIODevice7readAllEv
0001:00013b54* __ZN9QIODevice10writeBlockERK9QMemArrayIcE
0001:00013b74  __ZN9QIODevice8readLineEPcm
0001:00013bc0* __ZTV9QIODevice$w$9TPoIKVE8U6raCNp1
0001:00013c08* __ZTV9QMemArrayIcE$w$9TPoIKVE8U6raCNp1
0001:00013c24* __ZN9QMemArrayIcED1Ev$w$9TPoIKVE8U6raCNp1
0001:00013c40* __ZN9QMemArrayIcED0Ev$w$9TPoIKVE8U6raCNp1
0001:00013c68* __ZN9QMemArrayIcE6detachEv$w$9TPoIKVE8U6raCNp1
Module: C:\200\trunk\src\moc\tmp\obj\release_mt_shared\qregexp.obj(qregexp.obj)
0001:00014570* __ZN13QRegExpEngineC2ERK7QStringb
0001:00015ac4* __ZN13QRegExpEngine5setupEb
0001:00019d98* __ZN13QRegExpEngine5parseEPK5QChari
0001:00019600* __ZN13QRegExpEngine5errorEPKc
0001:000146d8* __ZN13QRegExpEngineC1ERK7QStringb
0001:00014840* __ZN13QRegExpEngineD2Ev
0001:00014964* __ZN13QRegExpEngineD1Ev
0001:00014a88* __ZN13QRegExpEngine5matchERK7QStringibbiR9QMemArrayIiE
0001:000160a4* __ZN13QRegExpEngine15goodStringMatchEv
0001:0001613c* __ZN13QRegExpEngine12badCharMatchEv
0001:00016344* __ZN13QRegExpEngine9matchHereEv
0001:00014d08* __ZN13QRegExpEngine11createStateE5QChar
0001:00015b64* __ZN13QRegExpEngine10setupStateEi
0001:00014d1c* __ZN13QRegExpEngine11createStateERKNS_9CharClassE
0001:00017364* __ZN13QRegExpEngine9CharClassaSERKS0_
0001:00014dc0* __ZN13QRegExpEngine11createStateEi
0001:00014dfc* __ZN13QRegExpEngine17addCatTransitionsERK9QMemArrayIiES3_
0001:00014ea0* __ZN13QRegExpEngine18addPlusTransitionsERK9QMemArrayIiES3_i
0001:0001514c* __ZN13QRegExpEngine17anchorAlternationEii
0001:00015274* __ZN13QRegExpEngine19anchorConcatenationEii
0001:00015320* __ZN13QRegExpEngine10addAnchorsEiii
0001:000153f8* __ZN13QRegExpEngine28heuristicallyChooseHeuristicEv
0001:0001561c* __ZNK13QRegExpEngine4dumpEv
0001:000177f4* __ZNK13QRegExpEngine9CharClass4dumpEv
0001:00015bf4* __ZN13QRegExpEngine9startAtomEb
0001:00015cb0* __ZN13QRegExpEngine12addLookaheadEPS_b
0001:00015d20* __ZN13QRegExpEngine15isBetterCaptureEPKiS1_S1_S1_
0001:00015d64* __ZN13QRegExpEngine10testAnchorEiiPKi
0001:0001764c* __ZNK13QRegExpEngine9CharClass2inE5QChar
0001:000172bc* __ZN13QRegExpEngine9CharClassC2Ev
0001:00017310* __ZN13QRegExpEngine9CharClassC1Ev
0001:00017408* __ZN13QRegExpEngine9CharClass5clearEv
0001:00017430* __ZN13QRegExpEngine9CharClass11setNegativeEb
0001:0001745c* __ZN13QRegExpEngine9CharClass13addCategoriesEi
0001:0001748c* __ZN13QRegExpEngine9CharClass8addRangeEtt
0001:000178dc* __ZN13QRegExpEngine3BoxC2EPS_
0001:000179d8* __ZN13QRegExpEngine3BoxC1EPS_
0001:00017ad4* __ZN13QRegExpEngine3BoxaSERKS0_
0001:00017b88* __ZN13QRegExpEngine3Box3setE5QChar
0001:00017d3c* __ZN13QRegExpEngine3Box3setERKNS_9CharClassE
0001:00017dd0* __ZN13QRegExpEngine3Box3setEi
0001:00017e70* __ZN13QRegExpEngine3Box3catERKS0_
0001:00018e1c* __ZNK13QRegExpEngine3Box18addAnchorsToEngineERKS0_
0001:00018440* __ZN13QRegExpEngine3Box3orxERKS0_
0001:00018704* __ZN13QRegExpEngine3Box4plusEi
0001:00018738* __ZN13QRegExpEngine3Box3optEv
0001:00018850* __ZN13QRegExpEngine3Box9catAnchorEi
0001:0001895c* __ZN13QRegExpEngine3Box15setupHeuristicsEv
0001:00018b5c* __ZNK13QRegExpEngine3Box4dumpEv
0001:00018fcc* __ZN13QRegExpEngine7getCharEv
0001:00019034* __ZN13QRegExpEngine9getEscapeEv
0001:00019558* __ZN13QRegExpEngine6getRepEi
0001:000195cc* __ZN13QRegExpEngine9skipCharsEi
0001:00019668* __ZN13QRegExpEngine14startTokenizerEPK5QChari
0001:00019758* __ZN13QRegExpEngine8getTokenEv
0001:0001b38c* __ZN13QRegExpEngine15parseExpressionEPNS_3BoxE
0001:0001a808* __ZN13QRegExpEngine9parseAtomEPNS_3BoxE
0001:0001aa0c* __ZN13QRegExpEngine11parseFactorEPNS_3BoxE
0001:0001b1fc* __ZN13QRegExpEngine9parseTermEPNS_3BoxE
0001:0001b63c* __ZN7QRegExpC2Ev
0001:0001b708  __ZN7QRegExpC1Ev
0001:0001b7d4* __ZN7QRegExpC2ERK7QStringbb
0001:0001b8e8  __ZN7QRegExpC1ERK7QStringbb
0001:0001b9fc* __ZN7QRegExpC2ERKS_
0001:0001bd24* __ZN7QRegExpaSERKS_
0001:0001bac0  __ZN7QRegExpC1ERKS_
0001:0001bb84* __ZN7QRegExpD2Ev
0001:0001c9a4* __ZN7QRegExp16invalidateEngineEv
0001:0001bc54  __ZN7QRegExpD1Ev
0001:0001be2c* __ZNK7QRegExpeqERKS_
0001:0001bea0* __ZNK7QRegExp7isEmptyEv
0001:0001bec0* __ZNK7QRegExp7isValidEv
0001:0001c860* __ZNK7QRegExp13prepareEngineEv
0001:0001bef4* __ZNK7QRegExp7patternEv
0001:0001bf14* __ZN7QRegExp10setPatternERK7QString
0001:0001bf5c* __ZNK7QRegExp13caseSensitiveEv
0001:0001bf74  __ZN7QRegExp16setCaseSensitiveEb
0001:0001bfb0* __ZNK7QRegExp8wildcardEv
0001:0001bfc4* __ZN7QRegExp11setWildcardEb
0001:0001bffc* __ZNK7QRegExp7minimalEv
0001:0001c014* __ZN7QRegExp10setMinimalEb
0001:0001c034  __ZNK7QRegExp10exactMatchERK7QString
0001:0001c968* __ZNK7QRegExp21prepareEngineForMatchERK7QString
0001:0001c128* __ZNK7QRegExp5matchERK7QStringiPib
0001:0001c188  __ZNK7QRegExp6searchERK7QStringiNS_9CaretModeE
0001:0001c330  __ZNK7QRegExp13matchedLengthEv
0001:0001c170  __ZNK7QRegExp6searchERK7QStringi
0001:0001ca34* __ZN7QRegExp10caretIndexEiNS_9CaretModeE
0001:0001c21c  __ZNK7QRegExp9searchRevERK7QStringi
0001:0001c234* __ZNK7QRegExp9searchRevERK7QStringiNS_9CaretModeE
0001:0001c36c  __ZNK7QRegExp11numCapturesEv
0001:0001c38c* __ZN7QRegExp13capturedTextsEv
0001:0001c640  __ZN7QRegExp3capEi
0001:0001c6e4* __ZN7QRegExp3posEi
0001:0001c750* __ZN7QRegExp11errorStringEv
0001:0001c7a8* __ZN7QRegExp6escapeERK7QString
0001:0001d450* __ZTV9QMemArrayIiE$w$vAwIzSVE8U6SGYzr0
0001:0001ca50* __ZN4QMapIiiE6insertERKiS2_b$w$vAwIzSVE8U6SGYzr0
0001:0001cab4* __ZN17QMapConstIteratorIiiE3incEv$w$vAwIzSVE8U6SGYzr0
0001:0001cb00* __ZNK11QMapPrivateIiiE4findERKi$w$vAwIzSVE8U6SGYzr0
0001:0001d400* __ZTV10QPtrVectorIN13QRegExpEngine5StateEE$w$vAwIzSVE8U6SGYzr0
0001:0001d3d0* __ZTV9QMemArrayIN13QRegExpEngine4AtomEE$w$vAwIzSVE8U6SGYzr0
0001:0001d3a0* __ZTV10QPtrVectorIN13QRegExpEngine9CharClassEE$w$vAwIzSVE8U6SGYzr0
0001:0001d360* __ZTV10QPtrVectorIN13QRegExpEngine9LookaheadEE$w$vAwIzSVE8U6SGYzr0
0001:0001d328* __ZTV9QMemArrayIN13QRegExpEngine17AnchorAlternationEE$w$vAwIzSVE8U6SGYzr0
0001:0001d300* __ZTV8QIntDictIiE$w$vAwIzSVE8U6SGYzr0
0001:0001d430* __ZTV9QMemArrayIN13QRegExpEngine9CharClass5RangeEE$w$vAwIzSVE8U6SGYzr0
0001:0001cb50* __ZN11QMapPrivateIiiEC1Ev$w$vAwIzSVE8U6SGYzr0
0001:0001cb8c* __ZN4QMapIiiEixERKi$w$vAwIzSVE8U6SGYzr0
0001:0001d4b0* __ZTV9QMemArrayIcE$w$vAwIzSVE8U6SGYzr0
0001:0001cc3c* __ZN4QMapIiiEaSERKS0_$w$vAwIzSVE8U6SGYzr0
0001:0001cc00* __ZN11QMapPrivateIiiE5clearEv$w$vAwIzSVE8U6SGYzr0
0001:0001cc8c* __ZN4QMapIiiE14detachInternalEv$w$vAwIzSVE8U6SGYzr0
0001:0001d684* __ZN13QRegExpEngineC1Eb$w$vAwIzSVE8U6SGYzr0
0001:0001d2e0* __ZTV6QCacheI13QRegExpEngineE$w$vAwIzSVE8U6SGYzr0
0001:0001ccbc* __ZN17QValueListPrivateI7QStringEC1Ev$w$vAwIzSVE8U6SGYzr0
0001:0001cd08* __ZN17QValueListPrivateI7QStringED1Ev$w$vAwIzSVE8U6SGYzr0
0001:0001cd98* __ZN17QValueListPrivateI7QStringE6insertE18QValueListIteratorIS0_ERKS0_$w$vAwIzSVE8U6SGYzr0
0001:0001cdf4* __ZN10QValueListI7QStringE14detachInternalEv$w$vAwIzSVE8U6SGYzr0
0001:0001ce6c* __ZNK17QValueListPrivateI7QStringE2atEj$w$vAwIzSVE8U6SGYzr0
0001:0001ceb4* __ZN10QValueListI7QStringE5clearEv$w$vAwIzSVE8U6SGYzr0
0001:0001cef8* __ZN11QMapPrivateIiiE12insertSingleERKi$w$vAwIzSVE8U6SGYzr0
0001:0001cf94* __ZN11QMapPrivateIiiE5clearEP8QMapNodeIiiE$w$vAwIzSVE8U6SGYzr0
0001:0001cfd0* __ZN11QMapPrivateIiiEC1EPKS0_$w$vAwIzSVE8U6SGYzr0
0001:0001d068* __ZN17QValueListPrivateI7QStringEC1ERKS1_$w$vAwIzSVE8U6SGYzr0
0001:0001d0fc* __ZN17QValueListPrivateI7QStringE5clearEv$w$vAwIzSVE8U6SGYzr0
0001:0001d160* __ZN11QMapPrivateIiiE6insertEP12QMapNodeBaseS2_RKi$w$vAwIzSVE8U6SGYzr0
0001:0001d1f4* __ZN12QMapIteratorIiiE3decEv$w$vAwIzSVE8U6SGYzr0
0001:0001d24c* __ZN11QMapPrivateIiiE4copyEP8QMapNodeIiiE$w$vAwIzSVE8U6SGYzr0
0001:0001d948* __ZNK6QCacheI13QRegExpEngineE5countEv$w$vAwIzSVE8U6SGYzr0
0001:0001d954* __ZN6QCacheI13QRegExpEngineE5clearEv$w$vAwIzSVE8U6SGYzr0
0001:0001d960* __ZN6QCacheI13QRegExpEngineED1Ev$w$vAwIzSVE8U6SGYzr0
0001:0001d988* __ZN6QCacheI13QRegExpEngineED0Ev$w$vAwIzSVE8U6SGYzr0
0001:0001d9b8* __ZN6QCacheI13QRegExpEngineE10deleteItemEPv$w$vAwIzSVE8U6SGYzr0
0001:0001d9f0* __ZNK8QIntDictIiE5countEv$w$vAwIzSVE8U6SGYzr0
0001:0001d8a0* __ZN8QIntDictIiE5clearEv$w$vAwIzSVE8U6SGYzr0
0001:0001d65c* __ZN8QIntDictIiED1Ev$w$vAwIzSVE8U6SGYzr0
0001:0001d8ac* __ZN8QIntDictIiED0Ev$w$vAwIzSVE8U6SGYzr0
0001:0001d9fc* __ZN8QIntDictIiE10deleteItemEPv$w$vAwIzSVE8U6SGYzr0
0001:0001d640* __ZN9QMemArrayIN13QRegExpEngine17AnchorAlternationEED1Ev$w$vAwIzSVE8U6SGYzr0
0001:0001d878* __ZN9QMemArrayIN13QRegExpEngine17AnchorAlternationEED0Ev$w$vAwIzSVE8U6SGYzr0
0001:0001da1c* __ZN9QMemArrayIN13QRegExpEngine17AnchorAlternationEE6detachEv$w$vAwIzSVE8U6SGYzr0
0001:0001da34* __ZNK10QPtrVectorIN13QRegExpEngine9LookaheadEE5countEv$w$vAwIzSVE8U6SGYzr0
0001:0001d83c* __ZN10QPtrVectorIN13QRegExpEngine9LookaheadEE5clearEv$w$vAwIzSVE8U6SGYzr0
0001:0001d618* __ZN10QPtrVectorIN13QRegExpEngine9LookaheadEED1Ev$w$vAwIzSVE8U6SGYzr0
0001:0001d848* __ZN10QPtrVectorIN13QRegExpEngine9LookaheadEED0Ev$w$vAwIzSVE8U6SGYzr0
0001:0001da40* __ZN10QPtrVectorIN13QRegExpEngine9LookaheadEE10deleteItemEPv$w$vAwIzSVE8U6SGYzr0
0001:0001da88* __ZNK10QPtrVectorIN13QRegExpEngine9CharClassEE5countEv$w$vAwIzSVE8U6SGYzr0
0001:0001d800* __ZN10QPtrVectorIN13QRegExpEngine9CharClassEE5clearEv$w$vAwIzSVE8U6SGYzr0
0001:0001d5f0* __ZN10QPtrVectorIN13QRegExpEngine9CharClassEED1Ev$w$vAwIzSVE8U6SGYzr0
0001:0001d80c* __ZN10QPtrVectorIN13QRegExpEngine9CharClassEED0Ev$w$vAwIzSVE8U6SGYzr0
0001:0001da94* __ZN10QPtrVectorIN13QRegExpEngine9CharClassEE10deleteItemEPv$w$vAwIzSVE8U6SGYzr0
0001:0001d5d4* __ZN9QMemArrayIN13QRegExpEngine4AtomEED1Ev$w$vAwIzSVE8U6SGYzr0
0001:0001d7d8* __ZN9QMemArrayIN13QRegExpEngine4AtomEED0Ev$w$vAwIzSVE8U6SGYzr0
0001:0001dae8* __ZN9QMemArrayIN13QRegExpEngine4AtomEE6detachEv$w$vAwIzSVE8U6SGYzr0
0001:0001db00* __ZNK10QPtrVectorIN13QRegExpEngine5StateEE5countEv$w$vAwIzSVE8U6SGYzr0
0001:0001d79c* __ZN10QPtrVectorIN13QRegExpEngine5StateEE5clearEv$w$vAwIzSVE8U6SGYzr0
0001:0001d5ac* __ZN10QPtrVectorIN13QRegExpEngine5StateEED1Ev$w$vAwIzSVE8U6SGYzr0
0001:0001d7a8* __ZN10QPtrVectorIN13QRegExpEngine5StateEED0Ev$w$vAwIzSVE8U6SGYzr0
0001:0001db0c* __ZN10QPtrVectorIN13QRegExpEngine5StateEE10deleteItemEPv$w$vAwIzSVE8U6SGYzr0
0001:0001d590* __ZN9QMemArrayIN13QRegExpEngine9CharClass5RangeEED1Ev$w$vAwIzSVE8U6SGYzr0
0001:0001d8f4* __ZN9QMemArrayIN13QRegExpEngine9CharClass5RangeEED0Ev$w$vAwIzSVE8U6SGYzr0
0001:0001dbdc* __ZN9QMemArrayIN13QRegExpEngine9CharClass5RangeEE6detachEv$w$vAwIzSVE8U6SGYzr0
0001:0001d54c* __ZN9QMemArrayIiED1Ev$w$vAwIzSVE8U6SGYzr0
0001:0001d568* __ZN9QMemArrayIiED0Ev$w$vAwIzSVE8U6SGYzr0
0001:0001d8dc* __ZN9QMemArrayIiE6detachEv$w$vAwIzSVE8U6SGYzr0
0001:0001d480* __ZTV6QGList$w$vAwIzSVE8U6SGYzr0
0001:0001d540* __ZNK6QGList5countEv$w$vAwIzSVE8U6SGYzr0
0001:0001d524* __ZN9QMemArrayIcED1Ev$w$vAwIzSVE8U6SGYzr0
0001:0001d91c* __ZN9QMemArrayIcED0Ev$w$vAwIzSVE8U6SGYzr0
0001:0001dbf4* __ZN9QMemArrayIcE6detachEv$w$vAwIzSVE8U6SGYzr0
Module: C:\200\trunk\src\moc\tmp\obj\release_mt_shared\qstring.obj(qstring.obj)
0001:0001df78* __ZNK5QChar7isPrintEv
0001:0001dfac  __ZNK5QChar7isSpaceEv
0001:0001dff0* __ZNK5QChar6isMarkEv
0001:0001e01c* __ZNK5QChar7isPunctEv
0001:0001e04c  __ZNK5QChar8isLetterEv
0001:0001e07c  __ZNK5QChar8isNumberEv
0001:0001e0ac  __ZNK5QChar16isLetterOrNumberEv
0001:0001e0e8  __ZNK5QChar7isDigitEv
0001:0001e110* __ZNK5QChar8isSymbolEv
0001:0001e140  __ZNK5QChar10digitValueEv
0001:0001e16c  __ZNK5QChar8categoryEv
0001:0001e190* __ZNK5QChar9directionEv
0001:0001e1b4* __ZNK5QChar7joiningEv
0001:0001e1dc* __ZNK5QChar8mirroredEv
0001:0001e208* __ZNK5QChar12mirroredCharEv
0001:0001e280* __ZNK5QChar13decompositionEv
0001:00025220  __ZN7QStringpLE5QChar
0001:0001f3a4  __ZN7QStringaSERKS_
0001:0001f354  __ZN11QStringData10deleteSelfEv
0001:0001eb70  __ZN7QString14makeSharedNullEv
0001:0001e358* __ZNK5QChar16decompositionTagEv
0001:0001e394* __ZNK5QChar14combiningClassEv
0001:0001e3b8  __ZNK5QChar5lowerEv
0001:0001e41c  __ZNK5QChar5upperEv
0001:0001e480* __ZN9QLigatureC2E5QChar
0001:0001e4c8* __ZN9QLigatureC1E5QChar
0001:0001e510* __ZN9QLigature4headEv
0001:0001e54c* __ZN9QLigature3tagEv
0001:0001e57c* __ZN9QLigature5matchER7QStringj
0001:0001e674* __ZN7QString7composeEv
0001:0001ec98  __ZN7QStringC1ERKS_
0001:00023b34* __ZN7QString7replaceEjj5QChar
0001:0001e878* __ZN7QString15latin1ToUnicodeERK9QMemArrayIcEPj
0001:0001e9d0* __ZN7QString15latin1ToUnicodeEPKcPjj
0001:0001eb14  __ZN7QString15unicodeToLatin1EPK5QCharj
0001:0001ebb4* __ZN7QStringC2E5QChar
0001:0001ec1c  __ZN7QStringC1E5QChar
0001:0001ec84* __ZN7QStringC2ERKS_
0001:0001ecac* __ZN7QStringC2Eib
0001:0001ed6c* __ZN7QStringC1Eib
0001:0001ee2c* __ZN7QStringC2ERK9QMemArrayIcE
0001:000257ac  __ZN7QString9fromAsciiEPKci
0001:0001eef4  __ZN7QStringC1ERK9QMemArrayIcE
0001:0001efbc* __ZN7QStringC2EPK5QCharj
0001:0001f084  __ZN7QStringC1EPK5QCharj
0001:0001f14c* __ZN7QStringC2EPKc
0001:0001f20c  __ZN7QStringC1EPKc
0001:0001f2cc  __ZN7QString11real_detachEv
0001:0001f420  __ZN7QString9setLengthEj
0001:0001f2ec* __ZN7QString5derefEv
0001:0001f3cc* __ZN7QStringaSERK8QCString
0001:00025c9c* __ZN7QString8setAsciiEPKci
0001:0001f3e8  __ZN7QStringaSEPKc
0001:0001f400  __ZN7QString8truncateEj
0001:0001f548* __ZN7QString7reserveEj
0001:0001f600* __ZN7QString7squeezeEv
0001:0001f6b0* __ZN7QString4growEj
0001:0001fb04* __ZNK7QString3argERKS_i
0001:000252fc  __ZNK7QString6latin1Ev
0001:0001fb78* __ZNK7QString3argElii
0001:0001fbf8* __ZNK7QString3argExii
0001:0001fba0* __ZNK7QString3argEmii
0001:0001fdf0* __ZNK7QString3argEyii
0001:00024df8* __ZN7QString6numberExi
0001:00024e38* __ZN7QString6numberEyi
0001:0001ffbc* __ZNK7QString3argEci
0001:00025260  __ZN7QStringpLEc
0001:0002002c* __ZNK7QString3argE5QChari
0001:000200f8* __ZNK7QString3argEdici
0001:00024eec  __ZN7QString6numberEdci
0001:00020338* __ZNK7QString8multiArgEiRKS_S1_S1_S1_
0001:0002500c  __ZN7QStringpLERKS_
0001:000204b4  __ZN7QString7sprintfEPKcz
0001:00025830  __ZN7QString10fromLatin1EPKci
0001:00024a14  __ZNK7QString5toIntEPbi
0001:00022d90  __ZNK7QString11leftJustifyEj5QCharb
0001:00022e8c  __ZNK7QString12rightJustifyEj5QCharb
0001:00025534  __ZN7QString8fromUtf8EPKci
0001:00025c90* __ZN7QString15setUnicodeCodesEPKtj
0001:00025208  __ZN7QStringpLEPKc
0001:00021048  __ZN7QString4fillE5QChari
0001:00021118  __ZNK7QString4findE5QCharib
0001:00021694  __ZNK7QString4findERKS_ib
0001:00021be0  __ZNK7QString7findRevE5QCharib
0001:00021d30* __ZNK7QString7findRevERKS_ib
0001:000220f8* __ZNK7QString7sectionERKS_iii
0001:0002246c* __ZNK7QString7sectionERK7QRegExpiii
0001:00022ac0  __ZNK7QString4leftEj
0001:00022c90  __ZNK7QString3midEjj
0001:00022898* __ZNK7QString8containsE5QCharb
0001:000229e8  __ZNK7QString8containsEPKcb
0001:00022a40  __ZNK7QString8containsERKS_b
0001:00022b9c  __ZNK7QString5rightEj
0001:00022f84  __ZNK7QString5lowerEv
0001:000230f4  __ZNK7QString5upperEv
0001:00023264  __ZNK7QString15stripWhiteSpaceEv
0001:000233a8  __ZNK7QString18simplifyWhiteSpaceEv
0001:00023504  __ZN7QString6insertEjRKS_
0001:000236bc* __ZN7QString6insertEjPK5QCharj
0001:00023528  __ZN7QString12insertHelperEjPKcj
0001:000237fc  __ZN7QString6insertEj5QChar
0001:00023854  __ZN7QString7prependEPKc
0001:000238a0  __ZN7QString6removeEjj
0001:00023928* __ZN7QString6removeE5QChar
0001:000239a4* __ZN7QString6removeERKS_b
0001:00023a18* __ZN7QString6removeERKS_
0001:00023a30* __ZN7QString7replaceE5QCharS0_
0001:00023aa8* __ZN7QString6removeERK7QRegExp
0001:0002418c  __ZN7QString7replaceERK7QRegExpRKS_
0001:00023ac0* __ZN7QString6removeEPKc
0001:00023b0c* __ZN7QString7replaceEjjRKS_
0001:00023b50  __ZN7QString7replaceEjjPK5QCharj
0001:00023c34* __ZN7QString7replaceE5QCharRKS_b
0001:00023cec  __ZN7QString7replaceERKS_S1_b
0001:00023c94* __ZN7QString7replaceE5QCharRKS_
0001:00025f44  __ZeqRK7QStringS1_
0001:00024174* __ZN7QString7replaceERKS_S1_
0001:0002474c  __ZNK7QString4findERK7QRegExpi
0001:00024764  __ZNK7QString7findRevERK7QRegExpi
0001:0002477c  __ZNK7QString8containsERK7QRegExp
0001:000247d0* __ZNK7QString6toLongEPbi
0001:00024834* __ZNK7QString10toLongLongEPbi
0001:000248bc* __ZNK7QString7toULongEPbi
0001:00024910* __ZNK7QString11toULongLongEPbi
0001:00024998* __ZNK7QString7toShortEPbi
0001:000249dc* __ZNK7QString8toUShortEPbi
0001:00024a50* __ZNK7QString6toUIntEPbi
0001:00024a7c* __ZNK7QString8toDoubleEPb
0001:00024ae8* __ZNK7QString7toFloatEPb
0001:00024b28  __ZN7QString6setNumExi
0001:00024bc8* __ZN7QString6setNumEyi
0001:00024c68* __ZN7QString6setNumEli
0001:00024c84* __ZN7QString6setNumEmi
0001:00024ca0* __ZN7QString6setNumEdci
0001:00024d90* __ZN7QString6numberEli
0001:00024dc4* __ZN7QString6numberEmi
0001:00024e78  __ZN7QString6numberEii
0001:00024eb0* __ZN7QString6numberEji
0001:00024f38* __ZN7QString9setExpandEj5QChar
0001:00025abc  __ZN7QString5subatEj
0001:000250d4* __ZN7QString20operatorPlusEqHelperEPKcj
0001:00025354  __ZNK7QString5asciiEv
0001:000253fc  __ZNK7QString4utf8Ev
0001:000258ac  __ZNK7QString9local8BitEv
0001:00026b64  __Z16qt_os2QString2MBRK7QStringi
0001:000258ec  __ZN7QString13fromLocal8BitEPKci
0001:00026d5c  __Z16qt_os2MB2QStringPKci
0001:00025920* __ZNK7QString4ucs2Ev
0001:00025a0c  __ZN7QString8fromUcs2EPKt
0001:00025b20* __ZN7QString10setUnicodeEPK5QCharj
0001:00025d08* __ZN7QString9setLatin1EPKci
0001:00025dd8* __ZNK7QString15checkSimpleTextEv
0001:00025e1c* __ZNK7QString13isRightToLeftEv
0001:00025ec0  __ZNK7QString7compareERKS_
0001:00025ecc* __ZNK7QString18localeAwareCompareERKS_
0001:00026ac0  __Z18qt_os2DefLocaleObjv
0001:00025fa8  __ZneRK7QStringS1_
0001:00025fc4  __ZltRK7QStringS1_
0001:00025fdc* __ZleRK7QStringS1_
0001:00025ffc* __ZgtRK7QStringS1_
0001:0002601c* __ZgeRK7QStringS1_
0001:00026034  __ZeqRK7QStringPKc
0001:0002608c* __ZeqPKcRK7QString
0001:000260a4* __ZneRK7QStringPKc
0001:000260c0* __ZnePKcRK7QString
0001:000260dc* __ZltRK7QStringPKc
0001:00026128* __ZltPKcRK7QString
0001:00026174* __ZleRK7QStringPKc
0001:000261c4* __ZlePKcRK7QString
0001:00026214* __ZgtRK7QStringPKc
0001:00026264* __ZgtPKcRK7QString
0001:000262b4* __ZgeRK7QStringPKc
0001:00026304* __ZgePKcRK7QString
0001:00026358  __ZlsR11QDataStreamRK7QString
0001:000264e0  __ZrsR11QDataStreamR7QString
0001:000266c0* __ZN12QConstStringC2EPK5QCharj
0001:00026718  __ZN12QConstStringC1EPK5QCharj
0001:00026770* __ZN12QConstStringD2Ev
0001:000267e4  __ZN12QConstStringD1Ev
0001:00026858* __ZNK7QString10startsWithERKS_b
0001:00026970* __ZNK7QString10startsWithERKS_
0001:00026988* __ZNK7QString8endsWithERKS_b
0001:00026aa4  __ZNK7QString8endsWithERKS_
0001:00026af0* __Z17qt_os2DefUconvObjv
0001:00026f18* __Z25qt_os2UconvFirstByteTablev
0002:00002e44  __ZN7QString4nullE
0002:00002e40  __ZN7QString11shared_nullE
0002:00002e48  __ZN5QChar4nullE
0002:00002e4a  __ZN5QChar11replacementE
0002:00002e4c  __ZN5QChar13byteOrderMarkE
0002:00002e4e  __ZN5QChar16byteOrderSwappedE
0002:00002e50* __ZN5QChar4nbspE
0001:00027110* __ZTV9QMemArrayI5QCharE$w$j66190WE8U6gNUdV0
0001:00026f54* __ZN17QValueListPrivateI7QStringED1Ev$w$j66190WE8U6gNUdV0
0001:00026fe4* __ZN10QValueListI7QStringE14detachInternalEv$w$j66190WE8U6gNUdV0
0001:000270e0* __ZTV8QPtrListI13section_chunkE$w$j66190WE8U6gNUdV0
0001:000270a8* __ZTV9QMemArrayItE$w$j66190WE8U6gNUdV0
0001:00027014* __ZN17QValueListPrivateI7QStringEC1ERKS1_$w$j66190WE8U6gNUdV0
0001:00027520* __ZN17QValueListPrivateI7QStringE6insertE18QValueListIteratorIS0_ERKS0_$w$j66190WE8U6gNUdV0
0001:000274dc* __ZN9QMemArrayItED1Ev$w$j66190WE8U6gNUdV0
0001:000274f8* __ZN9QMemArrayItED0Ev$w$j66190WE8U6gNUdV0
0001:0002757c* __ZN9QMemArrayItE6detachEv$w$j66190WE8U6gNUdV0
0001:00027494* __ZNK8QPtrListI13section_chunkE5countEv$w$j66190WE8U6gNUdV0
0001:000274a0* __ZN8QPtrListI13section_chunkE5clearEv$w$j66190WE8U6gNUdV0
0001:0002746c* __ZN8QPtrListI13section_chunkED1Ev$w$j66190WE8U6gNUdV0
0001:000274ac* __ZN8QPtrListI13section_chunkED0Ev$w$j66190WE8U6gNUdV0
0001:00027594* __ZN8QPtrListI13section_chunkE10deleteItemEPv$w$j66190WE8U6gNUdV0
0001:00027428* __ZN9QMemArrayI5QCharED1Ev$w$j66190WE8U6gNUdV0
0001:00027444* __ZN9QMemArrayI5QCharED0Ev$w$j66190WE8U6gNUdV0
0001:000275e4* __ZN9QMemArrayI5QCharE6detachEv$w$j66190WE8U6gNUdV0
0001:00027140* __ZTV6QGList$w$j66190WE8U6gNUdV0
0001:00027280* __ZNK6QGList5countEv$w$j66190WE8U6gNUdV0
Module: C:\200\trunk\src\moc\tmp\obj\release_mt_shared\qlocale.obj(qlocale.obj)
0001:00027abc* __ZNK14QLocalePrivate8infinityEv
0001:00027ae0* __ZNK14QLocalePrivate3nanEv
0001:00027b08  __ZN14QLocalePrivate16systemLocaleNameEv
0001:00027cc8* __ZN7QLocaleC2ERK7QString
0001:00027e28* __ZN7QLocaleC1ERK7QString
0001:00027f88* __ZN7QLocaleC2Ev
0001:00028598* __ZN7QLocale6systemEv
0001:00027fbc  __ZN7QLocaleC1Ev
0001:00027ff0* __ZN7QLocaleC2ENS_8LanguageENS_7CountryE
0001:00028044  __ZN7QLocaleC1ENS_8LanguageENS_7CountryE
0001:00028098* __ZN7QLocaleC2ERKS_
0001:000280a8* __ZN7QLocaleC1ERKS_
0001:000280b8* __ZN7QLocaleaSERKS_
0001:000280c8* __ZN7QLocale10setDefaultERKS_
0001:000280d8* __ZNK7QLocale8languageEv
0001:000280e4* __ZNK7QLocale7countryEv
0001:000280f4* __ZNK7QLocale4nameEv
0001:00028188* __ZN7QLocale16languageToStringENS_8LanguageE
0001:000281c8* __ZN7QLocale15countryToStringENS_7CountryE
0001:00028208* __ZNK7QLocale7toShortERK7QStringPb
0001:0002835c* __ZNK7QLocale10toLongLongERK7QStringPb
0001:0002824c* __ZNK7QLocale8toUShortERK7QStringPb
0001:000283b0* __ZNK7QLocale11toULongLongERK7QStringPb
0001:00028284* __ZNK7QLocale5toIntERK7QStringPb
0001:000282c0* __ZNK7QLocale6toUIntERK7QStringPb
0001:000282f0* __ZNK7QLocale6toLongERK7QStringPb
0001:0002832c* __ZNK7QLocale7toULongERK7QStringPb
0001:00029f98  __ZNK14QLocalePrivate16stringToLongLongE7QStringiPb
0001:0002a050  __ZNK14QLocalePrivate19stringToUnsLongLongE7QStringiPb
0001:00028404* __ZNK7QLocale7toFloatERK7QStringPb
0001:00028420* __ZNK7QLocale8toDoubleERK7QStringPb
0001:00029e64  __ZNK14QLocalePrivate14stringToDoubleE7QStringPb
0001:00028480* __ZNK7QLocale8toStringEx
0001:00028fe8  __ZNK14QLocalePrivate16longLongToStringExiiij
0001:000284ac* __ZNK7QLocale8toStringEy
0001:0002939c  __ZNK14QLocalePrivate19unsLongLongToStringEyiiij
0001:00028508* __ZNK7QLocale8toStringEdci
0001:00028b2c  __ZNK14QLocalePrivate14doubleToStringEdiNS_10DoubleFormEij
0001:000285ec* __ZNK14QLocalePrivate7isDigitE5QChar
0001:000296bc* __ZNK14QLocalePrivate15numberToCLocaleER7QString
0002:00002e90* __ZN7QLocale9default_dE
Module: C:\200\trunk\src\moc\tmp\obj\release_mt_shared\qunicodetables.obj(qunicodetables.obj)
0001:0002fb80  __ZN14QUnicodeTables12unicode_infoE
0001:00033280  __ZN14QUnicodeTables17decomposition_mapE
0001:0003b780  __ZN14QUnicodeTables18decomposition_infoE
0001:00040380  __ZN14QUnicodeTables12ligature_mapE
0001:00040e80  __ZN14QUnicodeTables13ligature_infoE
0001:00043c80  __ZN14QUnicodeTables14direction_infoE
0001:00046580  __ZN14QUnicodeTables14combining_infoE
0001:00047a80  __ZN14QUnicodeTables9case_infoE
0001:00049280  __ZN14QUnicodeTables12decimal_infoE
0001:0004a180* __ZN14QUnicodeTables15line_break_infoE
0001:0004ce80  __ZN14QUnicodeTables14symmetricPairsE
0001:0004d0f8  __ZN14QUnicodeTables18symmetricPairsSizeE
0001:0004d100* __ZN14QUnicodeTables12otherScriptsE
0001:0004d180* __ZN14QUnicodeTables12indicScriptsE
0001:0004d1a0* __ZN14QUnicodeTables11scriptTableE
Module: C:\200\trunk\src\moc\tmp\obj\release_mt_shared\qstringlist.obj(qstringlist.obj)
0001:0004d2a0* __ZN11QStringList4sortEv
0001:0004d2ac  __ZN11QStringList5splitERK5QCharRK7QStringb
0001:0004d30c  __ZN11QStringList5splitERK7QStringS2_b
0001:0004d5c4* __ZN11QStringList5splitERK7QRegExpRK7QStringb
0001:0004d910* __ZNK11QStringList4grepERK7QStringb
0001:0004d9e8* __ZNK11QStringList4grepERK7QRegExp
0001:0004dab8* __ZN11QStringList4gresERK7QStringS2_b
0001:0004db3c* __ZN11QStringList4gresERK7QRegExpRK7QString
0001:0004dbb8  __ZNK11QStringList4joinERK7QString
0001:0004dc38* __ZrsR11QDataStreamR11QStringList
0001:0004dc44* __ZlsR11QDataStreamRK11QStringList
0001:0004dc50* __ZN11QStringList11fromStrListERK8QStrList
0001:0004dd38* __Z9qHeapSortI11QStringListEvRT_$w$PoLtB8WE8U6Gwe4b3
0001:0004de44* __ZN17QValueListPrivateI7QStringEC1Ev$w$PoLtB8WE8U6Gwe4b3
0001:0004de90* __ZN17QValueListPrivateI7QStringE6insertE18QValueListIteratorIS0_ERKS0_$w$PoLtB8WE8U6Gwe4b3
0001:0004deec* __ZN10QValueListI7QStringE14detachInternalEv$w$PoLtB8WE8U6Gwe4b3
0001:0004df1c* __ZrsI7QStringER11QDataStreamS2_R10QValueListIT_E$w$PoLtB8WE8U6Gwe4b3
0001:0004e04c* __ZlsI7QStringER11QDataStreamS2_RK10QValueListIT_E$w$PoLtB8WE8U6Gwe4b3
0001:0004e0b4* __Z15qHeapSortHelperI18QValueListIteratorI7QStringES1_EvT_S3_T0_j$w$PoLtB8WE8U6Gwe4b3
0001:0004e28c* __ZN17QValueListPrivateI7QStringEC1ERKS1_$w$PoLtB8WE8U6Gwe4b3
0001:0004e320* __ZN10QValueListI7QStringE5clearEv$w$PoLtB8WE8U6Gwe4b3
0001:0004e364* __Z17qHeapSortPushDownI7QStringEvPT_ii$w$PoLtB8WE8U6Gwe4b3
0001:0004e51c* __ZN17QValueListPrivateI7QStringE5clearEv$w$PoLtB8WE8U6Gwe4b3
0001:0004e580* __ZTV6QGList$w$PoLtB8WE8U6Gwe4b3
0001:0004e5ac* __ZNK6QGList5countEv$w$PoLtB8WE8U6Gwe4b3
Module: C:\200\trunk\src\moc\tmp\obj\release_mt_shared\qtextstream.obj(qtextstream.obj)
0001:0004e5c0* __ZN11QTextStream9basefieldE
0001:0004e5c4* __ZN11QTextStream11adjustfieldE
0001:0004e5c8* __ZN11QTextStream10floatfieldE
0001:0004e5cc* __ZN11QTextStream6eat_wsEv
0001:0004f50c* __ZN11QTextStream9ts_getbufEP5QCharj
0001:00050468* __ZN11QTextStream10ts_isspaceE5QChar
0001:0004e64c* __ZN11QTextStream4initEv
0001:0004e6d4* __ZN11QTextStreamC2Ev
0001:00052664* __ZN11QTextStream11setEncodingENS_8EncodingE
0001:00050768* __ZN11QTextStream5resetEv
0001:0004e714* __ZN11QTextStreamC1Ev
0001:0004e754* __ZN11QTextStreamC2EP9QIODevice
0001:0004e79c* __ZN11QTextStreamC1EP9QIODevice
0001:0004e7e4* __ZN13QStringBufferC2EP7QString
0001:0004e808* __ZN13QStringBufferC1EP7QString
0001:0004e82c* __ZN13QStringBufferD2Ev
0001:0004e848* __ZN13QStringBufferD1Ev
0001:0004e864* __ZN13QStringBufferD0Ev
0001:0004e8d8* __ZN13QStringBuffer4openEi
0001:0004e990* __ZN13QStringBuffer5closeEv
0001:0004e9b8* __ZN13QStringBuffer5flushEv
0001:0004e9c0* __ZNK13QStringBuffer4sizeEv
0001:0004e9e0* __ZNK13QStringBuffer2atEv
0001:0004ea40* __ZN13QStringBuffer2atEm
0001:0004eb14* __ZN13QStringBuffer9readBlockEPcm
0001:0004eccc* __ZN13QStringBuffer10writeBlockEPKcm
0001:0004ede8* __ZN13QStringBuffer5getchEv
0001:0004ee5c* __ZN13QStringBuffer5putchEi
0001:0004eee8* __ZN13QStringBuffer7ungetchEi
0001:0004ef48* __ZN11QTextStreamC2EP7QStringi
0001:0004efb8* __ZN11QTextStreamC1EP7QStringi
0001:0004f028* __ZN11QTextStreamC2ER7QStringi
0001:0004f098* __ZN11QTextStreamC1ER7QStringi
0001:0004f108* __ZN11QTextStreamC2E9QMemArrayIcEi
0001:0004f1a0* __ZN11QTextStreamC1E9QMemArrayIcEi
0001:0004f238* __ZN11QTextStreamC2EP7__sFILEi
0001:0004f2ac* __ZN11QTextStreamC1EP7__sFILEi
0001:0004f320* __ZN11QTextStreamD2Ev
0001:0004f3b4* __ZN11QTextStreamD1Ev
0001:0004f448* __ZN11QTextStreamD0Ev
0001:0004f4e4* __ZN11QTextStream14skipWhiteSpaceEv
0001:0005047c* __ZN11QTextStream9ts_ungetcE5QChar
0001:0004fcd0* __ZN11QTextStream10ts_getlineEP5QChar
0001:000502b4* __ZN11QTextStream7ts_putcE5QChar
0001:00050434* __ZN11QTextStream7ts_putcEi
0001:00050454* __ZN11QTextStream10ts_isdigitE5QChar
0001:000504b4* __ZN11QTextStream12readRawBytesEPcj
0001:000504d8* __ZN11QTextStream13writeRawBytesEPKcj
0001:000504fc* __ZN11QTextStream10writeBlockEPKcj
0001:00050610* __ZN11QTextStream10writeBlockEPK5QCharj
0001:0005078c* __ZN11QTextStream9setDeviceEP9QIODevice
0001:000507cc* __ZN11QTextStream11unsetDeviceEv
0001:00050808* __ZN11QTextStreamrsERc
0001:00050858* __ZN11QTextStreamrsER5QChar
0001:000508b8* __ZN11QTextStream9input_binEv
0001:0005095c* __ZN11QTextStream9input_octEv
0001:00050a5c* __ZN11QTextStream9input_decEv
0001:00050b10* __ZN11QTextStream9input_hexEv
0001:00050c3c* __ZN11QTextStream9input_intEv
0001:00050ec8* __ZN11QTextStream12input_doubleEv
0001:000511d4* __ZN11QTextStreamrsERs
0001:0005120c* __ZN11QTextStreamrsERt
0001:00051244* __ZN11QTextStreamrsERi
0001:00051278* __ZN11QTextStreamrsERj
0001:000512ac* __ZN11QTextStreamrsERl
0001:000512e0* __ZN11QTextStreamrsERm
0001:00051314* __ZN11QTextStreamrsERf
0001:00051348* __ZN11QTextStreamrsERd
0001:0005137c* __ZN11QTextStreamrsEPc
0001:00051488* __ZN11QTextStreamrsER7QString
0001:000515b0* __ZN11QTextStreamrsER8QCString
0001:000517f4* __ZN11QTextStream8readLineEv
0001:00051af0* __ZN11QTextStream4readEv
0001:00051d38* __ZN11QTextStreamlsE5QChar
0001:00051d7c* __ZN11QTextStreamlsEc
0001:00051dd8* __ZN11QTextStream10output_intEimb
0001:00052304* __ZN11QTextStreamlsEPKc
0001:000520c0* __ZN11QTextStreamlsEs
0001:000520e0* __ZN11QTextStreamlsEt
0001:000520fc* __ZN11QTextStreamlsEi
0001:0005211c* __ZN11QTextStreamlsEj
0001:00052138* __ZN11QTextStreamlsEl
0001:00052158* __ZN11QTextStreamlsEm
0001:00052174* __ZN11QTextStreamlsEf
0001:0005218c* __ZN11QTextStreamlsEd
0001:00052420* __ZN11QTextStreamlsERK8QCString
0001:00052438* __ZN11QTextStreamlsERK7QString
0001:00052570* __ZN11QTextStreamlsEPv
0001:000525ac* __Z3binR11QTextStream
0001:000525c0* __Z3octR11QTextStream
0001:000525d4* __Z3decR11QTextStream
0001:000525e8* __Z3hexR11QTextStream
0001:000525fc* __Z4endlR11QTextStream
0001:00052610* __Z5flushR11QTextStream
0001:00052634* __Z2wsR11QTextStream
0001:0005264c* __Z5resetR11QTextStream
0001:000527f8* __ZN11QTextStream8setCodecEP10QTextCodec
0001:00052840* __ZN11QTextStream5codecEv
0001:00052870* __ZTV11QTextStream$w$lppA4cWE8U6846Zo1
0001:00052880* __ZTV13QStringBuffer$w$lppA4cWE8U6846Zo1
0001:00052910* __ZTV9QMemArrayIcE$w$lppA4cWE8U6846Zo1
0001:000528e0* __ZTV6QGList$w$lppA4cWE8U6846Zo1
0001:0005296c* __ZNK6QGList5countEv$w$lppA4cWE8U6846Zo1
0001:00052950* __ZN9QMemArrayIcED1Ev$w$lppA4cWE8U6846Zo1
0001:00052978* __ZN9QMemArrayIcED0Ev$w$lppA4cWE8U6846Zo1
0001:000529a0* __ZN9QMemArrayIcE6detachEv$w$lppA4cWE8U6846Zo1
Module: C:\200\trunk\src\moc\tmp\obj\release_mt_shared\qbitarray.obj(qbitarray.obj)
0001:000529f8* __ZN9QBitArrayC2Ev
0001:00052a64  __ZN9QBitArrayC1Ev
0001:00052ad0* __ZN9QBitArrayC2Ej
0001:00052be8* __ZN9QBitArray6resizeEj
0001:00052b44* __ZN9QBitArrayC1Ej
0001:00052bb8* __ZN9QBitArray4pad0Ev
0001:00052c70  __ZN9QBitArray4fillEbi
0001:00052d00* __ZN9QBitArray6detachEv
0001:00052d28* __ZNK9QBitArray4copyEv
0001:00052d8c  __ZNK9QBitArray7testBitEj
0001:00052dfc  __ZN9QBitArray6setBitEj
0001:00052e64* __ZN9QBitArray8clearBitEj
0001:00052ecc* __ZN9QBitArray9toggleBitEj
0001:00052f1c* __ZN9QBitArrayaNERKS_
0001:00052fbc* __ZN9QBitArrayoRERKS_
0001:00053028* __ZN9QBitArrayeOERKS_
0001:00053094* __ZNK9QBitArraycoEv
0001:000530ec* __ZanRK9QBitArrayS1_
0001:00053114* __ZorRK9QBitArrayS1_
0001:0005313c* __ZeoRK9QBitArrayS1_
0001:00053164* __ZlsR11QDataStreamRK9QBitArray
0001:000531e0* __ZrsR11QDataStreamR9QBitArray
0001:00053250* __ZTV9QBitArray$w$9No08dWE8U6By1bh1
0001:00053294* __ZN9QBitArrayD1Ev$w$9No08dWE8U6By1bh1
0001:0005326c* __ZN9QBitArrayD0Ev$w$9No08dWE8U6By1bh1
0001:000532b0* __ZN9QBitArray7newDataEv$w$9No08dWE8U6By1bh1
0001:000532d8* __ZN9QBitArray10deleteDataEPN7QGArray10array_dataE$w$9No08dWE8U6By1bh1
0001:000532e8* __ZTV9QMemArrayIcE$w$9No08dWE8U6By1bh1
0001:00053304* __ZN9QMemArrayIcED1Ev$w$9No08dWE8U6By1bh1
0001:00053320* __ZN9QMemArrayIcED0Ev$w$9No08dWE8U6By1bh1
0001:00053348* __ZN9QMemArrayIcE6detachEv$w$9No08dWE8U6By1bh1
Module: C:\200\trunk\src\moc\tmp\obj\release_mt_shared\qmap.obj(qmap.obj)
0001:00053360* __ZN15QMapPrivateBase10rotateLeftEP12QMapNodeBaseRS1_
0001:000533a0* __ZN15QMapPrivateBase11rotateRightEP12QMapNodeBaseRS1_
0001:000533e4  __ZN15QMapPrivateBase9rebalanceEP12QMapNodeBaseRS1_
0001:00053504* __ZN15QMapPrivateBase18removeAndRebalanceEP12QMapNodeBaseRS1_S2_S2_
Module: C:\200\trunk\src\moc\tmp\obj\release_mt_shared\qgcache.obj(qgcache.obj)
0001:0005385c* __ZN6QCListD2Ev
0001:000538ac* __ZN6QCListD1Ev
0001:000538fc* __ZN6QCListD0Ev
0001:00053964* __ZN6QCList6insertEP10QCacheItem
0001:00053a0c* __ZN6QCList4takeEP10QCacheItem
0001:00053a60  __ZN7QGCacheC2EijNS_7KeyTypeEbb
0001:00053b88* __ZN7QGCacheC1EijNS_7KeyTypeEbb
0001:00053ce4* __ZN7QGCacheC2ERKS_
0001:00053d08* __ZN7QGCacheC1ERKS_
0001:00053d2c  __ZN7QGCacheD2Ev
0001:000543a0  __ZN7QGCache5clearEv
0001:00053d80* __ZN7QGCacheD1Ev
0001:00053dd4* __ZN7QGCacheD0Ev
0001:00053e58* __ZN7QGCacheaSERKS_
0001:00053e74  __ZNK7QGCache5countEv
0001:00053e88* __ZNK7QGCache4sizeEv
0001:00053e98* __ZN7QGCache10setMaxCostEi
0001:000545e4* __ZN7QGCache11makeRoomForEii
0001:00053ee0  __ZN7QGCache13insert_stringERK7QStringPvii
0001:00054088* __ZN7QGCache12insert_otherEPKcPvii
0001:00054220* __ZN7QGCache13remove_stringERK7QString
0001:00054290  __ZN7QGCache11take_stringERK7QString
0001:00054258* __ZN7QGCache12remove_otherEPKc
0001:00054318* __ZN7QGCache10take_otherEPKc
0001:000544b0* __ZNK7QGCache11find_stringERK7QStringb
0001:00054538* __ZNK7QGCache10find_otherEPKcb
0001:0005497c* __ZNK7QGCache10statisticsEv
0001:00054bb4* __ZN15QGCacheIteratorC2ERK7QGCache
0001:00054c04* __ZN15QGCacheIteratorC1ERK7QGCache
0001:00054c54* __ZN15QGCacheIteratorC2ERKS_
0001:00054ca4* __ZN15QGCacheIteratorC1ERKS_
0001:00054cf4* __ZN15QGCacheIteratorD2Ev
0001:00054d20* __ZN15QGCacheIteratorD1Ev
0001:00054d4c* __ZN15QGCacheIteratoraSERKS_
0001:00054d6c* __ZNK15QGCacheIterator5countEv
0001:00054d84* __ZNK15QGCacheIterator7atFirstEv
0001:00054d9c* __ZNK15QGCacheIterator6atLastEv
0001:00054db4* __ZN15QGCacheIterator7toFirstEv
0001:00054dd4* __ZN15QGCacheIterator6toLastEv
0001:00054df4* __ZNK15QGCacheIterator3getEv
0001:00054e14* __ZNK15QGCacheIterator12getKeyStringEv
0001:00054e4c* __ZNK15QGCacheIterator11getKeyAsciiEv
0001:00054e6c* __ZNK15QGCacheIterator9getKeyIntEv
0001:00054e8c* __ZN15QGCacheIteratorclEv
0001:00054eac* __ZN15QGCacheIteratorppEv
0001:00054ecc* __ZN15QGCacheIteratorpLEj
0001:00054ef0* __ZN15QGCacheIteratormmEv
0001:00054f10* __ZN15QGCacheIteratormIEj
0001:00054fa0* __ZTV6QCList$w$BLQQBfWE8U6cbXlo3
0001:00054fe0* __ZTV8QPtrListI10QCacheItemE$w$BLQQBfWE8U6cbXlo3
0001:00054f40* __ZTV7QGCache$w$BLQQBfWE8U6cbXlo3
0001:00054f60* __ZTV6QCDict$w$BLQQBfWE8U6cbXlo3
0001:00055058* __ZNK6QGDict5countEv$w$BLQQBfWE8U6cbXlo3
0001:000550d4* __ZN6QCDict5clearEv$w$BLQQBfWE8U6cbXlo3
0001:00055100* __ZN6QCDictD1Ev$w$BLQQBfWE8U6cbXlo3
0001:00055128* __ZN6QCDictD0Ev$w$BLQQBfWE8U6cbXlo3
0001:000550e0* __ZN6QCDict10deleteItemEPv$w$BLQQBfWE8U6cbXlo3
0001:00055064* __ZNK8QPtrListI10QCacheItemE5countEv$w$BLQQBfWE8U6cbXlo3
0001:00055070* __ZN8QPtrListI10QCacheItemE5clearEv$w$BLQQBfWE8U6cbXlo3
0001:00055158* __ZN8QPtrListI10QCacheItemE10deleteItemEPv$w$BLQQBfWE8U6cbXlo3
0001:0005507c* __ZN8QPtrListI10QCacheItemED1Ev$w$BLQQBfWE8U6cbXlo3
0001:000550a4* __ZN8QPtrListI10QCacheItemED0Ev$w$BLQQBfWE8U6cbXlo3
0001:00055020* __ZTV6QGList$w$BLQQBfWE8U6cbXlo3
0001:0005504c* __ZNK6QGList5countEv$w$BLQQBfWE8U6cbXlo3
Module: C:\200\trunk\src\moc\tmp\obj\release_mt_shared\qtextcodec.obj(qtextcodec.obj)
0001:00055180* __ZN10QTextCodec15deleteAllCodecsEv
0001:00055278* __ZN21QTextStatelessEncoderC2EPK10QTextCodec
0001:0005528c* __ZN21QTextStatelessEncoderC1EPK10QTextCodec
0001:000552a0* __ZN21QTextStatelessEncoder11fromUnicodeERK7QStringRi
0001:000552c8* __ZN21QTextStatelessDecoderC2EPK10QTextCodec
0001:000552dc* __ZN21QTextStatelessDecoderC1EPK10QTextCodec
0001:000552f0* __ZN21QTextStatelessDecoder9toUnicodeEPKci
0001:00055318* __ZN10QTextCodecC2Ev
0001:000553a0* __ZN10QTextCodecC1Ev
0001:00055458  __ZN10QTextCodecD2Ev
0001:000554c4* __ZN10QTextCodecD1Ev
0001:00055530* __ZN10QTextCodecD0Ev
0001:000555a8  __ZNK10QTextCodec18heuristicNameMatchEPKc
0001:00055758* __ZN10QTextCodec24simpleHeuristicNameMatchEPKcS1_
0001:00055914* __ZN10QTextCodec13codecForIndexEi
0001:00055974  __ZN10QTextCodec11codecForMibEi
0001:00055a2c* __ZN14QOS2LocalCodecC2Ev
0001:00055a4c* __ZN14QOS2LocalCodecC1Ev
0001:00055a6c* __ZN14QOS2LocalCodecD2Ev
0001:00055a88* __ZN14QOS2LocalCodecD1Ev
0001:00055aa4* __ZN14QOS2LocalCodecD0Ev
0001:00055acc* __ZNK14QOS2LocalCodec9toUnicodeEPKci
0001:00055aec* __ZNK14QOS2LocalCodec11fromUnicodeERK7QStringRi
0001:00055b3c* __ZNK14QOS2LocalCodec4nameEv
0001:00055b48* __ZNK14QOS2LocalCodec7mibEnumEv
0001:00055b50* __ZNK14QOS2LocalCodec21heuristicContentMatchEPKci
0001:00055c08* __ZN10QTextCodec17setCodecForLocaleEPS_
0001:00055c18  __ZN10QTextCodec14codecForLocaleEv
0001:00055c48* __ZN10QTextCodec12codecForNameEPKci
0001:00055d24* __ZN10QTextCodec15codecForContentEPKci
0001:00055df0  __ZNK10QTextCodec8mimeNameEv
0001:00055e04* __ZNK10QTextCodec11makeDecoderEv
0001:00055e28  __ZNK10QTextCodec11makeEncoderEv
0001:00055e4c  __ZNK10QTextCodec9toUnicodeEPKci
0001:00055ecc  __ZNK10QTextCodec11fromUnicodeERK7QStringRi
0001:00055f08  __ZNK10QTextCodec11fromUnicodeERK7QStringii
0001:00056000  __ZNK10QTextCodec11fromUnicodeERK7QString
0001:00056038* __ZNK10QTextCodec9toUnicodeERK9QMemArrayIcEi
0001:0005606c* __ZNK10QTextCodec9toUnicodeERK9QMemArrayIcE
0001:00056094* __ZNK10QTextCodec9toUnicodeERK8QCStringi
0001:000560e8* __ZNK10QTextCodec9toUnicodeERK8QCString
0001:00056134* __ZNK10QTextCodec9toUnicodeEPKc
0001:00056170  __ZNK10QTextCodec20characterFromUnicodeERK7QStringi
0001:0005621c  __ZNK10QTextCodec9canEncodeE5QChar
0001:00056308  __ZNK10QTextCodec9canEncodeERK7QString
0001:0005638c  __ZN12QTextEncoderD2Ev
0001:0005639c* __ZN12QTextEncoderD1Ev
0001:000563ac* __ZN12QTextEncoderD0Ev
0001:000563c0  __ZN12QTextDecoderD2Ev
0001:000563d0* __ZN12QTextDecoderD1Ev
0001:000563e0* __ZN12QTextDecoderD0Ev
0001:00056438* __ZN24QTextCodecFromIODDecoderC2EPK17QTextCodecFromIOD
0001:00056454* __ZN24QTextCodecFromIODDecoderC1EPK17QTextCodecFromIOD
0001:00056470* __ZN24QTextCodecFromIODDecoder9toUnicodeEPKci
0001:000564f0* __ZN10QTextCodec6localeEv
0001:000564fc* __ZNK12QLatin1Codec9toUnicodeEPKci
0001:00056530* __ZNK12QLatin1Codec11fromUnicodeERK7QStringRi
0001:000565f0* __ZNK12QLatin1Codec11fromUnicodeEPK5QCharPti
0001:00056624* __ZNK12QLatin1Codec20characterFromUnicodeERK7QStringi
0001:00056650* __ZNK12QLatin1Codec4nameEv
0001:00056668* __ZNK12QLatin1Codec8mimeNameEv
0001:00056674* __ZNK12QLatin1Codec7mibEnumEv
0001:00056680* __ZNK12QLatin1Codec21heuristicContentMatchEPKci
0001:0005670c* __ZNK13QLatin15Codec9toUnicodeEPKci
0001:0005688c* __ZNK13QLatin15Codec11fromUnicodeEPK5QCharPti
0001:000568d0* __ZNK13QLatin15Codec11fromUnicodeERK7QStringRi
0001:00056994* __ZNK13QLatin15Codec20characterFromUnicodeERK7QStringi
0001:000569c4* __ZNK13QLatin15Codec4nameEv
0001:000569dc* __ZNK13QLatin15Codec8mimeNameEv
0001:000569e8* __ZNK13QLatin15Codec7mibEnumEv
0001:00056b40* __ZN10QTextCodec19fromUnicodeInternalEPK5QCharPti
0002:00002f00* __ZN10QTextCodec4cftrE
0002:00002f04  __ZN10QTextCodec4cfcsE
0001:00056c00* __ZN10QValueListIP10QTextCodecE5clearEv$w$1THJdiWE8U664BAx1
0001:00056c74* __ZN17QValueListPrivateIP10QTextCodecED1Ev$w$1THJdiWE8U664BAx1
0001:00056c44* __ZN10QValueListIP10QTextCodecE14detachInternalEv$w$1THJdiWE8U664BAx1
0001:00057120* __ZTV21QTextStatelessEncoder$w$1THJdiWE8U664BAx1
0001:00057108* __ZTV21QTextStatelessDecoder$w$1THJdiWE8U664BAx1
0001:000570c0* __ZTV10QTextCodec$w$1THJdiWE8U664BAx1
0001:00056cb0* __ZN17QValueListPrivateIP10QTextCodecE6insertE18QValueListIteratorIS1_ERKS1_$w$1THJdiWE8U664BAx1
0001:00056d00* __ZN17QValueListPrivateIP10QTextCodecE6removeERKS1_$w$1THJdiWE8U664BAx1
0001:00056dac* __ZNK17QValueListPrivateIP10QTextCodecE2atEj$w$1THJdiWE8U664BAx1
0001:00057060* __ZTV14QOS2LocalCodec$w$1THJdiWE8U664BAx1
0001:00057170* __ZTV9QMemArrayIcE$w$1THJdiWE8U664BAx1
0001:00057038* __ZTV12QTextEncoder$w$1THJdiWE8U664BAx1
0001:00057020* __ZTV12QTextDecoder$w$1THJdiWE8U664BAx1
0001:00057008* __ZTV24QTextCodecFromIODDecoder$w$1THJdiWE8U664BAx1
0001:00056df4* __ZN17QValueListPrivateIP10QTextCodecEC1Ev$w$1THJdiWE8U664BAx1
0001:00056fc0* __ZTV12QLatin1Codec$w$1THJdiWE8U664BAx1
0001:00056f60* __ZTV13QLatin15Codec$w$1THJdiWE8U664BAx1
0001:00056e24* __ZN17QValueListPrivateIP10QTextCodecE5clearEv$w$1THJdiWE8U664BAx1
0001:00056e60* __ZN17QValueListPrivateIP10QTextCodecEC1ERKS2_$w$1THJdiWE8U664BAx1
0001:00056eec* __ZN17QValueListPrivateIP10QTextCodecE6removeE18QValueListIteratorIS1_E$w$1THJdiWE8U664BAx1
0001:0005730c* __ZN13QLatin15CodecD1Ev$w$1THJdiWE8U664BAx1
0001:00057328* __ZN13QLatin15CodecD0Ev$w$1THJdiWE8U664BAx1
0001:000572f0* __ZN12QLatin1CodecD1Ev$w$1THJdiWE8U664BAx1
0001:000572c8* __ZN12QLatin1CodecD0Ev$w$1THJdiWE8U664BAx1
0001:00057284* __ZN24QTextCodecFromIODDecoderD1Ev$w$1THJdiWE8U664BAx1
0001:000572a0* __ZN24QTextCodecFromIODDecoderD0Ev$w$1THJdiWE8U664BAx1
0001:00057218* __ZN21QTextStatelessDecoderD1Ev$w$1THJdiWE8U664BAx1
0001:00057234* __ZN21QTextStatelessDecoderD0Ev$w$1THJdiWE8U664BAx1
0001:000571d4* __ZN21QTextStatelessEncoderD1Ev$w$1THJdiWE8U664BAx1
0001:000571f0* __ZN21QTextStatelessEncoderD0Ev$w$1THJdiWE8U664BAx1
0001:00057140* __ZTV6QGList$w$1THJdiWE8U664BAx1
0001:000571c8* __ZNK6QGList5countEv$w$1THJdiWE8U664BAx1
0001:000571ac* __ZN9QMemArrayIcED1Ev$w$1THJdiWE8U664BAx1
0001:0005725c* __ZN9QMemArrayIcED0Ev$w$1THJdiWE8U664BAx1
0001:00057524* __ZN9QMemArrayIcE6detachEv$w$1THJdiWE8U664BAx1
Module: C:\200\trunk\src\moc\tmp\obj\release_mt_shared\qutfcodec.obj(qutfcodec.obj)
0001:00057580* __ZNK10QUtf8Codec7mibEnumEv
0001:0005758c* __ZNK10QUtf8Codec11fromUnicodeERK7QStringRi
0001:000576ec* __ZNK10QUtf8Codec9toUnicodeEPKci
0001:00057734* __ZNK10QUtf8Codec4nameEv
0001:00057740* __ZNK10QUtf8Codec21heuristicContentMatchEPKci
0001:000577d8* __ZNK10QUtf8Codec11makeDecoderEv
0001:000577fc* __ZNK11QUtf16Codec7mibEnumEv
0001:00057818* __ZNK11QUtf16Codec4nameEv
0001:00057824* __ZNK11QUtf16Codec21heuristicContentMatchEPKci
0001:00057858* __ZNK11QUtf16Codec11makeDecoderEv
0001:0005787c* __ZNK11QUtf16Codec11makeEncoderEv
0001:00057928* __ZTV12QUtf8Decoder$w$TeFF9jWE8U6KZKyL1
0001:00057898* __ZTV13QUtf16Decoder$w$TeFF9jWE8U6KZKyL1
0001:000578b0* __ZTV13QUtf16Encoder$w$TeFF9jWE8U6KZKyL1
0001:00057d50* __ZN13QUtf16DecoderD1Ev$w$TeFF9jWE8U6KZKyL1
0001:00057d6c* __ZN13QUtf16DecoderD0Ev$w$TeFF9jWE8U6KZKyL1
0001:00057d94* __ZN13QUtf16Decoder9toUnicodeEPKci$w$TeFF9jWE8U6KZKyL1
0001:00057c2c* __ZN13QUtf16EncoderD1Ev$w$TeFF9jWE8U6KZKyL1
0001:00057c48* __ZN13QUtf16EncoderD0Ev$w$TeFF9jWE8U6KZKyL1
0001:00057c70* __ZN13QUtf16Encoder11fromUnicodeERK7QStringRi$w$TeFF9jWE8U6KZKyL1
0001:000578e0* __ZTV11QUtf16Codec$w$TeFF9jWE8U6KZKyL1
0001:000579c8* __ZN11QUtf16CodecD1Ev$w$TeFF9jWE8U6KZKyL1
0001:000579e4* __ZN11QUtf16CodecD0Ev$w$TeFF9jWE8U6KZKyL1
0001:00057a0c* __ZN12QUtf8DecoderD1Ev$w$TeFF9jWE8U6KZKyL1
0001:00057a28* __ZN12QUtf8DecoderD0Ev$w$TeFF9jWE8U6KZKyL1
0001:00057a50* __ZN12QUtf8Decoder9toUnicodeEPKci$w$TeFF9jWE8U6KZKyL1
0001:00057940* __ZTV10QUtf8Codec$w$TeFF9jWE8U6KZKyL1
0001:00057984* __ZN10QUtf8CodecD1Ev$w$TeFF9jWE8U6KZKyL1
0001:000579a0* __ZN10QUtf8CodecD0Ev$w$TeFF9jWE8U6KZKyL1
Module: C:\200\trunk\src\moc\tmp\obj\release_mt_shared\moc_yacc.obj(moc_yacc.obj)
0001:00057eec* __Z10validUType8QCString
0001:000614d0* __Z10isEnumTypePKc
0001:00058120* __Z11castToUType8QCString
0001:000582c0* __Z8rawUType8QCString
0001:00058424* __Z5uType8QCString
0001:00058f88* __Z13isVariantTypePKc
0001:000588c4* __Z7isInOut8QCString
0001:00058a94* __Z10uTypeExtra8QCString
0001:00058f40* __Z19qvariant_nameToTypePKc
0001:0006142c* __Z9enumIndexPKc
0001:00058fac* __Z14fixRightAnglesP8QCString
0001:000590e4* __Z5yylexv
0001:0005d5c0* __Z16yy_create_bufferP7__sFILEi
0001:000602e4* __Z17addExpressionCharc
0001:000602c8* __Z19addExpressionStringPKc
0001:000604fc* _yywrap
0001:0005d474* __Z9yyrestartP7__sFILE
0001:0005dbf0* __Z9yyreallocPvj
0001:0005d4dc* __Z19yy_switch_to_bufferP15yy_buffer_state
0001:0005dbe4* __Z7yyallocj
0001:0005d634* __Z16yy_delete_bufferP15yy_buffer_state
0001:0005dbfc* __Z6yyfreePv
0001:0005d714* __Z15yy_flush_bufferP15yy_buffer_state
0001:0005d764* __Z19yypush_buffer_stateP15yy_buffer_state
0001:0005d7f0* __Z18yypop_buffer_statev
0001:0005d920* __Z14yy_scan_bufferPcj
0001:0005d9b8* __Z14yy_scan_stringPKc
0001:0005da28* __Z13yy_scan_bytesPKci
0001:0005dae0* __Z12yyget_linenov
0001:0005daec* __Z8yyget_inv
0001:0005daf8* __Z9yyget_outv
0001:0005db04* __Z10yyget_lengv
0001:0005db10* __Z10yyget_textv
0001:0005db1c* __Z12yyset_linenoi
0001:0005db2c* __Z8yyset_inP7__sFILE
0001:0005db3c* __Z9yyset_outP7__sFILE
0001:0005db4c* __Z11yyget_debugv
0001:0005db58* __Z11yyset_debugi
0001:0005db68* __Z13yylex_destroyv
0001:0005dc08* __ZN10parser_regC2Ev
0001:0005de88* __ZN10parser_regC1Ev
0001:0005e108* __ZN10parser_regD2Ev
0001:0005e3b0* __ZN10parser_regD1Ev
0001:0005e658* __Z21setDefaultIncludeFilev
0001:0005f478* __Z11combinePathPKcS0_
0001:0005e9ec  _main
0001:0005fbec* __Z7cleanupv
0001:0005f448* __Z7replacePccc
0001:0005faa0* __Z11hack_getenvv
0001:0005faa8* __Z11hack_getenvPKc
0001:0005fddc* __Z13nameQualifierv
0001:0005fe78* __Z26openNameSpaceForMetaObjectP7__sFILE
0001:0006001c* __Z27closeNameSpaceForMetaObjectP7__sFILEi
0001:00060314* __Z7yyerrorPKc
0001:00060420* __Z8moc_warnPcS_
0001:00060508* __Z6straddPKcS0_
0001:0006057c* __Z6straddPKcS0_S0_
0001:00060618* __Z6straddPKcS0_S0_S0_
0001:000606dc* __Z9straddSpcPKcS0_
0001:0006075c* __Z9straddSpcPKcS0_S0_
0001:00060814* __Z9straddSpcPKcS0_S0_S0_
0001:000608fc* __Z20purestSuperClassNamev
0001:00060a80* __Z18qualifiedClassNamev
0001:00060ca0* __Z13generateFuncsP8FuncListPKci
0001:00061530* __Z14isPropertyTypePKc
0001:00061638* __Z13generateEnumsv
0001:00061c78* __Z13generatePropsv
0001:00063a08* __Z18generateClassInfosv
0001:00068fb8* __Z7yyparsev
0001:000686f8* __Z6addArgP8Argument
0001:00068750* __Z7addEnumv
0001:00068908* __Z9addMember6Member
0002:00000194* _displayWarnings
0002:000001b0* _yylhs
0002:00000450* _yylen
0002:000006f0* _yydefred
0002:00000ad0* _yydgoto
0002:00000bf0* _yysindex
0002:00000fd0* _yyrindex
0002:000013b0* _yygindex
0002:000014d0* _yytable
0002:000020b0* _yycheck
0002:00002c84* _yylineno
0002:00002c88* _classPLevel
0002:00002c8c* _namespacePLevel
0002:00002c90* _expLevel
0002:00002c94* _enumLevel
0002:00002c98* _fctLevel
0002:00002c9c* _templLevel
0002:00002f50* _lexDebug
0002:00002f54* _lineNo
0002:00002f58* _errorControl
0002:00002f59* _skipClass
0002:00002f5a* _skipFunc
0002:00002f5b* _templateClass
0002:00002f5c* _templateClassOld
0002:00002f60* _tmpArgList
0002:00002f64* _tmpFunc
0002:00002f68* _tmpEnum
0002:00002f6c* _tmpAccess
0002:00002f70* _subClassPerm
0002:00002f74* _Q_OBJECTdetected
0002:00002f75* _Q_PROPERTYdetected
0002:00002f76* _tmpPropOverride
0002:00002f78* _tmpYYStart
0002:00002f7c* _tmpYYStart2
0002:00002f80* _yydebug
0002:00002f84* _yynerrs
0002:00002f88* _yyerrflag
0002:00002f8c* _yychar
0002:00002f90* _yyssp
0002:00002f94* _yyvsp
0002:00002f98* _yyval
0002:00002fa0* _yylval
0002:00002fb0* _yyss
0002:000033b0* _yyvs
0002:00004350* _yyleng
0002:00004354* _yyin
0002:00004358* _yyout
0002:0000435c* _yy_flex_debug
0002:00004360* _yytext
0002:00004364* _lastState
0002:00004368* _skipLevel
0002:0000436c* _out
0002:00004370* _namespaces
0001:0006b920* __ZTV8QStrList$w$T4CmzxWE8U6Q8MpF2
0001:0006b860* __ZTV8FuncList$w$T4CmzxWE8U6Q8MpF2
0001:0006b7a0* __ZTV8EnumList$w$T4CmzxWE8U6Q8MpF2
0001:0006b720* __ZTV8PropList$w$T4CmzxWE8U6Q8MpF2
0001:0006b6a0* __ZTV13ClassInfoList$w$T4CmzxWE8U6Q8MpF2
0001:0006b960* __ZTV8QPtrListIcE$w$T4CmzxWE8U6Q8MpF2
0001:0006b6e0* __ZTV8QPtrListI9ClassInfoE$w$T4CmzxWE8U6Q8MpF2
0001:0006b760* __ZTV8QPtrListI8PropertyE$w$T4CmzxWE8U6Q8MpF2
0001:0006b7e0* __ZTV8QPtrListI4EnumE$w$T4CmzxWE8U6Q8MpF2
0001:0006b8a0* __ZTV8QPtrListI8FunctionE$w$T4CmzxWE8U6Q8MpF2
0001:0006b4d8* __ZN17QValueListPrivateI7QStringE6removeE18QValueListIteratorIS0_E$w$T4CmzxWE8U6Q8MpF2
0001:0006b45c* __ZN10QValueListI7QStringE14detachInternalEv$w$T4CmzxWE8U6Q8MpF2
0001:0006b560* __ZN17QValueListPrivateI7QStringE6insertE18QValueListIteratorIS0_ERKS0_$w$T4CmzxWE8U6Q8MpF2
0001:0006b3cc* __ZN17QValueListPrivateI7QStringED1Ev$w$T4CmzxWE8U6Q8MpF2
0001:0006b8e0* __ZTV7ArgList$w$T4CmzxWE8U6Q8MpF2
0001:0006b820* __ZTV4Enum$w$T4CmzxWE8U6Q8MpF2
0001:0006b660* __ZTV5QDictIcE$w$T4CmzxWE8U6Q8MpF2
0001:0006beb8* __ZN7ArgList10magicCloneEv$w$T4CmzxWE8U6Q8MpF2
0001:0006bb6c* __ZN8ArgumentC1EPKcS1_S1_b$w$T4CmzxWE8U6Q8MpF2
0001:0006c150* __ZN8PropertyC1EiPKcS1_S1_S1_S1_RK8QCStringS4_S4_b$w$T4CmzxWE8U6Q8MpF2
0001:0006b5bc* __ZN17QValueListPrivateI7QStringEC1ERKS1_$w$T4CmzxWE8U6Q8MpF2
0001:0006f0dc* __ZNK5QDictIcE5countEv$w$T4CmzxWE8U6Q8MpF2
0001:0006c6b4* __ZN5QDictIcE5clearEv$w$T4CmzxWE8U6Q8MpF2
0001:0006c68c* __ZN5QDictIcED1Ev$w$T4CmzxWE8U6Q8MpF2
0001:0006c6c0* __ZN5QDictIcED0Ev$w$T4CmzxWE8U6Q8MpF2
0001:0006f0e8* __ZN5QDictIcE10deleteItemEPv$w$T4CmzxWE8U6Q8MpF2
0001:0006c72c* __ZNK8QPtrListI9ClassInfoE5countEv$w$T4CmzxWE8U6Q8MpF2
0001:0006c628* __ZN8QPtrListI9ClassInfoE5clearEv$w$T4CmzxWE8U6Q8MpF2
0001:0006c47c* __ZN13ClassInfoListD1Ev$w$T4CmzxWE8U6Q8MpF2
0001:0006c44c* __ZN13ClassInfoListD0Ev$w$T4CmzxWE8U6Q8MpF2
0001:0006f108* __ZN8QPtrListI9ClassInfoE10deleteItemEPv$w$T4CmzxWE8U6Q8MpF2
0001:0006c634* __ZN8QPtrListI9ClassInfoED1Ev$w$T4CmzxWE8U6Q8MpF2
0001:0006c65c* __ZN8QPtrListI9ClassInfoED0Ev$w$T4CmzxWE8U6Q8MpF2
0001:0006c720* __ZNK8QPtrListI8PropertyE5countEv$w$T4CmzxWE8U6Q8MpF2
0001:0006c5c4* __ZN8QPtrListI8PropertyE5clearEv$w$T4CmzxWE8U6Q8MpF2
0001:0006c424* __ZN8PropListD1Ev$w$T4CmzxWE8U6Q8MpF2
0001:0006c3f4* __ZN8PropListD0Ev$w$T4CmzxWE8U6Q8MpF2
0001:0006f148* __ZN8QPtrListI8PropertyE10deleteItemEPv$w$T4CmzxWE8U6Q8MpF2
0001:0006c5d0* __ZN8QPtrListI8PropertyED1Ev$w$T4CmzxWE8U6Q8MpF2
0001:0006c5f8* __ZN8QPtrListI8PropertyED0Ev$w$T4CmzxWE8U6Q8MpF2
0001:0006c708* __ZNK8QPtrListI4EnumE5countEv$w$T4CmzxWE8U6Q8MpF2
0001:0006c560* __ZN8QPtrListI4EnumE5clearEv$w$T4CmzxWE8U6Q8MpF2
0001:0006c104* __ZN8EnumListD1Ev$w$T4CmzxWE8U6Q8MpF2
0001:0006c0d4* __ZN8EnumListD0Ev$w$T4CmzxWE8U6Q8MpF2
0001:0006f1e8* __ZN8QPtrListI4EnumE10deleteItemEPv$w$T4CmzxWE8U6Q8MpF2
0001:0006c56c* __ZN8QPtrListI4EnumED1Ev$w$T4CmzxWE8U6Q8MpF2
0001:0006c594* __ZN8QPtrListI4EnumED0Ev$w$T4CmzxWE8U6Q8MpF2
0001:0006c714* __ZNK8QPtrListIcE5countEv$w$T4CmzxWE8U6Q8MpF2
0001:0006ba40* __ZN8QPtrListIcE5clearEv$w$T4CmzxWE8U6Q8MpF2
0001:0006c08c* __ZN4EnumD1Ev$w$T4CmzxWE8U6Q8MpF2
0001:0006c040* __ZN4EnumD0Ev$w$T4CmzxWE8U6Q8MpF2
0001:0006babc* __ZN8QStrList7newItemEPv$w$T4CmzxWE8U6Q8MpF2
0001:0006bae0* __ZN8QStrList10deleteItemEPv$w$T4CmzxWE8U6Q8MpF2
0001:0006bb00* __ZN8QStrList12compareItemsEPvS0_$w$T4CmzxWE8U6Q8MpF2
0001:0006bb34* __ZN8QStrList4readER11QDataStreamRPv$w$T4CmzxWE8U6Q8MpF2
0001:0006bb50* __ZNK8QStrList5writeER11QDataStreamPv$w$T4CmzxWE8U6Q8MpF2
0001:0006c6fc* __ZNK8QPtrListI8FunctionE5countEv$w$T4CmzxWE8U6Q8MpF2
0001:0006c4fc* __ZN8QPtrListI8FunctionE5clearEv$w$T4CmzxWE8U6Q8MpF2
0001:0006c018* __ZN8FuncListD1Ev$w$T4CmzxWE8U6Q8MpF2
0001:0006bfe8* __ZN8FuncListD0Ev$w$T4CmzxWE8U6Q8MpF2
0001:0006f210* __ZN8QPtrListI8FunctionE10deleteItemEPv$w$T4CmzxWE8U6Q8MpF2
0001:0006c508* __ZN8QPtrListI8FunctionED1Ev$w$T4CmzxWE8U6Q8MpF2
0001:0006c530* __ZN8QPtrListI8FunctionED0Ev$w$T4CmzxWE8U6Q8MpF2
0001:0006c6f0* __ZNK8QPtrListI8ArgumentE5countEv$w$T4CmzxWE8U6Q8MpF2
0001:0006be3c* __ZN8QPtrListI8ArgumentE5clearEv$w$T4CmzxWE8U6Q8MpF2
0001:0006be48* __ZN7ArgListD1Ev$w$T4CmzxWE8U6Q8MpF2
0001:0006be7c* __ZN7ArgListD0Ev$w$T4CmzxWE8U6Q8MpF2
0001:0006f280* __ZN8QPtrListI8ArgumentE10deleteItemEPv$w$T4CmzxWE8U6Q8MpF2
0001:0006ba4c* __ZN8QStrListD1Ev$w$T4CmzxWE8U6Q8MpF2
0001:0006ba80* __ZN8QStrListD0Ev$w$T4CmzxWE8U6Q8MpF2
0001:0006c4a4* __ZN8QPtrListIcED1Ev$w$T4CmzxWE8U6Q8MpF2
0001:0006c4cc* __ZN8QPtrListIcED0Ev$w$T4CmzxWE8U6Q8MpF2
0001:0006f2cc* __ZN8QPtrListIcE10deleteItemEPv$w$T4CmzxWE8U6Q8MpF2
0001:0006b9a0* __ZTV6QGList$w$T4CmzxWE8U6Q8MpF2
0001:0006ba34* __ZNK6QGList5countEv$w$T4CmzxWE8U6Q8MpF2
0001:0006f300* __ZTV8QPtrListI13NamespaceInfoE$w$T4CmzxWE8U6Q8MpF2
0001:0006f340* __ZTV8QPtrListI8ArgumentE$w$T4CmzxWE8U6Q8MpF2
0001:0006f3c4* __ZNK8QPtrListI13NamespaceInfoE5countEv$w$T4CmzxWE8U6Q8MpF2
0001:0006f3f8* __ZN8QPtrListI13NamespaceInfoE5clearEv$w$T4CmzxWE8U6Q8MpF2
0001:0006f3d0* __ZN8QPtrListI13NamespaceInfoED1Ev$w$T4CmzxWE8U6Q8MpF2
0001:0006f404* __ZN8QPtrListI13NamespaceInfoED0Ev$w$T4CmzxWE8U6Q8MpF2
0001:0006f434* __ZN8QPtrListI13NamespaceInfoE10deleteItemEPv$w$T4CmzxWE8U6Q8MpF2
0001:0006f36c* __ZN8QPtrListI8ArgumentED1Ev$w$T4CmzxWE8U6Q8MpF2
0001:0006f394* __ZN8QPtrListI8ArgumentED0Ev$w$T4CmzxWE8U6Q8MpF2
Module: C:\200\trunk\src\moc\tmp\obj\release_mt_shared\qfile_pm.obj(qfile_pm.obj)
0001:0006f4c0  __Z14qt_file_accessRK7QStringi
0001:0006f51c* __Z11isValidFileRK7QString
0001:0006f66c  __ZN5QFile6removeERK7QString
0001:0006f770  __ZN5QFile4openEi
0001:0006fc3c  __ZN5QFile4openEiP7__sFILE
0001:0006fcfc* __ZN5QFile4openEii
0001:0006fdb8  __ZNK5QFile4sizeEv
0001:0006fe88  __ZN5QFile2atEm
0001:0006ff98  __ZN5QFile9readBlockEPcm
0001:00070224  __ZN5QFile10writeBlockEPKcm
0001:00070350* __ZNK5QFile6handleEv
0001:00070384  __ZN5QFile5closeEv
Module: C:\200\trunk\src\moc\tmp\obj\release_mt_shared\qdir_pm.obj(qdir_pm.obj)
0001:00070420  __ZN4QDir8slashifyER7QString
0001:00070548  __ZN4QDir11homeDirPathEv
0001:00070c84  __ZN4QDir11rootDirPathEv
0001:00070758  __ZNK4QDir13canonicalPathEv
0001:0007083c  __ZNK4QDir5mkdirERK7QStringb
0001:000708b8  __ZNK4QDir5rmdirERK7QStringb
0001:0007092c  __ZNK4QDir10isReadableEv
0001:0007097c  __ZNK4QDir6isRootEv
0001:00070a90  __ZN4QDir6renameERK7QStringS2_b
0001:00070b8c* __ZN4QDir10setCurrentERK7QString
0001:00070bc8  __ZN4QDir14currentDirPathEv
0001:00070cd4  __ZN4QDir14isRelativePathERK7QString
0001:00070e38  __ZN4QDir14readDirEntriesERK7QStringii
0001:00071abc* __ZN4QDir6drivesEv
0001:00071cb4* __ZN17QValueListPrivateI7QStringEC1Ev$w$Fz1QuCWE8U6imlix4
0001:00071ea0* __ZTV8QPtrListI9QFileInfoE$w$Fz1QuCWE8U6imlix4
0001:00071c50* __ZN17QValueListPrivateI7QRegExpED1Ev$w$Fz1QuCWE8U6imlix4
0001:00071d00* __ZN17QValueListPrivateI7QStringE6insertE18QValueListIteratorIS0_ERKS0_$w$Fz1QuCWE8U6imlix4
0001:00071d5c* __ZN10QValueListI7QStringE14detachInternalEv$w$Fz1QuCWE8U6imlix4
0001:00071c0c* __ZN10QValueListI7QStringE5clearEv$w$Fz1QuCWE8U6imlix4
0001:00071d8c* __ZN17QValueListPrivateI7QStringE5clearEv$w$Fz1QuCWE8U6imlix4
0001:00071df0* __ZN17QValueListPrivateI7QStringEC1ERKS1_$w$Fz1QuCWE8U6imlix4
0001:00071f24* __ZNK8QPtrListI9QFileInfoE5countEv$w$Fz1QuCWE8U6imlix4
0001:00071f18* __ZN8QPtrListI9QFileInfoE5clearEv$w$Fz1QuCWE8U6imlix4
0001:00071f30* __ZN8QPtrListI9QFileInfoED1Ev$w$Fz1QuCWE8U6imlix4
0001:00071f58* __ZN8QPtrListI9QFileInfoED0Ev$w$Fz1QuCWE8U6imlix4
0001:00071f88* __ZN8QPtrListI9QFileInfoE10deleteItemEPv$w$Fz1QuCWE8U6imlix4
0001:00071ee0* __ZTV6QGList$w$Fz1QuCWE8U6imlix4
0001:00071f0c* __ZNK6QGList5countEv$w$Fz1QuCWE8U6imlix4
Module: C:\200\trunk\src\moc\tmp\obj\release_mt_shared\qfileinfo_pm.obj(qfileinfo_pm.obj)
0001:000720a4  __ZN9QFileInfo8slashifyER7QString
0001:0007222c  __ZN9QFileInfo7makeAbsER7QString
0001:0007258c* __ZNK9QFileInfo6isFileEv
0001:000726d0  __ZNK9QFileInfo6doStatEv
0001:000725d4  __ZNK9QFileInfo5isDirEv
0001:0007261c* __ZNK9QFileInfo9isSymLinkEv
0001:00072624* __ZNK9QFileInfo8readLinkEv
0001:0007264c* __ZNK9QFileInfo5ownerEv
0001:0007266c* __ZNK9QFileInfo7ownerIdEv
0001:00072678* __ZNK9QFileInfo5groupEv
0001:00072698* __ZNK9QFileInfo7groupIdEv
0001:000726a4* __ZNK9QFileInfo10permissionEi
0001:000729b8  __ZNK9QFileInfo7dirPathEb
0001:00072ce8  __ZNK9QFileInfo8fileNameEv
0001:00072d54* __ZNK9QFileInfo8isHiddenEv
0001:00072da0* __ZTV6QGList$w$5bkxPEWE8U6DyloT0
0001:00072dcc* __ZNK6QGList5countEv$w$5bkxPEWE8U6DyloT0
Module: C:\usr\lib\libend.lib(src/libend/386/endlink386.asm)
0002:00004ca0  _end
0002:00002d40  _edata
Module: C:\usr\lib\libend.lib(src/libend/386/end.asm)
0001:00072ed0* _etext
0001:00072ed0* __etext
0000:00000000* WEAK$ZERO
0002:00004ca0  __end
0002:00002d40  __edata
Module: C:\usr\lib\gcc-lib\i386-pc-os2-emx\3.3.5\libgcc_so_d.lib(__main.obj)
0001:00072de0* ___do_global_dtors
0001:00072de6* ___do_global_ctors
0001:00072df6* ___POST$__do_global_ctors
0001:00072df8  ___main
0001:00072e02* ___POST$__main
Module: C:\usr\lib\gcc-lib\i386-pc-os2-emx\3.3.5\libgcc_so_d.lib(emx-ctordtor.obj)
0001:00072e10  ___ctordtorInit
0001:00072e1a* ___POST$__ctordtorInit
0001:00072e3e  ___ctordtorTerm
0001:00072e48* ___POST$__ctordtorTerm


                        +----------------------+
                        |   Imported Symbols   |
                        +----------------------+

Symbol                              Module
======                              ======

___libc_ForkRegisterModule          libc064
___init_app                         libc064
__CRT_init                          libc064
__atfork_callback                   libc064
__ZdlPv                             libc064
___cxa_pure_virtual                 libc064
__Znaj                              libc064
___libc_GLocaleCtype                libc064
__alloca                            libc064
__Znwj                              libc064
UniStrftime                         libuni
__getdrive                          libc064
__getcwd1                           libc064
__ZdaPv                             libc064
DosOpenQueue                        quecalls
DosAllocSharedMem                   doscalls
DosSleep                            doscalls
DosGiveSharedMem                    doscalls
DosFreeMem                          doscalls
DosCloseQueue                       quecalls
DosWriteQueue                       quecalls
___stderrp                          libc064
WinGetLastError                     pmwin
UniStrcoll                          libuni
UniCreateLocaleObject               libuni
UniCreateUconvObject                uconv
UniUconvFromUcs                     uconv
UniUconvToUcs                       uconv
UniQueryUconvObject                 uconv
___umoddi3                          libc064
___udivdi3                          libc064
___flt_rounds                       libc064
___stdinp                           libc064
___stdoutp                          libc064
__errno                             libc064
__chdir2                            libc064
__getcwd2                           libc064
DosQuerySysInfo                     doscalls
DosFindFirst                        doscalls
DosFindNext                         doscalls
DosFindClose                        doscalls
DosQueryCurrentDisk                 doscalls
__std_exit                          libc064
__std_memcpy                        libc064
__std_strcpy                        libc064
__std_strncpy                       libc064
__std_vsprintf                      libc064
__std_strchr                        libc064
__std_strncmp                       libc064
__std_memset                        libc064
__std_memmove                       libc064
__std_strtod                        libc064
__std_strtoll                       libc064
__std_atof                          libc064
__std_sprintf                       libc064
__std_time                          libc064
__std_localtime                     libc064
__std_gmtime                        libc064
__std_ftime                         libc064
__std_mktime                        libc064
__std_fflush                        libc064
__std_fgets                         libc064
__std_getc                          libc064
__std_putc                          libc064
__std_ungetc                        libc064
__std_strerror                      libc064
__std_strcmp                        libc064
__std_malloc                        libc064
__std_free                          libc064
__std_realloc                       libc064
__std_qsort                         libc064
__std_bsearch                       libc064
__std_getenv                        libc064
__std_fopen                         libc064
__std_fprintf                       libc064
__std_fclose                        libc064
__std_vsnprintf                     libc064
__std_memchr                        libc064
__std_atexit                        libc064
__std_isnan                         libc064
__std_strtol                        libc064
__std_atoi                          libc064
__std_fwrite                        libc064
__std_fread                         libc064
__std_clearerr                      libc064
__std_fileno                        libc064
__std_isatty                        libc064
__std_remove                        libc064
__std_strcat                        libc064
__std_access                        libc064
__std_open                          libc064
__std_fstat                         libc064
__std_ftell                         libc064
__std_lseek                         libc064
__std_stat                          libc064
__std_fseek                         libc064
__std_read                          libc064
__std_write                         libc064
__std_close                         libc064
__std_realpath                      libc064
__std_mkdir                         libc064
__std_rmdir                         libc064
__std_rename                        libc064
___ctordtorInit1                    libc064
___ctordtorTerm1                    libc064


                        +--------------------+
                        |   Libraries Used   |
                        +--------------------+

C:\usr\lib\libc_dll.lib
C:\usr\lib\libc_alias.lib
C:\usr\lib\libos2.lib
C:\usr\lib\gcc-lib\i386-pc-os2-emx\3.3.5\libgcc_so_d.lib
C:\usr\lib\libend.lib


                        +-----------------------+
                        |   Linker Statistics   |
                        +-----------------------+

Stack size:  00800000 (8388608.)
Memory size:  00877b70 (8878960.)
Entry point address: 0001:00000000
Link time: 00:00.18
