** EXPERIMENTAL (HLL) ** Open Watcom Linker Version 1.6beta1 Limited Availability
Portions Copyright (c) 1985-2002 Sybase, Inc. All Rights Reserved.
Created on:       14/11/02 20:38:46
Executable Image: ..\..\..\..\plugins\designer\cppedit.dll
creating an OS/2 EMX dynamic link library


                        +------------+
                        |   Groups   |
                        +------------+

Group                           Address              Size
=====                           =======              ====

CGROUP                          0001:00000000        00033bd0
DGROUP                          0002:00000000        00000a40



                        +--------------+
                        |   Segments   |
                        +--------------+

Segment                Class          Group          Address         Size
=======                =====          =====          =======         ====

TEXT32                 CODE           CGROUP         0001:00000000   00033bd0
________TEXT           CODE           CGROUP         0001:00033bd0   00000000
DATA32                 DATA           DGROUP         0002:00000000   00000650
SET1__os2dll           DATA           DGROUP         0002:00000650   00000004
SET2__os2dll           DATA           DGROUP         0002:00000654   00000000
SET3__os2dll           DATA           DGROUP         0002:00000654   00000004
SET1___CTOR_LIST__     DATA           DGROUP         0002:00000658   00000004
SET2___CTOR_LIST__     DATA           DGROUP         0002:0000065c   00000038
SET3___CTOR_LIST__     DATA           DGROUP         0002:00000694   00000004
SET1___DTOR_LIST__     DATA           DGROUP         0002:00000698   00000004
SET2___DTOR_LIST__     DATA           DGROUP         0002:0000069c   00000038
SET3___DTOR_LIST__     DATA           DGROUP         0002:000006d4   00000004
SET1___crtinit1__      DATA           DGROUP         0002:000006d8   00000004
SET2___crtinit1__      DATA           DGROUP         0002:000006dc   00000000
SET3___crtinit1__      DATA           DGROUP         0002:000006dc   00000004
SET1___crtexit1__      DATA           DGROUP         0002:000006e0   00000004
SET2___crtexit1__      DATA           DGROUP         0002:000006e4   00000000
SET3___crtexit1__      DATA           DGROUP         0002:000006e4   00000004
SET1___eh_frame__      DATA           DGROUP         0002:000006e8   00000004
SET2___eh_frame__      DATA           DGROUP         0002:000006ec   00000000
SET3___eh_frame__      DATA           DGROUP         0002:000006ec   00000004
SET1___eh_init__       DATA           DGROUP         0002:000006f0   00000004
SET2___eh_init__       DATA           DGROUP         0002:000006f4   00000000
SET3___eh_init__       DATA           DGROUP         0002:000006f4   00000004
SET1___eh_term__       DATA           DGROUP         0002:000006f8   00000004
SET2___eh_term__       DATA           DGROUP         0002:000006fc   00000000
SET3___eh_term__       DATA           DGROUP         0002:000006fc   00000004
________DATA           DATA           DGROUP         0002:00000700   00000000
SET1___fork_child1__   DATA           DGROUP         0002:00000700   00000000
SET2___fork_child1__   DATA           DGROUP         0002:00000700   00000004
SET3___fork_child1__   DATA           DGROUP         0002:00000704   00000000
BSS32                  BSS            DGROUP         0002:00000710   00000330
c_common               BSS            DGROUP         0002:00000a40   00000000
________BSS            BSS            DGROUP         0002:00000a40   00000000


                        +----------------+
                        |   Memory Map   |
                        +----------------+

* = unreferenced symbol
+ = symbol only referenced locally

Address        Symbol
=======        ======

Module: C:\usr\lib\dll0nofork.obj({standard input})
0001:00000000* __text
0002:00000000* __data
0002:00000000* ___data_start
0002:00000710* ___bss_start
0002:00000650+ __os2dll
0002:00000658  ___CTOR_LIST__
0002:00000698  ___DTOR_LIST__
0002:000006d8* ___crtinit1__
0002:000006e0* ___crtexit1__
0002:000006e8* ___eh_frame__
0002:000006f0  ___eh_init__
0002:000006f8  ___eh_term__
Module: C:\200\trunk\tools\designer\plugins\cppeditor\tmp\obj\release_mt_shared\cppeditor.obj(cppeditor.obj)
0001:00000070  __ZN9CppEditorC2ERK7QStringP7QWidgetPKcP17DesignerInterface
0001:0000043c  __ZN9CppEditor13configChangedEv
0001:000001b4  __ZN9CppEditorC1ERK7QStringP7QWidgetPKcP17DesignerInterface
0001:000002f8  __ZN9CppEditorD2Ev
0001:00000354  __ZN9CppEditorD1Ev
0001:000003b8  __ZN9CppEditorD0Ev
0001:000007b8  __ZN9CppEditor15createPopupMenuERK6QPoint
0001:000009d4  __ZN9CppEditor11addInclDeclEv
0001:00000b7c  __ZN9CppEditor11addInclImplEv
0001:00000d44  __ZN9CppEditor10addForwardEv
0001:00000ec4  __ZN9CppEditor5pasteEv
0001:000003b0  __ZThn40_N9CppEditorD1Ev$w$LqtTdlXF8U6Uk8VL3
0001:0000041c  __ZThn40_N9CppEditorD0Ev$w$LqtTdlXF8U6Uk8VL3
0001:00000ee4  __ZN4QMapI7QString11ConfigStyleEaSERKS2_$w$LqtTdlXF8U6Uk8VL3
0001:00000f70  __ZN11QMapPrivateI7QString11ConfigStyleE5clearEv$w$LqtTdlXF8U6Uk8VL3
0001:0000103c  __ZN17QValueListPrivateI7QStringE6insertE18QValueListIteratorIS0_ERKS0_$w$LqtTdlXF8U6Uk8VL3
0001:00000fac  __ZN17QValueListPrivateI7QStringED1Ev$w$LqtTdlXF8U6Uk8VL3
0001:00001098  __ZN10QValueListI7QStringE14detachInternalEv$w$LqtTdlXF8U6Uk8VL3
0001:000010c8  __ZN11QMapPrivateI7QString11ConfigStyleE5clearEP8QMapNodeIS0_S1_E$w$LqtTdlXF8U6Uk8VL3
0001:00001138  __ZN17QValueListPrivateI7QStringEC1ERKS1_$w$LqtTdlXF8U6Uk8VL3
0001:000011d0  __ZTV19QTextCommandHistory$w$LqtTdlXF8U6Uk8VL3
0001:00001228  __ZN19QTextCommandHistoryD1Ev$w$LqtTdlXF8U6Uk8VL3
0001:0000126c  __ZN19QTextCommandHistoryD0Ev$w$LqtTdlXF8U6Uk8VL3
0001:000011f0  __ZTV6QGList$w$LqtTdlXF8U6Uk8VL3
0001:0000121c  __ZNK6QGList5countEv$w$LqtTdlXF8U6Uk8VL3
0001:000012d0  __ZTV8QPtrListI12QTextCommandE$w$LqtTdlXF8U6Uk8VL3
0001:00001330  __ZNK8QPtrListI12QTextCommandE5countEv$w$LqtTdlXF8U6Uk8VL3
0001:00001324  __ZN8QPtrListI12QTextCommandE5clearEv$w$LqtTdlXF8U6Uk8VL3
0001:000012fc  __ZN8QPtrListI12QTextCommandED1Ev$w$LqtTdlXF8U6Uk8VL3
0001:0000133c  __ZN8QPtrListI12QTextCommandED0Ev$w$LqtTdlXF8U6Uk8VL3
0001:0000136c  __ZN8QPtrListI12QTextCommandE10deleteItemEPv$w$LqtTdlXF8U6Uk8VL3
Module: C:\200\trunk\tools\designer\plugins\cppeditor\tmp\obj\release_mt_shared\syntaxhighliter_cpp.obj(syntaxhighliter_cpp.obj)
0001:000015f0  __ZN21SyntaxHighlighter_CPP8keywordsE
0001:00001744  __ZN21SyntaxHighlighter_CPPC2Ev
0001:000030a4  __ZN21SyntaxHighlighter_CPP9addFormatEiP11QTextFormat
0001:00001aec  __ZN21SyntaxHighlighter_CPPC1Ev
0001:00001e98  __ZN21SyntaxHighlighter_CPPD2Ev
0001:00001ed4  __ZN21SyntaxHighlighter_CPPD1Ev
0001:00001f10  __ZN21SyntaxHighlighter_CPPD0Ev
0001:0000207c  __ZN21SyntaxHighlighter_CPP12updateStylesERK4QMapI7QString11ConfigStyleE
0001:00002150  __ZN21SyntaxHighlighter_CPP7processEP13QTextDocumentP14QTextParagraphib
0001:00003050  __ZN21SyntaxHighlighter_CPP6formatEi
0001:000030c4  __ZN21SyntaxHighlighter_CPP12removeFormatEi
0001:00003ec0  __ZTV21SyntaxHighlighter_CPP$w$NtStIsXF8U6N1um63
0001:00003ef0  __ZTV8QIntDictI11QTextFormatE$w$NtStIsXF8U6N1um63
0001:000032b0  __ZN11QMapPrivateIi4QMapI7QStringiEEC1Ev$w$NtStIsXF8U6N1um63
0001:0000330c  __ZNK11QMapPrivateIi4QMapI7QStringiEE4findERKi$w$NtStIsXF8U6N1um63
0001:0000314c  __ZN4QMapIiS_I7QStringiEEixERKi$w$NtStIsXF8U6N1um63
0001:0000323c  __ZN4QMapI7QStringiEixERKS0_$w$NtStIsXF8U6N1um63
0001:0000335c  __ZN11QMapPrivateI7QStringiEC1Ev$w$NtStIsXF8U6N1um63
0001:000030e0  __ZN4QMapIiS_I7QStringiEE6insertERKiRKS1_b$w$NtStIsXF8U6N1um63
0001:000033b4  __ZN11QMapPrivateI7QStringiE5clearEv$w$NtStIsXF8U6N1um63
0001:00003f18  __ZTV17QTextPreProcessor$w$NtStIsXF8U6N1um63
0001:000033f0  __ZN17QMapConstIteratorI7QString11ConfigStyleE3incEv$w$NtStIsXF8U6N1um63
0001:0000343c  __ZN10QValueListI5ParenE5clearEv$w$NtStIsXF8U6N1um63
0001:00003588  __ZNK11QMapPrivateI7QStringiE4findERKS0_$w$NtStIsXF8U6N1um63
0001:0000360c  __ZN4QMapI7QStringiE14detachInternalEv$w$NtStIsXF8U6N1um63
0001:00003558  __ZN4QMapIiS_I7QStringiEE14detachInternalEv$w$NtStIsXF8U6N1um63
0001:000034c4  __ZN17QValueListPrivateI5ParenE6insertE18QValueListIteratorIS0_ERKS0_$w$NtStIsXF8U6N1um63
0001:00003528  __ZN10QValueListI5ParenE14detachInternalEv$w$NtStIsXF8U6N1um63
0001:00003ed8  __ZTV9ParagData$w$NtStIsXF8U6N1um63
0001:00003480  __ZN17QValueListPrivateI5ParenEC1Ev$w$NtStIsXF8U6N1um63
0001:0000363c  __ZN11QMapPrivateIi4QMapI7QStringiEE12insertSingleERKi$w$NtStIsXF8U6N1um63
0001:000036d8  __ZN4QMapI7QStringiEaSERKS1_$w$NtStIsXF8U6N1um63
0001:0000375c  __ZN4QMapI7QStringiE6insertERKS0_RKib$w$NtStIsXF8U6N1um63
0001:000037c0  __ZN11QMapPrivateI7QStringiE5clearEP8QMapNodeIS0_iE$w$NtStIsXF8U6N1um63
0001:00003824  __ZN17QValueListPrivateI5ParenE5clearEv$w$NtStIsXF8U6N1um63
0001:00003860  __ZN17QValueListPrivateI5ParenEC1ERKS1_$w$NtStIsXF8U6N1um63
0001:000038f0  __ZN11QMapPrivateIi4QMapI7QStringiEEC1EPKS3_$w$NtStIsXF8U6N1um63
0001:000039a4  __ZN11QMapPrivateI7QStringiEC1EPKS1_$w$NtStIsXF8U6N1um63
0001:00003a54  __ZN11QMapPrivateIi4QMapI7QStringiEE6insertEP12QMapNodeBaseS5_RKi$w$NtStIsXF8U6N1um63
0001:00003b0c  __ZN12QMapIteratorIi4QMapI7QStringiEE3decEv$w$NtStIsXF8U6N1um63
0001:00003b64  __ZN11QMapPrivateI7QStringiE12insertSingleERKS0_$w$NtStIsXF8U6N1um63
0001:00003c18  __ZN11QMapPrivateIi4QMapI7QStringiEE4copyEP8QMapNodeIiS2_E$w$NtStIsXF8U6N1um63
0001:00003cd4  __ZN11QMapPrivateI7QStringiE4copyEP8QMapNodeIS0_iE$w$NtStIsXF8U6N1um63
0001:00003d84  __ZN11QMapPrivateI7QStringiE6insertEP12QMapNodeBaseS3_RKS0_$w$NtStIsXF8U6N1um63
0001:00003e68  __ZN12QMapIteratorI7QStringiE3decEv$w$NtStIsXF8U6N1um63
0001:0000403c  __ZN9ParagDataD1Ev$w$NtStIsXF8U6N1um63
0001:00004084  __ZN9ParagDataD0Ev$w$NtStIsXF8U6N1um63
0001:000040d0  __ZN9ParagData4joinEP18QTextParagraphData$w$NtStIsXF8U6N1um63
0001:00004190  __ZNK8QIntDictI11QTextFormatE5countEv$w$NtStIsXF8U6N1um63
0001:00004118  __ZN8QIntDictI11QTextFormatE5clearEv$w$NtStIsXF8U6N1um63
0001:000040f0  __ZN8QIntDictI11QTextFormatED1Ev$w$NtStIsXF8U6N1um63
0001:00004124  __ZN8QIntDictI11QTextFormatED0Ev$w$NtStIsXF8U6N1um63
0001:0000419c  __ZN8QIntDictI11QTextFormatE10deleteItemEPv$w$NtStIsXF8U6N1um63
0001:00004018  __ZN17QTextPreProcessorD1Ev$w$NtStIsXF8U6N1um63
0001:00004028  __ZN17QTextPreProcessorD0Ev$w$NtStIsXF8U6N1um63
0001:00003f30* __ZTV19QTextCommandHistory$w$NtStIsXF8U6N1um63
0001:00003f88* __ZN19QTextCommandHistoryD1Ev$w$NtStIsXF8U6N1um63
0001:00003fcc* __ZN19QTextCommandHistoryD0Ev$w$NtStIsXF8U6N1um63
0001:00003f50* __ZTV6QGList$w$NtStIsXF8U6N1um63
0001:00003f7c* __ZNK6QGList5countEv$w$NtStIsXF8U6N1um63
0001:000041d0* __ZTV8QPtrListI12QTextCommandE$w$NtStIsXF8U6N1um63
0001:00004154  __ZN17QValueListPrivateI5ParenED1Ev$w$NtStIsXF8U6N1um63
0001:00004230* __ZNK8QPtrListI12QTextCommandE5countEv$w$NtStIsXF8U6N1um63
0001:00004224* __ZN8QPtrListI12QTextCommandE5clearEv$w$NtStIsXF8U6N1um63
0001:000041fc* __ZN8QPtrListI12QTextCommandED1Ev$w$NtStIsXF8U6N1um63
0001:0000423c* __ZN8QPtrListI12QTextCommandED0Ev$w$NtStIsXF8U6N1um63
0001:0000426c* __ZN8QPtrListI12QTextCommandE10deleteItemEPv$w$NtStIsXF8U6N1um63
Module: C:\200\trunk\tools\designer\plugins\cppeditor\tmp\obj\release_mt_shared\cppcompletion.obj(cppcompletion.obj)
0001:000042b0  __ZN19CppEditorCompletionC2EP6Editor
0001:000042f0  __ZN19CppEditorCompletionC1EP6Editor
0001:00004368  __ZN19CppEditorCompletion18doObjectCompletionERK7QString
0001:00005200  __ZN19CppEditorCompletion18functionParametersERK7QStringR5QCharRS0_S5_
0001:000060e4  __ZN19CppEditorCompletion10setContextEP7QObject
0001:00006158  __ZN17QValueListPrivateI15CompletionEntryEC1Ev$w$prxy9yXF8U6pp5w74
0001:000063a0  __ZN17QValueListPrivateI15CompletionEntryE6insertE18QValueListIteratorIS0_ERKS0_$w$prxy9yXF8U6pp5w74
0001:00006438  __ZN10QValueListI15CompletionEntryE14detachInternalEv$w$prxy9yXF8U6pp5w74
0001:00006468  __ZNK17QValueListPrivateI15CompletionEntryE4findEP14QValueListNodeIS0_ERKS0_$w$prxy9yXF8U6pp5w74
0001:00006a30  __ZTV8QStrList$w$prxy9yXF8U6pp5w74
0001:00006a70  __ZTV8QPtrListIcE$w$prxy9yXF8U6pp5w74
0001:000061fc  __ZN17QValueListPrivateI15CompletionEntryED1Ev$w$prxy9yXF8U6pp5w74
0001:00006604* __ZN17QValueListPrivateI7QStringED1Ev$w$prxy9yXF8U6pp5w74
0001:00006520  __ZN17QValueListPrivateI11QStringListEC1Ev$w$prxy9yXF8U6pp5w74
0001:00006694  __ZN17QValueListPrivateI11QStringListE6insertE18QValueListIteratorIS0_ERKS0_$w$prxy9yXF8U6pp5w74
0001:00006570  __ZN17QValueListPrivateI11QStringListED1Ev$w$prxy9yXF8U6pp5w74
0001:000066e4  __ZN10QValueListI11QStringListE14detachInternalEv$w$prxy9yXF8U6pp5w74
0001:00006714  __ZN17QValueListPrivateI7QStringEC1Ev$w$prxy9yXF8U6pp5w74
0001:00006760* __ZN17QValueListPrivateI7QStringE6insertE18QValueListIteratorIS0_ERKS0_$w$prxy9yXF8U6pp5w74
0001:000067bc* __ZN10QValueListI7QStringE14detachInternalEv$w$prxy9yXF8U6pp5w74
0001:000067ec  __ZN17QValueListPrivateI15CompletionEntryEC1ERKS1_$w$prxy9yXF8U6pp5w74
0001:000068e8  __ZN17QValueListPrivateI11QStringListEC1ERKS1_$w$prxy9yXF8U6pp5w74
0001:00006988* __ZN17QValueListPrivateI7QStringEC1ERKS1_$w$prxy9yXF8U6pp5w74
0001:00006c68  __ZNK8QPtrListIcE5countEv$w$prxy9yXF8U6pp5w74
0001:00006ae8  __ZN8QPtrListIcE5clearEv$w$prxy9yXF8U6pp5w74
0001:00006af4  __ZN8QStrListD1Ev$w$prxy9yXF8U6pp5w74
0001:00006b28  __ZN8QStrListD0Ev$w$prxy9yXF8U6pp5w74
0001:00006b64  __ZN8QStrList7newItemEPv$w$prxy9yXF8U6pp5w74
0001:00006b88  __ZN8QStrList10deleteItemEPv$w$prxy9yXF8U6pp5w74
0001:00006ba8  __ZN8QStrList12compareItemsEPvS0_$w$prxy9yXF8U6pp5w74
0001:00006bdc  __ZN8QStrList4readER11QDataStreamRPv$w$prxy9yXF8U6pp5w74
0001:00006bf8  __ZNK8QStrList5writeER11QDataStreamPv$w$prxy9yXF8U6pp5w74
0001:00006c10  __ZN8QPtrListIcED1Ev$w$prxy9yXF8U6pp5w74
0001:00006c38  __ZN8QPtrListIcED0Ev$w$prxy9yXF8U6pp5w74
0001:00006c74  __ZN8QPtrListIcE10deleteItemEPv$w$prxy9yXF8U6pp5w74
0001:00006ab0* __ZTV6QGList$w$prxy9yXF8U6pp5w74
0001:00006adc* __ZNK6QGList5countEv$w$prxy9yXF8U6pp5w74
Module: C:\200\trunk\tools\designer\plugins\cppeditor\tmp\obj\release_mt_shared\editorinterfaceimpl.obj(editorinterfaceimpl.obj)
0001:00006cc8  __ZN19EditorInterfaceImplC2Ev
0001:00006d4c  __ZN19EditorInterfaceImplC1Ev
0001:00006dd0  __ZN19EditorInterfaceImplD2Ev
0001:00006e58  __ZN19EditorInterfaceImplD1Ev
0001:00006ee0  __ZN19EditorInterfaceImplD0Ev
0001:00006f70  __ZN19EditorInterfaceImpl14queryInterfaceERK5QUuidPP17QUnknownInterface
0001:000070a4  __ZN19EditorInterfaceImpl6editorEbP7QWidgetP17QUnknownInterface
0001:000072a0  __ZN19EditorInterfaceImpl7setTextERK7QString
0001:00007344  __ZNK19EditorInterfaceImpl4textEv
0001:00007460  __ZNK19EditorInterfaceImpl15isUndoAvailableEv
0001:000074c4  __ZNK19EditorInterfaceImpl15isRedoAvailableEv
0001:00007528  __ZN19EditorInterfaceImpl4undoEv
0001:0000758c  __ZN19EditorInterfaceImpl4redoEv
0001:000075f0  __ZN19EditorInterfaceImpl3cutEv
0001:00007654  __ZN19EditorInterfaceImpl4copyEv
0001:000076b8  __ZN19EditorInterfaceImpl5pasteEv
0001:0000771c  __ZN19EditorInterfaceImpl9selectAllEv
0001:00007780  __ZN19EditorInterfaceImpl4findERK7QStringbbbb
0001:00007860  __ZN19EditorInterfaceImpl7replaceERK7QStringS2_bbbbb
0001:00007a68  __ZN19EditorInterfaceImpl8gotoLineEi
0001:00007ad0  __ZN19EditorInterfaceImpl6indentEv
0001:00007b38  __ZN19EditorInterfaceImpl9splitViewEv
0001:00007b48  __ZN19EditorInterfaceImpl8scrollToERK7QStringS2_
0001:00007cbc  __ZN19EditorInterfaceImpl10setContextEP7QObject
0001:00007d28  __ZN19EditorInterfaceImpl8setErrorEi
0001:00007d64  __ZN19EditorInterfaceImpl12readSettingsEv
0001:00007da8  __ZN19EditorInterfaceImpl19modificationChangedEb
0001:00007dfc  __ZN19EditorInterfaceImpl11setModifiedEb
0001:00007e48  __ZNK19EditorInterfaceImpl10isModifiedEv
0001:00007e88  __ZN19EditorInterfaceImpl11eventFilterEP7QObjectP6QEvent
0001:00007f6c  __ZN19EditorInterfaceImpl6updateEv
0001:00007ed8  __ZNK19EditorInterfaceImpl8numLinesEv
0001:00007f40  __ZN19EditorInterfaceImpl15intervalChangedEv
0001:00007fa0  __ZN19EditorInterfaceImpl18onBreakPointChangeEP7QObjectPKc
0001:0000706c  __ZThn40_N19EditorInterfaceImpl14queryInterfaceERK5QUuidPP17QUnknownInterface$w$fyVdsFXF8U6ersEd4
0001:0000725c  __ZThn40_N19EditorInterfaceImpl6editorEbP7QWidgetP17QUnknownInterface$w$fyVdsFXF8U6ersEd4
0001:00007338  __ZThn40_N19EditorInterfaceImpl7setTextERK7QString$w$fyVdsFXF8U6ersEd4
0001:00007454  __ZThn40_NK19EditorInterfaceImpl4textEv$w$fyVdsFXF8U6ersEd4
0001:000074bc  __ZThn40_NK19EditorInterfaceImpl15isUndoAvailableEv$w$fyVdsFXF8U6ersEd4
0001:00007520  __ZThn40_NK19EditorInterfaceImpl15isRedoAvailableEv$w$fyVdsFXF8U6ersEd4
0001:00007584  __ZThn40_N19EditorInterfaceImpl4undoEv$w$fyVdsFXF8U6ersEd4
0001:000075e8  __ZThn40_N19EditorInterfaceImpl4redoEv$w$fyVdsFXF8U6ersEd4
0001:0000764c  __ZThn40_N19EditorInterfaceImpl3cutEv$w$fyVdsFXF8U6ersEd4
0001:000076b0  __ZThn40_N19EditorInterfaceImpl4copyEv$w$fyVdsFXF8U6ersEd4
0001:00007714  __ZThn40_N19EditorInterfaceImpl5pasteEv$w$fyVdsFXF8U6ersEd4
0001:00007778  __ZThn40_N19EditorInterfaceImpl9selectAllEv$w$fyVdsFXF8U6ersEd4
0001:00007838  __ZThn40_N19EditorInterfaceImpl4findERK7QStringbbbb$w$fyVdsFXF8U6ersEd4
0001:00007a5c  __ZThn40_N19EditorInterfaceImpl7replaceERK7QStringS2_bbbbb$w$fyVdsFXF8U6ersEd4
0001:00007ac8  __ZThn40_N19EditorInterfaceImpl8gotoLineEi$w$fyVdsFXF8U6ersEd4
0001:00007b30  __ZThn40_N19EditorInterfaceImpl6indentEv$w$fyVdsFXF8U6ersEd4
0001:00007b40  __ZThn40_N19EditorInterfaceImpl9splitViewEv$w$fyVdsFXF8U6ersEd4
0001:00007cb0  __ZThn40_N19EditorInterfaceImpl8scrollToERK7QStringS2_$w$fyVdsFXF8U6ersEd4
0001:00007d20  __ZThn40_N19EditorInterfaceImpl10setContextEP7QObject$w$fyVdsFXF8U6ersEd4
0001:00007d5c  __ZThn40_N19EditorInterfaceImpl8setErrorEi$w$fyVdsFXF8U6ersEd4
0001:00007da0  __ZThn40_N19EditorInterfaceImpl12readSettingsEv$w$fyVdsFXF8U6ersEd4
0001:00007e40  __ZThn40_N19EditorInterfaceImpl11setModifiedEb$w$fyVdsFXF8U6ersEd4
0001:00007e80  __ZThn40_NK19EditorInterfaceImpl10isModifiedEv$w$fyVdsFXF8U6ersEd4
0001:00007f38  __ZThn40_NK19EditorInterfaceImpl8numLinesEv$w$fyVdsFXF8U6ersEd4
0001:00007fd8  __ZThn40_N19EditorInterfaceImpl18onBreakPointChangeEP7QObjectPKc$w$fyVdsFXF8U6ersEd4
0001:00007fe0* __ZTV19QTextCommandHistory$w$fyVdsFXF8U6ersEd4
0001:00008028* __ZN19QTextCommandHistoryD1Ev$w$fyVdsFXF8U6ersEd4
0001:0000806c* __ZN19QTextCommandHistoryD0Ev$w$fyVdsFXF8U6ersEd4
0001:00007ff0* __ZTV6QGList$w$fyVdsFXF8U6ersEd4
0001:0000801c* __ZNK6QGList5countEv$w$fyVdsFXF8U6ersEd4
0001:000080d0* __ZTV8QPtrListI12QTextCommandE$w$fyVdsFXF8U6ersEd4
0001:00008130* __ZNK8QPtrListI12QTextCommandE5countEv$w$fyVdsFXF8U6ersEd4
0001:00008124* __ZN8QPtrListI12QTextCommandE5clearEv$w$fyVdsFXF8U6ersEd4
0001:000080fc* __ZN8QPtrListI12QTextCommandED1Ev$w$fyVdsFXF8U6ersEd4
0001:0000813c* __ZN8QPtrListI12QTextCommandED0Ev$w$fyVdsFXF8U6ersEd4
0001:0000816c* __ZN8QPtrListI12QTextCommandE10deleteItemEPv$w$fyVdsFXF8U6ersEd4
Module: C:\200\trunk\tools\designer\plugins\cppeditor\tmp\obj\release_mt_shared\languageinterfaceimpl.obj(languageinterfaceimpl.obj)
0001:000081b0  __ZN21LanguageInterfaceImplC2EP17QUnknownInterface
0001:000081cc  __ZN21LanguageInterfaceImplC1EP17QUnknownInterface
0001:000081e8  __ZN21LanguageInterfaceImpl6addRefEv
0001:00008214  __ZN21LanguageInterfaceImpl7releaseEv
0001:00008250  __ZN21LanguageInterfaceImpl14queryInterfaceERK5QUuidPP17QUnknownInterface
0001:0000835c  __ZNK21LanguageInterfaceImpl9functionsERK7QStringP10QValueListIN17LanguageInterface8FunctionEE
0001:000086fc  __ZN21LanguageInterfaceImpl19createFunctionStartERK7QStringS2_S2_S2_
0001:0000888c  __ZNK21LanguageInterfaceImpl11definitionsEv
0001:00008ab4  __ZNK21LanguageInterfaceImpl17definitionEntriesERK7QStringP17QUnknownInterface
0001:00008cb4  __ZN21LanguageInterfaceImpl20setDefinitionEntriesERK7QStringRK11QStringListP17QUnknownInterface
0001:00008ddc  __ZN21LanguageInterfaceImpl19createEmptyFunctionEv
0001:00008dfc  __ZNK21LanguageInterfaceImpl8supportsEN17LanguageInterface7SupportE
0001:00008e54  __ZNK21LanguageInterfaceImpl14fileFilterListEv
0001:00008f14  __ZNK21LanguageInterfaceImpl17fileExtensionListEv
0001:000093dc  __ZNK21LanguageInterfaceImpl22projectKeyForExtensionERK7QString
0001:00009544  __ZNK21LanguageInterfaceImpl17sourceProjectKeysER11QStringList
0001:00009658  __ZN21LanguageInterfaceImpl10canConnectERK7QStringS2_
0001:000096b4  __ZN21LanguageInterfaceImpl12loadFormCodeERK7QStringS2_R10QValueListIN17LanguageInterface8FunctionEER11QStringListRS3_INS4_10ConnectionEE
0001:0000977c  __ZNK21LanguageInterfaceImpl18preferedExtensionsER4QMapI7QStringS1_E
0001:00009884  __ZNK21LanguageInterfaceImpl11signalNamesEP7QObject
0001:0000a630  __ZTV21LanguageInterfaceImpl$w$3eWZuLXF8U6rJ9Ka4
0001:00009918  __ZN17QValueListPrivateI11CppFunctionEC1Ev$w$3eWZuLXF8U6rJ9Ka4
0001:00009bc8  __ZN17QValueListPrivateIN17LanguageInterface8FunctionEE6insertE18QValueListIteratorIS1_ERKS1_$w$3eWZuLXF8U6rJ9Ka4
0001:00009c6c  __ZN10QValueListIN17LanguageInterface8FunctionEE14detachInternalEv$w$3eWZuLXF8U6rJ9Ka4
0001:000099e4  __ZN17QValueListPrivateI11CppFunctionED1Ev$w$3eWZuLXF8U6rJ9Ka4
0001:00009b98  __ZN10QValueListI11CppFunctionE14detachInternalEv$w$3eWZuLXF8U6rJ9Ka4
0001:00009c9c* __ZN17QValueListPrivateI7QStringEC1Ev$w$3eWZuLXF8U6rJ9Ka4
0001:00009d78* __ZN17QValueListPrivateI7QStringE6insertE18QValueListIteratorIS0_ERKS0_$w$3eWZuLXF8U6rJ9Ka4
0001:00009dd4* __ZN10QValueListI7QStringE14detachInternalEv$w$3eWZuLXF8U6rJ9Ka4
0001:00009ce8* __ZN17QValueListPrivateI7QStringED1Ev$w$3eWZuLXF8U6rJ9Ka4
0001:0000a5d0  __ZTV11CheckObject$w$3eWZuLXF8U6rJ9Ka4
0001:00009e04  __ZN4QMapI7QStringS0_E6insertERKS0_S3_b$w$3eWZuLXF8U6rJ9Ka4
0001:0000a6b0* __ZTV8QStrList$w$3eWZuLXF8U6rJ9Ka4
0001:0000a6f0* __ZTV8QPtrListIcE$w$3eWZuLXF8U6rJ9Ka4
0001:00009e70  __ZN17QValueListPrivateI11CppFunctionEC1ERKS1_$w$3eWZuLXF8U6rJ9Ka4
0001:00009fa0  __ZN17QValueListPrivateIN17LanguageInterface8FunctionEEC1ERKS2_$w$3eWZuLXF8U6rJ9Ka4
0001:0000a09c* __ZN17QValueListPrivateI7QStringEC1ERKS1_$w$3eWZuLXF8U6rJ9Ka4
0001:0000a130  __ZN11QMapPrivateI7QStringS0_E12insertSingleERKS0_$w$3eWZuLXF8U6rJ9Ka4
0001:0000a1e4  __ZN4QMapI7QStringS0_E14detachInternalEv$w$3eWZuLXF8U6rJ9Ka4
0001:0000a214  __ZN17QValueListPrivateI11CppFunctionE6insertE18QValueListIteratorIS0_ERKS0_$w$3eWZuLXF8U6rJ9Ka4
0001:0000a2c0  __ZN11QMapPrivateI7QStringS0_E6insertEP12QMapNodeBaseS3_RKS0_$w$3eWZuLXF8U6rJ9Ka4
0001:0000a3c4  __ZN12QMapIteratorI7QStringS0_E3decEv$w$3eWZuLXF8U6rJ9Ka4
0001:0000a41c  __ZN11QMapPrivateI7QStringS0_EC1EPKS1_$w$3eWZuLXF8U6rJ9Ka4
0001:0000a4e8  __ZN11QMapPrivateI7QStringS0_E4copyEP8QMapNodeIS0_S0_E$w$3eWZuLXF8U6rJ9Ka4
0001:0000a950  __ZNK7QObject10metaObjectEv$w$3eWZuLXF8U6rJ9Ka4
0001:0000a984  __ZN11CheckObjectD1Ev$w$3eWZuLXF8U6rJ9Ka4
0001:0000a95c  __ZN11CheckObjectD0Ev$w$3eWZuLXF8U6rJ9Ka4
0001:0000a890  __ZNK21LanguageInterfaceImpl11connectionsERK7QStringP10QValueListIN17LanguageInterface10ConnectionEE$w$3eWZuLXF8U6rJ9Ka4
0001:0000a898  __ZN21LanguageInterfaceImpl15createArgumentsERK7QString$w$3eWZuLXF8U6rJ9Ka4
0001:0000a8b8  __ZN21LanguageInterfaceImpl14cleanSignatureERK7QString$w$3eWZuLXF8U6rJ9Ka4
0001:0000a8d8  __ZNK21LanguageInterfaceImpl17formCodeExtensionEv$w$3eWZuLXF8U6rJ9Ka4
0001:0000a8f8  __ZN21LanguageInterfaceImpl15compressProjectERK7QStringS2_b$w$3eWZuLXF8U6rJ9Ka4
0001:0000a900  __ZN21LanguageInterfaceImpl17uncompressProjectERK7QStringS2_$w$3eWZuLXF8U6rJ9Ka4
0001:0000a920  __ZNK21LanguageInterfaceImpl9aboutTextEv$w$3eWZuLXF8U6rJ9Ka4
0001:0000a940  __ZN21LanguageInterfaceImpl13addConnectionERK7QStringS2_S2_S2_PS0_$w$3eWZuLXF8U6rJ9Ka4
0001:0000a948  __ZN21LanguageInterfaceImpl16removeConnectionERK7QStringS2_S2_S2_PS0_$w$3eWZuLXF8U6rJ9Ka4
0001:0000a9f8* __ZNK8QPtrListIcE5countEv$w$3eWZuLXF8U6rJ9Ka4
0001:0000a768* __ZN8QPtrListIcE5clearEv$w$3eWZuLXF8U6rJ9Ka4
0001:0000a774* __ZN8QStrListD1Ev$w$3eWZuLXF8U6rJ9Ka4
0001:0000a7a8* __ZN8QStrListD0Ev$w$3eWZuLXF8U6rJ9Ka4
0001:0000a7e4* __ZN8QStrList7newItemEPv$w$3eWZuLXF8U6rJ9Ka4
0001:0000a808* __ZN8QStrList10deleteItemEPv$w$3eWZuLXF8U6rJ9Ka4
0001:0000a828* __ZN8QStrList12compareItemsEPvS0_$w$3eWZuLXF8U6rJ9Ka4
0001:0000a85c* __ZN8QStrList4readER11QDataStreamRPv$w$3eWZuLXF8U6rJ9Ka4
0001:0000a878* __ZNK8QStrList5writeER11QDataStreamPv$w$3eWZuLXF8U6rJ9Ka4
0001:0000a9a0* __ZN8QPtrListIcED1Ev$w$3eWZuLXF8U6rJ9Ka4
0001:0000a9c8* __ZN8QPtrListIcED0Ev$w$3eWZuLXF8U6rJ9Ka4
0001:0000aa04* __ZN8QPtrListIcE10deleteItemEPv$w$3eWZuLXF8U6rJ9Ka4
0001:0000a730* __ZTV6QGList$w$3eWZuLXF8U6rJ9Ka4
0001:0000a75c* __ZNK6QGList5countEv$w$3eWZuLXF8U6rJ9Ka4
Module: C:\200\trunk\tools\designer\plugins\cppeditor\tmp\obj\release_mt_shared\common.obj(common.obj)
0001:0000aa30  __ZN15CommonInterfaceC2Ev
0001:0000aad4  __ZN15CommonInterfaceC1Ev
0001:0000ab78  __ZN15CommonInterfaceD2Ev
0001:0000abbc  __ZN15CommonInterfaceD1Ev
0001:0000ac00  __ZN15CommonInterfaceD0Ev
0001:0000ac4c  __ZN15CommonInterface14queryInterfaceERK5QUuidPP17QUnknownInterface
0001:0000b024  qt_ucm_query_verification_data
0001:0000b030  ucm_instantiate
0001:0000b0b0  __ZTV15CommonInterface$w$NNwLrPXF8U6drm5f3
0001:0000b128  __ZN15CommonInterface6addRefEv$w$NNwLrPXF8U6drm5f3
0001:0000b13c  __ZN15CommonInterface7releaseEv$w$NNwLrPXF8U6drm5f3
0001:0000b168  __ZNK15CommonInterface4nameEv$w$NNwLrPXF8U6drm5f3
0001:0000b198  __ZNK15CommonInterface11descriptionEv$w$NNwLrPXF8U6drm5f3
0001:0000b1e8  __ZNK15CommonInterface6authorEv$w$NNwLrPXF8U6drm5f3
0001:0000b1bc  __ZNK15CommonInterface7versionEv$w$NNwLrPXF8U6drm5f3
0001:0000b0f0* __ZTV6QGList$w$NNwLrPXF8U6drm5f3
0001:0000b11c* __ZNK6QGList5countEv$w$NNwLrPXF8U6drm5f3
Module: C:\200\trunk\tools\designer\plugins\cppeditor\tmp\obj\release_mt_shared\preferenceinterfaceimpl.obj(preferenceinterfaceimpl.obj)
0001:0000b210  __ZN23PreferenceInterfaceImplC2EP17QUnknownInterface
0001:0000b234  __ZN23PreferenceInterfaceImplC1EP17QUnknownInterface
0001:0000b258  __ZN23PreferenceInterfaceImplD2Ev
0001:0000b268  __ZN23PreferenceInterfaceImplD1Ev
0001:0000b278  __ZN23PreferenceInterfaceImplD0Ev
0001:0000b28c  __ZN23PreferenceInterfaceImpl6addRefEv
0001:0000b2b8  __ZN23PreferenceInterfaceImpl7releaseEv
0001:0000b2f4  __ZN23PreferenceInterfaceImpl14queryInterfaceERK5QUuidPP17QUnknownInterface
0001:0000b440  __ZN23PreferenceInterfaceImpl10preferenceEv
0001:0000b52c  __ZN23PreferenceInterfaceImpl22deletePreferenceObjectEPN19PreferenceInterface10PreferenceE
0001:0000b570  __ZTV23PreferenceInterfaceImpl$w$7EuJ8TXF8U6EGtRt3
0001:0000b5e8  __ZN23PreferenceInterfaceImpl9connectToEP17QUnknownInterface$w$7EuJ8TXF8U6EGtRt3
0001:0000b5b0* __ZTV6QGList$w$7EuJ8TXF8U6EGtRt3
0001:0000b5dc* __ZNK6QGList5countEv$w$7EuJ8TXF8U6EGtRt3
Module: C:\200\trunk\tools\designer\plugins\cppeditor\tmp\obj\release_mt_shared\yyreg.obj(yyreg.obj)
0001:0000d290  __ZNK11CppFunction9prototypeEv
0001:0000e670  __Z19extractCppFunctionsRK7QStringP10QValueListI11CppFunctionE
0001:0000e6a0  __Z17canonicalCppProtoRK7QString
0001:0000e790* __ZN17QValueListPrivateI7QStringEC1Ev$w$5JNpsWXF8U66gAFd4
0001:0000e7dc* __ZN17QValueListPrivateI7QStringED1Ev$w$5JNpsWXF8U66gAFd4
0001:0000e86c* __ZN17QValueListPrivateI7QStringE6insertE18QValueListIteratorIS0_ERKS0_$w$5JNpsWXF8U66gAFd4
0001:0000e8c8* __ZN10QValueListI7QStringE14detachInternalEv$w$5JNpsWXF8U66gAFd4
0001:0000e8f8* __ZN17QValueListPrivateI11CppFunctionE6insertE18QValueListIteratorIS0_ERKS0_$w$5JNpsWXF8U66gAFd4
0001:0000e9a4* __ZN10QValueListI11CppFunctionE14detachInternalEv$w$5JNpsWXF8U66gAFd4
0001:0000e9d4* __ZN17QValueListPrivateI7QStringEC1ERKS1_$w$5JNpsWXF8U66gAFd4
0001:0000ea68* __ZN17QValueListPrivateI11CppFunctionEC1ERKS1_$w$5JNpsWXF8U66gAFd4
0001:0000ebb0* __ZTV6QGList$w$5JNpsWXF8U66gAFd4
0001:0000ebdc* __ZNK6QGList5countEv$w$5JNpsWXF8U66gAFd4
Module: C:\200\trunk\tools\designer\plugins\cppeditor\tmp\obj\release_mt_shared\cppbrowser.obj(cppbrowser.obj)
0001:0000ebf0  __ZN16CppEditorBrowserC2EP6Editor
0001:0000ec14  __ZN16CppEditorBrowserC1EP6Editor
0001:0000ec88  __ZN16CppEditorBrowser8showHelpERK7QString
0001:0000f330* __ZN17QValueListPrivateI7QStringEC1Ev$w$jaymj3YF8U6BuFxP3
0001:0000f40c* __ZN17QValueListPrivateI7QStringE6insertE18QValueListIteratorIS0_ERKS0_$w$jaymj3YF8U6BuFxP3
0001:0000f37c* __ZN17QValueListPrivateI7QStringED1Ev$w$jaymj3YF8U6BuFxP3
0001:0000f468* __ZN10QValueListI7QStringE14detachInternalEv$w$jaymj3YF8U6BuFxP3
0001:0000f314  __Z7qt_castIP11QMainWindowET_PK7QObject$w$jaymj3YF8U6BuFxP3
0001:0000f498* __ZN17QValueListPrivateI7QStringEC1ERKS1_$w$jaymj3YF8U6BuFxP3
0001:0000f530* __ZTV19QTextCommandHistory$w$jaymj3YF8U6BuFxP3
0001:0000f588* __ZN19QTextCommandHistoryD1Ev$w$jaymj3YF8U6BuFxP3
0001:0000f5cc* __ZN19QTextCommandHistoryD0Ev$w$jaymj3YF8U6BuFxP3
0001:0000f550* __ZTV6QGList$w$jaymj3YF8U6BuFxP3
0001:0000f57c* __ZNK6QGList5countEv$w$jaymj3YF8U6BuFxP3
0001:0000f630* __ZTV8QPtrListI12QTextCommandE$w$jaymj3YF8U6BuFxP3
0001:0000f690* __ZNK8QPtrListI12QTextCommandE5countEv$w$jaymj3YF8U6BuFxP3
0001:0000f684* __ZN8QPtrListI12QTextCommandE5clearEv$w$jaymj3YF8U6BuFxP3
0001:0000f65c* __ZN8QPtrListI12QTextCommandED1Ev$w$jaymj3YF8U6BuFxP3
0001:0000f69c* __ZN8QPtrListI12QTextCommandED0Ev$w$jaymj3YF8U6BuFxP3
0001:0000f6cc* __ZN8QPtrListI12QTextCommandE10deleteItemEPv$w$jaymj3YF8U6BuFxP3
Module: C:\200\trunk\tools\designer\plugins\cppeditor\tmp\obj\release_mt_shared\projectsettingsinterfaceimpl.obj(projectsettingsinterfaceimpl.obj)
0001:0000f710  __ZN28ProjectSettingsInterfaceImplC2EP17QUnknownInterface
0001:0000f734  __ZN28ProjectSettingsInterfaceImplC1EP17QUnknownInterface
0001:0000f758  __ZN28ProjectSettingsInterfaceImpl6addRefEv
0001:0000f784  __ZN28ProjectSettingsInterfaceImpl7releaseEv
0001:0000f800  __ZN28ProjectSettingsInterfaceImpl14projectSettingEv
0001:0000f8a0  __ZNK28ProjectSettingsInterfaceImpl15projectSettingsEv
0001:0000f8cc  __ZN28ProjectSettingsInterfaceImpl9connectToEP17QUnknownInterface
0001:0000f8d4  __ZN28ProjectSettingsInterfaceImpl27deleteProjectSettingsObjectEPN24ProjectSettingsInterface15ProjectSettingsE
0001:0000f918  __ZN28ProjectSettingsInterfaceImpl14queryInterfaceERK5QUuidPP17QUnknownInterface
0001:0000fa70  __ZTV28ProjectSettingsInterfaceImpl$w$ZZPPX6YF8U6lIDIk1
0001:0000fa20* __ZN17QValueListPrivateI7QStringEC1Ev$w$ZZPPX6YF8U6lIDIk1
0001:0000fab0* __ZTV6QGList$w$ZZPPX6YF8U6lIDIk1
0001:0000fadc* __ZNK6QGList5countEv$w$ZZPPX6YF8U6lIDIk1
Module: C:\200\trunk\tools\designer\plugins\cppeditor\tmp\obj\release_mt_shared\sourcetemplateinterfaceimpl.obj(sourcetemplateinterfaceimpl.obj)
0001:0000faf0  __ZN27SourceTemplateInterfaceImplC2Ev
0001:0000fb08  __ZN27SourceTemplateInterfaceImplC1Ev
0001:0000fb20  __ZN27SourceTemplateInterfaceImpl14queryInterfaceERK5QUuidPP17QUnknownInterface
0001:0000fca0  __ZNK27SourceTemplateInterfaceImpl11featureListEv
0001:0001005c  __ZN27SourceTemplateInterfaceImpl6createERK7QStringP17QUnknownInterface
0001:000103d0  __ZNK27SourceTemplateInterfaceImpl8languageERK7QString
0001:00010570  __ZTV27SourceTemplateInterfaceImpl$w$9laMIbYF8U66cW3O2
0001:000103f0* __ZN17QValueListPrivateI7QStringEC1Ev$w$9laMIbYF8U66cW3O2
0001:0001043c* __ZN17QValueListPrivateI7QStringE6insertE18QValueListIteratorIS0_ERKS0_$w$9laMIbYF8U66cW3O2
0001:00010498* __ZN10QValueListI7QStringE14detachInternalEv$w$9laMIbYF8U66cW3O2
0001:000104c8* __ZN17QValueListPrivateI7QStringEC1ERKS1_$w$9laMIbYF8U66cW3O2
0001:000105c8  __ZN27SourceTemplateInterfaceImpl6addRefEv$w$9laMIbYF8U66cW3O2
0001:000105dc  __ZN27SourceTemplateInterfaceImpl7releaseEv$w$9laMIbYF8U66cW3O2
0001:00010590* __ZTV6QGList$w$9laMIbYF8U66cW3O2
0001:000105bc* __ZNK6QGList5countEv$w$9laMIbYF8U66cW3O2
Module: C:\200\trunk\tools\designer\plugins\cppeditor\tmp\obj\release_mt_shared\projectsettings.obj(projectsettings.obj)
0001:0001062c  __ZN18CppProjectSettings6reInitEP17QUnknownInterface
0001:00010b2c  __ZN18CppProjectSettings4saveEP17QUnknownInterface
0001:00010d04  __ZN18CppProjectSettings13configChangedERK7QString
0001:00010d70  __ZN18CppProjectSettings11libsChangedERK7QString
0001:00010ddc  __ZN18CppProjectSettings14definesChangedERK7QString
0001:00010e48  __ZN18CppProjectSettings15includesChangedERK7QString
0001:00010eb4  __ZN18CppProjectSettings21configPlatformChangedERK7QString
0001:00010ef0  __ZN18CppProjectSettings19libsPlatformChangedERK7QString
0001:00010f2c  __ZN18CppProjectSettings22definesPlatformChangedERK7QString
0001:00010f64  __ZN18CppProjectSettings23includesPlatformChangedERK7QString
0001:000111d0  __ZN18CppProjectSettingsC2EP7QWidgetPKcj
0001:00012610  __ZN18CppProjectSettings14languageChangeEv
0001:0001187c  __ZN18CppProjectSettingsC1EP7QWidgetPKcj
0001:00011f28  __ZN18CppProjectSettingsD2Ev
0001:00012154  __ZN18CppProjectSettingsD1Ev
0001:0001238c  __ZN18CppProjectSettingsD0Ev
0001:00012cd4  __ZN4QMapI7QStringS0_E5clearEv$w$Jxz0XiYF8U6SIC4I3
0001:00012dc8  __ZN4QMapI7QStringS0_E6removeERKS0_$w$Jxz0XiYF8U6SIC4I3
0001:00012ebc* __ZN4QMapI7QStringS0_E6insertERKS0_S3_b$w$Jxz0XiYF8U6SIC4I3
0001:00012d18  __ZN4QMapI7QStringS0_EixERKS0_$w$Jxz0XiYF8U6SIC4I3
0001:00012f28  __ZN11QMapPrivateI7QStringS0_EC1Ev$w$Jxz0XiYF8U6SIC4I3
0001:00012f98  __ZN11QMapPrivateI7QStringS0_E5clearEv$w$Jxz0XiYF8U6SIC4I3
0001:00012380  __ZThn40_N18CppProjectSettingsD1Ev$w$Jxz0XiYF8U6SIC4I3
0001:000125c0  __ZThn40_N18CppProjectSettingsD0Ev$w$Jxz0XiYF8U6SIC4I3
0001:00012fd4  __ZNK11QMapPrivateI7QStringS0_E4findERKS0_$w$Jxz0XiYF8U6SIC4I3
0001:00013058* __ZN4QMapI7QStringS0_E14detachInternalEv$w$Jxz0XiYF8U6SIC4I3
0001:00013088* __ZN11QMapPrivateI7QStringS0_E12insertSingleERKS0_$w$Jxz0XiYF8U6SIC4I3
0001:0001313c  __ZN11QMapPrivateI7QStringS0_E5clearEP8QMapNodeIS0_S0_E$w$Jxz0XiYF8U6SIC4I3
0001:000131c0* __ZN11QMapPrivateI7QStringS0_EC1EPKS1_$w$Jxz0XiYF8U6SIC4I3
0001:0001328c* __ZN11QMapPrivateI7QStringS0_E6insertEP12QMapNodeBaseS3_RKS0_$w$Jxz0XiYF8U6SIC4I3
0001:00013390* __ZN12QMapIteratorI7QStringS0_E3decEv$w$Jxz0XiYF8U6SIC4I3
0001:000133e8* __ZN11QMapPrivateI7QStringS0_E4copyEP8QMapNodeIS0_S0_E$w$Jxz0XiYF8U6SIC4I3
0001:000134d0* __ZTV6QGList$w$Jxz0XiYF8U6SIC4I3
0001:000134fc* __ZNK6QGList5countEv$w$Jxz0XiYF8U6SIC4I3
Module: C:\200\trunk\tools\designer\plugins\cppeditor\tmp\obj\release_mt_shared\mainfilesettings.obj(mainfilesettings.obj)
0001:00013510  __ZN11CppMainFile4initEv
0001:00013520  __ZN11CppMainFile5setupEP17QUnknownInterface
0001:00013670  __ZN11CppMainFile14updateOkButtonEv
0001:000137e8  __ZN11CppMainFileC2EP7QWidgetPKcbj
0001:00014194  __ZN11CppMainFile14languageChangeEv
0001:00013c60  __ZN11CppMainFileC1EP7QWidgetPKcbj
0001:000140d8  __ZN11CppMainFileD2Ev
0001:000140fc  __ZN11CppMainFileD1Ev
0001:00014128  __ZN11CppMainFileD0Ev
0001:0001434c* __ZN17QValueListPrivateI7QStringED1Ev$w$fceNUoYF8U6kcGA23
0001:00014120  __ZThn40_N11CppMainFileD1Ev$w$fceNUoYF8U6kcGA23
0001:00014154  __ZThn40_N11CppMainFileD0Ev$w$fceNUoYF8U6kcGA23
0001:000143f0* __ZTV6QGList$w$fceNUoYF8U6kcGA23
0001:0001441c* __ZNK6QGList5countEv$w$fceNUoYF8U6kcGA23
Module: C:\200\trunk\tools\designer\plugins\cppeditor\tmp\obj\release_mt_shared\moc_cppeditor.obj(moc_cppeditor.obj)
0001:0001443c  __ZNK9CppEditor9classNameEv
0001:00014448  __ZN9CppEditor2trEPKcS1_
0001:00014488  __ZN9CppEditor6trUtf8EPKcS1_
0001:00014574  __ZN9CppEditor16staticMetaObjectEv
0001:000145d0  __ZN9CppEditor7qt_castEPKc
0001:00014628  __ZN9CppEditor9qt_invokeEiP8QUObject
0001:00014694  __ZN9CppEditor7qt_emitEiP8QUObject
0001:000146b0  __ZN9CppEditor11qt_propertyEiiP8QVariant
0001:000146cc  __ZN9CppEditor18qt_static_propertyEP7QObjectiiP8QVariant
0002:00000790  __ZN9CppEditor7metaObjE
0001:000146f0  __ZTV9CppEditor$w$Xc7zGtYF8U6acF6J3
0001:00014c54  __ZNK9CppEditor10metaObjectEv$w$Xc7zGtYF8U6acF6J3
0001:00014b54  __ZN7QWidget11setGeometryERK5QRect$w$Xc7zGtYF8U6acF6J3
0001:00014b8c  __ZN7QWidget9setWStateEj$w$Xc7zGtYF8U6acF6J3
0001:00014ba0  __ZN7QWidget9setWFlagsEj$w$Xc7zGtYF8U6acF6J3
0001:00014bb4  __ZN9QTextEdit6zoomInEv$w$Xc7zGtYF8U6acF6J3
0001:00014bd0  __ZN9QTextEdit7zoomOutEv$w$Xc7zGtYF8U6acF6J3
0001:00014c34  __ZN6Editor11placeCursorERK6QPointP11QTextCursor$w$Xc7zGtYF8U6acF6J3
0001:00014c28  __ZN9QTextEdit14setCurrentFontERK5QFont$w$Xc7zGtYF8U6acF6J3
0001:00014bec  __ZN9QTextEdit16setOverwriteModeEb$w$Xc7zGtYF8U6acF6J3
0001:00014c10  __ZNK9QTextEdit12linksEnabledEv$w$Xc7zGtYF8U6acF6J3
0001:00014c18  __ZN9QTextEdit15emitHighlightedERK7QString$w$Xc7zGtYF8U6acF6J3
0001:00014c20  __ZN9QTextEdit15emitLinkClickedERK7QString$w$Xc7zGtYF8U6acF6J3
0001:00014c60  __ZN9CppEditor17completionManagerEv$w$Xc7zGtYF8U6acF6J3
0001:00014c70  __ZN9CppEditor14browserManagerEv$w$Xc7zGtYF8U6acF6J3
0001:00014c40  __ZNK6Editor14supportsErrorsEv$w$Xc7zGtYF8U6acF6J3
0001:00014c80  __ZNK9CppEditor19supportsBreakPointsEv$w$Xc7zGtYF8U6acF6J3
0001:00014c4c  __ZN6Editor19makeFunctionVisibleEP14QTextParagraph$w$Xc7zGtYF8U6acF6J3
0001:00014ad0* __ZTV6QGList$w$Xc7zGtYF8U6acF6J3
0001:00014b48* __ZNK6QGList5countEv$w$Xc7zGtYF8U6acF6J3
Module: C:\200\trunk\tools\designer\plugins\cppeditor\tmp\obj\release_mt_shared\moc_cppcompletion.obj(moc_cppcompletion.obj)
0001:00014ce4  __ZNK19CppEditorCompletion9classNameEv
0001:00014cf0  __ZN19CppEditorCompletion2trEPKcS1_
0001:00014d30  __ZN19CppEditorCompletion6trUtf8EPKcS1_
0001:00014d70  __ZN19CppEditorCompletion16staticMetaObjectEv
0001:00014dc8  __ZN19CppEditorCompletion7qt_castEPKc
0001:00014e20  __ZN19CppEditorCompletion9qt_invokeEiP8QUObject
0001:00014e3c  __ZN19CppEditorCompletion7qt_emitEiP8QUObject
0001:00014e58  __ZN19CppEditorCompletion11qt_propertyEiiP8QVariant
0001:00014e74  __ZN19CppEditorCompletion18qt_static_propertyEP7QObjectiiP8QVariant
0002:000007b0  __ZN19CppEditorCompletion7metaObjE
0001:00014e90  __ZTV19CppEditorCompletion$w$lNnPFxYF8U6fRNUC2
0001:00015040  __ZNK19CppEditorCompletion10metaObjectEv$w$lNnPFxYF8U6fRNUC2
0001:00014fb4  __ZN19CppEditorCompletionD1Ev$w$lNnPFxYF8U6fRNUC2
0001:00014ff8  __ZN19CppEditorCompletionD0Ev$w$lNnPFxYF8U6fRNUC2
0001:00014f30* __ZTV6QGList$w$lNnPFxYF8U6fRNUC2
0001:00014fa8* __ZNK6QGList5countEv$w$lNnPFxYF8U6fRNUC2
Module: C:\200\trunk\tools\designer\plugins\cppeditor\tmp\obj\release_mt_shared\moc_editorinterfaceimpl.obj(moc_editorinterfaceimpl.obj)
0001:000150a4  __ZNK19EditorInterfaceImpl9classNameEv
0001:000150b0  __ZN19EditorInterfaceImpl2trEPKcS1_
0001:000150f0  __ZN19EditorInterfaceImpl6trUtf8EPKcS1_
0001:000151f4  __ZN19EditorInterfaceImpl16staticMetaObjectEv
0001:00015260  __ZN19EditorInterfaceImpl7qt_castEPKc
0001:000152ec  __ZN19EditorInterfaceImpl9qt_invokeEiP8QUObject
0001:00015360  __ZN19EditorInterfaceImpl7qt_emitEiP8QUObject
0001:0001537c  __ZN19EditorInterfaceImpl11qt_propertyEiiP8QVariant
0001:00015398  __ZN19EditorInterfaceImpl18qt_static_propertyEP7QObjectiiP8QVariant
0002:000007d0  __ZN19EditorInterfaceImpl7metaObjE
0001:000153b0  __ZTV19EditorInterfaceImpl$w$hzL6XBYF8U6cHIWy0
0001:000155b4  __ZNK19EditorInterfaceImpl10metaObjectEv$w$hzL6XBYF8U6cHIWy0
0001:000155c0  __ZN19EditorInterfaceImpl6addRefEv$w$hzL6XBYF8U6cHIWy0
0001:000155dc  __ZN19EditorInterfaceImpl7releaseEv$w$hzL6XBYF8U6cHIWy0
0001:0001560c  __ZN19EditorInterfaceImpl7setStepEi$w$hzL6XBYF8U6cHIWy0
0001:0001561c  __ZN19EditorInterfaceImpl9clearStepEv$w$hzL6XBYF8U6cHIWy0
0001:0001562c  __ZN19EditorInterfaceImpl7setModeEN15EditorInterface4ModeE$w$hzL6XBYF8U6cHIWy0
0001:0001563c  __ZNK19EditorInterfaceImpl11breakPointsER10QValueListIjE$w$hzL6XBYF8U6cHIWy0
0001:0001564c  __ZN19EditorInterfaceImpl14setBreakPointsERK10QValueListIjE$w$hzL6XBYF8U6cHIWy0
0001:0001565c  __ZN19EditorInterfaceImpl15clearStackFrameEv$w$hzL6XBYF8U6cHIWy0
0001:0001566c  __ZN19EditorInterfaceImpl13setStackFrameEi$w$hzL6XBYF8U6cHIWy0
0001:000155d4  __ZThn40_N19EditorInterfaceImpl6addRefEv$w$hzL6XBYF8U6cHIWy0
0001:00015604  __ZThn40_N19EditorInterfaceImpl7releaseEv$w$hzL6XBYF8U6cHIWy0
0001:00015614  __ZThn40_N19EditorInterfaceImpl7setStepEi$w$hzL6XBYF8U6cHIWy0
0001:00015674  __ZThn40_N19EditorInterfaceImpl13setStackFrameEi$w$hzL6XBYF8U6cHIWy0
0001:00015624  __ZThn40_N19EditorInterfaceImpl9clearStepEv$w$hzL6XBYF8U6cHIWy0
0001:00015664  __ZThn40_N19EditorInterfaceImpl15clearStackFrameEv$w$hzL6XBYF8U6cHIWy0
0001:00015644  __ZThn40_NK19EditorInterfaceImpl11breakPointsER10QValueListIjE$w$hzL6XBYF8U6cHIWy0
0001:00015654  __ZThn40_N19EditorInterfaceImpl14setBreakPointsERK10QValueListIjE$w$hzL6XBYF8U6cHIWy0
0001:00015634  __ZThn40_N19EditorInterfaceImpl7setModeEN15EditorInterface4ModeE$w$hzL6XBYF8U6cHIWy0
0001:00015530* __ZTV6QGList$w$hzL6XBYF8U6cHIWy0
0001:000155a8* __ZNK6QGList5countEv$w$hzL6XBYF8U6cHIWy0
Module: C:\200\trunk\tools\designer\plugins\cppeditor\tmp\obj\release_mt_shared\moc_cppbrowser.obj(moc_cppbrowser.obj)
0001:000156c4  __ZNK16CppEditorBrowser9classNameEv
0001:000156d0  __ZN16CppEditorBrowser2trEPKcS1_
0001:00015710  __ZN16CppEditorBrowser6trUtf8EPKcS1_
0001:00015750  __ZN16CppEditorBrowser16staticMetaObjectEv
0001:000157a8  __ZN16CppEditorBrowser7qt_castEPKc
0001:00015800  __ZN16CppEditorBrowser9qt_invokeEiP8QUObject
0001:0001581c  __ZN16CppEditorBrowser7qt_emitEiP8QUObject
0001:00015838  __ZN16CppEditorBrowser11qt_propertyEiiP8QVariant
0001:00015854  __ZN16CppEditorBrowser18qt_static_propertyEP7QObjectiiP8QVariant
0002:000007f0  __ZN16CppEditorBrowser7metaObjE
0001:00015870  __ZTV16CppEditorBrowser$w$tZleaGYF8U67Q9Gk2
0001:000159b8  __ZNK16CppEditorBrowser10metaObjectEv$w$tZleaGYF8U67Q9Gk2
0001:00015974  __ZN16CppEditorBrowserD1Ev$w$tZleaGYF8U67Q9Gk2
0001:00015990  __ZN16CppEditorBrowserD0Ev$w$tZleaGYF8U67Q9Gk2
0001:000158f0* __ZTV6QGList$w$tZleaGYF8U67Q9Gk2
0001:00015968* __ZNK6QGList5countEv$w$tZleaGYF8U67Q9Gk2
Module: C:\200\trunk\tools\designer\plugins\cppeditor\tmp\obj\release_mt_shared\moc_projectsettings.obj(moc_projectsettings.obj)
0001:00015a24  __ZNK18CppProjectSettings9classNameEv
0001:00015a30  __ZN18CppProjectSettings2trEPKcS1_
0001:00015a70  __ZN18CppProjectSettings6trUtf8EPKcS1_
0001:00015e94  __ZN18CppProjectSettings16staticMetaObjectEv
0001:00015ef0  __ZN18CppProjectSettings7qt_castEPKc
0001:00015f48  __ZN18CppProjectSettings9qt_invokeEiP8QUObject
0001:00016088  __ZN18CppProjectSettings7qt_emitEiP8QUObject
0001:000160a4  __ZN18CppProjectSettings11qt_propertyEiiP8QVariant
0001:000160c0  __ZN18CppProjectSettings18qt_static_propertyEP7QObjectiiP8QVariant
0002:00000810  __ZN18CppProjectSettings7metaObjE
0001:000160d0  __ZTV18CppProjectSettings$w$PsfW8KYF8U6Cdo304
0001:000163d4  __ZNK18CppProjectSettings10metaObjectEv$w$PsfW8KYF8U6Cdo304
0001:00016374* __ZN7QWidget11setGeometryERK5QRect$w$PsfW8KYF8U6Cdo304
0001:000163ac* __ZN7QWidget9setWStateEj$w$PsfW8KYF8U6Cdo304
0001:000163c0* __ZN7QWidget9setWFlagsEj$w$PsfW8KYF8U6Cdo304
0001:000162f0* __ZTV6QGList$w$PsfW8KYF8U6Cdo304
0001:00016368* __ZNK6QGList5countEv$w$PsfW8KYF8U6Cdo304
Module: C:\200\trunk\tools\designer\plugins\cppeditor\tmp\obj\release_mt_shared\moc_mainfilesettings.obj(moc_mainfilesettings.obj)
0001:0001641c  __ZNK11CppMainFile9classNameEv
0001:00016428  __ZN11CppMainFile2trEPKcS1_
0001:00016468  __ZN11CppMainFile6trUtf8EPKcS1_
0001:000165c0  __ZN11CppMainFile16staticMetaObjectEv
0001:0001661c  __ZN11CppMainFile7qt_castEPKc
0001:00016674  __ZN11CppMainFile9qt_invokeEiP8QUObject
0001:00016708  __ZN11CppMainFile7qt_emitEiP8QUObject
0001:00016724  __ZN11CppMainFile11qt_propertyEiiP8QVariant
0001:00016740  __ZN11CppMainFile18qt_static_propertyEP7QObjectiiP8QVariant
0002:00000830  __ZN11CppMainFile7metaObjE
0001:00016750  __ZTV11CppMainFile$w$NPrA9OYF8U6GatBe3
0001:00016a1c  __ZNK11CppMainFile10metaObjectEv$w$NPrA9OYF8U6GatBe3
0001:000169f4* __ZN7QWidget9setWStateEj$w$NPrA9OYF8U6GatBe3
0001:00016a08* __ZN7QWidget9setWFlagsEj$w$NPrA9OYF8U6GatBe3
0001:00016970* __ZTV6QGList$w$NPrA9OYF8U6GatBe3
0001:000169e8* __ZNK6QGList5countEv$w$NPrA9OYF8U6GatBe3
Module: C:\usr\lib\libc_dll.lib(dllinit.obj)
0001:00016a70  _DLL_InitTerm
Module: C:\usr\lib\libend.lib(src/libend/386/end.asm)
0001:00033bd0* _etext
0001:00033bd0* __etext
0000:00000000  WEAK$ZERO
0002:00000a40  __end
0002:00000700  __edata
Module: C:\200\trunk\lib\editor.lib(editor.obj)
0001:00016b28  __ZN6EditorC2ERK7QStringP7QWidgetPKc
0001:00017578  __ZN6Editor4loadERK7QString
0001:00016ebc* __ZN6EditorC1ERK7QStringP7QWidgetPKc
0001:00017250  __ZN6EditorD2Ev
0001:00017334  __ZN6EditorD1Ev
0001:00017424  __ZN6EditorD0Ev
0001:0001751c  __ZN6Editor16cursorPosChangedEP11QTextCursor
0001:00017660  __ZN6Editor4saveERK7QString
0001:0001768c  __ZN6Editor13configChangedEv
0001:000176bc  __ZN6Editor17setErrorSelectionEi
0001:00017808  __ZN6Editor16setStepSelectionEi
0001:0001794c  __ZN6Editor18clearStepSelectionEv
0001:00017980  __ZN6Editor16doChangeIntervalEv
0001:000179a4  __ZN6Editor16commentSelectionEv
0001:00017c08  __ZN6Editor18uncommentSelectionEv
0001:00017ea4  __ZN6Editor15createPopupMenuERK6QPoint
0001:00017fa4  __ZN6Editor11eventFilterEP7QObjectP6QEvent
0001:00018024  __ZN6Editor16doKeyboardActionEN9QTextEdit14KeyboardActionE
0001:00018040  __ZN6Editor13keyPressEventEP9QKeyEvent
0001:0001817c  __ZN11QMapPrivateI7QString11ConfigStyleEC1Ev$w$1FOERRUF8U6LRYwC0
0001:0001808c  __ZN4QMapIi6QColorEixERKi$w$1FOERRUF8U6LRYwC0
0001:00018108  __ZN4QMapIibEixERKi$w$1FOERRUF8U6LRYwC0
0001:000181ec* __ZN11QMapPrivateI7QString11ConfigStyleE5clearEv$w$1FOERRUF8U6LRYwC0
0001:00017418  __ZThn40_N6EditorD1Ev$w$1FOERRUF8U6LRYwC0
0001:00017510  __ZThn40_N6EditorD0Ev$w$1FOERRUF8U6LRYwC0
0001:00018a78  __ZTV11QTextCursor$w$1FOERRUF8U6LRYwC0
0001:00018228  __ZN17QValueListPrivateIiED1Ev$w$1FOERRUF8U6LRYwC0
0001:00018264  __ZN17QValueListPrivateIP14QTextParagraphED1Ev$w$1FOERRUF8U6LRYwC0
0001:000182a0  __ZNK11QMapPrivateIi6QColorE4findERKi$w$1FOERRUF8U6LRYwC0
0001:00018340  __ZN4QMapIi6QColorE6insertERKiRKS0_b$w$1FOERRUF8U6LRYwC0
0001:000183ac  __ZN4QMapIi6QColorE14detachInternalEv$w$1FOERRUF8U6LRYwC0
0001:000182f0  __ZNK11QMapPrivateIibE4findERKi$w$1FOERRUF8U6LRYwC0
0001:000183dc  __ZN4QMapIibE6insertERKiRKbb$w$1FOERRUF8U6LRYwC0
0001:00018440  __ZN4QMapIibE14detachInternalEv$w$1FOERRUF8U6LRYwC0
0001:00018470* __ZN11QMapPrivateI7QString11ConfigStyleE5clearEP8QMapNodeIS0_S1_E$w$1FOERRUF8U6LRYwC0
0001:000184e0  __ZN11QMapPrivateIi6QColorE12insertSingleERKi$w$1FOERRUF8U6LRYwC0
0001:0001857c  __ZN11QMapPrivateIi6QColorEC1EPKS1_$w$1FOERRUF8U6LRYwC0
0001:00018624  __ZN11QMapPrivateIibE12insertSingleERKi$w$1FOERRUF8U6LRYwC0
0001:000186c0  __ZN11QMapPrivateIibEC1EPKS0_$w$1FOERRUF8U6LRYwC0
0001:00018758  __ZN11QMapPrivateIi6QColorE6insertEP12QMapNodeBaseS3_RKi$w$1FOERRUF8U6LRYwC0
0001:000187f8  __ZN12QMapIteratorIi6QColorE3decEv$w$1FOERRUF8U6LRYwC0
0001:00018850  __ZN11QMapPrivateIi6QColorE4copyEP8QMapNodeIiS0_E$w$1FOERRUF8U6LRYwC0
0001:000188f0  __ZN11QMapPrivateIibE6insertEP12QMapNodeBaseS2_RKi$w$1FOERRUF8U6LRYwC0
0001:00018984  __ZN12QMapIteratorIibE3decEv$w$1FOERRUF8U6LRYwC0
0001:000189dc  __ZN11QMapPrivateIibE4copyEP8QMapNodeIibE$w$1FOERRUF8U6LRYwC0
0001:00018a68* __ZTV19QTextCommandHistory$w$1FOERRUF8U6LRYwC0
0001:00018c24* __ZN19QTextCommandHistoryD1Ev$w$1FOERRUF8U6LRYwC0
0001:00018c68* __ZN19QTextCommandHistoryD0Ev$w$1FOERRUF8U6LRYwC0
0001:00018ac8  __ZN11QTextCursorD1Ev$w$1FOERRUF8U6LRYwC0
0001:00018b74  __ZN11QTextCursorD0Ev$w$1FOERRUF8U6LRYwC0
0001:00018a90* __ZTV6QGList$w$1FOERRUF8U6LRYwC0
0001:00018abc* __ZNK6QGList5countEv$w$1FOERRUF8U6LRYwC0
0001:00018cd0* __ZTV8QPtrListI12QTextCommandE$w$1FOERRUF8U6LRYwC0
0001:00018d30* __ZNK8QPtrListI12QTextCommandE5countEv$w$1FOERRUF8U6LRYwC0
0001:00018d24* __ZN8QPtrListI12QTextCommandE5clearEv$w$1FOERRUF8U6LRYwC0
0001:00018cfc* __ZN8QPtrListI12QTextCommandED1Ev$w$1FOERRUF8U6LRYwC0
0001:00018d3c* __ZN8QPtrListI12QTextCommandED0Ev$w$1FOERRUF8U6LRYwC0
0001:00018d6c* __ZN8QPtrListI12QTextCommandE10deleteItemEPv$w$1FOERRUF8U6LRYwC0
Module: C:\200\trunk\lib\editor.lib(cindent.obj)
0001:00018db0* __ZN7CIndentC2Ev
0001:00018dec  __ZN7CIndentC1Ev
0001:00018ee8* __ZN7CIndent6tabifyER7QString
0001:00019210* __ZN7CIndent10indentLineEP14QTextParagraphRiS2_
0001:0001941c* __ZN7CIndent6indentEP13QTextDocumentP14QTextParagraphPiS4_
0001:000195a4  __ZN7CIndent8reindentEv
0001:000195e0  __ZN7CIndent10setTabSizeEi
0001:000195f8  __ZN7CIndent13setIndentSizeEi
0001:00019810  __ZTV7CIndent$w$Te7SeMVF8U6Xentc4
0001:00019610* __ZN17QValueListPrivateI7QStringEC1Ev$w$Te7SeMVF8U6Xentc4
0001:000196ec* __ZN17QValueListPrivateI7QStringE6insertE18QValueListIteratorIS0_ERKS0_$w$Te7SeMVF8U6Xentc4
0001:0001965c* __ZN17QValueListPrivateI7QStringED1Ev$w$Te7SeMVF8U6Xentc4
0001:00019748* __ZN10QValueListI7QStringE14detachInternalEv$w$Te7SeMVF8U6Xentc4
0001:00019778* __ZN17QValueListPrivateI7QStringEC1ERKS1_$w$Te7SeMVF8U6Xentc4
0001:00019918  __ZN7CIndentD1Ev$w$Te7SeMVF8U6Xentc4
0001:00019928  __ZN7CIndentD0Ev$w$Te7SeMVF8U6Xentc4
0001:00019828* __ZTV19QTextCommandHistory$w$Te7SeMVF8U6Xentc4
0001:00019888* __ZN19QTextCommandHistoryD1Ev$w$Te7SeMVF8U6Xentc4
0001:000198cc* __ZN19QTextCommandHistoryD0Ev$w$Te7SeMVF8U6Xentc4
0001:00019850* __ZTV6QGList$w$Te7SeMVF8U6Xentc4
0001:0001987c* __ZNK6QGList5countEv$w$Te7SeMVF8U6Xentc4
0001:00019970* __ZTV8QPtrListI12QTextCommandE$w$Te7SeMVF8U6Xentc4
0001:00019940  __ZTV11QTextIndent$w$Te7SeMVF8U6Xentc4
0001:000199dc  __ZN11QTextIndentD1Ev$w$Te7SeMVF8U6Xentc4
0001:000199ec  __ZN11QTextIndentD0Ev$w$Te7SeMVF8U6Xentc4
0001:000199d0* __ZNK8QPtrListI12QTextCommandE5countEv$w$Te7SeMVF8U6Xentc4
0001:000199c4* __ZN8QPtrListI12QTextCommandE5clearEv$w$Te7SeMVF8U6Xentc4
0001:0001999c* __ZN8QPtrListI12QTextCommandED1Ev$w$Te7SeMVF8U6Xentc4
0001:00019a00* __ZN8QPtrListI12QTextCommandED0Ev$w$Te7SeMVF8U6Xentc4
0001:00019a30* __ZN8QPtrListI12QTextCommandE10deleteItemEPv$w$Te7SeMVF8U6Xentc4
Module: C:\200\trunk\lib\editor.lib(conf.obj)
0001:00019ab8* __ZN6Config13defaultStylesEv
0001:00019ffc  __ZN6Config10readStylesERK7QString
0001:0001aaa4  __ZN6Config10saveStylesERK4QMapI7QString11ConfigStyleERKS1_
0001:0001b78c  __ZN6Config10completionERK7QString
0001:0001b840  __ZN6Config8wordWrapERK7QString
0001:0001b8f8  __ZN6Config13parenMatchingERK7QString
0001:0001b9b0  __ZN6Config13indentTabSizeERK7QString
0001:0001ba68  __ZN6Config16indentIndentSizeERK7QString
0001:0001bb20  __ZN6Config14indentKeepTabsERK7QString
0001:0001bbdc  __ZN6Config16indentAutoIndentERK7QString
0001:0001bc88  __ZN6Config13setCompletionEbRK7QString
0001:0001bd34  __ZN6Config11setWordWrapEbRK7QString
0001:0001bde0  __ZN6Config16setParenMatchingEbRK7QString
0001:0001be8c  __ZN6Config16setIndentTabSizeEiRK7QString
0001:0001bf30  __ZN6Config19setIndentIndentSizeEiRK7QString
0001:0001bfd4  __ZN6Config17setIndentKeepTabsEbRK7QString
0001:0001c080  __ZN6Config19setIndentAutoIndentEbRK7QString
0001:0001c1b0* __ZN11QMapPrivateI7QString11ConfigStyleEC1Ev$w$rmuAeuVF8U64YErc1
0001:0001c12c  __ZN4QMapI7QString11ConfigStyleE6insertERKS0_RKS1_b$w$rmuAeuVF8U64YErc1
0001:0001c25c* __ZN4QMapI7QString11ConfigStyleEaSERKS2_$w$rmuAeuVF8U64YErc1
0001:0001c220* __ZN11QMapPrivateI7QString11ConfigStyleE5clearEv$w$rmuAeuVF8U64YErc1
0001:0001c2e8  __ZN4QMapI7QString11ConfigStyleE6removeERKS0_$w$rmuAeuVF8U64YErc1
0001:0001c3c0  __ZNK11QMapPrivateI7QString11ConfigStyleE4findERKS0_$w$rmuAeuVF8U64YErc1
0001:0001c444  __ZN11QMapPrivateI7QString11ConfigStyleE12insertSingleERKS0_$w$rmuAeuVF8U64YErc1
0001:0001c4f8  __ZN4QMapI7QString11ConfigStyleE14detachInternalEv$w$rmuAeuVF8U64YErc1
0001:0001c528* __ZN11QMapPrivateI7QString11ConfigStyleE5clearEP8QMapNodeIS0_S1_E$w$rmuAeuVF8U64YErc1
0001:0001c598  __ZN11QMapPrivateI7QString11ConfigStyleE6insertEP12QMapNodeBaseS4_RKS0_$w$rmuAeuVF8U64YErc1
0001:0001c694  __ZN12QMapIteratorI7QString11ConfigStyleE3decEv$w$rmuAeuVF8U64YErc1
0001:0001c6ec  __ZN11QMapPrivateI7QString11ConfigStyleEC1EPKS2_$w$rmuAeuVF8U64YErc1
0001:0001c7b4  __ZN11QMapPrivateI7QString11ConfigStyleE4copyEP8QMapNodeIS0_S1_E$w$rmuAeuVF8U64YErc1
0001:0001c8b0* __ZTV6QGList$w$rmuAeuVF8U64YErc1
0001:0001c8dc* __ZNK6QGList5countEv$w$rmuAeuVF8U64YErc1
Module: C:\200\trunk\lib\editor.lib(moc_editor.obj)
0001:0001c8f8* __ZNK6Editor9classNameEv
0001:0001c904  __ZN6Editor2trEPKcS1_
0001:0001c944* __ZN6Editor6trUtf8EPKcS1_
0001:0001cb3c  __ZN6Editor16staticMetaObjectEv
0001:0001cb98  __ZN6Editor7qt_castEPKc
0001:0001cbf0  __ZN6Editor16clearErrorMarkerEv
0001:0001cc10  __ZN6Editor15intervalChangedEv
0001:0001cc30  __ZN6Editor9qt_invokeEiP8QUObject
0001:0001ccb8  __ZN6Editor7qt_emitEiP8QUObject
0001:0001cd10  __ZN6Editor11qt_propertyEiiP8QVariant
0001:0001cd2c* __ZN6Editor18qt_static_propertyEP7QObjectiiP8QVariant
0002:00000850* __ZN6Editor7metaObjE
0001:0001cd50  __ZTV6Editor$w$VhMek2WF8U6vwhU90
0001:0001d294  __ZNK6Editor10metaObjectEv$w$VhMek2WF8U6vwhU90
0001:0001d1b4* __ZN7QWidget11setGeometryERK5QRect$w$VhMek2WF8U6vwhU90
0001:0001d1ec* __ZN7QWidget9setWStateEj$w$VhMek2WF8U6vwhU90
0001:0001d200* __ZN7QWidget9setWFlagsEj$w$VhMek2WF8U6vwhU90
0001:0001d214* __ZN9QTextEdit6zoomInEv$w$VhMek2WF8U6vwhU90
0001:0001d230* __ZN9QTextEdit7zoomOutEv$w$VhMek2WF8U6vwhU90
0001:0001d2a0* __ZN6Editor11placeCursorERK6QPointP11QTextCursor$w$VhMek2WF8U6vwhU90
0001:0001d288* __ZN9QTextEdit14setCurrentFontERK5QFont$w$VhMek2WF8U6vwhU90
0001:0001d24c* __ZN9QTextEdit16setOverwriteModeEb$w$VhMek2WF8U6vwhU90
0001:0001d270* __ZNK9QTextEdit12linksEnabledEv$w$VhMek2WF8U6vwhU90
0001:0001d278* __ZN9QTextEdit15emitHighlightedERK7QString$w$VhMek2WF8U6vwhU90
0001:0001d280* __ZN9QTextEdit15emitLinkClickedERK7QString$w$VhMek2WF8U6vwhU90
0001:0001d2ac  __ZN6Editor17completionManagerEv$w$VhMek2WF8U6vwhU90
0001:0001d2b4  __ZN6Editor14browserManagerEv$w$VhMek2WF8U6vwhU90
0001:0001d2bc* __ZNK6Editor14supportsErrorsEv$w$VhMek2WF8U6vwhU90
0001:0001d2c8  __ZNK6Editor19supportsBreakPointsEv$w$VhMek2WF8U6vwhU90
0001:0001d2d4* __ZN6Editor19makeFunctionVisibleEP14QTextParagraph$w$VhMek2WF8U6vwhU90
0001:0001d130* __ZTV6QGList$w$VhMek2WF8U6vwhU90
0001:0001d1a8* __ZNK6QGList5countEv$w$VhMek2WF8U6vwhU90
Module: C:\200\trunk\lib\editor.lib(completion.obj)
0001:0001d4a4* __ZN14CompletionItem14setupParagraphEv
0001:0001dd28  __ZN16EditorCompletionC2EP6Editor
0001:0001def8* __ZN16EditorCompletionC1EP6Editor
0001:0001e0c8  __ZN16EditorCompletionD2Ev
0001:0001e1d4  __ZN16EditorCompletionD1Ev
0001:0001e2e0  __ZN16EditorCompletionD0Ev
0001:0001e3f4  __ZN16EditorCompletion18addCompletionEntryERK7QStringP13QTextDocumentb
0001:0001e9c8  __ZNK16EditorCompletion14completionListERK7QStringP13QTextDocument
0001:0001ee08  __ZN16EditorCompletion19updateCompletionMapEP13QTextDocument
0001:0001f098  __ZN16EditorCompletion12doCompletionEv
0001:0001fa60  __ZN16EditorCompletion11eventFilterEP7QObjectP6QEvent
0001:0002031c  __ZN16EditorCompletion18completeCompletionEv
0001:00020480  __ZN16EditorCompletion15setCurrentEdiorEP6Editor
0001:00020498  __ZN16EditorCompletion9addEditorEP6Editor
0001:000204b0  __ZN16EditorCompletion18doObjectCompletionEv
0001:000206c4  __ZN16EditorCompletion18doObjectCompletionERK7QString
0001:00020760  __ZN16EditorCompletion16continueCompleteEv
0001:00020de8  __ZN16EditorCompletion14doArgumentHintEb
0001:000221d0  __ZN16EditorCompletion18functionParametersERK7QStringR5QCharRS0_S5_
0001:000221fc  __ZN16EditorCompletion10setContextEP7QObject
0001:00022204  __ZN16EditorCompletion14showCompletionERK10QValueListI15CompletionEntryE
0001:00022634* __ZN17QValueListPrivateI15CompletionEntryEC1Ev$w$NbJFeaVF8U6sY9wc4
0001:0002287c  __ZN11QMapPrivateI5QChar11QStringListEC1Ev$w$NbJFeaVF8U6sY9wc4
0001:000228e0  __ZN11QMapPrivateI5QChar11QStringListE5clearEv$w$NbJFeaVF8U6sY9wc4
0001:000226d8* __ZN17QValueListPrivateI15CompletionEntryED1Ev$w$NbJFeaVF8U6sY9wc4
0001:0002291c* __ZN17QValueListPrivateI7QStringED1Ev$w$NbJFeaVF8U6sY9wc4
0001:00022a40  __ZNK11QMapPrivateI5QChar11QStringListE4findERKS0_$w$NbJFeaVF8U6sY9wc4
0001:00022c1c  __ZN17QValueListPrivateI7QStringE6removeE18QValueListIteratorIS0_E$w$NbJFeaVF8U6sY9wc4
0001:00022ba0* __ZN10QValueListI7QStringE14detachInternalEv$w$NbJFeaVF8U6sY9wc4
0001:00022b44* __ZN17QValueListPrivateI7QStringE6insertE18QValueListIteratorIS0_ERKS0_$w$NbJFeaVF8U6sY9wc4
0001:00022af8* __ZN17QValueListPrivateI7QStringEC1Ev$w$NbJFeaVF8U6sY9wc4
0001:000229ac  __ZN4QMapI5QChar11QStringListE6insertERKS0_RKS1_b$w$NbJFeaVF8U6sY9wc4
0001:00022ac8  __ZN4QMapI5QChar11QStringListE14detachInternalEv$w$NbJFeaVF8U6sY9wc4
0001:00022ca4* __ZNK17QValueListPrivateI15CompletionEntryE4findEP14QValueListNodeIS0_ERKS0_$w$NbJFeaVF8U6sY9wc4
0001:00022d8c* __ZN17QValueListPrivateI15CompletionEntryE6insertE18QValueListIteratorIS0_ERKS0_$w$NbJFeaVF8U6sY9wc4
0001:00022d5c* __ZN10QValueListI15CompletionEntryE14detachInternalEv$w$NbJFeaVF8U6sY9wc4
0001:00023660* __ZTV9ParagData$w$NbJFeaVF8U6sY9wc4
0001:00022e24* __ZN17QValueListPrivateI5ParenEC1Ev$w$NbJFeaVF8U6sY9wc4
0001:00023630  __ZTV14CompletionItem$w$NbJFeaVF8U6sY9wc4
0001:00022e68  __Z7qt_castIP6EditorET_PK7QObject$w$NbJFeaVF8U6sY9wc4
0001:00022e84* __ZN17QValueListPrivateI11QStringListED1Ev$w$NbJFeaVF8U6sY9wc4
0001:00022f18* __ZN10QValueListI11QStringListE14detachInternalEv$w$NbJFeaVF8U6sY9wc4
0001:00022f48* __ZN17QValueListPrivateI11QStringListEC1Ev$w$NbJFeaVF8U6sY9wc4
0001:00022f98  __ZN11QMapPrivateI5QChar11QStringListE5clearEP8QMapNodeIS0_S1_E$w$NbJFeaVF8U6sY9wc4
0001:00023004  __ZN11QMapPrivateI5QChar11QStringListE12insertSingleERKS0_$w$NbJFeaVF8U6sY9wc4
0001:000230d8  __ZN11QMapPrivateI5QChar11QStringListEC1EPKS2_$w$NbJFeaVF8U6sY9wc4
0001:00023194* __ZN17QValueListPrivateI7QStringEC1ERKS1_$w$NbJFeaVF8U6sY9wc4
0001:00023228* __ZN17QValueListPrivateI15CompletionEntryEC1ERKS1_$w$NbJFeaVF8U6sY9wc4
0001:00023324* __ZN17QValueListPrivateI11QStringListEC1ERKS1_$w$NbJFeaVF8U6sY9wc4
0001:000233c4  __ZN11QMapPrivateI5QChar11QStringListE6insertEP12QMapNodeBaseS4_RKS0_$w$NbJFeaVF8U6sY9wc4
0001:00023498  __ZN12QMapIteratorI5QChar11QStringListE3decEv$w$NbJFeaVF8U6sY9wc4
0001:000234f0  __ZN11QMapPrivateI5QChar11QStringListE4copyEP8QMapNodeIS0_S1_E$w$NbJFeaVF8U6sY9wc4
0001:000235c4* __ZN17QValueListPrivateI11QStringListE6insertE18QValueListIteratorIS0_ERKS0_$w$NbJFeaVF8U6sY9wc4
0001:00023820  __ZN14CompletionItemD1Ev$w$NbJFeaVF8U6sY9wc4
0001:000238ec  __ZN14CompletionItemD0Ev$w$NbJFeaVF8U6sY9wc4
0001:00023adc  __ZNK14CompletionItem4textEv$w$NbJFeaVF8U6sY9wc4
0001:00023a5c  __ZNK14CompletionItem6heightEPK8QListBox$w$NbJFeaVF8U6sY9wc4
0001:00023aa0  __ZNK14CompletionItem5widthEPK8QListBox$w$NbJFeaVF8U6sY9wc4
0001:000239c0  __ZN14CompletionItem5paintEP8QPainter$w$NbJFeaVF8U6sY9wc4
0001:0002380c  __ZN12QListBoxItem7setTextERK7QString$w$NbJFeaVF8U6sY9wc4
0001:00023758* __ZN9ParagDataD1Ev$w$NbJFeaVF8U6sY9wc4
0001:000237a0* __ZN9ParagDataD0Ev$w$NbJFeaVF8U6sY9wc4
0001:000237ec* __ZN9ParagData4joinEP18QTextParagraphData$w$NbJFeaVF8U6sY9wc4
0001:00023678* __ZTV19QTextCommandHistory$w$NbJFeaVF8U6sY9wc4
0001:000236c8* __ZN19QTextCommandHistoryD1Ev$w$NbJFeaVF8U6sY9wc4
0001:0002370c* __ZN19QTextCommandHistoryD0Ev$w$NbJFeaVF8U6sY9wc4
0001:00023690* __ZTV6QGList$w$NbJFeaVF8U6sY9wc4
0001:000236bc* __ZNK6QGList5countEv$w$NbJFeaVF8U6sY9wc4
0001:00023b90* __ZTV8QPtrListI12QTextCommandE$w$NbJFeaVF8U6sY9wc4
0001:00023b3c* __ZN17QValueListPrivateI5ParenED1Ev$w$NbJFeaVF8U6sY9wc4
0001:00023bf0* __ZNK8QPtrListI12QTextCommandE5countEv$w$NbJFeaVF8U6sY9wc4
0001:00023be4* __ZN8QPtrListI12QTextCommandE5clearEv$w$NbJFeaVF8U6sY9wc4
0001:00023bbc* __ZN8QPtrListI12QTextCommandED1Ev$w$NbJFeaVF8U6sY9wc4
0001:00023bfc* __ZN8QPtrListI12QTextCommandED0Ev$w$NbJFeaVF8U6sY9wc4
0001:00023c2c* __ZN8QPtrListI12QTextCommandE10deleteItemEPv$w$NbJFeaVF8U6sY9wc4
Module: C:\200\trunk\lib\editor.lib(viewmanager.obj)
0001:00023db8* __ZN11ViewManagerC2EP7QWidgetPKc
0001:00023fd8  __ZN11ViewManagerC1EP7QWidgetPKc
0001:000242b8* __ZN11ViewManager7addViewEP7QWidget
0001:0002442c  __ZNK11ViewManager11currentViewEv
0001:00024438  __ZN11ViewManager10childEventEP11QChildEvent
0001:00024480  __ZN11ViewManager8setErrorEi
0001:00024578* __ZN11ViewManager7setStepEi
0001:00024690* __ZN11ViewManager9clearStepEv
0001:000246e0* __ZN11ViewManager13setStackFrameEi
0001:000247e8* __ZN11ViewManager15clearStackFrameEv
0001:0002483c  __ZN11ViewManager11resizeEventEP12QResizeEvent
0001:00024868  __ZN11ViewManager16clearErrorMarkerEv
0001:000248ac* __ZN11ViewManager14setBreakPointsERK10QValueListIjE
0001:000249a8* __ZNK11ViewManager11breakPointsEv
0001:00024a50  __ZN11ViewManager16showMarkerWidgetEb
0001:00024a88* __ZN11ViewManager18emitMarkersChangedEv
0001:00024aa4  __ZN11ViewManager21cursorPositionChangedEii
0001:00024b6c  __ZN11ViewManager11showMessageERK7QString
0001:00024bbc  __ZN11ViewManager14clearStatusBarEv
0001:00024c9c* __Z7qt_castIP6EditorET_PK7QObject$w$9lKqghVF8U66LVLb0
0001:00024e68* __ZTV9ParagData$w$9lKqghVF8U66LVLb0
0001:00024cb8* __ZN17QValueListPrivateI5ParenEC1Ev$w$9lKqghVF8U66LVLb0
0001:00024cfc  __ZNK17QValueListPrivateIjE4findEP14QValueListNodeIjERKj$w$9lKqghVF8U66LVLb0
0001:00024d38  __ZN17QValueListPrivateIjEC1Ev$w$9lKqghVF8U66LVLb0
0001:00024d68  __ZN17QValueListPrivateIjE6insertE18QValueListIteratorIjERKj$w$9lKqghVF8U66LVLb0
0001:00024db8  __ZN10QValueListIjE14detachInternalEv$w$9lKqghVF8U66LVLb0
0001:00024de8  __ZN17QValueListPrivateIjEC1ERKS0_$w$9lKqghVF8U66LVLb0
0001:00024f58* __ZN9ParagDataD1Ev$w$9lKqghVF8U66LVLb0
0001:00024fa0* __ZN9ParagDataD0Ev$w$9lKqghVF8U66LVLb0
0001:00024fec* __ZN9ParagData4joinEP18QTextParagraphData$w$9lKqghVF8U66LVLb0
0001:00024e80* __ZTV19QTextCommandHistory$w$9lKqghVF8U66LVLb0
0001:00024ec8* __ZN19QTextCommandHistoryD1Ev$w$9lKqghVF8U66LVLb0
0001:00024f0c* __ZN19QTextCommandHistoryD0Ev$w$9lKqghVF8U66LVLb0
0001:00024e90* __ZTV6QGList$w$9lKqghVF8U66LVLb0
0001:00024ebc* __ZNK6QGList5countEv$w$9lKqghVF8U66LVLb0
0001:00025050* __ZTV8QPtrListI12QTextCommandE$w$9lKqghVF8U66LVLb0
0001:0002500c* __ZN17QValueListPrivateI5ParenED1Ev$w$9lKqghVF8U66LVLb0
0001:000250b0* __ZNK8QPtrListI12QTextCommandE5countEv$w$9lKqghVF8U66LVLb0
0001:000250a4* __ZN8QPtrListI12QTextCommandE5clearEv$w$9lKqghVF8U66LVLb0
0001:0002507c* __ZN8QPtrListI12QTextCommandED1Ev$w$9lKqghVF8U66LVLb0
0001:000250bc* __ZN8QPtrListI12QTextCommandED0Ev$w$9lKqghVF8U66LVLb0
0001:000250ec* __ZN8QPtrListI12QTextCommandE10deleteItemEPv$w$9lKqghVF8U66LVLb0
Module: C:\200\trunk\lib\editor.lib(preferences.obj)
0001:00025134  __ZN15PreferencesBase4initEv
0001:000251c8  __ZN15PreferencesBase7destroyEv
0001:000251e4  __ZN15PreferencesBase12colorClickedEv
0001:0002526c  __ZN15PreferencesBase6reInitEv
0001:00025504  __ZN15PreferencesBase4saveEv
0001:0002564c  __ZN15PreferencesBase13updatePreviewEv
0001:000256cc  __ZN15PreferencesBase11boldChangedEb
0001:00025708  __ZN15PreferencesBase14elementChangedERK7QString
0001:0002594c  __ZN15PreferencesBase13familyChangedERK7QString
0001:00025aac  __ZN15PreferencesBase13italicChangedEb
0001:00025adc  __ZN15PreferencesBase14setColorPixmapERK6QColor
0001:00025b34  __ZN15PreferencesBase7setPathERK7QString
0001:00025b48  __ZN15PreferencesBase11sizeChangedEi
0001:00025c48  __ZN15PreferencesBase16underlineChangedEb
0001:00025ef4* __ZN15PreferencesBaseC2EP7QWidgetPKcj
0001:00027bf0  __ZN15PreferencesBase14languageChangeEv
0001:00026b60  __ZN15PreferencesBaseC1EP7QWidgetPKcj
0001:000277cc* __ZN15PreferencesBaseD2Ev
0001:000278c8  __ZN15PreferencesBaseD1Ev
0001:000279d0  __ZN15PreferencesBaseD0Ev
0001:00028404* __ZN17QValueListPrivateI7QStringED1Ev$w$zgdYvXVF8U64Yt4Y3
0001:00028494* __ZN4QMapI7QString11ConfigStyleEaSERKS2_$w$zgdYvXVF8U64Yt4Y3
0001:00028520* __ZN11QMapPrivateI7QString11ConfigStyleE5clearEv$w$zgdYvXVF8U64Yt4Y3
0001:0002855c* __ZN4QMapI7QString11ConfigStyleE6removeERKS0_$w$zgdYvXVF8U64Yt4Y3
0001:00028634* __ZN4QMapI7QString11ConfigStyleE6insertERKS0_RKS1_b$w$zgdYvXVF8U64Yt4Y3
0001:000286b8* __ZNK11QMapPrivateI7QString11ConfigStyleE4findERKS0_$w$zgdYvXVF8U64Yt4Y3
0001:0002873c* __ZN4QMapI7QString11ConfigStyleE14detachInternalEv$w$zgdYvXVF8U64Yt4Y3
0001:0002876c  __ZN12QMapIteratorI7QString11ConfigStyleE3incEv$w$zgdYvXVF8U64Yt4Y3
0001:000287b8* __ZN11QMapPrivateI7QString11ConfigStyleEC1Ev$w$zgdYvXVF8U64Yt4Y3
0001:000279c4  __ZThn40_N15PreferencesBaseD1Ev$w$zgdYvXVF8U64Yt4Y3
0001:00027ad4  __ZThn40_N15PreferencesBaseD0Ev$w$zgdYvXVF8U64Yt4Y3
0001:00028828* __ZN11QMapPrivateI7QString11ConfigStyleE5clearEP8QMapNodeIS0_S1_E$w$zgdYvXVF8U64Yt4Y3
0001:00028898* __ZN11QMapPrivateI7QString11ConfigStyleE12insertSingleERKS0_$w$zgdYvXVF8U64Yt4Y3
0001:0002894c* __ZN11QMapPrivateI7QString11ConfigStyleEC1EPKS2_$w$zgdYvXVF8U64Yt4Y3
0001:00028a14* __ZN11QMapPrivateI7QString11ConfigStyleE6insertEP12QMapNodeBaseS4_RKS0_$w$zgdYvXVF8U64Yt4Y3
0001:00028b10* __ZN12QMapIteratorI7QString11ConfigStyleE3decEv$w$zgdYvXVF8U64Yt4Y3
0001:00028b68* __ZN11QMapPrivateI7QString11ConfigStyleE4copyEP8QMapNodeIS0_S1_E$w$zgdYvXVF8U64Yt4Y3
0001:00028c70* __ZTV6QGList$w$zgdYvXVF8U64Yt4Y3
0001:00028c9c* __ZNK6QGList5countEv$w$zgdYvXVF8U64Yt4Y3
Module: C:\200\trunk\lib\editor.lib(browser.obj)
0001:00028cb0  __ZN13EditorBrowserC2EP6Editor
0001:00028d44* __ZN13EditorBrowserC1EP6Editor
0001:00028dd8  __ZN13EditorBrowserD2Ev
0001:00028e34  __ZN13EditorBrowserD1Ev
0001:00028e90  __ZN13EditorBrowserD0Ev
0001:00028ef0  __ZN13EditorBrowser11eventFilterEP7QObjectP6QEvent
0001:00029484  __ZN13EditorBrowser15setCurrentEdiorEP6Editor
0001:0002949c  __ZN13EditorBrowser9addEditorEP6Editor
0001:000294b4  __ZN13EditorBrowser10findCursorERK11QTextCursorRS0_S3_
0001:00029768* __Z7qt_castIP6EditorET_PK7QObject$w$fOP8HAVF8U6eg1kY2
0001:00029810* __ZTV11QTextCursor$w$fOP8HAVF8U6eg1kY2
0001:00029784* __ZN17QValueListPrivateIiED1Ev$w$fOP8HAVF8U6eg1kY2
0001:000297c0* __ZN17QValueListPrivateIP14QTextParagraphED1Ev$w$fOP8HAVF8U6eg1kY2
0001:00029800* __ZTV19QTextCommandHistory$w$fOP8HAVF8U6eg1kY2
0001:000299c4* __ZN19QTextCommandHistoryD1Ev$w$fOP8HAVF8U6eg1kY2
0001:00029a08* __ZN19QTextCommandHistoryD0Ev$w$fOP8HAVF8U6eg1kY2
0001:00029868* __ZN11QTextCursorD1Ev$w$fOP8HAVF8U6eg1kY2
0001:00029914* __ZN11QTextCursorD0Ev$w$fOP8HAVF8U6eg1kY2
0001:00029830* __ZTV6QGList$w$fOP8HAVF8U6eg1kY2
0001:0002985c* __ZNK6QGList5countEv$w$fOP8HAVF8U6eg1kY2
0001:00029a70* __ZTV8QPtrListI12QTextCommandE$w$fOP8HAVF8U6eg1kY2
0001:00029ad0* __ZNK8QPtrListI12QTextCommandE5countEv$w$fOP8HAVF8U6eg1kY2
0001:00029ac4* __ZN8QPtrListI12QTextCommandE5clearEv$w$fOP8HAVF8U6eg1kY2
0001:00029a9c* __ZN8QPtrListI12QTextCommandED1Ev$w$fOP8HAVF8U6eg1kY2
0001:00029adc* __ZN8QPtrListI12QTextCommandED0Ev$w$fOP8HAVF8U6eg1kY2
0001:00029b0c* __ZN8QPtrListI12QTextCommandE10deleteItemEPv$w$fOP8HAVF8U6eg1kY2
Module: C:\200\trunk\lib\editor.lib(moc_completion.obj)
0001:00029b64* __ZNK16EditorCompletion9classNameEv
0001:00029b70* __ZN16EditorCompletion2trEPKcS1_
0001:00029bb0* __ZN16EditorCompletion6trUtf8EPKcS1_
0001:00029bf0  __ZN16EditorCompletion16staticMetaObjectEv
0001:00029c48  __ZN16EditorCompletion7qt_castEPKc
0001:00029ca0  __ZN16EditorCompletion9qt_invokeEiP8QUObject
0001:00029cbc  __ZN16EditorCompletion7qt_emitEiP8QUObject
0001:00029cd8  __ZN16EditorCompletion11qt_propertyEiiP8QVariant
0001:00029cf4* __ZN16EditorCompletion18qt_static_propertyEP7QObjectiiP8QVariant
0002:00000870* __ZN16EditorCompletion7metaObjE
0001:00029d10  __ZTV16EditorCompletion$w$RxBkk6WF8U6YjEEH2
0001:00029e34  __ZNK16EditorCompletion10metaObjectEv$w$RxBkk6WF8U6YjEEH2
0001:00029db0* __ZTV6QGList$w$RxBkk6WF8U6YjEEH2
0001:00029e28* __ZNK6QGList5countEv$w$RxBkk6WF8U6YjEEH2
Module: C:\200\trunk\lib\editor.lib(moc_browser.obj)
0001:00029e80* __ZNK13EditorBrowser9classNameEv
0001:00029e8c* __ZN13EditorBrowser2trEPKcS1_
0001:00029ecc* __ZN13EditorBrowser6trUtf8EPKcS1_
0001:00029f0c  __ZN13EditorBrowser16staticMetaObjectEv
0001:00029f64  __ZN13EditorBrowser7qt_castEPKc
0001:00029fbc  __ZN13EditorBrowser9qt_invokeEiP8QUObject
0001:00029fd8  __ZN13EditorBrowser7qt_emitEiP8QUObject
0001:00029ff4  __ZN13EditorBrowser11qt_propertyEiiP8QVariant
0001:0002a010* __ZN13EditorBrowser18qt_static_propertyEP7QObjectiiP8QVariant
0002:00000890* __ZN13EditorBrowser7metaObjE
0001:0002a030  __ZTV13EditorBrowser$w$Zd9WPiWF8U6UwGIN1
0001:0002a134  __ZNK13EditorBrowser10metaObjectEv$w$Zd9WPiWF8U6UwGIN1
0001:0002a140  __ZN13EditorBrowser8showHelpERK7QString$w$Zd9WPiWF8U6UwGIN1
0001:0002a0b0* __ZTV6QGList$w$Zd9WPiWF8U6UwGIN1
0001:0002a128* __ZNK6QGList5countEv$w$Zd9WPiWF8U6UwGIN1
Module: C:\200\trunk\lib\editor.lib(parenmatcher.obj)
0001:0002a190* __ZN12ParenMatcherC2Ev
0001:0002a1a4  __ZN12ParenMatcherC1Ev
0001:0002a1b8* __ZN12ParenMatcher5matchEP11QTextCursor
0001:0002a2d4* __ZN12ParenMatcher14checkOpenParenEP11QTextCursor
0001:0002a5ec* __ZN12ParenMatcher16checkClosedParenEP11QTextCursor
0001:0002aaf0  __ZTV12ParenMatcher$w$re8nWXUF8U6o6VjJ1
0001:0002a980  __ZNK17QValueListPrivateI5ParenE2atEj$w$re8nWXUF8U6o6VjJ1
0001:0002a8fc* __ZN17QValueListPrivateI5ParenED1Ev$w$re8nWXUF8U6o6VjJ1
0001:0002a9c8* __ZN10QValueListI5ParenE14detachInternalEv$w$re8nWXUF8U6o6VjJ1
0001:0002a9f8* __ZN17QValueListPrivateI5ParenEC1ERKS1_$w$re8nWXUF8U6o6VjJ1
0001:0002aa88* __ZN17QValueListPrivateI5ParenE6insertE18QValueListIteratorIS0_ERKS0_$w$re8nWXUF8U6o6VjJ1
0001:0002ab00* __ZTV19QTextCommandHistory$w$re8nWXUF8U6o6VjJ1
0001:0002ab48* __ZN19QTextCommandHistoryD1Ev$w$re8nWXUF8U6o6VjJ1
0001:0002ab8c* __ZN19QTextCommandHistoryD0Ev$w$re8nWXUF8U6o6VjJ1
0001:0002ab10* __ZTV6QGList$w$re8nWXUF8U6o6VjJ1
0001:0002ab3c* __ZNK6QGList5countEv$w$re8nWXUF8U6o6VjJ1
0001:0002abf0* __ZTV8QPtrListI12QTextCommandE$w$re8nWXUF8U6o6VjJ1
0001:0002ac50* __ZNK8QPtrListI12QTextCommandE5countEv$w$re8nWXUF8U6o6VjJ1
0001:0002ac44* __ZN8QPtrListI12QTextCommandE5clearEv$w$re8nWXUF8U6o6VjJ1
0001:0002ac1c* __ZN8QPtrListI12QTextCommandED1Ev$w$re8nWXUF8U6o6VjJ1
0001:0002ac5c* __ZN8QPtrListI12QTextCommandED0Ev$w$re8nWXUF8U6o6VjJ1
0001:0002ac8c* __ZN8QPtrListI12QTextCommandE10deleteItemEPv$w$re8nWXUF8U6o6VjJ1
Module: C:\200\trunk\lib\editor.lib(arghintwidget.obj)
0001:0002add4* __ZN11ArrowButtonC2EP7QWidgetPKcNS_3DirE
0001:0002aea4* __ZN11ArrowButtonC1EP7QWidgetPKcNS_3DirE
0001:0002af74* __ZN11ArrowButton10drawButtonEP8QPainter
0001:0002b09c* __ZN13ArgHintWidgetC2EP7QWidgetPKc
0001:0002b614* __ZN13ArgHintWidget11updateStateEv
0001:0002b29c  __ZN13ArgHintWidgetC1EP7QWidgetPKc
0001:0002b49c  __ZN13ArgHintWidget15setFunctionTextEiRK7QString
0001:0002b518  __ZN13ArgHintWidget15setNumFunctionsEi
0001:0002b554  __ZN13ArgHintWidget8gotoPrevEv
0001:0002b5b0  __ZN13ArgHintWidget8gotoNextEv
0001:0002b66c  __ZN13ArgHintWidget8relayoutEv
0001:0002b704* __ZNK11ArrowButton9classNameEv
0001:0002b710* __ZN11ArrowButton2trEPKcS1_
0001:0002b750* __ZN11ArrowButton6trUtf8EPKcS1_
0001:0002b790* __ZN11ArrowButton16staticMetaObjectEv
0001:0002b7e8* __ZN11ArrowButton7qt_castEPKc
0001:0002b840* __ZN11ArrowButton9qt_invokeEiP8QUObject
0001:0002b85c* __ZN11ArrowButton7qt_emitEiP8QUObject
0001:0002b878* __ZN11ArrowButton11qt_propertyEiiP8QVariant
0001:0002b894* __ZN11ArrowButton18qt_static_propertyEP7QObjectiiP8QVariant
0002:000008b0* __ZN11ArrowButton7metaObjE
0001:0002beb0  __ZTV11ArrowButton$w$5BdtKGVF8U6nIISU0
0001:0002b89c  __ZN11QMapPrivateIi7QStringEC1Ev$w$5BdtKGVF8U6nIISU0
0001:0002b8f4  __ZN4QMapIi7QStringE6removeERKi$w$5BdtKGVF8U6nIISU0
0001:0002b9c4  __ZN4QMapIi7QStringE6insertERKiRKS0_b$w$5BdtKGVF8U6nIISU0
0001:0002ba30  __ZN4QMapIi7QStringE5clearEv$w$5BdtKGVF8U6nIISU0
0001:0002ba74  __ZN4QMapIi7QStringEixERKi$w$5BdtKGVF8U6nIISU0
0001:0002bb24  __ZNK11QMapPrivateIi7QStringE4findERKi$w$5BdtKGVF8U6nIISU0
0001:0002bb74  __ZN4QMapIi7QStringE14detachInternalEv$w$5BdtKGVF8U6nIISU0
0001:0002bba4  __ZN11QMapPrivateIi7QStringE12insertSingleERKi$w$5BdtKGVF8U6nIISU0
0001:0002c258  __ZN11QMapPrivateIi7QStringE5clearEv$w$5BdtKGVF8U6nIISU0
0001:0002bc40  __ZN11QMapPrivateIi7QStringEC1EPKS1_$w$5BdtKGVF8U6nIISU0
0001:0002bcf0  __ZN11QMapPrivateIi7QStringE6insertEP12QMapNodeBaseS3_RKi$w$5BdtKGVF8U6nIISU0
0001:0002bd98  __ZN12QMapIteratorIi7QStringE3decEv$w$5BdtKGVF8U6nIISU0
0001:0002bdf0  __ZN11QMapPrivateIi7QStringE4copyEP8QMapNodeIiS0_E$w$5BdtKGVF8U6nIISU0
0001:0002c24c  __ZNK11ArrowButton10metaObjectEv$w$5BdtKGVF8U6nIISU0
0001:0002c1b4  __ZN11ArrowButtonD1Ev$w$5BdtKGVF8U6nIISU0
0001:0002c1fc  __ZN11ArrowButtonD0Ev$w$5BdtKGVF8U6nIISU0
0001:0002c154* __ZN7QWidget11setGeometryERK5QRect$w$5BdtKGVF8U6nIISU0
0001:0002c18c* __ZN7QWidget9setWStateEj$w$5BdtKGVF8U6nIISU0
0001:0002c1a0* __ZN7QWidget9setWFlagsEj$w$5BdtKGVF8U6nIISU0
0001:0002c1f4  __ZThn40_N11ArrowButtonD1Ev$w$5BdtKGVF8U6nIISU0
0001:0002c244  __ZThn40_N11ArrowButtonD0Ev$w$5BdtKGVF8U6nIISU0
0001:0002c0d0* __ZTV6QGList$w$5BdtKGVF8U6nIISU0
0001:0002c148* __ZNK6QGList5countEv$w$5BdtKGVF8U6nIISU0
0001:0002c294  __ZN11QMapPrivateIi7QStringE5clearEP8QMapNodeIiS0_E$w$5BdtKGVF8U6nIISU0
Module: C:\200\trunk\lib\editor.lib(moc_arghintwidget.obj)
0001:0002c340* __ZNK13ArgHintWidget9classNameEv
0001:0002c34c* __ZN13ArgHintWidget2trEPKcS1_
0001:0002c38c* __ZN13ArgHintWidget6trUtf8EPKcS1_
0001:0002c474* __ZN13ArgHintWidget16staticMetaObjectEv
0001:0002c4d0* __ZN13ArgHintWidget7qt_castEPKc
0001:0002c528* __ZN13ArgHintWidget9qt_invokeEiP8QUObject
0001:0002c594* __ZN13ArgHintWidget7qt_emitEiP8QUObject
0001:0002c5b0* __ZN13ArgHintWidget11qt_propertyEiiP8QVariant
0001:0002c5cc* __ZN13ArgHintWidget18qt_static_propertyEP7QObjectiiP8QVariant
0002:000008d0* __ZN13ArgHintWidget7metaObjE
0001:0002c5f0  __ZTV13ArgHintWidget$w$bEJ33nWF8U6hmGW64
0001:0002ca48  __ZNK13ArgHintWidget10metaObjectEv$w$bEJ33nWF8U6hmGW64
0001:0002c8f4  __ZN13ArgHintWidgetD1Ev$w$bEJ33nWF8U6hmGW64
0001:0002c99c  __ZN13ArgHintWidgetD0Ev$w$bEJ33nWF8U6hmGW64
0001:0002c894* __ZN7QWidget11setGeometryERK5QRect$w$bEJ33nWF8U6hmGW64
0001:0002c8cc* __ZN7QWidget9setWStateEj$w$bEJ33nWF8U6hmGW64
0001:0002c8e0* __ZN7QWidget9setWFlagsEj$w$bEJ33nWF8U6hmGW64
0001:0002c990  __ZThn40_N13ArgHintWidgetD1Ev$w$bEJ33nWF8U6hmGW64
0001:0002ca3c  __ZThn40_N13ArgHintWidgetD0Ev$w$bEJ33nWF8U6hmGW64
0001:0002c810* __ZTV6QGList$w$bEJ33nWF8U6hmGW64
0001:0002c888* __ZNK6QGList5countEv$w$bEJ33nWF8U6hmGW64
0001:0002ca54* __ZN11QMapPrivateIi7QStringE5clearEv$w$bEJ33nWF8U6hmGW64
0001:0002ca90* __ZN11QMapPrivateIi7QStringE5clearEP8QMapNodeIiS0_E$w$bEJ33nWF8U6hmGW64
Module: C:\200\trunk\lib\editor.lib(moc_viewmanager.obj)
0001:0002cb3c* __ZNK11ViewManager9classNameEv
0001:0002cb48* __ZN11ViewManager2trEPKcS1_
0001:0002cb88* __ZN11ViewManager6trUtf8EPKcS1_
0001:0002cfa4* __ZN11ViewManager16staticMetaObjectEv
0001:0002d000* __ZN11ViewManager7qt_castEPKc
0001:0002d058  __ZN11ViewManager14markersChangedEv
0001:0002d078* __ZN11ViewManager14expandFunctionEP14QTextParagraph
0001:0002d108* __ZN11ViewManager16collapseFunctionEP14QTextParagraph
0001:0002d198* __ZN11ViewManager8collapseEb
0001:0002d1c4* __ZN11ViewManager6expandEb
0001:0002d1f0* __ZN11ViewManager15editBreakPointsEv
0001:0002d214* __ZN11ViewManager20isBreakpointPossibleERbRK7QStringi
0001:0002d2e8* __ZN11ViewManager9qt_invokeEiP8QUObject
0001:0002d370* __ZN11ViewManager7qt_emitEiP8QUObject
0001:0002d440* __ZN11ViewManager11qt_propertyEiiP8QVariant
0001:0002d45c* __ZN11ViewManager18qt_static_propertyEP7QObjectiiP8QVariant
0002:000008f0* __ZN11ViewManager7metaObjE
0001:0002d470  __ZTV11ViewManager$w$xFMLFaWF8U6QlMBk2
0001:0002d800  __ZNK11ViewManager10metaObjectEv$w$xFMLFaWF8U6QlMBk2
0001:0002d754  __ZN11ViewManagerD1Ev$w$xFMLFaWF8U6QlMBk2
0001:0002d7a8  __ZN11ViewManagerD0Ev$w$xFMLFaWF8U6QlMBk2
0001:0002d6f4* __ZN7QWidget11setGeometryERK5QRect$w$xFMLFaWF8U6QlMBk2
0001:0002d72c* __ZN7QWidget9setWStateEj$w$xFMLFaWF8U6QlMBk2
0001:0002d740* __ZN7QWidget9setWFlagsEj$w$xFMLFaWF8U6QlMBk2
0001:0002d7a0  __ZThn40_N11ViewManagerD1Ev$w$xFMLFaWF8U6QlMBk2
0001:0002d7f8  __ZThn40_N11ViewManagerD0Ev$w$xFMLFaWF8U6QlMBk2
0001:0002d670* __ZTV6QGList$w$xFMLFaWF8U6QlMBk2
0001:0002d6e8* __ZNK6QGList5countEv$w$xFMLFaWF8U6QlMBk2
Module: C:\200\trunk\lib\editor.lib(moc_preferences.obj)
0001:0002d860* __ZNK15PreferencesBase9classNameEv
0001:0002d86c  __ZN15PreferencesBase2trEPKcS1_
0001:0002d8ac* __ZN15PreferencesBase6trUtf8EPKcS1_
0001:0002dce4* __ZN15PreferencesBase16staticMetaObjectEv
0001:0002dd40* __ZN15PreferencesBase7qt_castEPKc
0001:0002dd98* __ZN15PreferencesBase9qt_invokeEiP8QUObject
0001:0002df28* __ZN15PreferencesBase7qt_emitEiP8QUObject
0001:0002df44* __ZN15PreferencesBase11qt_propertyEiiP8QVariant
0001:0002df60* __ZN15PreferencesBase18qt_static_propertyEP7QObjectiiP8QVariant
0002:00000910* __ZN15PreferencesBase7metaObjE
0001:0002df70  __ZTV15PreferencesBase$w$x7DL1rWF8U6Km5fq1
0001:0002e294  __ZNK15PreferencesBase10metaObjectEv$w$x7DL1rWF8U6Km5fq1
0001:0002e234* __ZN7QWidget11setGeometryERK5QRect$w$x7DL1rWF8U6Km5fq1
0001:0002e26c* __ZN7QWidget9setWStateEj$w$x7DL1rWF8U6Km5fq1
0001:0002e280* __ZN7QWidget9setWFlagsEj$w$x7DL1rWF8U6Km5fq1
0001:0002e1b0* __ZTV6QGList$w$x7DL1rWF8U6Km5fq1
0001:0002e228* __ZNK6QGList5countEv$w$x7DL1rWF8U6Km5fq1
Module: C:\200\trunk\lib\editor.lib(moc_markerwidget.obj)
0001:0002e2e0* __ZNK12MarkerWidget9classNameEv
0001:0002e2ec  __ZN12MarkerWidget2trEPKcS1_
0001:0002e32c* __ZN12MarkerWidget6trUtf8EPKcS1_
0001:0002e670* __ZN12MarkerWidget16staticMetaObjectEv
0001:0002e6cc* __ZN12MarkerWidget7qt_castEPKc
0001:0002e724  __ZN12MarkerWidget14markersChangedEv
0001:0002e744  __ZN12MarkerWidget14expandFunctionEP14QTextParagraph
0001:0002e7d4  __ZN12MarkerWidget16collapseFunctionEP14QTextParagraph
0001:0002e864  __ZN12MarkerWidget8collapseEb
0001:0002e890  __ZN12MarkerWidget6expandEb
0001:0002e8bc* __ZN12MarkerWidget15editBreakPointsEv
0001:0002e8e0  __ZN12MarkerWidget20isBreakpointPossibleERbRK7QStringi
0001:0002e9b4  __ZN12MarkerWidget11showMessageERK7QString
0001:0002ea0c* __ZN12MarkerWidget9qt_invokeEiP8QUObject
0001:0002ea50* __ZN12MarkerWidget7qt_emitEiP8QUObject
0001:0002eb30* __ZN12MarkerWidget11qt_propertyEiiP8QVariant
0001:0002eb4c* __ZN12MarkerWidget18qt_static_propertyEP7QObjectiiP8QVariant
0002:00000930* __ZN12MarkerWidget7metaObjE
0001:0002eb70  __ZTV12MarkerWidget$w$V1oO4fWF8U66sbJ40
0001:0002eecc  __ZNK12MarkerWidget10metaObjectEv$w$V1oO4fWF8U66sbJ40
0001:0002ee54  __ZN12MarkerWidgetD1Ev$w$V1oO4fWF8U66sbJ40
0001:0002ee8c  __ZN12MarkerWidgetD0Ev$w$V1oO4fWF8U66sbJ40
0001:0002edf4* __ZN7QWidget11setGeometryERK5QRect$w$V1oO4fWF8U66sbJ40
0001:0002ee2c* __ZN7QWidget9setWStateEj$w$V1oO4fWF8U66sbJ40
0001:0002ee40* __ZN7QWidget9setWFlagsEj$w$V1oO4fWF8U66sbJ40
0001:0002ee84  __ZThn40_N12MarkerWidgetD1Ev$w$V1oO4fWF8U66sbJ40
0001:0002eec4  __ZThn40_N12MarkerWidgetD0Ev$w$V1oO4fWF8U66sbJ40
0001:0002ed70* __ZTV6QGList$w$V1oO4fWF8U66sbJ40
0001:0002ede8* __ZNK6QGList5countEv$w$V1oO4fWF8U66sbJ40
Module: C:\usr\lib\gcc-lib\i386-pc-os2-emx\3.3.5\libgcc_so_d.lib(emx-ctordtor.obj)
0001:0002ef10  ___ctordtorInit
0001:0002ef1a* ___POST$__ctordtorInit
0001:0002ef3e  ___ctordtorTerm
0001:0002ef48* ___POST$__ctordtorTerm
Module: C:\200\trunk\lib\editor.lib(yyindent.obj)
0001:0002efd0  __Z10setTabSizei
0001:0002efe0  __Z13setIndentSizei
0001:0002f0ac* __Z14columnForIndexRK7QStringi
0001:0002f128* __Z12indentOfLineRK7QString
0001:00031258  __Z19indentForBottomLineRK11QStringList5QChar
0001:000314dc* __ZN10QValueListI7QStringE14detachInternalEv$w$vMquLOVF8U6CY3xj4
0001:0003150c* __ZN17QValueListPrivateI7QStringED1Ev$w$vMquLOVF8U6CY3xj4
0001:0003159c* __ZN17QValueListPrivateI7QStringEC1ERKS1_$w$vMquLOVF8U6CY3xj4
0001:00031668* __ZN17QValueListPrivateI7QStringE6insertE18QValueListIteratorIS0_ERKS0_$w$vMquLOVF8U6CY3xj4
0001:00031630* __ZTV6QGList$w$vMquLOVF8U6CY3xj4
0001:0003165c* __ZNK6QGList5countEv$w$vMquLOVF8U6CY3xj4
Module: C:\200\trunk\lib\editor.lib(markerwidget.obj)
0001:00032440* __ZN12MarkerWidgetC2EP11ViewManagerPKc
0001:00032514  __ZN12MarkerWidgetC1EP11ViewManagerPKc
0001:00032604  __ZN12MarkerWidget10paintEventEP11QPaintEvent
0001:000331e8  __ZN12MarkerWidget11resizeEventEP12QResizeEvent
0001:0003324c  __ZN12MarkerWidget15mousePressEventEP11QMouseEvent
0001:00033510  __ZN12MarkerWidget16contextMenuEventEP17QContextMenuEvent
0001:000339f8* __ZTV19QTextCommandHistory$w$NflAeoVF8U6E07Mn4
0001:00033a48* __ZN19QTextCommandHistoryD1Ev$w$NflAeoVF8U6E07Mn4
0001:00033a8c* __ZN19QTextCommandHistoryD0Ev$w$NflAeoVF8U6E07Mn4
0001:00033a10* __ZTV6QGList$w$NflAeoVF8U6E07Mn4
0001:00033a3c* __ZNK6QGList5countEv$w$NflAeoVF8U6E07Mn4
0001:00033af0* __ZTV8QPtrListI12QTextCommandE$w$NflAeoVF8U6E07Mn4
0001:00033b50* __ZNK8QPtrListI12QTextCommandE5countEv$w$NflAeoVF8U6E07Mn4
0001:00033b44* __ZN8QPtrListI12QTextCommandE5clearEv$w$NflAeoVF8U6E07Mn4
0001:00033b1c* __ZN8QPtrListI12QTextCommandED1Ev$w$NflAeoVF8U6E07Mn4
0001:00033b5c* __ZN8QPtrListI12QTextCommandED0Ev$w$NflAeoVF8U6E07Mn4
0001:00033b8c* __ZN8QPtrListI12QTextCommandE10deleteItemEPv$w$NflAeoVF8U6E07Mn4


                        +----------------------+
                        |   Imported Symbols   |
                        +----------------------+

Symbol                              Module
======                              ======

___init_dll                         libc064
___libc_Back_termDll                libc064
__Znwj                              libc064
__ZN7QString4nullE                  myqt
__ZnePKcRK7QString                  myqt
__ZN7QStringC1EPKc                  myqt
__ZN7QString11shared_nullE          myqt
__ZN11QStringData10deleteSelfEv     myqt
__ZdlPv                             libc064
__ZNK11QScrollView14hScrollBarModeEv myqt
__ZN26QTextFormatterBreakInWordsC1Ev myqt
__ZN5QFontC1ERKS_                   myqt
__ZN5QFontD1Ev                      myqt
__ZNK11QTextFormat5widthERK5QChar   myqt
__ZN24QTextFormatterBreakWordsC1Ev  myqt
__ZN9QMenuData15insertSeparatorEi   myqt
__ZN12QKeySequenceC1Ei              myqt
__ZN9QMenuData10insertItemERK7QStringPK7QObjectPKcRK12QKeySequenceii myqt
__ZN12QKeySequenceD1Ev              myqt
__ZN9QMenuData14setItemEnabledEib   myqt
__ZN12QInputDialog7getTextERK7QStringS2_N9QLineEdit8EchoModeES2_PbP7QWidgetPKc myqt
__ZN9QTextEdit5pasteEv              myqt
__ZN7QStringC1ERKS_                 myqt
__ZN7QString14makeSharedNullEv      myqt
__ZN6QGList5clearEv                 myqt
__ZN6QGListD1Ev                     myqt
__ZN6QGListD0Ev                     myqt
__ZN14QPtrCollection7newItemEPv     myqt
___cxa_pure_virtual                 libc064
__ZN6QGList12compareItemsEPvS0_     myqt
__ZN6QGList4readER11QDataStreamRPv  myqt
__ZNK6QGList5writeER11QDataStreamPv myqt
__ZN6QGListD2Ev                     myqt
__ZN17QTextPreProcessorC2Ev         myqt
__ZN6QGDictC2EjNS_7KeyTypeEbb       myqt
__ZN12QApplication4fontEPK7QWidget  myqt
__ZN2Qt5blackE                      myqt
__ZN11QTextFormatC1ERK5QFontRK6QColorP21QTextFormatCollection myqt
__ZN2Qt8darkBlueE                   myqt
__ZN2Qt9darkGreenE                  myqt
__ZN2Qt11darkMagentaE               myqt
__ZN2Qt10darkYellowE                myqt
__ZN2Qt7darkRedE                    myqt
__ZN5QFont9setFamilyERK7QString     myqt
__ZN2Qt3redE                        myqt
__ZN6QGDict5clearEv                 myqt
__ZN6QGDictD2Ev                     myqt
__ZeqRK7QStringPKc                  myqt
__ZN11QTextFormat7setFontERK5QFont  myqt
__ZN11QTextFormat8setColorERK6QColor myqt
__ZN14QTextParagraph9setFormatEiiP11QTextFormatbi myqt
__ZN5QChar4nullE                    myqt
__ZN7QStringaSERKS_                 myqt
__ZN7QStringpLE5QChar               myqt
__ZNK7QString4findE5QCharib         myqt
__ZN7QGArray9msg_indexEj            myqt
__ZNK5QChar8isLetterEv              myqt
__ZN6QGDict8look_intElPvi           myqt
__ZN6QGDict10remove_intElPv         myqt
__ZltRK7QStringS1_                  myqt
__ZN15QMapPrivateBase9rebalanceEP12QMapNodeBaseRS1_ myqt
__ZN6QGDict4readER11QDataStreamRPv  myqt
__ZNK6QGDict5writeER11QDataStreamPv myqt
__ZN18QTextParagraphDataD2Ev        myqt
__ZN18QGuardedPtrPrivateC1EP7QObject myqt
__ZN7QString9fromAsciiEPKci         myqt
__ZNK7QString7findRevERKS_ib        myqt
__ZNK7QString3midEjj                myqt
__ZNK7QString18simplifyWhiteSpaceEv myqt
__ZNK7QObject4nameEv                myqt
__ZeqPKcRK7QString                  myqt
__ZN14QGListIteratorC2ERK6QGList    myqt
__ZNK7QString4findERKS_ib           myqt
__ZN14QGListIteratorppEv            myqt
__ZN7QStringaSEPKc                  myqt
__ZN14QGListIteratorD2Ev            myqt
__ZNK11QMetaObject13propertyNamesEb myqt
__ZN7QString6removeEjj              myqt
__ZNK5QChar5upperEv                 myqt
__ZN7QString6insertEj5QChar         myqt
__ZN7QString7prependEPKc            myqt
__ZNK11QMetaObject9slotNamesEb      myqt
__ZNK7QString4leftEj                myqt
__ZNK7QString5asciiEv               myqt
__ZN7QObject5childEPKcS1_b          myqt
__ZeqRK7QStringS1_                  myqt
__ZN11QStringList5splitERK5QCharRK7QStringb myqt
__ZNK5QChar5lowerEv                 myqt
__ZN7QStringpLERKS_                 myqt
__ZNK11QMetaObject12findPropertyEPKcb myqt
__ZNK11QMetaObject8propertyEib      myqt
__ZN18QGuardedPtrPrivate9reconnectEP7QObject myqt
__Z7qstrdupPKc                      myqt
__ZdaPv                             libc064
__ZN11QDataStreamrsERPc             myqt
__ZN11QDataStreamlsEPKc             myqt
__ZN7QObjectC2EPS_PKc               myqt
__ZN6QTimerC1EP7QObjectPKc          myqt
__ZN7QObject7connectEPKS_PKcS1_S3_  myqt
__ZN6QTimer4stopEv                  myqt
__ZN7QObjectD2Ev                    myqt
__ZN7QObject18installEventFilterEPKS_ myqt
__ZN12QApplication16sendPostedEventsEP7QObjecti myqt
__ZN7QObject10disconnectEPKS_PKcS1_S3_ myqt
__ZNK9QTextEdit4textEv              myqt
__ZNK7QString8endsWithERKS_         myqt
__ZN7QStringpLEPKc                  myqt
__ZNK9QTextEdit15isUndoAvailableEv  myqt
__ZNK9QTextEdit15isRedoAvailableEv  myqt
__Z8qWarningPKcz                    myqt
__ZN9QTextEdit6indentEv             myqt
__ZN11QTextString8toStringERK9QMemArrayI15QTextStringCharE myqt
__ZNK9QTextEdit10isModifiedEv       myqt
__ZN7QObject11eventFilterEPS_P6QEvent myqt
__ZNK9QTextEdit10paragraphsEv       myqt
__ZN6QTimer5startEib                myqt
__ZNK7QString7findRevE5QCharib      myqt
__ZNK7QString6latin1Ev              myqt
__ZN7QObject16checkConnectArgsEPKcPKS_S1_ myqt
__ZN5QFileC1ERK7QString             myqt
__ZN5QFile4openEi                   myqt
__ZN5QFileD1Ev                      myqt
__ZN11QTextStreamC1EP9QIODevice     myqt
__ZN11QTextStream4readEv            myqt
__ZN11QTextStreamD1Ev               myqt
__ZN6QGListC2Ev                     myqt
__ZNK11QMetaObject11signalNamesEb   myqt
__ZN6QGListaSERKS_                  myqt
__ZN6QGList6removeEPv               myqt
__ZNK7QObject9classNameEv           myqt
__ZN7QObject7qt_castEPKc            myqt
__ZN7QObject9qt_invokeEiP8QUObject  myqt
__ZN7QObject7qt_emitEiP8QUObject    myqt
__ZN7QObject11qt_propertyEiiP8QVariant myqt
__ZN7QObject5eventEP6QEvent         myqt
__ZN7QObject7setNameEPKc            myqt
__ZN7QObject11insertChildEPS_       myqt
__ZN7QObject11removeChildEPS_       myqt
__ZN7QObject11setPropertyEPKcRK8QVariant myqt
__ZNK7QObject8propertyEPKc          myqt
__ZN7QObject10timerEventEP11QTimerEvent myqt
__ZN7QObject10childEventEP11QChildEvent myqt
__ZN7QObject11customEventEP12QCustomEvent myqt
__ZN7QObject13connectNotifyEPKc     myqt
__ZN7QObject16disconnectNotifyEPKc  myqt
__ZN7QObject16staticMetaObjectEv    myqt
__Znaj                              libc064
___libc_GLocaleCtype                libc064
__ZN7QRegExpC1ERK7QStringbb         myqt
__ZNK7QRegExp10exactMatchERK7QString myqt
__ZN7QRegExpD1Ev                    myqt
__ZN7QString6insertEjRKS_           myqt
__ZNK7QString15stripWhiteSpaceEv    myqt
__ZN7QString8truncateEj             myqt
__ZN12QConstStringC1EPK5QCharj      myqt
__ZNK7QString8containsE5QCharb      myqt
__ZN12QConstStringD1Ev              myqt
__ZNK7QString5lowerEv               myqt
__ZN8QProcessC1ERK11QStringListP7QObjectPKc myqt
__ZN8QProcess5startEP11QStringList  myqt
__ZN8QProcessD1Ev                   myqt
__ZNK7QWidget14topLevelWidgetEv     myqt
__ZNK7QString3argERKS_i             myqt
__ZNK11QMainWindow9statusBarEv      myqt
__ZN10QStatusBar7messageERK7QStringi myqt
__ZN11QMainWindow16staticMetaObjectEv myqt
__Z14qt_inheritedByP11QMetaObjectPK7QObject myqt
__ZN7QDialog4execEv                 myqt
__ZNK9QLineEdit4textEv              myqt
__ZNK8QListBox11currentItemEv       myqt
__ZNK8QListBox4textEi               myqt
__ZneRK7QStringS1_                  myqt
__ZNK9QComboBox11currentTextEv      myqt
__ZN7QWidgetC2EPS_PKcj              myqt
__ZN11QGridLayoutC1EP7QWidgetiiiiPKc myqt
__ZN6QLabelC1EP7QWidgetPKcj         myqt
__ZN11QGridLayout9addWidgetEP7QWidgetiii myqt
__ZTV11QSpacerItem                  myqt
__ZN11QGridLayout7addItemEP11QLayoutItemii myqt
__ZN9QLineEditC1EP7QWidgetPKc       myqt
__ZN9QComboBoxC1EbP7QWidgetPKc      myqt
__ZNK7QWidget15minimumSizeHintEv    myqt
__ZN7QWidget11setTabOrderEPS_S0_    myqt
__ZN7QWidget7setNameEPKc            myqt
__ZN7QWidgetD2Ev                    myqt
__ZN9QComboBox5clearEv              myqt
__ZN9QComboBox10insertItemERK7QStringi myqt
__ZN15QMapPrivateBase18removeAndRebalanceEP12QMapNodeBaseRS1_S2_S2_ myqt
__ZN8QListBox5clearEv               myqt
__ZN8QListBox16insertStringListERK11QStringListi myqt
__ZN7QDialogC2EP7QWidgetPKcbj       myqt
__ZN8QListBoxC1EP7QWidgetPKcj       myqt
__ZN11QGridLayout18addMultiCellWidgetEP7QWidgetiiiii myqt
__ZN11QHBoxLayoutC1EP7QWidgetiiPKc  myqt
__ZN11QPushButtonC1EP7QWidgetPKc    myqt
__ZN10QBoxLayout9addWidgetEP7QWidgetii myqt
__ZN11QGridLayout18addMultiCellLayoutEP7QLayoutiiiii myqt
__ZNK7QDialog15minimumSizeHintEv    myqt
__ZN7QDialog6resizeERK5QSize        myqt
__ZN7QDialogD2Ev                    myqt
_qApp                               myqt
__ZNK12QApplication9translateEPKcS1_S1_NS_8EncodingE myqt
__ZN7QString10fromLatin1EPKci       myqt
__ZN7QString8fromUtf8EPKci          myqt
__ZN11QMetaObject14new_metaobjectEPKcPS_PK9QMetaDataiS5_iPK13QMetaPropertyiPK9QMetaEnumiPK10QClassInfoi myqt
__ZN18QMetaObjectCleanUp13setMetaObjectERP11QMetaObject myqt
__ZN9QTextEdit5eventEP6QEvent       myqt
__ZN11QScrollView11removeChildEP7QObject myqt
__ZN9QTextEdit10setEnabledEb        myqt
__ZN7QWidget14setMinimumSizeEii     myqt
__ZN7QWidget14setMaximumSizeEii     myqt
__ZN7QWidget16setSizeIncrementEii   myqt
__ZN7QWidget17setBackgroundModeEN2Qt14BackgroundModeE myqt
__ZN7QWidget13setEraseColorERK6QColor myqt
__ZN7QWidget14setErasePixmapERK7QPixmap myqt
__ZN9QTextEdit10setPaletteERK8QPalette myqt
__ZN7QWidget25setPaletteBackgroundColorERK6QColor myqt
__ZN7QWidget26setPaletteBackgroundPixmapERK7QPixmap myqt
__ZN9QTextEdit7setFontERK5QFont     myqt
__ZN7QWidget9setCursorERK7QCursor   myqt
__ZN7QWidget11unsetCursorEv         myqt
__ZN7QWidget7setMaskERK7QBitmap     myqt
__ZN7QWidget7setMaskERK7QRegion     myqt
__ZN7QWidget18setBackgroundColorERK6QColor myqt
__ZN7QWidget19setBackgroundPixmapERK7QPixmap myqt
__ZN7QWidget10setCaptionERK7QString myqt
__ZN7QWidget7setIconERK7QPixmap     myqt
__ZN7QWidget11setIconTextERK7QString myqt
__ZN7QWidget16setMouseTrackingEb    myqt
__ZN7QWidget8setFocusEv             myqt
__ZN7QWidget15setActiveWindowEv     myqt
__ZN7QWidget14setFocusPolicyENS_11FocusPolicyE myqt
__ZN7QWidget13setFocusProxyEPS_     myqt
__ZN7QWidget17setUpdatesEnabledEb   myqt
__ZN11QScrollView4showEv            myqt
__ZN7QWidget4hideEv                 myqt
__ZN7QWidget13showMinimizedEv       myqt
__ZN7QWidget13showMaximizedEv       myqt
__ZN7QWidget10showNormalEv          myqt
__ZN9QTextEdit6polishEv             myqt
__ZN7QWidget4moveEii                myqt
__ZN11QScrollView6resizeEii         myqt
__ZN7QWidget11setGeometryEiiii      myqt
__ZN7QWidget5closeEb                myqt
__ZNK9QTextEdit8sizeHintEv          myqt
__ZNK11QScrollView15minimumSizeHintEv myqt
__ZNK7QWidget10sizePolicyEv         myqt
__ZN7QWidget13setSizePolicyE11QSizePolicy myqt
__ZNK9QTextEdit14heightForWidthEi   myqt
__ZN7QWidget10adjustSizeEv          myqt
__ZN7QWidget8reparentEPS_jRK6QPointb myqt
__ZN7QWidget14setAcceptDropsEb      myqt
__ZN7QWidget11setAutoMaskEb         myqt
__ZN7QWidget19setBackgroundOriginENS_16BackgroundOriginE myqt
__ZNK7QWidget15customWhatsThisEv    myqt
__ZN11QScrollView15mousePressEventEP11QMouseEvent myqt
__ZN11QScrollView17mouseReleaseEventEP11QMouseEvent myqt
__ZN11QScrollView21mouseDoubleClickEventEP11QMouseEvent myqt
__ZN11QScrollView14mouseMoveEventEP11QMouseEvent myqt
__ZN11QScrollView10wheelEventEP11QWheelEvent myqt
__ZN7QWidget15keyReleaseEventEP9QKeyEvent myqt
__ZN7QWidget12focusInEventEP11QFocusEvent myqt
__ZN7QWidget13focusOutEventEP11QFocusEvent myqt
__ZN7QWidget10enterEventEP6QEvent   myqt
__ZN7QWidget10leaveEventEP6QEvent   myqt
__ZN6QFrame10paintEventEP11QPaintEvent myqt
__ZN7QWidget9moveEventEP10QMoveEvent myqt
__ZN9QTextEdit11resizeEventEP12QResizeEvent myqt
__ZN7QWidget10closeEventEP11QCloseEvent myqt
__ZN11QScrollView16contextMenuEventEP17QContextMenuEvent myqt
__ZN9QTextEdit12imStartEventEP8QIMEvent myqt
__ZN9QTextEdit14imComposeEventEP8QIMEvent myqt
__ZN9QTextEdit10imEndEventEP8QIMEvent myqt
__ZN7QWidget11tabletEventEP12QTabletEvent myqt
__ZN7QWidget14dragEnterEventEP15QDragEnterEvent myqt
__ZN7QWidget13dragMoveEventEP14QDragMoveEvent myqt
__ZN7QWidget14dragLeaveEventEP15QDragLeaveEvent myqt
__ZN7QWidget9dropEventEP10QDropEvent myqt
__ZN7QWidget9showEventEP10QShowEvent myqt
__ZN7QWidget9hideEventEP10QHideEvent myqt
__ZN7QWidget7pmEventEP5_QMSG        myqt
__ZN7QWidget10updateMaskEv          myqt
__ZN11QScrollView11styleChangeER6QStyle myqt
__ZN7QWidget13enabledChangeEb       myqt
__ZN7QWidget13paletteChangeERK8QPalette myqt
__ZN11QScrollView10fontChangeERK5QFont myqt
__ZN9QTextEdit22windowActivationChangeEb myqt
__ZNK7QWidget6metricEi              myqt
__ZN7QWidget6createEmbb             myqt
__ZN7QWidget7destroyEbb             myqt
__ZN9QTextEdit18focusNextPrevChildEb myqt
__ZN7QWidget17setKeyCompressionEb   myqt
__ZN7QWidget17setMicroFocusHintEiiiibP5QFont myqt
__ZN6QFrame13setFrameStyleEi        myqt
__ZN6QFrame12setLineWidthEi         myqt
__ZN6QFrame9setMarginEi             myqt
__ZN6QFrame15setMidLineWidthEi      myqt
__ZN6QFrame12setFrameRectERK5QRect  myqt
__ZN6QFrame9drawFrameEP8QPainter    myqt
__ZN9QTextEdit12drawContentsEP8QPainter myqt
__ZN11QScrollView12frameChangedEv   myqt
__ZN11QScrollView15setResizePolicyENS_12ResizePolicyE myqt
__ZN11QScrollView8addChildEP7QWidgetii myqt
__ZN11QScrollView9moveChildEP7QWidgetii myqt
__ZN11QScrollView17setVScrollBarModeENS_13ScrollBarModeE myqt
__ZN11QScrollView17setHScrollBarModeENS_13ScrollBarModeE myqt
__ZN11QScrollView15setCornerWidgetEP7QWidget myqt
__ZN11QScrollView17setDragAutoScrollEb myqt
__ZN11QScrollView14resizeContentsEii myqt
__ZN11QScrollView14setContentsPosEii myqt
__ZN9QTextEdit12drawContentsEP8QPainteriiii myqt
__ZN11QScrollView18drawContentsOffsetEP8QPainteriiiiii myqt
__ZN9QTextEdit23contentsMousePressEventEP11QMouseEvent myqt
__ZN9QTextEdit25contentsMouseReleaseEventEP11QMouseEvent myqt
__ZN9QTextEdit29contentsMouseDoubleClickEventEP11QMouseEvent myqt
__ZN9QTextEdit22contentsMouseMoveEventEP11QMouseEvent myqt
__ZN9QTextEdit22contentsDragEnterEventEP15QDragEnterEvent myqt
__ZN9QTextEdit21contentsDragMoveEventEP14QDragMoveEvent myqt
__ZN9QTextEdit22contentsDragLeaveEventEP15QDragLeaveEvent myqt
__ZN9QTextEdit17contentsDropEventEP10QDropEvent myqt
__ZN9QTextEdit18contentsWheelEventEP11QWheelEvent myqt
__ZN9QTextEdit24contentsContextMenuEventEP17QContextMenuEvent myqt
__ZN11QScrollView18viewportPaintEventEP11QPaintEvent myqt
__ZN9QTextEdit19viewportResizeEventEP12QResizeEvent myqt
__ZN11QScrollView23viewportMousePressEventEP11QMouseEvent myqt
__ZN11QScrollView25viewportMouseReleaseEventEP11QMouseEvent myqt
__ZN11QScrollView29viewportMouseDoubleClickEventEP11QMouseEvent myqt
__ZN11QScrollView22viewportMouseMoveEventEP11QMouseEvent myqt
__ZN11QScrollView22viewportDragEnterEventEP15QDragEnterEvent myqt
__ZN11QScrollView21viewportDragMoveEventEP14QDragMoveEvent myqt
__ZN11QScrollView22viewportDragLeaveEventEP15QDragLeaveEvent myqt
__ZN11QScrollView17viewportDropEventEP10QDropEvent myqt
__ZN11QScrollView18viewportWheelEventEP11QWheelEvent myqt
__ZN11QScrollView24viewportContextMenuEventEP17QContextMenuEvent myqt
__ZN11QScrollView10setMarginsEiiii  myqt
__ZN11QScrollView15setHBarGeometryER10QScrollBariiii myqt
__ZN11QScrollView15setVBarGeometryER10QScrollBariiii myqt
__ZN9QTextEdit4findERK7QStringbbbPiS3_ myqt
__ZN9QTextEdit9getFormatEiiP5QFontP6QColorPNS_17VerticalAlignmentE myqt
__ZN9QTextEdit18getParagraphFormatEiP5QFontP6QColorPNS_17VerticalAlignmentEPiPN15QStyleSheetItem11DisplayModeEPNS7_9ListStyleES6_ myqt
__ZN9QTextEdit20setMimeSourceFactoryEP18QMimeSourceFactory myqt
__ZN9QTextEdit13setStyleSheetEP11QStyleSheet myqt
__ZN9QTextEdit14scrollToAnchorERK7QString myqt
__ZN9QTextEdit8setPaperERK6QBrush   myqt
__ZN9QTextEdit16setLinkUnderlineEb  myqt
__ZN9QTextEdit11setWordWrapENS_8WordWrapE myqt
__ZN9QTextEdit20setWrapColumnOrWidthEi myqt
__ZN9QTextEdit13setWrapPolicyENS_10WrapPolicyE myqt
__ZN9QTextEdit4copyEv               myqt
__ZN9QTextEdit6appendERK7QString    myqt
__ZN9QTextEdit7setTextERK7QStringS2_ myqt
__ZN9QTextEdit13setTextFormatEN2Qt10TextFormatE myqt
__ZN9QTextEdit9selectAllEb          myqt
__ZN9QTextEdit15setTabStopWidthEi   myqt
__ZN9QTextEdit6zoomInEi             myqt
__ZN9QTextEdit7zoomOutEi            myqt
__ZN9QTextEdit6zoomToEi             myqt
__ZN9QTextEdit4syncEv               myqt
__ZN9QTextEdit11setReadOnlyEb       myqt
__ZN9QTextEdit4undoEv               myqt
__ZN9QTextEdit4redoEv               myqt
__ZN9QTextEdit3cutEv                myqt
__ZN9QTextEdit12pasteSubTypeERK8QCString myqt
__ZN9QTextEdit5clearEv              myqt
__ZN9QTextEdit3delEv                myqt
__ZN9QTextEdit9setItalicEb          myqt
__ZN9QTextEdit7setBoldEb            myqt
__ZN9QTextEdit12setUnderlineEb      myqt
__ZN9QTextEdit9setFamilyERK7QString myqt
__ZN9QTextEdit12setPointSizeEi      myqt
__ZN9QTextEdit8setColorERK6QColor   myqt
__ZN9QTextEdit20setVerticalAlignmentENS_17VerticalAlignmentE myqt
__ZN9QTextEdit12setAlignmentEi      myqt
__ZN9QTextEdit12setParagTypeEN15QStyleSheetItem11DisplayModeENS0_9ListStyleE myqt
__ZN9QTextEdit17setCursorPositionEii myqt
__ZN9QTextEdit12setSelectionEiiiii  myqt
__ZN9QTextEdit22setSelectionAttributesEiRK6QColorb myqt
__ZN9QTextEdit11setModifiedEb       myqt
__ZN9QTextEdit11resetFormatEv       myqt
__ZN9QTextEdit12setUndoDepthEi      myqt
__ZN9QTextEdit9setFormatEP11QTextFormati myqt
__ZN9QTextEdit19ensureCursorVisibleEv myqt
__ZN9QTextEdit10moveCursorENS_12CursorActionEb myqt
__ZN9QTextEdit18removeSelectedTextEi myqt
__ZN9QTextEdit15removeSelectionEi   myqt
__ZN9QTextEdit14scrollToBottomEv    myqt
__ZN9QTextEdit6insertERK7QStringbbb myqt
__ZN9QTextEdit8insertAtERK7QStringii myqt
__ZN9QTextEdit15removeParagraphEi   myqt
__ZN9QTextEdit15insertParagraphERK7QStringi myqt
__ZN9QTextEdit27setParagraphBackgroundColorEiRK6QColor myqt
__ZN9QTextEdit24clearParagraphBackgroundEi myqt
__ZN9QTextEdit18setUndoRedoEnabledEb myqt
__ZN9QTextEdit15createPopupMenuEv   myqt
__ZN12QPaintDevice13setResolutionEi myqt
__ZNK12QPaintDevice10resolutionEv   myqt
__ZNK12QPaintDevice6handleEv        myqt
__ZN12QPaintDevice3cmdEiP8QPainterP13QPDevCmdParam myqt
__ZThn40_NK7QWidget6metricEi        myqt
__ZNK12QPaintDevice7fontMetEP5QFontiPKci myqt
__ZNK12QPaintDevice7fontInfEP5QFonti myqt
__ZN18QMetaObjectCleanUpD1Ev        myqt
__ZN18QMetaObjectCleanUpC1EPKcPFP11QMetaObjectvE myqt
__ZN9QTextEdit15setFontInternalERK5QFont myqt
__ZN9QTextEdit11placeCursorERK6QPointP11QTextCursor myqt
_static_QUType_bool                 myqt
_static_QUType_iface                myqt
_static_QUType_QString              myqt
__ZN7QWidget16staticMetaObjectEv    myqt
__ZN7QWidget7qt_castEPKc            myqt
__ZN7QWidget9qt_invokeEiP8QUObject  myqt
__ZN7QWidget7qt_emitEiP8QUObject    myqt
__ZN7QWidget11qt_propertyEiiP8QVariant myqt
__ZN7QWidget5eventEP6QEvent         myqt
__ZN7QWidget10setEnabledEb          myqt
__ZN7QWidget10setPaletteERK8QPalette myqt
__ZN7QWidget7setFontERK5QFont       myqt
__ZN7QWidget4showEv                 myqt
__ZN7QWidget6polishEv               myqt
__ZN7QWidget6resizeEii              myqt
__ZNK7QWidget8sizeHintEv            myqt
__ZNK7QWidget14heightForWidthEi     myqt
__ZN7QWidget15mousePressEventEP11QMouseEvent myqt
__ZN7QWidget17mouseReleaseEventEP11QMouseEvent myqt
__ZN7QWidget21mouseDoubleClickEventEP11QMouseEvent myqt
__ZN7QWidget14mouseMoveEventEP11QMouseEvent myqt
__ZN7QWidget10wheelEventEP11QWheelEvent myqt
__ZN7QWidget13keyPressEventEP9QKeyEvent myqt
__ZN7QWidget10paintEventEP11QPaintEvent myqt
__ZN7QWidget11resizeEventEP12QResizeEvent myqt
__ZN7QWidget16contextMenuEventEP17QContextMenuEvent myqt
__ZN7QWidget12imStartEventEP8QIMEvent myqt
__ZN7QWidget14imComposeEventEP8QIMEvent myqt
__ZN7QWidget10imEndEventEP8QIMEvent myqt
__ZN7QWidget11styleChangeER6QStyle  myqt
__ZN7QWidget10fontChangeERK5QFont   myqt
__ZN7QWidget22windowActivationChangeEb myqt
__ZN7QWidget18focusNextPrevChildEb  myqt
__ZN7QDialog16staticMetaObjectEv    myqt
__ZN7QDialog7qt_castEPKc            myqt
__ZN7QDialog9qt_invokeEiP8QUObject  myqt
__ZN7QDialog7qt_emitEiP8QUObject    myqt
__ZN7QDialog11qt_propertyEiiP8QVariant myqt
__ZN7QDialog11eventFilterEP7QObjectP6QEvent myqt
__ZN7QDialog4showEv                 myqt
__ZN7QDialog4hideEv                 myqt
__ZN7QDialog4moveEii                myqt
__ZN7QDialog6resizeEii              myqt
__ZN7QDialog11setGeometryEiiii      myqt
__ZN7QDialog11setGeometryERK5QRect  myqt
__ZNK7QDialog8sizeHintEv            myqt
__ZN7QDialog13keyPressEventEP9QKeyEvent myqt
__ZN7QDialog11resizeEventEP12QResizeEvent myqt
__ZN7QDialog10closeEventEP11QCloseEvent myqt
__ZN7QDialog16contextMenuEventEP17QContextMenuEvent myqt
__ZN7QDialog4doneEi                 myqt
__ZN7QDialog6acceptEv               myqt
__ZN7QDialog6rejectEv               myqt
__CRT_term                          libc064
__CRT_init                          libc064
__ZN9QTextEditC2EP7QWidgetPKc       myqt
__ZN13QTextDocument12addSelectionEi myqt
__ZN6QColoraSERKS_                  myqt
__ZN2Qt6yellowE                     myqt
__ZN6QColor6setRgbEiii              myqt
__ZN2Qt7magentaE                    myqt
__ZN6QAccelC1EP7QWidgetPKc          myqt
__ZN6QAccel10insertItemERK12QKeySequencei myqt
__ZN6QAccel11connectItemEiPK7QObjectPKc myqt
__ZN9QTextEditD2Ev                  myqt
__ZN9QTextEdit14repaintChangedEv    myqt
__ZN7QGArrayC2Ev                    myqt
__ZTV8QCString                      myqt
__ZNK5QFile4sizeEv                  myqt
__ZN8QCString6resizeEj              myqt
__ZN5QFile9readBlockEPcm            myqt
__ZN8QCStringD1Ev                   myqt
__ZN13QTextDocument10invalidateEv   myqt
__ZNK11QScrollView8viewportEv       myqt
__ZN7QWidget7repaintEb              myqt
__ZNK13QTextDocument7paragAtEi      myqt
__ZN11QTextCursorC1EP13QTextDocument myqt
__ZN11QTextCursor12gotoPositionEP14QTextParagraphi myqt
__ZN13QTextDocument15removeSelectionEi myqt
__ZN13QTextDocument17setSelectionStartEiRK11QTextCursor myqt
__ZN11QTextCursor11gotoLineEndEv    myqt
__ZN13QTextDocument15setSelectionEndEiRK11QTextCursor myqt
__ZN9QTextEdit16doChangeIntervalEv  myqt
__ZN13QTextDocument20selectionStartCursorEi myqt
__ZN13QTextDocument18selectionEndCursorEi myqt
__ZN14QTextParagraph6insertEiRK7QString myqt
__ZN14QTextParagraph6removeEii      myqt
__ZN9QTextEdit15createPopupMenuERK6QPoint myqt
__ZN9QTextEdit11eventFilterEP7QObjectP6QEvent myqt
__ZN6QAccel10setEnabledEb           myqt
__ZN9QTextEdit16doKeyboardActionENS_14KeyboardActionE myqt
__ZN9QTextEdit13keyPressEventEP9QKeyEvent myqt
__ZN5QFontC1Ev                      myqt
__ZN11QTextIndentC2Ev               myqt
__ZN7QString4fillE5QChari           myqt
__ZNK5QFont9pointSizeEv             myqt
__ZNK5QFont6familyEv                myqt
__ZNK5QFont6weightEv                myqt
__ZN5QFontC1ERK7QStringiib          myqt
__ZN5QFontaSERKS_                   myqt
__ZN2Qt4blueE                       myqt
__ZN9QSettingsC1Ev                  myqt
__ZN9QSettings9readEntryERK7QStringS2_Pb myqt
__ZN9QSettings12readNumEntryERK7QStringiPb myqt
__ZN9QSettingsD1Ev                  myqt
__ZN9QSettings13readBoolEntryERK7QStringbPb myqt
__ZN5QFont12setPointSizeEi          myqt
__ZN5QFont9setWeightEi              myqt
__ZN5QFont9setItalicEb              myqt
__ZN5QFont12setUnderlineEb          myqt
__ZN9QSettings10writeEntryERK7QStringS2_ myqt
__ZN9QSettings10writeEntryERK7QStringi myqt
__ZN9QSettings10writeEntryERK7QStringb myqt
__ZNK5QFont6italicEv                myqt
__ZNK5QFont9underlineEv             myqt
_static_QUType_ptr                  myqt
__ZN9QTextEdit16staticMetaObjectEv  myqt
__ZN9QTextEdit7qt_castEPKc          myqt
__ZN7QObject15activate_signalEi     myqt
__ZN9QTextEdit9qt_invokeEiP8QUObject myqt
__ZN9QTextEdit7qt_emitEiP8QUObject  myqt
__ZN9QTextEdit11qt_propertyEiiP8QVariant myqt
__ZN6QColorC1ERKS_                  myqt
__ZN14QTextParagraphC1EP13QTextDocumentPS_S2_b myqt
__ZNK12QListBoxItem7listBoxEv       myqt
__ZN12QFontMetricsC1ERK5QFont       myqt
__ZNK12QFontMetrics5widthERK7QStringi myqt
__ZN14QTextParagraph11setTabStopsEi myqt
__ZN12QFontMetricsD1Ev              myqt
__ZNK12QListBoxItem4textEv          myqt
__ZNK14QTextParagraph16formatCollectionEv myqt
__ZNK7QWidget10colorGroupEv         myqt
__ZN14QTextParagraph6formatEib      myqt
__ZN6QColor10colormodelE            myqt
__ZN5QVBoxC1EP7QWidgetPKcj          myqt
__ZN9QSizeGripC1EP7QWidgetPKc       myqt
__ZNK5QChar8isNumberEv              myqt
__ZN7QStringC1E5QChar               myqt
__ZNK14QTextParagraph16lineHeightOfCharEiPiS0_ myqt
__ZN12QListBoxItemC2EP8QListBox     myqt
__ZNK11QScrollView17verticalScrollBarEv myqt
__ZNK11QScrollView19horizontalScrollBarEv myqt
__ZNK7QWidget11mapToGlobalERK6QPoint myqt
__ZN12QApplication7desktopEv        myqt
__ZNK11QScrollView18contentsToViewportERK6QPoint myqt
__ZN9QTextEdit6insertERK7QStringj   myqt
__ZNK8QListBox5countEv              myqt
__ZNK13QTextDocument12hasSelectionEib myqt
__ZN9QTextEdit10drawCursorEb        myqt
__ZN8QListBox11setSelectedEib       myqt
__ZNK8QListBox8findItemERK7QStringj myqt
__ZNK12QListBoxItem4nextEv          myqt
__ZNK12QFontMetrics6heightEv        myqt
__ZNK7QWidget1xEv                   myqt
__ZN6QTimer10singleShotEiP7QObjectPKc myqt
__ZNK7QWidget1yEv                   myqt
__ZNK12QListBoxItem6pixmapEv        myqt
__ZNK12QListBoxItem4rttiEv          myqt
__ZN12QListBoxItemD2Ev              myqt
__ZN14QTextParagraphD1Ev            myqt
__ZN14QTextParagraph5paintER8QPainterRK11QColorGroupP11QTextCursorbiiii myqt
__std_strcmp                        libc064
__ZN7QWidget13setFixedWidthEi       myqt
__ZN11QVBoxLayoutC1EP7QLayoutiPKc   myqt
__ZN7QWidget14setFixedHeightEi      myqt
__ZNK7QString3argExii               myqt
__ZNK9QTextEdit17getCursorPositionEPiS0_ myqt
__ZN13QFontDatabaseC1Ev             myqt
__ZNK13QFontDatabase8familiesEv     myqt
__ZN9QComboBox16insertStringListERK11QStringListi myqt
__ZNK8QListBox9firstItemEv          myqt
__ZN12QColorDialog8getColorERK6QColorP7QWidgetPKc myqt
__ZNK9QComboBox5countEv             myqt
__ZNK8QSpinBox5valueEv              myqt
__ZN8QPaletteC1ERKS_                myqt
__ZN8QPalette8setColorENS_10ColorGroupEN11QColorGroup9ColorRoleERK6QColor myqt
__ZN8QPaletteD1Ev                   myqt
__ZNK9QComboBox8lineEditEv          myqt
__ZN7QPixmapC1EiiiNS_12OptimizationE myqt
__ZN7QPixmap4fillERK6QColor         myqt
__ZN7QPixmapD1Ev                    myqt
__ZN9QGroupBoxC1EP7QWidgetPKc       myqt
__ZN11QGridLayoutC1EP7QLayoutiiiPKc myqt
__ZN9QCheckBoxC1EP7QWidgetPKc       myqt
__ZN11QToolButtonC1EP7QWidgetPKc    myqt
__ZN9QComboBox11setEditableEb       myqt
__ZN8QSpinBoxC1EP7QWidgetPKc        myqt
__ZN8QSpinBox11setMinValueEi        myqt
__ZN10QBoxLayout9addLayoutEP7QLayouti myqt
__ZN8QListBox10insertItemERK7QStringi myqt
__ZNK9QTextEdit4fontEv              myqt
__ZN2Qt11ibeamCursorE               myqt
__ZN2Qt18pointingHandCursorE        myqt
__ZNK11QScrollView18viewportToContentsERK6QPoint myqt
__ZN11QTextCursoraSERKS_            myqt
__ZN11QTextCursor8gotoLeftEv        myqt
__ZN11QTextCursor9gotoRightEv       myqt
__ZNK11QTextCursor8documentEv       myqt
__ZN7QButtonC2EP7QWidgetPKcj        myqt
__ZN7QPixmapC1Ev                    myqt
__ZN7QWidget12setFixedSizeEii       myqt
__ZN7QPixmapC1EPPKc                 myqt
__ZN7QPixmapaSERKS_                 myqt
__ZN2Qt8darkGrayE                   myqt
__ZN6QBrushC1ERK6QColorN2Qt10BrushStyleE myqt
__ZN8QPainter8fillRectEiiiiRK6QBrush myqt
__ZN6QBrushD1Ev                     myqt
__ZN8QPainter10drawPixmapEiiRK7QPixmapiiii myqt
__ZN2Qt9lightGrayE                  myqt
__ZN6QFrameC2EP7QWidgetPKcj         myqt
__ZN2Qt5whiteE                      myqt
__ZN6QLabel5clearEv                 myqt
__ZN7QButton16staticMetaObjectEv    myqt
__ZN7QButton7qt_castEPKc            myqt
__ZN7QButton9qt_invokeEiP8QUObject  myqt
__ZN7QButton7qt_emitEiP8QUObject    myqt
__ZN7QButton11qt_propertyEiiP8QVariant myqt
__ZN7QButton15mousePressEventEP11QMouseEvent myqt
__ZN7QButton17mouseReleaseEventEP11QMouseEvent myqt
__ZN7QButton14mouseMoveEventEP11QMouseEvent myqt
__ZN7QButton13keyPressEventEP9QKeyEvent myqt
__ZN7QButton15keyReleaseEventEP9QKeyEvent myqt
__ZN7QButton12focusInEventEP11QFocusEvent myqt
__ZN7QButton13focusOutEventEP11QFocusEvent myqt
__ZN7QButton10paintEventEP11QPaintEvent myqt
__ZN7QButton13enabledChangeEb       myqt
__ZN7QButton7setTextERK7QString     myqt
__ZN7QButton9setPixmapERK7QPixmap   myqt
__ZN7QButton8setAccelERK12QKeySequence myqt
__ZN7QButton7setDownEb              myqt
__ZN7QButton13setAutoRepeatEb       myqt
__ZN7QButton13setToggleTypeENS_10ToggleTypeE myqt
__ZN7QButton8setStateENS_11ToggleStateE myqt
__ZNK7QButton9hitButtonERK6QPoint   myqt
__ZN7QButton15drawButtonLabelEP8QPainter myqt
__ZN7QButton8setGroupEP12QButtonGroup myqt
__ZN7QButtonD2Ev                    myqt
__ZN6QFrame16staticMetaObjectEv     myqt
__ZN6QFrame7qt_castEPKc             myqt
__ZN6QFrame9qt_invokeEiP8QUObject   myqt
__ZN6QFrame7qt_emitEiP8QUObject     myqt
__ZN6QFrame11qt_propertyEiiP8QVariant myqt
__ZNK6QFrame8sizeHintEv             myqt
__ZN6QFrame11resizeEventEP12QResizeEvent myqt
__ZN6QFrame11styleChangeER6QStyle   myqt
__ZN6QFrame12drawContentsEP8QPainter myqt
__ZN6QFrame12frameChangedEv         myqt
__ZTV6QFrame                        myqt
_static_QUType_int                  myqt
__ZNK7QObject9receiversEi           myqt
_static_QUType_Null                 myqt
__ZN10QUType_ptr3setEP8QUObjectPKv  myqt
__ZN7QObject15activate_signalEP15QConnectionListP8QUObject myqt
__ZN7QObject20activate_signal_boolEib myqt
__ZN11QUType_bool3setEP8QUObjectb   myqt
__ZN14QUType_QString3setEP8QUObjectRK7QString myqt
__ZN10QUType_int3setEP8QUObjecti    myqt
_static_QUType_varptr               myqt
__ZN7QObject15activate_signalEi7QString myqt
___ctordtorInit1                    libc064
___ctordtorTerm1                    libc064
__ZNK5QChar7isSpaceEv               myqt
__ZNK7QString4findERK7QRegExpi      myqt
__ZNK7QRegExp13matchedLengthEv      myqt
__ZN7QString5subatEj                myqt
__ZN7QRegExp3capEi                  myqt
__ZN7QRegExp3posEi                  myqt
__ZNK7QString8containsEPKcb         myqt
__ZN7QRegExp10setMinimalEb          myqt
__ZNK7QWidget15backgroundColorEv    myqt
__ZN8QPainterC1EPK12QPaintDeviceb   myqt
__ZNK11QScrollView9contentsYEv      myqt
__ZN8QPainter3endEv                 myqt
__Z6bitBltP12QPaintDeviceiiPKS_iiiiN2Qt8RasterOpEb myqt
__ZN8QPainterD1Ev                   myqt
__ZN8QPainter6setPenERK6QColor      myqt
__ZN8QPainter8drawLineEiiii         myqt
__ZN8QPainter8setBrushERK6QColor    myqt
__ZN8QPainter8drawRectEiiii         myqt
__ZN8QPainter4saveEv                myqt
__ZN7QString6numberEii              myqt
__ZN8QPainter8drawTextERK5QRectiRK7QStringiPS0_PP10QTextParag myqt
__ZN8QPainter7restoreEv             myqt
__ZN7QPixmap6resizeEii              myqt
__ZN10QPopupMenuC1EP7QWidgetPKc     myqt
__ZN9QMenuData10insertItemERK7QStringii myqt
__ZN10QPopupMenu4execERK6QPointi    myqt
__ZN10QPopupMenuD1Ev                myqt


                        +--------------------+
                        |   Libraries Used   |
                        +--------------------+

C:\200\trunk\lib\editor.lib
C:\200\trunk\lib\myqt.lib
C:\usr\lib\libc_dll.lib
C:\usr\lib\libc_alias.lib
C:\usr\lib\gcc-lib\i386-pc-os2-emx\3.3.5\libgcc_so_d.lib
C:\usr\lib\libend.lib


                        +-----------------------+
                        |   Linker Statistics   |
                        +-----------------------+

Stack size:  0000 (0.)
Memory size:  00034610 (214544.)
Link time: 00:00.53
