** EXPERIMENTAL (HLL) ** Open Watcom Linker Version 1.6beta1 Limited Availability
Portions Copyright (c) 1985-2002 Sybase, Inc. All Rights Reserved.
Created on:       14/11/02 20:31:45
Executable Image: C:\200\trunk\lib\myqt.dll
creating an OS/2 EMX dynamic link library


                        +------------+
                        |   Groups   |
                        +------------+

Group                           Address              Size
=====                           =======              ====

CGROUP                          0001:00000000        0043af20
DGROUP                          0002:00000000        000063a0



                        +--------------+
                        |   Segments   |
                        +--------------+

Segment                Class          Group          Address         Size
=======                =====          =====          =======         ====

TEXT32                 CODE           CGROUP         0001:00000000   0043af18
________TEXT           CODE           CGROUP         0001:0043af20   00000000
DATA32                 DATA           DGROUP         0002:00000000   00001bc0
SET1__os2dll           DATA           DGROUP         0002:00001bc0   00000004
SET2__os2dll           DATA           DGROUP         0002:00001bc4   00000000
SET3__os2dll           DATA           DGROUP         0002:00001bc4   00000004
SET1___CTOR_LIST__     DATA           DGROUP         0002:00001bc8   00000004
SET2___CTOR_LIST__     DATA           DGROUP         0002:00001bcc   00000278
SET3___CTOR_LIST__     DATA           DGROUP         0002:00001e44   00000004
SET1___DTOR_LIST__     DATA           DGROUP         0002:00001e48   00000004
SET2___DTOR_LIST__     DATA           DGROUP         0002:00001e4c   00000264
SET3___DTOR_LIST__     DATA           DGROUP         0002:000020b0   00000004
SET1___crtinit1__      DATA           DGROUP         0002:000020b4   00000004
SET2___crtinit1__      DATA           DGROUP         0002:000020b8   00000000
SET3___crtinit1__      DATA           DGROUP         0002:000020b8   00000004
SET1___crtexit1__      DATA           DGROUP         0002:000020bc   00000004
SET2___crtexit1__      DATA           DGROUP         0002:000020c0   00000000
SET3___crtexit1__      DATA           DGROUP         0002:000020c0   00000004
SET1___eh_frame__      DATA           DGROUP         0002:000020c4   00000004
SET2___eh_frame__      DATA           DGROUP         0002:000020c8   00000000
SET3___eh_frame__      DATA           DGROUP         0002:000020c8   00000004
SET1___eh_init__       DATA           DGROUP         0002:000020cc   00000004
SET2___eh_init__       DATA           DGROUP         0002:000020d0   00000000
SET3___eh_init__       DATA           DGROUP         0002:000020d0   00000004
SET1___eh_term__       DATA           DGROUP         0002:000020d4   00000004
SET2___eh_term__       DATA           DGROUP         0002:000020d8   00000000
SET3___eh_term__       DATA           DGROUP         0002:000020d8   00000004
________DATA           DATA           DGROUP         0002:000020e0   00000000
SET1___fork_child1__   DATA           DGROUP         0002:000020e0   00000000
SET2___fork_child1__   DATA           DGROUP         0002:000020e0   00000004
SET3___fork_child1__   DATA           DGROUP         0002:000020e4   00000000
BSS32                  BSS            DGROUP         0002:000020f0   000042b0
c_common               BSS            DGROUP         0002:000063a0   00000000
________BSS            BSS            DGROUP         0002:000063a0   00000000


                        +----------------+
                        |   Memory Map   |
                        +----------------+

* = unreferenced symbol
+ = symbol only referenced locally

Address        Symbol
=======        ======

Module: C:\usr\lib\dll0nofork.obj({standard input})
0001:00000000* __text
0002:00000000* __data
0002:00000000* ___data_start
0002:000020f0* ___bss_start
0002:00001bc0+ __os2dll
0002:00001bc8  ___CTOR_LIST__
0002:00001e48  ___DTOR_LIST__
0002:000020b4* ___crtinit1__
0002:000020bc* ___crtexit1__
0002:000020c4* ___eh_frame__
0002:000020cc  ___eh_init__
0002:000020d4  ___eh_term__
Module: C:\200\trunk\src\tmp\obj\release_mt_shared\qapplication_pm.obj(qapplication_pm.obj)
0001:00000070  __Z14qt_sysclr2qrgbl
0001:00001160  __Z13qt_display_psv
0001:00000500  __Z22qt_set_pm_event_filterPFiP5_QMSGE
0001:00000514  __Z25qt_set_pm_event_filter_exPFbP5_QMSGRPvE
0001:00000528  __Z16qt_pmEventFilterP5_QMSGRPv
0001:00000cf0  __Z7qt_initPiPPcN12QApplication4TypeE
0001:000010b4  __Z8qAppNamev
0001:00000ef8  __Z10qt_cleanupv
0001:0000106c  __Z12qAppFileNamev
0001:000011a0  __Z9qt_nograbv
0001:000011c0  __Z15qt_reg_winclassi
0001:00001c14  QtWndProc
0001:000013bc  __ZN12QApplication13setMainWidgetEP7QWidget
0001:000013cc  __ZN12QApplication17setOverrideCursorERK7QCursorb
0001:000014d4  __ZN12QApplication21restoreOverrideCursorEv
0001:0000158c  __Z13qt_set_cursorP7QWidgetRK7QCursor
0001:0000161c  __ZN12QApplication22setGlobalMouseTrackingEb
0001:000017a4  __ZN12QApplication8widgetAtEiib
0001:00001860  __ZN12QApplication4beepEv
0001:000019bc  __Z12qt_fill_tileP7QPixmapRKS_
0001:00001a50  __Z20qt_draw_tiled_pixmapmiiiiPK7QPixmapiii
0001:00001b70  __ZN12QApplication13pmEventFilterEP5_QMSG
0001:00001b78  __ZN12QApplication7pmFocusEP7QWidgetb
0001:00005f7c  __ZN9QETWidget20translateConfigEventERK5_QMSG
0001:00006638  __ZN9QETWidget19translateCloseEventERK5_QMSG
0001:00005c74  __ZN9QETWidget19translatePaintEventERK5_QMSG
0001:000052c8  __ZN9QETWidget17translateKeyEventERK5_QMSGb
0001:00003cdc  __ZN9QETWidget19translateMouseEventERK5_QMSG
0001:000055ec  __ZN9QETWidget19translateWheelEventERK5_QMSG
0001:00002a84  QtFrameProc
0001:0000324c  __Z14qt_modal_statev
0001:00003258  __Z14qt_sendBlockedP7QObjectP7QWidgetP6QEventb
0001:00003578  __Z14qt_enter_modalP7QWidget
0001:00003698  __Z14qt_leave_modalP7QWidget
0001:0000380c  __ZN12QApplication9openPopupEP7QWidget
0001:000038fc  __ZN12QApplication10closePopupEP7QWidget
0001:00003cc0  __Z18qt_pmMouseButtonUpv
0001:000059d4  __ZN9QETWidget12sendKeyEventEN6QEvent4TypeEiiibRK7QStringb
0001:00006654  __ZN12QApplication18setCursorFlashTimeEi
0001:00006694  __ZN12QApplication15cursorFlashTimeEv
0001:000066d0  __ZN12QApplication22setDoubleClickIntervalEi
0001:00006704  __ZN12QApplication19doubleClickIntervalEv
0001:00006738  __ZN12QApplication19setWheelScrollLinesEi
0001:00006748  __ZN12QApplication16wheelScrollLinesEv
0001:00006754  __ZN12QApplication16setEffectEnabledEN2Qt8UIEffectEb
0001:000067e8  __ZN12QApplication15isEffectEnabledEN2Qt8UIEffectE
0001:00006874  __ZN12QApplication5flushEv
0001:0000687c  __Z14qt_app_canQuitv
0001:0000691c  __ZN15QSessionManager17allowsInteractionEv
0001:00006948  __ZN15QSessionManager22allowsErrorInteractionEv
0001:00006974  __ZN15QSessionManager7releaseEv
0001:00006994  __ZN15QSessionManager6cancelEv
0002:000002a0  _qt_kbd_compatibility
0002:000020f0  _qt_about_to_destroy_wnd
0002:000020f4  _qt_button_down
0002:000020f8  _QtOldFrameProc
0001:00006a10  __ZTV10QAsciiDictIiE$w$PIHEicXE8U6pFWA21
0001:000069d0  __ZTV8QPtrListI7QCursorE$w$PIHEicXE8U6pFWA21
0001:00006a80  __ZTV12QCustomEvent$w$PIHEicXE8U6pFWA21
0001:00006a90  __ZTV17QContextMenuEvent$w$PIHEicXE8U6pFWA21
0001:00006ac0  __ZTV12QResizeEvent$w$PIHEicXE8U6pFWA21
0001:00006ab0  __ZTV10QShowEvent$w$PIHEicXE8U6pFWA21
0001:00006aa0  __ZTV10QHideEvent$w$PIHEicXE8U6pFWA21
0001:00006a50  __ZTV11QWidgetList$w$PIHEicXE8U6pFWA21
0001:00006b10  __ZTV11QMouseEvent$w$PIHEicXE8U6pFWA21
0001:00006b00  __ZTV11QWheelEvent$w$PIHEicXE8U6pFWA21
0001:00006af0  __ZTV9QKeyEvent$w$PIHEicXE8U6pFWA21
0001:00006ae0  __ZTV11QPaintEvent$w$PIHEicXE8U6pFWA21
0001:00006ad0  __ZTV10QMoveEvent$w$PIHEicXE8U6pFWA21
0001:0000713c  __ZNK8QPtrListI7QCursorE5countEv$w$PIHEicXE8U6pFWA21
0001:00007088  __ZN8QPtrListI7QCursorE5clearEv$w$PIHEicXE8U6pFWA21
0001:00007094  __ZN8QPtrListI7QCursorED1Ev$w$PIHEicXE8U6pFWA21
0001:00006fb8  __ZN8QPtrListI7QCursorED0Ev$w$PIHEicXE8U6pFWA21
0001:00007148  __ZN8QPtrListI7QCursorE10deleteItemEPv$w$PIHEicXE8U6pFWA21
0001:00007180  __ZNK10QAsciiDictIiE5countEv$w$PIHEicXE8U6pFWA21
0001:00007054  __ZN10QAsciiDictIiE5clearEv$w$PIHEicXE8U6pFWA21
0001:00007060  __ZN10QAsciiDictIiED1Ev$w$PIHEicXE8U6pFWA21
0001:00006f88  __ZN10QAsciiDictIiED0Ev$w$PIHEicXE8U6pFWA21
0001:0000718c  __ZN10QAsciiDictIiE10deleteItemEPv$w$PIHEicXE8U6pFWA21
0001:00006fe8  __ZNK8QPtrListI7QWidgetE5countEv$w$PIHEicXE8U6pFWA21
0001:00006f0c  __ZN8QPtrListI7QWidgetE5clearEv$w$PIHEicXE8U6pFWA21
0001:00006f18  __ZN11QWidgetListD1Ev$w$PIHEicXE8U6pFWA21
0001:00006f4c  __ZN11QWidgetListD0Ev$w$PIHEicXE8U6pFWA21
0001:000071ac  __ZN8QPtrListI7QWidgetE10deleteItemEPv$w$PIHEicXE8U6pFWA21
0001:00006ef0  __ZN12QCustomEventD1Ev$w$PIHEicXE8U6pFWA21
0001:00006ec8  __ZN12QCustomEventD0Ev$w$PIHEicXE8U6pFWA21
0001:00006eac  __ZN17QContextMenuEventD1Ev$w$PIHEicXE8U6pFWA21
0001:00006e84  __ZN17QContextMenuEventD0Ev$w$PIHEicXE8U6pFWA21
0001:00006e68  __ZN10QHideEventD1Ev$w$PIHEicXE8U6pFWA21
0001:00006e40  __ZN10QHideEventD0Ev$w$PIHEicXE8U6pFWA21
0001:00006e24  __ZN10QShowEventD1Ev$w$PIHEicXE8U6pFWA21
0001:00006dfc  __ZN10QShowEventD0Ev$w$PIHEicXE8U6pFWA21
0001:00006de0  __ZN12QResizeEventD1Ev$w$PIHEicXE8U6pFWA21
0001:00006db8  __ZN12QResizeEventD0Ev$w$PIHEicXE8U6pFWA21
0001:00006d9c  __ZN10QMoveEventD1Ev$w$PIHEicXE8U6pFWA21
0001:00006d74  __ZN10QMoveEventD0Ev$w$PIHEicXE8U6pFWA21
0001:00006d48  __ZN11QPaintEventD1Ev$w$PIHEicXE8U6pFWA21
0001:00006d18  __ZN11QPaintEventD0Ev$w$PIHEicXE8U6pFWA21
0001:00006cd4  __ZN9QKeyEventD1Ev$w$PIHEicXE8U6pFWA21
0001:00006c8c  __ZN9QKeyEventD0Ev$w$PIHEicXE8U6pFWA21
0001:00006c70  __ZN11QWheelEventD1Ev$w$PIHEicXE8U6pFWA21
0001:00006c48  __ZN11QWheelEventD0Ev$w$PIHEicXE8U6pFWA21
0001:00006c2c  __ZN11QMouseEventD1Ev$w$PIHEicXE8U6pFWA21
0001:00006c04  __ZN11QMouseEventD0Ev$w$PIHEicXE8U6pFWA21
0001:00006b30  __ZTV6QGList$w$PIHEicXE8U6pFWA21
0001:00006bf8  __ZNK6QGList5countEv$w$PIHEicXE8U6pFWA21
0001:000071f0  __ZTV8QPtrListI7QWidgetE$w$PIHEicXE8U6pFWA21
0001:0000721c  __ZN8QPtrListI7QWidgetED1Ev$w$PIHEicXE8U6pFWA21
0001:00007244  __ZN8QPtrListI7QWidgetED0Ev$w$PIHEicXE8U6pFWA21
Module: C:\200\trunk\src\tmp\obj\release_mt_shared\qclipboard_pm.obj(qclipboard_pm.obj)
0001:00007308  __ZNK10QClipboard17supportsSelectionEv
0001:00007310  __ZNK10QClipboard13ownsSelectionEv
0001:00007318  __ZNK10QClipboard13ownsClipboardEv
0001:00007364  __ZN10QClipboard16setSelectionModeEb
0001:0000736c  __ZNK10QClipboard20selectionModeEnabledEv
0001:00007374  __ZN10QClipboard14ownerDestroyedEv
0001:0000741c  __ZN10QClipboard13connectNotifyEPKc
0001:000074c8  __ZN14QClipboardDataC2Ev
0001:000074e0  __ZN14QClipboardDataC1Ev
0001:000074f8  __ZN14QClipboardDataD2Ev
0001:00007534  __ZN14QClipboardDataD1Ev
0001:00007a6c  __ZN10QClipboardD2Ev
0001:00007ab4  __ZN10QClipboardD1Ev
0001:00007afc  __ZN10QClipboardD0Ev
0001:00007b4c  __ZN10QClipboard5eventEP6QEvent
0001:00007c0c  __ZN10QClipboard5clearENS_4ModeE
0001:00007c80  __ZNK10QClipboard4dataENS_4ModeE
0001:00007cdc  __ZN10QClipboard7setDataEP11QMimeSourceNS_4ModeE
0001:00007fc0  __ZTV9QMemArrayIcE$w$N983qhXE8U6l5QQH3
0001:00007f30  __ZTV8QPtrListI7QPMMimeE$w$N983qhXE8U6l5QQH3
0001:00007f60  __ZTV17QClipboardWatcher$w$N983qhXE8U6l5QQH3
0001:00008488  __ZNK8QPtrListI7QPMMimeE5countEv$w$N983qhXE8U6l5QQH3
0001:0000844c  __ZN8QPtrListI7QPMMimeE5clearEv$w$N983qhXE8U6l5QQH3
0001:0000819c  __ZN8QPtrListI7QPMMimeED1Ev$w$N983qhXE8U6l5QQH3
0001:00008458  __ZN8QPtrListI7QPMMimeED0Ev$w$N983qhXE8U6l5QQH3
0001:00008494  __ZN8QPtrListI7QPMMimeE10deleteItemEPv$w$N983qhXE8U6l5QQH3
0001:00008004  __ZN17QClipboardWatcherD1Ev$w$N983qhXE8U6l5QQH3
0001:00008020  __ZN17QClipboardWatcherD0Ev$w$N983qhXE8U6l5QQH3
0001:000080ec  __ZNK17QClipboardWatcher6formatEi$w$N983qhXE8U6l5QQH3
0001:00008048  __ZNK17QClipboardWatcher8providesEPKc$w$N983qhXE8U6l5QQH3
0001:000081dc  __ZNK17QClipboardWatcher11encodedDataEPKc$w$N983qhXE8U6l5QQH3
0001:00007f90* __ZTV6QGList$w$N983qhXE8U6l5QQH3
0001:00007ff8* __ZNK6QGList5countEv$w$N983qhXE8U6l5QQH3
0001:00007fdc  __ZN9QMemArrayIcED1Ev$w$N983qhXE8U6l5QQH3
0001:00008424  __ZN9QMemArrayIcED0Ev$w$N983qhXE8U6l5QQH3
0001:000081c4  __ZN9QMemArrayIcE6detachEv$w$N983qhXE8U6l5QQH3
Module: C:\200\trunk\src\tmp\obj\release_mt_shared\qcolor_pm.obj(qcolor_pm.obj)
0001:000084d0  __ZN6QColor9maxColorsEv
0001:00008570  __ZN6QColor12numBitPlanesEv
0001:000085e0  __ZN6QColor10initializeEv
0001:000089c8  __ZN6QColor5allocEv
0001:000087c8  __ZN6QColor7paletteEPi
0001:000087f0  __ZN6QColor17setPaletteEntriesEPKjii
0001:00008940  __ZN6QColor7cleanupEv
0001:00008b8c  __ZN6QColor19setSystemNamedColorERK7QString
0001:00008c94  __ZN6QColor17enterAllocContextEv
0001:00008d14  __ZN6QColor17leaveAllocContextEv
0001:00008d4c  __ZN6QColor19currentAllocContextEv
0001:00008d58  __ZN6QColor19destroyAllocContextEi
0002:00002700  __ZN6QColor4hpalE
0001:00008dd0* __ZTV6QGList$w$Np22RlXE8U60JRGb1
0001:00008dfc* __ZNK6QGList5countEv$w$Np22RlXE8U60JRGb1
Module: C:\200\trunk\src\tmp\obj\release_mt_shared\qcursor_pm.obj(qcursor_pm.obj)
0001:00008e10  __ZN11QCursorDataC2Ei
0001:00008e4c  __ZN11QCursorDataC1Ei
0001:00008e88  __ZN11QCursorDataD2Ev
0001:00008ef0  __ZN11QCursorDataD1Ev
0001:00008f58  __ZN7QCursor8find_curEi
0001:00008f70  __ZN7QCursor10initializeEv
0001:00008fbc  __ZN7QCursor7cleanupEv
0001:00009010  __ZN7QCursorC2Ev
0001:0000904c  __ZN7QCursorC1Ev
0001:00009088  __ZN7QCursorC2Ei
0001:000090c8  __ZN7QCursorC1Ei
0001:00009158  __ZN7QCursor9setBitmapERK7QBitmapS2_ii
0001:000092d4  __ZN7QCursorC2ERKS_
0001:000092fc  __ZN7QCursorC1ERKS_
0001:00009324  __ZN7QCursorD2Ev
0001:00009358  __ZN7QCursorD1Ev
0001:0000938c  __ZN7QCursoraSERKS_
0001:000093f4  __ZNK7QCursor5shapeEv
0001:00009418  __ZN7QCursor8setShapeEi
0001:00009484  __ZNK7QCursor6bitmapEv
0001:000094a8  __ZNK7QCursor4maskEv
0001:000094cc  __ZNK7QCursor7hotSpotEv
0001:00009500  __ZNK7QCursor6handleEv
0001:00009c3c  __ZNK7QCursor6updateEv
0001:00009540  __ZN7QCursorC2Em
0001:00009570  __ZN7QCursorC1Em
0001:000095a0  __ZN7QCursor3posEv
0001:000095e4  __ZN7QCursor6setPosEii
0002:000004b0  __ZN2Qt11arrowCursorE
0002:000004b4  __ZN2Qt13upArrowCursorE
0002:000004b8  __ZN2Qt11crossCursorE
0002:000004bc  __ZN2Qt10waitCursorE
0002:000004c0  __ZN2Qt11ibeamCursorE
0002:000004c4  __ZN2Qt13sizeVerCursorE
0002:000004c8  __ZN2Qt13sizeHorCursorE
0002:000004cc  __ZN2Qt15sizeBDiagCursorE
0002:000004d0  __ZN2Qt15sizeFDiagCursorE
0002:000004d4  __ZN2Qt13sizeAllCursorE
0002:000004d8  __ZN2Qt11blankCursorE
0002:000004dc  __ZN2Qt12splitVCursorE
0002:000004e0  __ZN2Qt12splitHCursorE
0002:000004e4  __ZN2Qt18pointingHandCursorE
0002:000004e8  __ZN2Qt15forbiddenCursorE
0002:000004ec  __ZN2Qt15whatsThisCursorE
0002:000004f0  __ZN2Qt10busyCursorE
0001:0000a650  __ZTV7QBitmap$w$lDoOZqXE8U6zvxQL3
0001:0000a76c  __ZN7QBitmapD1Ev$w$lDoOZqXE8U6zvxQL3
0001:0000a744  __ZN7QBitmapD0Ev$w$lDoOZqXE8U6zvxQL3
0001:0000a690* __ZTV6QGList$w$lDoOZqXE8U6zvxQL3
0001:0000a738* __ZNK6QGList5countEv$w$lDoOZqXE8U6zvxQL3
Module: C:\200\trunk\src\tmp\obj\release_mt_shared\qdesktopwidget_pm.obj(qdesktopwidget_pm.obj)
0001:0000a848  __ZN14QDesktopWidgetC2Ev
0001:0000a8a0  __ZN14QDesktopWidgetC1Ev
0001:0000a8f8  __ZN14QDesktopWidgetD2Ev
0001:0000a928  __ZN14QDesktopWidgetD1Ev
0001:0000a960  __ZN14QDesktopWidgetD0Ev
0001:0000a9a0  __ZNK14QDesktopWidget16isVirtualDesktopEv
0001:0000a9a8  __ZNK14QDesktopWidget13primaryScreenEv
0001:0000a9b0  __ZNK14QDesktopWidget10numScreensEv
0001:0000a9bc  __ZN14QDesktopWidget6screenEi
0001:0000a9cc  __ZNK14QDesktopWidget17availableGeometryEi
0001:0000aa60  __ZNK14QDesktopWidget14screenGeometryEi
0001:0000aa6c  __ZNK14QDesktopWidget12screenNumberEP7QWidget
0001:0000aa74  __ZNK14QDesktopWidget12screenNumberERK6QPoint
0001:0000aa7c  __ZN14QDesktopWidget11resizeEventEP12QResizeEvent
0001:0000a958  __ZThn40_N14QDesktopWidgetD1Ev$w$NVQZIuXE8U69qL5H2
0001:0000a998  __ZThn40_N14QDesktopWidgetD0Ev$w$NVQZIuXE8U69qL5H2
0001:0000aad0* __ZTV6QGList$w$NVQZIuXE8U69qL5H2
0001:0000aafc* __ZNK6QGList5countEv$w$NVQZIuXE8U69qL5H2
Module: C:\200\trunk\src\tmp\obj\release_mt_shared\qdnd_pm.obj(qdnd_pm.obj)
0001:0000ab10  __ZN12QDragManager11eventFilterEP7QObjectP6QEvent
0001:0000ab18  __ZN12QDragManager10timerEventEP11QTimerEvent
0001:0000ab64  __ZN12QDragManager6cancelEb
0001:0000abec  __ZN12QDragManager4moveERK6QPoint
0001:0000abf4  __ZN12QDragManager4dropEv
0001:0000ac00  __ZN11QPMDragData10initializeEP9_DRAGINFO
0001:0000ac58  __ZN11QPMDragData11initWorkersEv
0001:0000adb4  __ZN11QPMDragData5resetEbb
0001:0000ae3c  __ZN11QPMDragData8providesEPKc
0001:0000aeac  __ZN11QPMDragData6formatEi
0001:0000af24  __ZN11QPMDragData11encodedDataEPKc
0001:0000afd0  __ZNK10QDropEvent8providesEPKc
0001:0000b01c  __ZNK10QDropEvent6formatEi
0001:0000b060  __ZNK10QDropEvent11encodedDataEPKc
0001:0000b1a4  __Z22qt_dispatchDragAndDropP7QWidgetRK5_QMSG
0001:0000bd48  __ZN17QPMCoopDragWorker14collectWorkersEP11QDragObject
0001:0000c098  __ZNK17QPMCoopDragWorker4hwndEv
0001:0000c114  __ZN17QPMCoopDragWorker4initEv
0001:0000c180  __ZN17QPMCoopDragWorker7cleanupEb
0001:0000c22c  __ZN17QPMCoopDragWorker14createDragInfoEPKct
0001:0000c6c8  __ZN17QPMCoopDragWorker7messageEmPvS0_
0001:0000c988  __ZN12QDragManager4dragEP11QDragObjectNS0_8DragModeE
0001:0000ce6c  __ZN12QDragManager12updatePixmapEv
0001:0000d030* __ZTV8QPtrListI7QPMMimeE$w$jEJwNBXE8U6PZ8Lv1
0001:0000d160* __ZTV9QMemArrayIcE$w$jEJwNBXE8U6PZ8Lv1
0001:0000b014  __ZThn12_NK10QDropEvent8providesEPKc$w$jEJwNBXE8U6PZ8Lv1
0001:0000b058  __ZThn12_NK10QDropEvent6formatEi$w$jEJwNBXE8U6PZ8Lv1
0001:0000b0e4  __ZThn12_NK10QDropEvent11encodedDataEPKc$w$jEJwNBXE8U6PZ8Lv1
0001:0000d0a0  __ZTV15QDragLeaveEvent$w$jEJwNBXE8U6PZ8Lv1
0001:0000cff0  __ZTV12QPMDropEvent$w$jEJwNBXE8U6PZ8Lv1
0001:0000cf30  __ZTV10QDropEvent$w$jEJwNBXE8U6PZ8Lv1
0001:0000d0b0  __ZTV14QDragMoveEvent$w$jEJwNBXE8U6PZ8Lv1
0001:0000cfb0  __ZTV17QPMDragEnterEvent$w$jEJwNBXE8U6PZ8Lv1
0001:0000cf70  __ZTV16QPMDragMoveEvent$w$jEJwNBXE8U6PZ8Lv1
0001:0000d070  __ZTV8QPtrListIN7QPMMime10DropWorkerEE$w$jEJwNBXE8U6PZ8Lv1
0001:0000c924  __ZThn8_N17QPMCoopDragWorker7messageEmPvS0_$w$jEJwNBXE8U6PZ8Lv1
0001:0000d0f0  __ZTVN7QPMMime10DragWorkerE$w$jEJwNBXE8U6PZ8Lv1
0001:0000ce90  __ZTV17QPMCoopDragWorker$w$jEJwNBXE8U6PZ8Lv1
0001:0000cef0  __ZTV8QPtrListIN7QPMMime10DragWorkerEE$w$jEJwNBXE8U6PZ8Lv1
0001:0000d630  __ZN17QPMCoopDragWorkerD1Ev$w$jEJwNBXE8U6PZ8Lv1
0001:0000d5d4  __ZN17QPMCoopDragWorkerD0Ev$w$jEJwNBXE8U6PZ8Lv1
0001:0000d6ac  __ZNK17QPMCoopDragWorker11isExclusiveEv$w$jEJwNBXE8U6PZ8Lv1
0001:0000d6b8  __ZNK17QPMCoopDragWorker9itemCountEv$w$jEJwNBXE8U6PZ8Lv1
0001:0000d1d8  __ZN7QPMMime10DragWorker19composeFormatStringEv$w$jEJwNBXE8U6PZ8Lv1
0001:0000d1fc  __ZN7QPMMime10DragWorker7prepareEPKcS2_P9_DRAGITEMm$w$jEJwNBXE8U6PZ8Lv1
0001:0000d204  __ZN7QPMMime10DragWorker15defaultFileTypeERPKcS3_$w$jEJwNBXE8U6PZ8Lv1
0001:0000d67c  __ZThn8_N17QPMCoopDragWorkerD1Ev$w$jEJwNBXE8U6PZ8Lv1
0001:0000d628  __ZThn8_N17QPMCoopDragWorkerD0Ev$w$jEJwNBXE8U6PZ8Lv1
0001:0000d6c0  __ZNK8QPtrListIN7QPMMime10DragWorkerEE5countEv$w$jEJwNBXE8U6PZ8Lv1
0001:0000d6cc  __ZN8QPtrListIN7QPMMime10DragWorkerEE5clearEv$w$jEJwNBXE8U6PZ8Lv1
0001:0000d684  __ZN8QPtrListIN7QPMMime10DragWorkerEED1Ev$w$jEJwNBXE8U6PZ8Lv1
0001:0000d6f0  __ZN8QPtrListIN7QPMMime10DragWorkerEED0Ev$w$jEJwNBXE8U6PZ8Lv1
0001:0000d720  __ZN8QPtrListIN7QPMMime10DragWorkerEE10deleteItemEPv$w$jEJwNBXE8U6PZ8Lv1
0001:0000d24c  __ZN10QDropEventD1Ev$w$jEJwNBXE8U6PZ8Lv1
0001:0000d20c  __ZN10QDropEventD0Ev$w$jEJwNBXE8U6PZ8Lv1
0001:0000d27c  __ZThn12_N10QDropEventD1Ev$w$jEJwNBXE8U6PZ8Lv1
0001:0000d244  __ZThn12_N10QDropEventD0Ev$w$jEJwNBXE8U6PZ8Lv1
0001:0000d4f0  __ZN16QPMDragMoveEventD1Ev$w$jEJwNBXE8U6PZ8Lv1
0001:0000d528  __ZN16QPMDragMoveEventD0Ev$w$jEJwNBXE8U6PZ8Lv1
0001:0000d520  __ZThn12_N16QPMDragMoveEventD1Ev$w$jEJwNBXE8U6PZ8Lv1
0001:0000d560  __ZThn12_N16QPMDragMoveEventD0Ev$w$jEJwNBXE8U6PZ8Lv1
0001:0000d478  __ZN17QPMDragEnterEventD1Ev$w$jEJwNBXE8U6PZ8Lv1
0001:0000d4b0  __ZN17QPMDragEnterEventD0Ev$w$jEJwNBXE8U6PZ8Lv1
0001:0000d4a8  __ZThn12_N17QPMDragEnterEventD1Ev$w$jEJwNBXE8U6PZ8Lv1
0001:0000d4e8  __ZThn12_N17QPMDragEnterEventD0Ev$w$jEJwNBXE8U6PZ8Lv1
0001:0000d440  __ZN12QPMDropEventD1Ev$w$jEJwNBXE8U6PZ8Lv1
0001:0000d400  __ZN12QPMDropEventD0Ev$w$jEJwNBXE8U6PZ8Lv1
0001:0000d470  __ZThn12_N12QPMDropEventD1Ev$w$jEJwNBXE8U6PZ8Lv1
0001:0000d438  __ZThn12_N12QPMDropEventD0Ev$w$jEJwNBXE8U6PZ8Lv1
0001:0000d748* __ZNK8QPtrListI7QPMMimeE5countEv$w$jEJwNBXE8U6PZ8Lv1
0001:0000d39c* __ZN8QPtrListI7QPMMimeE5clearEv$w$jEJwNBXE8U6PZ8Lv1
0001:0000d368* __ZN8QPtrListI7QPMMimeED1Ev$w$jEJwNBXE8U6PZ8Lv1
0001:0000d3a8* __ZN8QPtrListI7QPMMimeED0Ev$w$jEJwNBXE8U6PZ8Lv1
0001:0000d754* __ZN8QPtrListI7QPMMimeE10deleteItemEPv$w$jEJwNBXE8U6PZ8Lv1
0001:0000d77c  __ZNK8QPtrListIN7QPMMime10DropWorkerEE5countEv$w$jEJwNBXE8U6PZ8Lv1
0001:0000d390  __ZN8QPtrListIN7QPMMime10DropWorkerEE5clearEv$w$jEJwNBXE8U6PZ8Lv1
0001:0000d340  __ZN8QPtrListIN7QPMMime10DropWorkerEED1Ev$w$jEJwNBXE8U6PZ8Lv1
0001:0000d5a4  __ZN8QPtrListIN7QPMMime10DropWorkerEED0Ev$w$jEJwNBXE8U6PZ8Lv1
0001:0000d788  __ZN8QPtrListIN7QPMMime10DropWorkerEE10deleteItemEPv$w$jEJwNBXE8U6PZ8Lv1
0001:0000d324  __ZN15QDragLeaveEventD1Ev$w$jEJwNBXE8U6PZ8Lv1
0001:0000d2fc  __ZN15QDragLeaveEventD0Ev$w$jEJwNBXE8U6PZ8Lv1
0001:0000d2c4  __ZN14QDragMoveEventD1Ev$w$jEJwNBXE8U6PZ8Lv1
0001:0000d284  __ZN14QDragMoveEventD0Ev$w$jEJwNBXE8U6PZ8Lv1
0001:0000d2f4  __ZThn12_N14QDragMoveEventD1Ev$w$jEJwNBXE8U6PZ8Lv1
0001:0000d2bc  __ZThn12_N14QDragMoveEventD0Ev$w$jEJwNBXE8U6PZ8Lv1
0001:0000d1a4  __ZN7QPMMime10DragWorkerD1Ev$w$jEJwNBXE8U6PZ8Lv1
0001:0000d1b4  __ZN7QPMMime10DragWorkerD0Ev$w$jEJwNBXE8U6PZ8Lv1
0001:0000d1c8  __ZN7QPMMime10DragWorker4initEv$w$jEJwNBXE8U6PZ8Lv1
0001:0000d1d0  __ZN7QPMMime10DragWorker14createDragInfoEPKct$w$jEJwNBXE8U6PZ8Lv1
0001:0000d130* __ZTV6QGList$w$jEJwNBXE8U6PZ8Lv1
0001:0000d198* __ZNK6QGList5countEv$w$jEJwNBXE8U6PZ8Lv1
0001:0000d17c* __ZN9QMemArrayIcED1Ev$w$jEJwNBXE8U6PZ8Lv1
0001:0000d3d8* __ZN9QMemArrayIcED0Ev$w$jEJwNBXE8U6PZ8Lv1
0001:0000d7b0* __ZN9QMemArrayIcE6detachEv$w$jEJwNBXE8U6PZ8Lv1
Module: C:\200\trunk\src\tmp\obj\release_mt_shared\qeventloop_pm.obj(qeventloop_pm.obj)
0001:0000d85c  __Z12qt_ensure_pmv
0001:0000d8d4  __ZN15QPMObjectWindowC2Eb
0001:0000d988  __ZN15QPMObjectWindow6createEv
0001:0000d8f8  __ZN15QPMObjectWindowC1Eb
0001:0000d918  __ZN15QPMObjectWindowD2Ev
0001:0000da40  __ZN15QPMObjectWindow7destroyEv
0001:0000d934  __ZN15QPMObjectWindowD1Ev
0001:0000d950  __ZN15QPMObjectWindowD0Ev
0001:0000dadc  __ZN15QPMObjectWindow10windowProcEmmPvS0_
0001:0000db58  __ZN19QPMAuxEventQueueWin7messageEmPvS0_
0001:0000fa48  __ZN10QEventLoop23activateSocketNotifiersEv
0001:0000dbc8  __Z16qPMRequestConfigmiiiii
0001:0000dc64  __Z24qPMProcessConfigRequestsv
0001:0000dd40  __ZN12QTimerThreadC2Ev
0001:0000ddac  __ZN12QTimerThreadC1Ev
0001:0000de18  __ZN12QTimerThreadD2Ev
0001:0000de58  __ZN12QTimerThreadD1Ev
0001:0000de98  __ZN12QTimerThreadD0Ev
0001:0000dee0  __ZN12QTimerThread3runEv
0001:0000e108  __ZN12QTimerThread10signalQuitEv
0001:0000e150  __ZN12QTimerThread10ensureShotEi
0001:0000e550  __Z11qStartTimeriP7QObject
0001:0000e7d0  __Z10qKillTimeri
0001:0000e870  __Z10qKillTimerP7QObject
0001:0000e950  __ZN12QSockNotTypeC2Ev
0001:0000e988  __ZN12QSockNotTypeC1Ev
0001:0000e9c0  __ZN12QSockNotTypeD2Ev
0001:0000e9ec  __ZN12QSockNotTypeD1Ev
0001:0000ea18  __ZN17QSockSelectThread3runEv
0001:0000ed30  __ZN17QSockSelectThread18cancelSelectOrIdleEb
0001:0000ee60  __ZN10QEventLoop4initEv
0001:0000ef10  __ZN10QEventLoop7cleanupEv
0001:0000f024  __ZN10QEventLoop13appStartingUpEv
0001:0000f02c  __ZN10QEventLoop14appClosingDownEv
0001:0000f0f0  __ZN10QEventLoop22registerSocketNotifierEP15QSocketNotifier
0001:0000f388  __ZN10QEventLoop24unregisterSocketNotifierEP15QSocketNotifier
0001:0000f590  __ZN10QEventLoop24setSocketNotifierPendingEP15QSocketNotifier
0001:0000f720  __ZNK10QEventLoop16hasPendingEventsEv
0001:0000f760  __ZN10QEventLoop13processEventsEj
0001:0000f9e8  __ZN10QEventLoop6wakeUpEv
0001:0000fa34  __ZNK10QEventLoop10timeToWaitEv
0001:0000fa40  __ZN10QEventLoop14activateTimersEv
0002:00002950  _qt_suppress_morph_warning
0001:000101d8  __ZTV15QPMObjectWindow$w$LS5mIIXE8U6lfwqt2
0001:00010190  __ZTV9QPtrQueueI16QPMConfigRequestE$w$LS5mIIXE8U6lfwqt2
0001:00010178  __ZTV12QTimerThread$w$LS5mIIXE8U6lfwqt2
0001:000101f0  __ZTV11QTimerEvent$w$LS5mIIXE8U6lfwqt2
0001:00010150  __ZTV8QIntDictI9TimerInfoE$w$LS5mIIXE8U6lfwqt2
0001:0000fbd0  __ZN17QValueListPrivateIN14QFreeValueListIiE4SpanEEC1Ev$w$LS5mIIXE8U6lfwqt2
0001:0000fc48  __ZN17QValueListPrivateIN14QFreeValueListIiE4SpanEE6insertE18QValueListIteratorIS2_ERKS2_$w$LS5mIIXE8U6lfwqt2
0001:0000fc9c  __ZN10QValueListIN14QFreeValueListIiE4SpanEE14detachInternalEv$w$LS5mIIXE8U6lfwqt2
0001:0000fc0c  __ZN17QValueListPrivateIN14QFreeValueListIiE4SpanEED1Ev$w$LS5mIIXE8U6lfwqt2
0001:0000fd00  __ZN17QValueListPrivateIN14QFreeValueListIiE4SpanEE6removeE18QValueListIteratorIS2_E$w$LS5mIIXE8U6lfwqt2
0001:0000fd90  __ZN14QFreeValueListIiE4giveEi$w$LS5mIIXE8U6lfwqt2
0001:00010130  __ZTV17QSockSelectThread$w$LS5mIIXE8U6lfwqt2
0001:00010210  __ZTV8QPtrListI8QSockNotE$w$LS5mIIXE8U6lfwqt2
0001:000100a4  __ZN17QValueListPrivateIN14QFreeValueListIiE4SpanEEC1ERKS3_$w$LS5mIIXE8U6lfwqt2
0001:00010548  __ZN17QSockSelectThreadD1Ev$w$LS5mIIXE8U6lfwqt2
0001:00010520  __ZN17QSockSelectThreadD0Ev$w$LS5mIIXE8U6lfwqt2
0001:000104b4  __ZNK8QIntDictI9TimerInfoE5countEv$w$LS5mIIXE8U6lfwqt2
0001:00010670  __ZN8QIntDictI9TimerInfoE5clearEv$w$LS5mIIXE8U6lfwqt2
0001:0001067c  __ZN8QIntDictI9TimerInfoED1Ev$w$LS5mIIXE8U6lfwqt2
0001:000104c0  __ZN8QIntDictI9TimerInfoED0Ev$w$LS5mIIXE8U6lfwqt2
0001:000106a4  __ZN8QIntDictI9TimerInfoE10deleteItemEPv$w$LS5mIIXE8U6lfwqt2
0001:000106c4  __ZNK9QPtrQueueI16QPMConfigRequestE5countEv$w$LS5mIIXE8U6lfwqt2
0001:0001063c  __ZN9QPtrQueueI16QPMConfigRequestE5clearEv$w$LS5mIIXE8U6lfwqt2
0001:00010648  __ZN9QPtrQueueI16QPMConfigRequestED1Ev$w$LS5mIIXE8U6lfwqt2
0001:00010484  __ZN9QPtrQueueI16QPMConfigRequestED0Ev$w$LS5mIIXE8U6lfwqt2
0001:000106d0  __ZN9QPtrQueueI16QPMConfigRequestE10deleteItemEPv$w$LS5mIIXE8U6lfwqt2
0001:000101c0  __ZTV19QPMAuxEventQueueWin$w$LS5mIIXE8U6lfwqt2
0001:0001027c  __ZN19QPMAuxEventQueueWinD1Ev$w$LS5mIIXE8U6lfwqt2
0001:00010298  __ZN19QPMAuxEventQueueWinD0Ev$w$LS5mIIXE8U6lfwqt2
0001:00010468  __ZN11QTimerEventD1Ev$w$LS5mIIXE8U6lfwqt2
0001:00010440  __ZN11QTimerEventD0Ev$w$LS5mIIXE8U6lfwqt2
0001:00010624  __ZNK8QPtrListI8QSockNotE5countEv$w$LS5mIIXE8U6lfwqt2
0001:00010630  __ZN8QPtrListI8QSockNotE5clearEv$w$LS5mIIXE8U6lfwqt2
0001:00010418  __ZN8QPtrListI8QSockNotED1Ev$w$LS5mIIXE8U6lfwqt2
0001:000104f0  __ZN8QPtrListI8QSockNotED0Ev$w$LS5mIIXE8U6lfwqt2
0001:000106f0  __ZN8QPtrListI8QSockNotE10deleteItemEPv$w$LS5mIIXE8U6lfwqt2
0001:00010250* __ZTV6QGList$w$LS5mIIXE8U6lfwqt2
0001:0001040c* __ZNK6QGList5countEv$w$LS5mIIXE8U6lfwqt2
0001:00010710  __ZTV8QPtrListImE$w$LS5mIIXE8U6lfwqt2
0001:000107a0  __ZNK8QPtrListImE5countEv$w$LS5mIIXE8U6lfwqt2
0001:00010764  __ZN8QPtrListImE5clearEv$w$LS5mIIXE8U6lfwqt2
0001:0001073c  __ZN8QPtrListImED1Ev$w$LS5mIIXE8U6lfwqt2
0001:00010770  __ZN8QPtrListImED0Ev$w$LS5mIIXE8U6lfwqt2
0001:000107ac  __ZN8QPtrListImE10deleteItemEPv$w$LS5mIIXE8U6lfwqt2
Module: C:\200\trunk\src\tmp\obj\release_mt_shared\qfont_pm.obj(qfont_pm.obj)
0001:00010850  __Z20qt_pm_default_familyj
0001:000108f4  __ZN5QFont10initializeEv
0001:0001092c  __ZN5QFont7cleanupEv
0001:000109e0  __ZN12QFontPrivate4loadEN5QFont6ScriptE
0001:0001131c  __ZNK5QFont13defaultFamilyEv
0001:00011274  __ZNK5QFont8selectToEm
0001:000112dc  __ZNK5QFont7rawNameEv
0001:000112f8  __ZN5QFont10setRawNameERK7QString
0001:00011304  __ZNK5QFont5dirtyEv
0001:00011340  __ZNK5QFont16lastResortFamilyEv
0001:0001135c  __ZNK5QFont14lastResortFontEv
0001:0001137c  __ZNK12QFontMetrics5widthE5QChar
0001:00011474  __ZNK12QFontMetrics9charWidthERK7QStringi
0002:00000560  __ZN12QFontPrivate13defaultScriptE
0001:000115a4  __ZN17QValueListPrivateI7QStringEC1Ev$w$RN7lqOXE8U6QpSpE2
0001:00011704  __ZN17QValueListPrivateI7QStringE6insertE18QValueListIteratorIS0_ERKS0_$w$RN7lqOXE8U6QpSpE2
0001:000115f0  __ZN17QValueListPrivateI7QStringED1Ev$w$RN7lqOXE8U6QpSpE2
0001:00011680  __ZN10QValueListI7QStringE14detachInternalEv$w$RN7lqOXE8U6QpSpE2
0001:00011510  __ZN10QValueListI7QStringEpLERKS1_$w$RN7lqOXE8U6QpSpE2
0001:000116b0  __ZNK17QValueListPrivateI7QStringE8containsERKS0_$w$RN7lqOXE8U6QpSpE2
0001:00011848  __Z13scriptForChart$w$RN7lqOXE8U6QpSpE2
0001:00011760  __ZN17QValueListPrivateI7QStringEC1ERKS1_$w$RN7lqOXE8U6QpSpE2
0001:00011810* __ZTV6QGList$w$RN7lqOXE8U6QpSpE2
0001:0001183c* __ZNK6QGList5countEv$w$RN7lqOXE8U6QpSpE2
Module: C:\200\trunk\src\tmp\obj\release_mt_shared\qmime_pm.obj(qmime_pm.obj)
0001:000118ec  __Z22qt_DrgFreeDragtransferP13_DRAGTRANSFER
0001:00011b78  __ZN7QPMMime17DefaultDragWorker4Data15cleanupRequestsEv
0001:00011bac  __ZN7QPMMime17DefaultDragWorkerC2Eb
0001:00011c50  __ZN7QPMMime17DefaultDragWorkerC1Eb
0001:00011cf4  __ZN7QPMMime17DefaultDragWorkerD2Ev
0001:00011d8c  __ZN7QPMMime17DefaultDragWorkerD1Ev
0001:00011e30  __ZN7QPMMime17DefaultDragWorkerD0Ev
0001:00011ef0  __ZN7QPMMime17DefaultDragWorker7cleanupEb
0001:00011f80  __ZNK7QPMMime17DefaultDragWorker11isExclusiveEv
0001:00011f94  __ZNK7QPMMime17DefaultDragWorker9itemCountEv
0001:00011ff8  __ZN7QPMMime17DefaultDragWorker19composeFormatStringEv
0001:000121ec  __ZN7QPMMime17DefaultDragWorker7prepareEPKcS2_P9_DRAGITEMm
0001:00013164  __ZN7QPMMime17DefaultDragWorker9canRenderEPKc
0001:00012470  __ZN7QPMMime17DefaultDragWorker15defaultFileTypeERPKcS3_
0001:00012628  __ZN7QPMMime17DefaultDragWorker7messageEmPvS1_
0001:00017b7c  __ZN7QPMMime9queryHSTREm
0001:0001836c  __ZN7QPMMime8parseRMFEmR8QCStringS1_
0001:00012f2c  __ZN7QPMMime17DefaultDragWorker11addProviderEPKcPNS0_8ProviderEm
0001:000131dc  __ZN7QPMMime17DefaultDropWorkerC2Ev
0001:0001325c  __ZN7QPMMime17DefaultDropWorkerC1Ev
0001:000132dc  __ZN7QPMMime17DefaultDropWorkerD2Ev
0001:0001334c  __ZN7QPMMime17DefaultDropWorkerD1Ev
0001:000133c4  __ZN7QPMMime17DefaultDropWorkerD0Ev
0001:0001349c  __ZN7QPMMime17DefaultDropWorker7cleanupEbb
0001:00013504  __ZNK7QPMMime17DefaultDropWorker11isExclusiveEv
0001:00013518  __ZNK7QPMMime17DefaultDropWorker8providesEPKc
0001:000135d0  __ZNK7QPMMime17DefaultDropWorker11formatCountEv
0001:000135e4  __ZNK7QPMMime17DefaultDropWorker6formatEi
0001:000138fc  __ZNK7QPMMime17DefaultDropWorker11encodedDataEPKc
0001:00017bd4  __ZN7QPMMime19querySourceNameFullEP9_DRAGITEM
0001:000142ec  __ZN7QPMMime17DefaultDropWorker7messageEmPvS1_
0001:000143a4  __ZN7QPMMime17DefaultDropWorker11addProviderEPKcPNS0_8ProviderE
0001:0001454c  __ZN7QPMMime17DefaultDropWorker20addExclusiveProviderEPKcPNS0_8ProviderE
0001:00014644  __ZN7QPMMime17DefaultDropWorker9canRenderEP9_DRAGITEMPKc
0001:000146a8  __ZN7QPMMime17DefaultDropWorker16getSupportedRMFsEP9_DRAGITEMR8QPtrListI8QStrListE
0001:00018008  __ZN7QPMMime9parseRMFsEmR8QPtrListI8QStrListE
0001:000147fc  __ZN7QPMMimeC2Ev
0001:00014820  __ZN7QPMMimeC1Ev
0001:00014844  __ZN7QPMMimeD2Ev
0001:00014864  __ZN7QPMMimeD1Ev
0001:00014884  __ZN7QPMMimeD0Ev
0001:000148b0  __ZN14QPMMimeAnyMimeC2Ev
0001:000148fc  __ZN14QPMMimeAnyMimeC1Ev
0001:00014948  __ZN14QPMMimeAnyMimeD2Ev
0001:000149e4  __ZN14QPMMimeAnyMimeD1Ev
0001:00014a80  __ZN14QPMMimeAnyMimeD0Ev
0001:00014b2c  __ZN14QPMMimeAnyMime13convertorNameEv
0001:00014b38  __ZN14QPMMimeAnyMime7countCfEv
0001:00014b48  __ZN14QPMMimeAnyMime2cfEi
0001:00014b6c  __ZN14QPMMimeAnyMime5flForEm
0001:00014b78  __ZN14QPMMimeAnyMime5cfForEPKc
0001:00015210  __ZN14QPMMimeAnyMime16registerMimeTypeEPKc
0001:00014c14  __ZN14QPMMimeAnyMime7mimeForEm
0001:00015358  __ZN14QPMMimeAnyMime14lookupMimeTypeEm
0001:00014c84  __ZN14QPMMimeAnyMime10canConvertEPKcm
0001:00014ccc  __ZN14QPMMimeAnyMime13convertToMimeE9QMemArrayIcEPKcm
0001:00014cf4  __ZN14QPMMimeAnyMime15convertFromMimeE9QMemArrayIcEPKcm
0001:00014d20  __ZNK14QPMMimeAnyMime15AnyDragProvider6formatEPKc
0001:00014dcc  __ZN14QPMMimeAnyMime15AnyDragProvider7provideEPKcRK9QMemArrayIcEmRS4_
0001:00014dec  __ZN14QPMMimeAnyMime15AnyDragProvider8fileTypeEPKcRS2_S3_
0001:00014e58  __ZNK14QPMMimeAnyMime15AnyDropProvider3drfEPKc
0001:00014ee4  __ZN14QPMMimeAnyMime15AnyDropProvider7provideEPKcmRK9QMemArrayIcERS4_
0001:00014f08  __ZN14QPMMimeAnyMime13dragWorkerForEPKcP11QMimeSource
0001:0001846c  __ZN7QPMMime21defaultCoopDragWorkerEv
0001:00014fa4  __ZN14QPMMimeAnyMime13dropWorkerForEP9_DRAGINFO
0001:000184ec  __ZN7QPMMime17defaultDropWorkerEv
0001:000155a4  __ZN11QPMMimeTextC2Ev
0001:00015650  __ZN11QPMMimeTextC1Ev
0001:000156fc  __ZN11QPMMimeTextD2Ev
0001:0001577c  __ZN11QPMMimeTextD1Ev
0001:000157fc  __ZN11QPMMimeTextD0Ev
0001:00015888  __ZN11QPMMimeText13convertorNameEv
0001:00015894  __ZN11QPMMimeText7countCfEv
0001:000158a0  __ZN11QPMMimeText2cfEi
0001:000158c0  __ZN11QPMMimeText5flForEm
0001:0001590c  __ZN11QPMMimeText5cfForEPKc
0001:00015af4  __ZN11QPMMimeText7mimeForEm
0001:00015b18  __ZN11QPMMimeText10canConvertEPKcm
0001:00015b4c  __ZN11QPMMimeText13convertToMimeE9QMemArrayIcEPKcm
0001:00015d28  __ZN11QPMMimeText15convertFromMimeE9QMemArrayIcEPKcm
0001:0001629c  __ZN11QPMMimeText14NativeFileDrag14createDragInfoEPKct
0001:000165e8  __ZNK11QPMMimeText14NativeFileDrop8providesEPKc
0001:00016608  __ZNK11QPMMimeText14NativeFileDrop11formatCountEv
0001:00016614  __ZNK11QPMMimeText14NativeFileDrop6formatEi
0001:0001662c  __ZNK11QPMMimeText14NativeFileDrop11encodedDataEPKc
0001:00017c70  __ZN7QPMMime24canTargetRenderAsOS2FileEP9_DRAGITEMP8QCString
0001:0001683c  __ZNK11QPMMimeText16TextDragProvider6formatEPKc
0001:000168ac  __ZN11QPMMimeText16TextDragProvider7provideEPKcRK9QMemArrayIcEmRS4_
0001:00016c64  __ZN11QPMMimeText16TextDragProvider8fileTypeEPKcRS2_S3_
0001:00016ccc  __ZNK11QPMMimeText16TextDropProvider3drfEPKc
0001:00016d14  __ZN11QPMMimeText16TextDropProvider7provideEPKcmRK9QMemArrayIcERS4_
0001:00017190  __ZN11QPMMimeText13dragWorkerForEPKcP11QMimeSource
0001:000184ac  __ZN7QPMMime21defaultExclDragWorkerEv
0001:00017358  __ZN11QPMMimeText13dropWorkerForEP9_DRAGINFO
0001:00017548  __ZN12QPMMimeImage13convertorNameEv
0001:00017554  __ZN12QPMMimeImage7countCfEv
0001:00017560  __ZN12QPMMimeImage2cfEi
0001:00017570  __ZN12QPMMimeImage5flForEm
0001:0001758c  __ZN12QPMMimeImage5cfForEPKc
0001:0001765c  __ZN12QPMMimeImage7mimeForEm
0001:00017670  __ZN12QPMMimeImage10canConvertEPKcm
0001:00017744  __ZN12QPMMimeImage13convertToMimeE9QMemArrayIcEPKcm
0001:000178fc  __ZN12QPMMimeImage15convertFromMimeE9QMemArrayIcEPKcm
0001:00017a3c  __ZN7QPMMime10initializeEv
0001:00017aa4  __ZN7QPMMime9convertorEPKcm
0001:00017b04  __ZN7QPMMime8cfToMimeEm
0001:00017b54  __ZN7QPMMime3allEv
0001:00019070* __ZTVN7QPMMime10DragWorkerE$w$FJ26UYXE8U6xpD9Q3
0001:00018f90  __ZTVN7QPMMime17DefaultDragWorkerE$w$FJ26UYXE8U6xpD9Q3
0001:0001852c  __ZN17QValueListPrivateIN7QPMMime17DefaultDragWorker4Data11DrfProviderEEC1Ev$w$FJ26UYXE8U6xpD9Q3
0001:00018ff0  __ZTV8QIntDictIN7QPMMime17DefaultDragWorker4Data7RequestEE$w$FJ26UYXE8U6xpD9Q3
0001:0001857c  __ZN17QValueListPrivateIN7QPMMime17DefaultDragWorker4Data11DrfProviderEED1Ev$w$FJ26UYXE8U6xpD9Q3
0001:00011e24  __ZThn8_N7QPMMime17DefaultDragWorkerD1Ev$w$FJ26UYXE8U6xpD9Q3
0001:00011ed0  __ZThn8_N7QPMMime17DefaultDragWorkerD0Ev$w$FJ26UYXE8U6xpD9Q3
0001:000185e0  __ZN10QValueListIN7QPMMime17DefaultDragWorker4Data11DrfProviderEE5clearEv$w$FJ26UYXE8U6xpD9Q3
0001:00018624  __ZN10QValueListIN7QPMMime17DefaultDragWorker4Data11DrfProviderEE14detachInternalEv$w$FJ26UYXE8U6xpD9Q3
0001:00019160* __ZTV9QMemArrayIcE$w$FJ26UYXE8U6xpD9Q3
0001:00012f00  __ZThn8_N7QPMMime17DefaultDragWorker7messageEmPvS1_$w$FJ26UYXE8U6xpD9Q3
0001:00018654  __ZN17QValueListPrivateIN7QPMMime17DefaultDragWorker4Data11DrfProviderEE6insertE18QValueListIteratorIS3_ERKS3_$w$FJ26UYXE8U6xpD9Q3
0001:00019030  __ZTVN7QPMMime10DropWorkerE$w$FJ26UYXE8U6xpD9Q3
0001:00018f30  __ZTVN7QPMMime17DefaultDropWorkerE$w$FJ26UYXE8U6xpD9Q3
0001:000186c0  __ZN17QValueListPrivateIN7QPMMime17DefaultDropWorker4Data12MimeProviderEEC1Ev$w$FJ26UYXE8U6xpD9Q3
0001:00018710  __ZN17QValueListPrivateIN7QPMMime17DefaultDropWorker4Data12MimeProviderEED1Ev$w$FJ26UYXE8U6xpD9Q3
0001:000133bc  __ZThn8_N7QPMMime17DefaultDropWorkerD1Ev$w$FJ26UYXE8U6xpD9Q3
0001:00013438  __ZThn8_N7QPMMime17DefaultDropWorkerD0Ev$w$FJ26UYXE8U6xpD9Q3
0001:00018774  __ZN10QValueListIN7QPMMime17DefaultDropWorker4Data12MimeProviderEE5clearEv$w$FJ26UYXE8U6xpD9Q3
0001:000187b8  __ZN10QValueListIN7QPMMime17DefaultDropWorker4Data12MimeProviderEE14detachInternalEv$w$FJ26UYXE8U6xpD9Q3
0001:00018818  __ZNK17QValueListPrivateIN7QPMMime17DefaultDropWorker4Data12MimeProviderEE2atEj$w$FJ26UYXE8U6xpD9Q3
0001:00014384  __ZThn8_N7QPMMime17DefaultDropWorker7messageEmPvS1_$w$FJ26UYXE8U6xpD9Q3
0001:00018860  __ZN17QValueListPrivateIN7QPMMime17DefaultDropWorker4Data12MimeProviderEE6insertE18QValueListIteratorIS3_ERKS3_$w$FJ26UYXE8U6xpD9Q3
0001:00018e70  __ZTV7QPMMime$w$FJ26UYXE8U6xpD9Q3
0001:00018df0  __ZTV14QPMMimeAnyMime$w$FJ26UYXE8U6xpD9Q3
0001:00018e30  __ZTV8QPtrListI21QPMRegisteredMimeTypeE$w$FJ26UYXE8U6xpD9Q3
0001:00018dc0  __ZTVN14QPMMimeAnyMime15AnyDragProviderE$w$FJ26UYXE8U6xpD9Q3
0001:00018db0  __ZTVN14QPMMimeAnyMime15AnyDropProviderE$w$FJ26UYXE8U6xpD9Q3
0001:00018ef0  __ZTV8QPtrListI8QStrListE$w$FJ26UYXE8U6xpD9Q3
0001:00018d70  __ZTV11QPMMimeText$w$FJ26UYXE8U6xpD9Q3
0001:00018d10  __ZTVN11QPMMimeText14NativeFileDragE$w$FJ26UYXE8U6xpD9Q3
0001:00018cd0  __ZTVN11QPMMimeText14NativeFileDropE$w$FJ26UYXE8U6xpD9Q3
0001:00018ca0  __ZTVN11QPMMimeText16TextDragProviderE$w$FJ26UYXE8U6xpD9Q3
0001:00018c90  __ZTVN11QPMMimeText16TextDropProviderE$w$FJ26UYXE8U6xpD9Q3
0001:000188cc* __ZN17QValueListPrivateI7QStringEC1Ev$w$FJ26UYXE8U6xpD9Q3
0001:00018918* __ZN17QValueListPrivateI7QStringED1Ev$w$FJ26UYXE8U6xpD9Q3
0001:000189a8* __ZN10QValueListI7QStringE14detachInternalEv$w$FJ26UYXE8U6xpD9Q3
0001:000190b0  __ZTV8QStrList$w$FJ26UYXE8U6xpD9Q3
0001:000190f0  __ZTV8QPtrListIcE$w$FJ26UYXE8U6xpD9Q3
0001:00018c50  __ZTV12QPMMimeImage$w$FJ26UYXE8U6xpD9Q3
0001:00018eb0* __ZTV8QPtrListI7QPMMimeE$w$FJ26UYXE8U6xpD9Q3
0001:000189d8  __ZN17QValueListPrivateIN7QPMMime17DefaultDragWorker4Data11DrfProviderEE5clearEv$w$FJ26UYXE8U6xpD9Q3
0001:00018a24  __ZN17QValueListPrivateIN7QPMMime17DefaultDragWorker4Data11DrfProviderEEC1ERKS4_$w$FJ26UYXE8U6xpD9Q3
0001:00018ac4  __ZN17QValueListPrivateIN7QPMMime17DefaultDropWorker4Data12MimeProviderEE5clearEv$w$FJ26UYXE8U6xpD9Q3
0001:00018b10  __ZN17QValueListPrivateIN7QPMMime17DefaultDropWorker4Data12MimeProviderEEC1ERKS4_$w$FJ26UYXE8U6xpD9Q3
0001:00018bb0* __ZN17QValueListPrivateI7QStringEC1ERKS1_$w$FJ26UYXE8U6xpD9Q3
0001:000197a4* __ZN17QValueListPrivateI7QStringE6insertE18QValueListIteratorIS0_ERKS0_$w$FJ26UYXE8U6xpD9Q3
0001:000196a8  __ZN12QPMMimeImageD1Ev$w$FJ26UYXE8U6xpD9Q3
0001:000196c4  __ZN12QPMMimeImageD0Ev$w$FJ26UYXE8U6xpD9Q3
0001:000193e0  __ZN7QPMMime13dragWorkerForEPKcP11QMimeSource$w$FJ26UYXE8U6xpD9Q3
0001:000193e8  __ZN7QPMMime13dropWorkerForEP9_DRAGINFO$w$FJ26UYXE8U6xpD9Q3
0001:000195e8  __ZN11QPMMimeText14NativeFileDropD1Ev$w$FJ26UYXE8U6xpD9Q3
0001:000195d4  __ZN11QPMMimeText14NativeFileDropD0Ev$w$FJ26UYXE8U6xpD9Q3
0001:000193d0  __ZN7QPMMime10DropWorker4initEv$w$FJ26UYXE8U6xpD9Q3
0001:000193d8  __ZN7QPMMime10DropWorker7cleanupEbb$w$FJ26UYXE8U6xpD9Q3
0001:00019638  __ZNK11QPMMimeText14NativeFileDrop11isExclusiveEv$w$FJ26UYXE8U6xpD9Q3
0001:0001959c  __ZN11QPMMimeText14NativeFileDragD1Ev$w$FJ26UYXE8U6xpD9Q3
0001:0001955c  __ZN11QPMMimeText14NativeFileDragD0Ev$w$FJ26UYXE8U6xpD9Q3
0001:00019358* __ZN7QPMMime10DragWorker4initEv$w$FJ26UYXE8U6xpD9Q3
0001:000195f8  __ZN11QPMMimeText14NativeFileDrag7cleanupEb$w$FJ26UYXE8U6xpD9Q3
0001:00019604  __ZNK11QPMMimeText14NativeFileDrag11isExclusiveEv$w$FJ26UYXE8U6xpD9Q3
0001:00019610  __ZNK11QPMMimeText14NativeFileDrag9itemCountEv$w$FJ26UYXE8U6xpD9Q3
0001:00019618  __ZNK11QPMMimeText14NativeFileDrag4hwndEv$w$FJ26UYXE8U6xpD9Q3
0001:00019368* __ZN7QPMMime10DragWorker19composeFormatStringEv$w$FJ26UYXE8U6xpD9Q3
0001:0001938c* __ZN7QPMMime10DragWorker7prepareEPKcS2_P9_DRAGITEMm$w$FJ26UYXE8U6xpD9Q3
0001:00019394* __ZN7QPMMime10DragWorker15defaultFileTypeERPKcS3_$w$FJ26UYXE8U6xpD9Q3
0001:00019628  __ZN11QPMMimeText14NativeFileDrag7messageEmPvS1_$w$FJ26UYXE8U6xpD9Q3
0001:000195cc  __ZThn8_N11QPMMimeText14NativeFileDragD1Ev$w$FJ26UYXE8U6xpD9Q3
0001:00019594  __ZThn8_N11QPMMimeText14NativeFileDragD0Ev$w$FJ26UYXE8U6xpD9Q3
0001:00019630  __ZThn8_N11QPMMimeText14NativeFileDrag7messageEmPvS1_$w$FJ26UYXE8U6xpD9Q3
0001:000194ec  __ZNK8QPtrListI21QPMRegisteredMimeTypeE5countEv$w$FJ26UYXE8U6xpD9Q3
0001:000194b0  __ZN8QPtrListI21QPMRegisteredMimeTypeE5clearEv$w$FJ26UYXE8U6xpD9Q3
0001:00019488  __ZN8QPtrListI21QPMRegisteredMimeTypeED1Ev$w$FJ26UYXE8U6xpD9Q3
0001:000194bc  __ZN8QPtrListI21QPMRegisteredMimeTypeED0Ev$w$FJ26UYXE8U6xpD9Q3
0001:00019800  __ZN8QPtrListI21QPMRegisteredMimeTypeE10deleteItemEPv$w$FJ26UYXE8U6xpD9Q3
0001:00019844* __ZNK8QPtrListI7QPMMimeE5countEv$w$FJ26UYXE8U6xpD9Q3
0001:00019714* __ZN8QPtrListI7QPMMimeE5clearEv$w$FJ26UYXE8U6xpD9Q3
0001:000196ec* __ZN8QPtrListI7QPMMimeED1Ev$w$FJ26UYXE8U6xpD9Q3
0001:00019720* __ZN8QPtrListI7QPMMimeED0Ev$w$FJ26UYXE8U6xpD9Q3
0001:00019850* __ZN8QPtrListI7QPMMimeE10deleteItemEPv$w$FJ26UYXE8U6xpD9Q3
0001:00019750  __ZNK8QPtrListI8QStrListE5countEv$w$FJ26UYXE8U6xpD9Q3
0001:00019520  __ZN8QPtrListI8QStrListE5clearEv$w$FJ26UYXE8U6xpD9Q3
0001:000194f8  __ZN8QPtrListI8QStrListED1Ev$w$FJ26UYXE8U6xpD9Q3
0001:0001952c  __ZN8QPtrListI8QStrListED0Ev$w$FJ26UYXE8U6xpD9Q3
0001:00019878  __ZN8QPtrListI8QStrListE10deleteItemEPv$w$FJ26UYXE8U6xpD9Q3
0001:0001939c  __ZNK7QPMMime17DefaultDragWorker4hwndEv$w$FJ26UYXE8U6xpD9Q3
0001:00019360* __ZN7QPMMime10DragWorker14createDragInfoEPKct$w$FJ26UYXE8U6xpD9Q3
0001:00019418  __ZNK8QIntDictIN7QPMMime17DefaultDragWorker4Data7RequestEE5countEv$w$FJ26UYXE8U6xpD9Q3
0001:00019424  __ZN8QIntDictIN7QPMMime17DefaultDragWorker4Data7RequestEE5clearEv$w$FJ26UYXE8U6xpD9Q3
0001:000193f0  __ZN8QIntDictIN7QPMMime17DefaultDragWorker4Data7RequestEED1Ev$w$FJ26UYXE8U6xpD9Q3
0001:00019430  __ZN8QIntDictIN7QPMMime17DefaultDragWorker4Data7RequestEED0Ev$w$FJ26UYXE8U6xpD9Q3
0001:000198a4  __ZN8QIntDictIN7QPMMime17DefaultDragWorker4Data7RequestEE10deleteItemEPv$w$FJ26UYXE8U6xpD9Q3
0001:000193ac  __ZN7QPMMime10DropWorkerD1Ev$w$FJ26UYXE8U6xpD9Q3
0001:000193bc  __ZN7QPMMime10DropWorkerD0Ev$w$FJ26UYXE8U6xpD9Q3
0001:00019334* __ZN7QPMMime10DragWorkerD1Ev$w$FJ26UYXE8U6xpD9Q3
0001:00019344* __ZN7QPMMime10DragWorkerD0Ev$w$FJ26UYXE8U6xpD9Q3
0001:00019644  __ZNK8QPtrListIcE5countEv$w$FJ26UYXE8U6xpD9Q3
0001:0001920c  __ZN8QPtrListIcE5clearEv$w$FJ26UYXE8U6xpD9Q3
0001:00019218  __ZN8QStrListD1Ev$w$FJ26UYXE8U6xpD9Q3
0001:0001924c  __ZN8QStrListD0Ev$w$FJ26UYXE8U6xpD9Q3
0001:00019288  __ZN8QStrList7newItemEPv$w$FJ26UYXE8U6xpD9Q3
0001:000192ac  __ZN8QStrList10deleteItemEPv$w$FJ26UYXE8U6xpD9Q3
0001:000192cc  __ZN8QStrList12compareItemsEPvS0_$w$FJ26UYXE8U6xpD9Q3
0001:00019300  __ZN8QStrList4readER11QDataStreamRPv$w$FJ26UYXE8U6xpD9Q3
0001:0001931c  __ZNK8QStrList5writeER11QDataStreamPv$w$FJ26UYXE8U6xpD9Q3
0001:00019650  __ZN8QPtrListIcED1Ev$w$FJ26UYXE8U6xpD9Q3
0001:00019678  __ZN8QPtrListIcED0Ev$w$FJ26UYXE8U6xpD9Q3
0001:00019924  __ZN8QPtrListIcE10deleteItemEPv$w$FJ26UYXE8U6xpD9Q3
0001:00019130* __ZTV6QGList$w$FJ26UYXE8U6xpD9Q3
0001:00019200* __ZNK6QGList5countEv$w$FJ26UYXE8U6xpD9Q3
0001:000191e4* __ZN9QMemArrayIcED1Ev$w$FJ26UYXE8U6xpD9Q3
0001:00019460* __ZN9QMemArrayIcED0Ev$w$FJ26UYXE8U6xpD9Q3
0001:00019944* __ZN9QMemArrayIcE6detachEv$w$FJ26UYXE8U6xpD9Q3
Module: C:\200\trunk\src\tmp\obj\release_mt_shared\qpixmap_pm.obj(qpixmap_pm.obj)
0001:00019990  __Z15qt_alloc_mem_psiim
0001:0001999c  __Z14qt_free_mem_psm
0001:00019aa0  __ZN7QPixmap4initEiiibNS_12OptimizationE
0001:0001a418  __ZN7QPixmap12defaultDepthEv
0001:00019d64  __ZN7QPixmap5derefEv
0001:00019ef4  __ZN7QPixmapC2EiiPKhb
0001:0001a460  __ZN7QPixmap15setOptimizationENS_12OptimizationE
0001:0001a15c  __ZN7QPixmapC1EiiPKhb
0001:0001a3c4  __ZN7QPixmap6detachEv
0001:0001a498  __ZN7QPixmap4fillERK6QColor
0001:0001a5e0  __ZNK7QPixmap6metricEi
0001:0001a71c  __ZNK7QPixmap14convertToImageEv
0001:0001afb8  __ZN7QPixmap16convertFromImageERK6QImagei
0001:0001c4fc  __ZNK7QPixmap15hasAlphaChannelEv
0001:0001c50c  __ZN7QPixmap17prepareForMaskingEbb
0001:0001b844  __ZN7QPixmap10grabWindowEmiiii
0001:0001b9c4  __ZNK7QPixmap5xFormERK8QWMatrix
0001:0001c4d8  __ZNK7QPixmap8hasAlphaEv
0001:0001c7a0  __ZN7QPixmap10createIconEbiib
0001:0001cd88  __ZN7QPixmap12attachHandleEm
0001:0001ce6c  __ZN7QPixmap12detachHandleEv
0001:0001cef4  __ZN7QPixmap18unfoldAlphaChannelEv
0001:0001d078  __ZN7QPixmap14convertToAlphaEv
0001:0001d25c  __ZN7QPixmap14trueColorDepthEv
0001:0001d354  __ZN7QPixmap10createIconEbiiPKS_S1_
0001:0001d49c  __Z7copyBltP7QPixmapiiPKS_iiii
0001:0001d8d0* __ZTV7QBitmap$w$tthC36YE8U6sPJiF1
0001:0001d8a0  __ZTV9QMemArrayI6QPointE$w$tthC36YE8U6sPJiF1
0001:0001dae8  __ZN9QMemArrayI6QPointED1Ev$w$tthC36YE8U6sPJiF1
0001:0001db04  __ZN9QMemArrayI6QPointED0Ev$w$tthC36YE8U6sPJiF1
0001:0001db2c  __ZN9QMemArrayI6QPointE6detachEv$w$tthC36YE8U6sPJiF1
0001:0001d970* __ZN7QBitmapD1Ev$w$tthC36YE8U6sPJiF1
0001:0001d948* __ZN7QBitmapD0Ev$w$tthC36YE8U6sPJiF1
0001:0001d910* __ZTV6QGList$w$tthC36YE8U6sPJiF1
0001:0001d93c* __ZNK6QGList5countEv$w$tthC36YE8U6sPJiF1
Module: C:\200\trunk\src\tmp\obj\release_mt_shared\qprocess_pm.obj(qprocess_pm.obj)
0001:0001db70  __ZN15QProcessMonitorC2Ev
0001:0001dc30  __ZN15QProcessMonitorC1Ev
0001:0001dcf0  __ZN15QProcessMonitorD2Ev
0001:0001ddd0  __ZN15QProcessMonitorD1Ev
0001:0001deb0  __ZN15QProcessMonitorD0Ev
0001:0001e038  __ZN15QProcessMonitor7addPipeEP8QProcessPN15QProcessPrivate4PipeE
0001:0001e124  __ZN15QProcessMonitor10removePipeEPN15QProcessPrivate4PipeE
0001:0001e1b8  __ZN15QProcessMonitor10addProcessEP8QProcess
0001:0001e34c  __ZN15QProcessMonitor13removeProcessEP15QProcessPrivatePNS0_4PipeEb
0001:0001e5e0  __ZN15QProcessMonitor7monitorEv
0001:0001e9f0  __ZN15QProcessMonitor7messageEmPvS0_
0001:0001eb8c  __Z23QProcessMonitor_cleanupv
0001:0001ebec  __ZN15QProcessPrivate8readPipeEPNS_4PipeE
0001:0001edf0  __ZN8QProcess4initEv
0001:0001eec4  __ZN8QProcess5resetEv
0001:0001f05c  __ZN8QProcess12membufStdoutEv
0001:0001f090  __ZN8QProcess12membufStderrEv
0001:0001f0c4  __ZN8QProcessD2Ev
0001:0001f2d8  __ZN8QProcessD1Ev
0001:0001f4ec  __ZN8QProcessD0Ev
0001:0001f7e0  __ZN8QProcess5startEP11QStringList
0001:00020a5c  __ZNK8QProcess12tryTerminateEv
0001:00020b60  __ZNK8QProcess4killEv
0001:00020bb8  __ZNK8QProcess9isRunningEv
0001:00020d90  __ZNK8QProcess17canReadLineStdoutEv
0001:00020dc8  __ZNK8QProcess17canReadLineStderrEv
0001:00020e00  __ZN8QProcess12writeToStdinERK9QMemArrayIcE
0001:00020eb0  __ZN8QProcess11socketWriteEi
0001:00020e50  __ZN8QProcess10closeStdinEv
0001:00020e8c  __ZN8QProcess10socketReadEi
0001:00020ff0  __ZN8QProcess10flushStdinEv
0001:00021008  __ZN8QProcess7timeoutEv
0001:00021084  __ZN8QProcess16setIoRedirectionEb
0001:00021094  __ZN8QProcess15setNotifyOnExitEb
0001:000210ec  __ZN8QProcess22setWroteStdinConnectedEb
0001:000210fc  __ZN8QProcess17processIdentifierEv
0001:00021260  __ZTV15QProcessMonitor$w$hfDvLdYE8U60VV7U1
0001:00021290  __ZTV8QIntDictI8QProcessE$w$hfDvLdYE8U60VV7U1
0001:000212b8  __ZTVN15QProcessMonitor6ThreadE$w$hfDvLdYE8U60VV7U1
0001:000213c0* __ZTV9QMemArrayIcE$w$hfDvLdYE8U60VV7U1
0001:000212d0  __ZTV9QPtrQueueI9QMemArrayIcEE$w$hfDvLdYE8U60VV7U1
0001:0002110c* __ZN17QValueListPrivateI7QStringED1Ev$w$hfDvLdYE8U60VV7U1
0001:00021310* __ZTV8QStrList$w$hfDvLdYE8U60VV7U1
0001:0002119c* __ZN10QValueListI7QStringE14detachInternalEv$w$hfDvLdYE8U60VV7U1
0001:00021350* __ZTV8QPtrListIcE$w$hfDvLdYE8U60VV7U1
0001:000211cc* __ZN17QValueListPrivateI7QStringEC1ERKS1_$w$hfDvLdYE8U60VV7U1
0001:000216e4* __ZN17QValueListPrivateI7QStringE6insertE18QValueListIteratorIS0_ERKS0_$w$hfDvLdYE8U60VV7U1
0001:00021638  __ZNK8QIntDictI8QProcessE5countEv$w$hfDvLdYE8U60VV7U1
0001:000215fc  __ZN8QIntDictI8QProcessE5clearEv$w$hfDvLdYE8U60VV7U1
0001:000215d4  __ZN8QIntDictI8QProcessED1Ev$w$hfDvLdYE8U60VV7U1
0001:00021608  __ZN8QIntDictI8QProcessED0Ev$w$hfDvLdYE8U60VV7U1
0001:00021740  __ZN8QIntDictI8QProcessE10deleteItemEPv$w$hfDvLdYE8U60VV7U1
0001:000215a4  __ZN15QProcessMonitor6ThreadD1Ev$w$hfDvLdYE8U60VV7U1
0001:0002157c  __ZN15QProcessMonitor6ThreadD0Ev$w$hfDvLdYE8U60VV7U1
0001:000215c0  __ZN15QProcessMonitor6Thread3runEv$w$hfDvLdYE8U60VV7U1
0001:00021768  __ZNK9QPtrQueueI9QMemArrayIcEE5countEv$w$hfDvLdYE8U60VV7U1
0001:00021644  __ZN9QPtrQueueI9QMemArrayIcEE5clearEv$w$hfDvLdYE8U60VV7U1
0001:0002152c  __ZN9QPtrQueueI9QMemArrayIcEED1Ev$w$hfDvLdYE8U60VV7U1
0001:00021650  __ZN9QPtrQueueI9QMemArrayIcEED0Ev$w$hfDvLdYE8U60VV7U1
0001:00021774  __ZN9QPtrQueueI9QMemArrayIcEE10deleteItemEPv$w$hfDvLdYE8U60VV7U1
0001:00021680* __ZNK8QPtrListIcE5countEv$w$hfDvLdYE8U60VV7U1
0001:00021404* __ZN8QPtrListIcE5clearEv$w$hfDvLdYE8U60VV7U1
0001:00021410* __ZN8QStrListD1Ev$w$hfDvLdYE8U60VV7U1
0001:00021444* __ZN8QStrListD0Ev$w$hfDvLdYE8U60VV7U1
0001:00021480* __ZN8QStrList7newItemEPv$w$hfDvLdYE8U60VV7U1
0001:000214a4* __ZN8QStrList10deleteItemEPv$w$hfDvLdYE8U60VV7U1
0001:000214c4* __ZN8QStrList12compareItemsEPvS0_$w$hfDvLdYE8U60VV7U1
0001:000214f8* __ZN8QStrList4readER11QDataStreamRPv$w$hfDvLdYE8U60VV7U1
0001:00021514* __ZNK8QStrList5writeER11QDataStreamPv$w$hfDvLdYE8U60VV7U1
0001:0002168c* __ZN8QPtrListIcED1Ev$w$hfDvLdYE8U60VV7U1
0001:000216b4* __ZN8QPtrListIcED0Ev$w$hfDvLdYE8U60VV7U1
0001:0002179c* __ZN8QPtrListIcE10deleteItemEPv$w$hfDvLdYE8U60VV7U1
0001:00021390* __ZTV6QGList$w$hfDvLdYE8U60VV7U1
0001:000213f8* __ZNK6QGList5countEv$w$hfDvLdYE8U60VV7U1
0001:000213dc* __ZN9QMemArrayIcED1Ev$w$hfDvLdYE8U60VV7U1
0001:00021554* __ZN9QMemArrayIcED0Ev$w$hfDvLdYE8U60VV7U1
0001:000217bc* __ZN9QMemArrayIcE6detachEv$w$hfDvLdYE8U60VV7U1
Module: C:\200\trunk\src\tmp\obj\release_mt_shared\qpaintdevice_pm.obj(qpaintdevice_pm.obj)
0001:00021834  __ZN12QPaintDeviceC2Ej
0001:00021870  __ZN12QPaintDeviceC1Ej
0001:00021914  __ZN12QPaintDeviceD2Ev
0001:00021940  __ZN12QPaintDeviceD1Ev
0001:0002196c  __ZN12QPaintDeviceD0Ev
0001:000219a4  __ZNK12QPaintDevice6handleEv
0001:000219e4  __ZN12QPaintDevice3cmdEiP8QPainterP13QPDevCmdParam
0001:00021a30  __ZNK12QPaintDevice6metricEi
0001:00021a44  __ZNK12QPaintDevice7fontMetEP5QFontiPKci
0001:00021a4c  __ZNK12QPaintDevice7fontInfEP5QFonti
0001:00021a70  _qt_ropCodes_2ROP
0001:00022a28  __Z6bitBltP12QPaintDeviceiiPKS_iiiiN2Qt8RasterOpEb
0001:0002335c  __ZN12QPaintDevice13setResolutionEi
0001:00023364  __ZNK12QPaintDevice10resolutionEv
0001:00023390  __ZTV12QPaintDevice$w$ttFMWiYE8U6L6L7U1
0001:000233d0* __ZTV6QGList$w$ttFMWiYE8U6L6L7U1
0001:000233fc* __ZNK6QGList5countEv$w$ttFMWiYE8U6L6L7U1
Module: C:\200\trunk\src\tmp\obj\release_mt_shared\qpainter_pm.obj(qpainter_pm.obj)
0001:00023410  __Z18qt_GpiSetBackColorml
0001:00023470  __Z16qt_GpiSetBackMixmlm
0001:00023514  __Z18qt_begin_geom_linemlmP19qt_geom_line_handle
0001:00023610  __Z16qt_end_geom_linemP19qt_geom_line_handle
0001:00023680  __Z19qt_erase_backgroundmiiiiRK6QColorPK7QPixmapiii
0001:000237d8  __ZN8QPainter10initializeEv
0001:000237e0  __ZN8QPainter7cleanupEv
0001:000237e8  __ZN8QPainter7destroyEv
0001:000237f0  __ZN8QPainter4initEv
0001:000238d8  __ZN8QPainter7setFontERK5QFont
0001:00023928  __ZN8QPainter10updateFontEv
0001:00023ac8  __ZN8QPainter9updatePenEv
0001:00023d84  __ZN8QPainter11updateBrushEv
0001:0002418c  __ZN8QPainter5beginEPK12QPaintDeviceb
0001:000250c0  __ZN8QPainter14setBrushOriginEii
0001:00024dc0  __ZN8QPainter18setBackgroundColorERK6QColor
0001:00024ebc  __ZN8QPainter17setBackgroundModeEN2Qt6BGModeE
0001:00024fb8  __ZN8QPainter11setRasterOpEN2Qt8RasterOpE
0001:00024b3c  __ZN8QPainter3endEv
0001:00024d7c  __ZN8QPainter5flushERK7QRegionNS_14CoordinateModeE
0001:00024d84  __ZN8QPainter5flushEv
0001:00025178  __ZN8QPainter14setNativeXFormEb
0001:0002543c  __ZN8QPainter16clearNativeXFormEv
0001:0002549c  __ZN8QPainter11setClippingEb
0001:00025654  __ZN8QPainter11setClipRectERK5QRectNS_14CoordinateModeE
0001:000256bc  __ZN8QPainter13setClipRegionERK7QRegionNS_14CoordinateModeE
0001:00025790  __ZN8QPainter16drawPolyInternalERK11QPointArraybbiib
0001:00025d68  __ZN8QPainter15drawArcInternalEiiiiiiNS_8ArcCloseE
0001:00026364  __ZN8QPainter9drawPointEii
0001:0002641c  __ZN8QPainter10drawPointsERK11QPointArrayii
0001:000266a4  __ZN8QPainter6moveToEii
0001:0002675c  __ZN8QPainter6lineToEii
0001:00026890  __ZN8QPainter8drawLineEiiii
0001:00026b64  __ZN8QPainter16drawRectInternalEiiiiii
0001:00026f10  __ZN8QPainter8drawRectEiiii
0001:00027050  __ZN8QPainter24drawWinFocusRectInternalEiiiiRK6QColorb
0001:000272a4  __ZN8QPainter16drawWinFocusRectEiiiiRK6QColor
0001:000272c8  __ZN8QPainter16drawWinFocusRectEiiii
0001:00027470  __ZN8QPainter13drawRoundRectEiiiiii
0001:000278a0  __ZN8QPainter11drawEllipseEiiii
0001:000279dc  __ZN8QPainter7drawArcEiiiiii
0001:00027b14  __ZN8QPainter7drawPieEiiiiii
0001:00027ccc  __ZN8QPainter9drawChordEiiiiii
0001:00027e68  __ZN8QPainter16drawLineSegmentsERK11QPointArrayii
0001:00028070  __ZN8QPainter12drawPolylineERK11QPointArrayii
0001:00028250  __ZN8QPainter17drawConvexPolygonERK11QPointArrayii
0001:00028270  __ZN8QPainter11drawPolygonERK11QPointArraybii
0001:000284a0  __ZN8QPainter15drawCubicBezierERK11QPointArrayi
0001:00028798  __ZN8QPainter10drawPixmapEiiRK7QPixmapiiii
0001:00028dc4  __ZN8QPainter15drawTiledPixmapEiiiiRK7QPixmapii
0001:00028ffc  __ZN8QPainter8drawTextEiiRK7QStringiNS_13TextDirectionE
0001:00029024  __ZN8QPainter8drawTextEiiRK7QStringiiNS_13TextDirectionE
0001:00029430  __ZN8QPainter12drawTextItemEiiRK9QTextItemi
0001:000294f8  __ZNK8QPainter3posEv
0001:000295c0  __ZTV11QPointArray$w$BbcnIrYE8U689Cw63
0001:000295e0* __ZTV9QMemArrayI6QPointE$w$BbcnIrYE8U689Cw63
0001:00029590* __ZTV7QBitmap$w$BbcnIrYE8U689Cw63
0001:000296b4* __ZN7QBitmapD1Ev$w$BbcnIrYE8U689Cw63
0001:0002968c* __ZN7QBitmapD0Ev$w$BbcnIrYE8U689Cw63
0001:00029648  __ZN11QPointArrayD1Ev$w$BbcnIrYE8U689Cw63
0001:00029664  __ZN11QPointArrayD0Ev$w$BbcnIrYE8U689Cw63
0001:00029770* __ZN9QMemArrayI6QPointE6detachEv$w$BbcnIrYE8U689Cw63
0001:000296d0* __ZN9QMemArrayI6QPointED1Ev$w$BbcnIrYE8U689Cw63
0001:000296ec* __ZN9QMemArrayI6QPointED0Ev$w$BbcnIrYE8U689Cw63
0001:00029610* __ZTV6QGList$w$BbcnIrYE8U689Cw63
0001:0002963c* __ZNK6QGList5countEv$w$BbcnIrYE8U689Cw63
Module: C:\200\trunk\src\tmp\obj\release_mt_shared\qregion_pm.obj(qregion_pm.obj)
0001:000297a8  __ZN7QRegionC2Ev
0001:000297f8  __ZN7QRegionC1Ev
0001:00029848  __ZN7QRegionC2Eb
0001:0002989c  __ZN7QRegionC1Eb
0001:000298f0  __ZN7QRegionC2Emi
0001:0002993c  __ZN7QRegionC1Emi
0001:00029988  __ZN7QRegionC2ERK5QRectNS_10RegionTypeE
0001:00029ba8  __ZN7QRegionC1ERK5QRectNS_10RegionTypeE
0001:00029dc8  __ZN7QRegionC2ERK11QPointArrayb
0001:00029f8c  __ZN7QRegionC1ERK11QPointArrayb
0001:0002a150  __ZN7QRegionC2ERKS_
0001:0002a164  __ZN7QRegionC1ERKS_
0001:0002a178  __Z20qt_pm_bitmapToRegionRK7QBitmap
0001:0002a5d8  __ZN7QRegionC2ERK7QBitmap
0001:0002a64c  __ZN7QRegionC1ERK7QBitmap
0001:0002a6c0  __ZN7QRegionD2Ev
0001:0002a71c  __ZN7QRegionD1Ev
0001:0002a778  __ZN7QRegionaSERKS_
0001:0002a7e0  __ZNK7QRegion4copyEv
0001:0002a88c  __ZNK7QRegion6isNullEv
0001:0002a89c  __ZNK7QRegion7isEmptyEv
0001:0002a8f8  __ZNK7QRegion8containsERK6QPoint
0001:0002a964  __ZNK7QRegion8containsERK5QRect
0001:0002a9f4  __ZN7QRegion9translateEii
0001:0002aa80  __ZNK7QRegion9pmCombineERKS_i
0001:0002b088  __ZNK7QRegion12updateHandleEi
0001:0002acb4  __ZNK7QRegion5uniteERKS_
0001:0002acd4  __ZNK7QRegion9intersectERKS_
0001:0002acf4  __ZNK7QRegion8subtractERKS_
0001:0002ad14  __ZNK7QRegion3eorERKS_
0001:0002ad34  __ZNK7QRegion12boundingRectEv
0001:0002adcc  __ZNK7QRegion5rectsEv
0001:0002af80  __ZN7QRegion8setRectsEPK5QRecti
0001:0002afec  __ZNK7QRegioneqERKS_
0001:0002b180* __ZTV11QPointArray$w$xTlUSuYE8U6ja2bP3
0001:0002b1a0* __ZTV9QMemArrayI6QPointE$w$xTlUSuYE8U6ja2bP3
0001:0002b118  __ZTV9QMemArrayI5QRectE$w$xTlUSuYE8U6ja2bP3
0001:0002b250  __ZN9QMemArrayI5QRectED1Ev$w$xTlUSuYE8U6ja2bP3
0001:0002b26c  __ZN9QMemArrayI5QRectED0Ev$w$xTlUSuYE8U6ja2bP3
0001:0002b294  __ZN9QMemArrayI5QRectE6detachEv$w$xTlUSuYE8U6ja2bP3
0001:0002b150* __ZTV6QGList$w$xTlUSuYE8U6ja2bP3
0001:0002b200* __ZNK6QGList5countEv$w$xTlUSuYE8U6ja2bP3
0001:0002b1bc* __ZN11QPointArrayD1Ev$w$xTlUSuYE8U6ja2bP3
0001:0002b1d8* __ZN11QPointArrayD0Ev$w$xTlUSuYE8U6ja2bP3
0001:0002b2ac* __ZN9QMemArrayI6QPointE6detachEv$w$xTlUSuYE8U6ja2bP3
0001:0002b20c* __ZN9QMemArrayI6QPointED1Ev$w$xTlUSuYE8U6ja2bP3
0001:0002b228* __ZN9QMemArrayI6QPointED0Ev$w$xTlUSuYE8U6ja2bP3
Module: C:\200\trunk\src\tmp\obj\release_mt_shared\qsound_pm.obj(qsound_pm.obj)
0001:0002b308  __ZN13QAuBucketMMPMC2EP13QAuServerMMPMP6QSound
0001:0002b59c  __ZN13QAuBucketMMPM4initERK7QString
0001:0002b3d8  __ZN13QAuBucketMMPMC1EP13QAuServerMMPMP6QSound
0001:0002b4a8  __ZN13QAuBucketMMPMC2EP13QAuServerMMPMRK7QString
0001:0002b514  __ZN13QAuBucketMMPMC1EP13QAuServerMMPMRK7QString
0001:0002b698  __ZN13QAuBucketMMPMD2Ev
0001:0002b900  __ZN13QAuBucketMMPM5closeEb
0001:0002b70c  __ZN13QAuBucketMMPMD1Ev
0001:0002b780  __ZN13QAuBucketMMPMD0Ev
0001:0002b828  __ZN13QAuBucketMMPM4openEv
0001:0002b98c  __ZN13QAuBucketMMPM4playEv
0001:0002ba74  __ZN13QAuBucketMMPM4stopEv
0001:0002babc  __ZN13QAuBucketMMPM14onDeviceGainedEb
0001:0002bbc8  __ZN13QAuServerMMPMC2EP7QObject
0001:0002c52c  __ZN13QAuServerMMPM10WindowProcEmmPvS0_
0001:0002bdf4  __ZN13QAuServerMMPMC1EP7QObject
0001:0002c020  __ZN13QAuServerMMPMD2Ev
0001:0002c1e8  __ZN13QAuServerMMPM12serverUninitEv
0001:0002c0a4  __ZN13QAuServerMMPMD1Ev
0001:0002c128  __ZN13QAuServerMMPMD0Ev
0001:0002c310  __ZN13QAuServerMMPM4initEP6QSound
0001:0002c390  __ZN13QAuServerMMPM4playERK7QString
0001:0002c3f8  __ZN13QAuServerMMPM4playEP6QSound
0001:0002c494  __ZN13QAuServerMMPM4stopEP6QSound
0001:0002c50c  __ZN13QAuServerMMPM4okayEv
0001:0002c6b8  __Z19qt_new_audio_serverv
0001:0002c6e0  __ZNK13QAuServerMMPM9classNameEv
0001:0002c6ec  __ZN13QAuServerMMPM2trEPKcS1_
0001:0002c72c  __ZN13QAuServerMMPM6trUtf8EPKcS1_
0001:0002c7a4  __ZN13QAuServerMMPM16staticMetaObjectEv
0001:0002c800  __ZN13QAuServerMMPM7qt_castEPKc
0001:0002c858  __ZN13QAuServerMMPM9qt_invokeEiP8QUObject
0001:0002c898  __ZN13QAuServerMMPM7qt_emitEiP8QUObject
0001:0002c8b4  __ZN13QAuServerMMPM11qt_propertyEiiP8QVariant
0001:0002c8d0  __ZN13QAuServerMMPM18qt_static_propertyEP7QObjectiiP8QVariant
0002:00000570  __ZN13QAuServerMMPM9ClassNameE
0002:00002b80  __ZN13QAuServerMMPM7metaObjE
0001:0002c960  __ZTV13QAuBucketMMPM$w$J9vyCAYE8U6m3X9n0
0001:0002c8f0  __ZTV13QAuServerMMPM$w$J9vyCAYE8U6m3X9n0
0001:0002c9b0  __ZTV8QIntDictI13QAuBucketMMPME$w$J9vyCAYE8U6m3X9n0
0001:0002c970  __ZTV8QPtrListI13QAuBucketMMPME$w$J9vyCAYE8U6m3X9n0
0001:0002ca74  __ZNK13QAuServerMMPM10metaObjectEv$w$J9vyCAYE8U6m3X9n0
0001:0002cb48  __ZNK8QPtrListI13QAuBucketMMPME5countEv$w$J9vyCAYE8U6m3X9n0
0001:0002cb0c  __ZN8QPtrListI13QAuBucketMMPME5clearEv$w$J9vyCAYE8U6m3X9n0
0001:0002caa8  __ZN8QPtrListI13QAuBucketMMPMED1Ev$w$J9vyCAYE8U6m3X9n0
0001:0002cb18  __ZN8QPtrListI13QAuBucketMMPMED0Ev$w$J9vyCAYE8U6m3X9n0
0001:0002cb60  __ZN8QPtrListI13QAuBucketMMPME10deleteItemEPv$w$J9vyCAYE8U6m3X9n0
0001:0002cb54  __ZNK8QIntDictI13QAuBucketMMPME5countEv$w$J9vyCAYE8U6m3X9n0
0001:0002cad0  __ZN8QIntDictI13QAuBucketMMPME5clearEv$w$J9vyCAYE8U6m3X9n0
0001:0002ca80  __ZN8QIntDictI13QAuBucketMMPMED1Ev$w$J9vyCAYE8U6m3X9n0
0001:0002cadc  __ZN8QIntDictI13QAuBucketMMPMED0Ev$w$J9vyCAYE8U6m3X9n0
0001:0002cb88  __ZN8QIntDictI13QAuBucketMMPME10deleteItemEPv$w$J9vyCAYE8U6m3X9n0
0001:0002c9f0* __ZTV6QGList$w$J9vyCAYE8U6m3X9n0
0001:0002ca68* __ZNK6QGList5countEv$w$J9vyCAYE8U6m3X9n0
Module: C:\200\trunk\src\tmp\obj\release_mt_shared\qthread_pm.obj(qthread_pm.obj)
0001:0002cbf0  __ZN15QThreadInstance7currentEv
0001:0002cc0c  __ZN15QThreadInstance4initEj
0001:0002cedc  __ZN7QThread10initializeEv
0001:0002cc54  __ZN15QThreadInstance6deinitEv
0001:0002cc5c  __ZN15QThreadInstance5startEPv
0001:0002cd0c  __ZN15QThreadInstance6finishEPS_
0001:0002cdc4  __ZNK15QThreadInstance5mutexEv
0001:0002ce20  __ZN15QThreadInstance9terminateEv
0001:0002cec0  __ZN7QThread13currentThreadEv
0001:0002cf44  __ZN7QThread7cleanupEv
0001:0002cfb8  __ZN7QThread5sleepEm
0001:0002cfd4  __ZN7QThread6msleepEm
0001:0002cfe0  __ZN7QThread6usleepEm
0001:0002d060  __ZN7QThread5startENS_8PriorityE
0001:0002d29c  __ZN7QThread4waitEm
0001:0002d250  __ZN7QThread5startEv
0001:0002d468  __ZN7QThread4exitEv
Module: C:\200\trunk\src\tmp\obj\release_mt_shared\qwidget_pm.obj(qwidget_pm.obj)
0001:0002d4a0  QtSysMenuProc
0001:0002ea88  __ZN7QWidget6createEmbb
0001:0002fc2c  __ZN7QWidget10setFontSysEP5QFont
0001:00033b50  __ZN7QWidget6winFIdEv
0001:0002f26c  __ZN7QWidget7destroyEbb
0001:000303ec  __ZN7QWidget15releaseKeyboardEv
0001:00030344  __ZN7QWidget12releaseMouseEv
0001:0002f3c8  __ZN7QWidget11reparentSysEPS_jRK6QPointb
0001:0002fa04  __ZNK7QWidget11mapToGlobalERK6QPoint
0001:0002fb5c  __ZNK7QWidget13mapFromGlobalERK6QPoint
0001:0002fc34  __ZN7QWidget17setMicroFocusHintEiiiibP5QFont
0001:0002fce8  __ZN7QWidget17resetInputContextEv
0001:0002fcf0  __ZN7QWidget24setBackgroundColorDirectERK6QColor
0001:0002fd34  __ZN7QWidget25setBackgroundPixmapDirectERK7QPixmap
0001:0002fe10  __ZN7QWidget18setBackgroundEmptyEv
0001:0002fe50  __ZN7QWidget9setCursorERK7QCursor
0001:0002ff0c  __ZN7QWidget11unsetCursorEv
0001:0002ff6c  __ZN7QWidget10setCaptionERK7QString
0001:000300cc  __ZN7QWidget7setIconERK7QPixmap
0001:00030210  __ZN7QWidget11setIconTextERK7QString
0001:00030238  __Z14qt_grab_cursorv
0001:00030244  __ZN7QWidget9grabMouseEv
0001:000302a0  __ZN7QWidget9grabMouseERK7QCursor
0001:000303b8  __ZN7QWidget12grabKeyboardEv
0001:00030414  __ZN7QWidget12mouseGrabberEv
0001:00030420  __ZN7QWidget15keyboardGrabberEv
0001:0003042c  __ZN7QWidget15setActiveWindowEv
0001:00030464  __ZN7QWidget6updateEv
0001:00030480  __ZN7QWidget6updateEiiii
0001:00030564  __ZN7QWidget7repaintEiiiib
0001:00032740  __ZN7QWidget5eraseEiiii
0001:00030854  __ZN7QWidget7repaintERK7QRegionb
0001:0003289c  __ZN7QWidget5eraseERK7QRegion
0001:000309d4  __ZN7QWidget14setWindowStateEj
0001:00030ed4  __ZN7QWidget10hideWindowEv
0001:00030f9c  __ZN7QWidget10showWindowEv
0001:00031314  __ZN7QWidget5raiseEv
0001:0003137c  __ZN7QWidget5lowerEv
0001:000313e8  __ZN7QWidget10stackUnderEPS_
0001:0003148c  __ZN7QWidget19internalSetGeometryEiiiib
0001:000323dc  __ZN7QWidget14setMinimumSizeEii
0001:00032568  __ZN7QWidget14setMaximumSizeEii
0001:000326e0  __ZN7QWidget16setSizeIncrementEii
0001:0003270c  __ZN7QWidget11setBaseSizeEii
0001:00033be8  __ZN7QWidget11getTargetPSENS_8ClipModeE
0001:000331d8  __ZN7QWidget6scrollEii
0001:00033220  __ZN7QWidget6scrollEiiRK5QRect
0001:000332a4  __ZN7QWidget8drawTextEiiRK7QString
0001:00033334  __ZNK7QWidget6metricEi
0001:00033470  __ZN7QWidget14createSysExtraEv
0001:00033478  __ZN7QWidget14deleteSysExtraEv
0001:00033480  __ZN7QWidget16createTLSysExtraEv
0001:000334a8  __ZN7QWidget16deleteTLSysExtraEv
0001:00033510  __ZNK7QWidget11acceptDropsEv
0001:00033524  __ZN7QWidget14setAcceptDropsEb
0001:000337a0  __ZN7QWidget7setMaskERK7QRegion
0001:0003387c  __ZN7QWidget7setMaskERK7QBitmap
0001:0003397c  __ZN7QWidget9clearMaskEv
0001:00033a04  __ZN7QWidget7setNameEPKc
0001:00033a10  __ZNK7QWidget16updateFrameStrutEv
0001:00033b14  __ZN7QWidget16setMouseTrackingEb
0001:00033b40  __ZN7QWidget16setWindowOpacityEd
0001:00033b48  __ZNK7QWidget13windowOpacityEv
0001:00033b80  __ZN7QWidget17validateObstaclesEv
0002:00002bf0  _QtOldSysMenuProc
0001:00033d78* __ZTV11QPaintEvent$w$DsElGLYE8U67Esds2
0001:00033d58* __ZTV12QResizeEvent$w$DsElGLYE8U67Esds2
0001:00033d68* __ZTV10QMoveEvent$w$DsElGLYE8U67Esds2
0001:00033464  __ZThn40_NK7QWidget6metricEi$w$DsElGLYE8U67Esds2
0001:00033ea0* __ZN12QResizeEventD1Ev$w$DsElGLYE8U67Esds2
0001:00033e78* __ZN12QResizeEventD0Ev$w$DsElGLYE8U67Esds2
0001:00033e5c* __ZN10QMoveEventD1Ev$w$DsElGLYE8U67Esds2
0001:00033e34* __ZN10QMoveEventD0Ev$w$DsElGLYE8U67Esds2
0001:00033e08* __ZN11QPaintEventD1Ev$w$DsElGLYE8U67Esds2
0001:00033dd8* __ZN11QPaintEventD0Ev$w$DsElGLYE8U67Esds2
0001:00033da0* __ZTV6QGList$w$DsElGLYE8U67Esds2
0001:00033dcc* __ZNK6QGList5countEv$w$DsElGLYE8U67Esds2
Module: C:\200\trunk\src\tmp\obj\release_mt_shared\qfontengine_pm.obj(qfontengine_pm.obj)
0001:00033ec0  __ZN11QFontEngineD2Ev
0001:00033f0c  __ZN11QFontEngineD1Ev
0001:00033f58  __ZN11QFontEngineD0Ev
0001:00033fa8  __ZNK11QFontEngine13lineThicknessEv
0001:00033fbc  __ZNK11QFontEngine17underlinePositionEv
0001:00033fdc  __ZNK11QFontEngine2psEv
0001:00034084  __ZNK11QFontEngine8selectToEm
0001:0003417c  __ZN13QFontEnginePMC2EmP7_FATTRSii
0001:000342a4  __ZN13QFontEnginePMC1EmP7_FATTRSii
0001:00034410  __ZNK13QFontEnginePM12stringToCMapEPK5QChariPtPiS4_b
0001:000346c0  __ZN13QFontEnginePM4drawEP8QPainteriiPK11QTextEnginePK11QScriptItemi
0001:000353a0  __ZN13QFontEnginePM11boundingBoxEPKtPKiPK9qoffset_ti
0001:00035420  __ZN13QFontEnginePM11boundingBoxEt
0001:000354f4  __ZNK13QFontEnginePM6ascentEv
0001:00035504  __ZNK13QFontEnginePM7descentEv
0001:00035514  __ZNK13QFontEnginePM7leadingEv
0001:00035524  __ZNK13QFontEnginePM12maxCharWidthEv
0001:00035534  __ZNK13QFontEnginePM14minLeftBearingEv
0001:0003553c  __ZNK13QFontEnginePM15minRightBearingEv
0001:00035544  __ZN13QFontEnginePM9canRenderEPK5QChari
0001:00035550  __ZNK13QFontEnginePM4typeEv
0001:000355c0  __ZTV11QFontEngine$w$xV6eVQYE8U6oA4tP3
0001:00035560  __ZTV13QFontEnginePM$w$xV6eVQYE8U6oA4tP3
0001:00035620* __ZTV7QBitmap$w$xV6eVQYE8U6oA4tP3
0001:00035704  __ZN13QFontEnginePMD1Ev$w$xV6eVQYE8U6oA4tP3
0001:0003573c  __ZN13QFontEnginePMD0Ev$w$xV6eVQYE8U6oA4tP3
0001:0003577c  __ZNK13QFontEnginePM4nameEv$w$xV6eVQYE8U6oA4tP3
0001:000356f4  __ZN11QFontEngine8setScaleEd$w$xV6eVQYE8U6oA4tP3
0001:000356fc  __ZNK11QFontEngine5scaleEv$w$xV6eVQYE8U6oA4tP3
0001:000356e4  __ZNK11QFontEngine14minLeftBearingEv$w$xV6eVQYE8U6oA4tP3
0001:000356ec  __ZNK11QFontEngine15minRightBearingEv$w$xV6eVQYE8U6oA4tP3
0001:000357ac* __ZN7QBitmapD1Ev$w$xV6eVQYE8U6oA4tP3
0001:00035784* __ZN7QBitmapD0Ev$w$xV6eVQYE8U6oA4tP3
0001:00035660* __ZTV6QGList$w$xV6eVQYE8U6oA4tP3
0001:000356d8* __ZNK6QGList5countEv$w$xV6eVQYE8U6oA4tP3
0001:000357c8  __ZN14QThreadStorageIP10QDisplayPSE10deleteDataEPv$w$xV6eVQYE8U6oA4tP3
Module: C:\200\trunk\src\tmp\obj\release_mt_shared\qabstractlayout.obj(qabstractlayout.obj)
0001:00035894  __ZN11QLayoutItem12setAlignmentEi
0001:000358a4  __ZN11QSpacerItem10changeSizeEiiN11QSizePolicy8SizeTypeES1_
0001:000358cc  __ZN11QLayoutItemD2Ev
0001:000358dc  __ZN11QLayoutItemD1Ev
0001:000358ec  __ZN11QLayoutItemD0Ev
0001:00035900  __ZN11QLayoutItem10invalidateEv
0001:00035908  __ZN11QLayoutItem6layoutEv
0001:00035910  __ZN11QLayoutItem10spacerItemEv
0001:00035918  __ZN7QLayout6layoutEv
0001:00035928  __ZN11QSpacerItem10spacerItemEv
0001:00035930  __ZN11QLayoutItem6widgetEv
0001:00035938  __ZN11QWidgetItem6widgetEv
0001:00035944  __ZNK11QLayoutItem17hasHeightForWidthEv
0001:0003594c  __ZN11QLayoutItem8iteratorEv
0001:0003595c  __ZNK11QLayoutItem14heightForWidthEi
0001:00035968  __ZN11QSpacerItem11setGeometryERK5QRect
0001:0003598c  __ZN11QWidgetItem11setGeometryERK5QRect
0001:00035ba4  __ZNK11QSpacerItem8geometryEv
0001:00035bc8  __ZNK11QWidgetItem8geometryEv
0001:00035bf4  __ZNK7QLayout8geometryEv
0001:00035c20  __ZNK11QWidgetItem17hasHeightForWidthEv
0001:00035c74  __ZNK11QWidgetItem14heightForWidthEi
0001:00036af4  __ZNK7QLayout19totalHeightForWidthEi
0001:00035d44  __ZNK11QSpacerItem9expandingEv
0001:00035d60  __ZNK11QWidgetItem9expandingEv
0001:00035e50  __ZNK11QSpacerItem11minimumSizeEv
0001:00035ea0  __ZNK11QWidgetItem11minimumSizeEv
0001:00035edc  __ZNK11QSpacerItem11maximumSizeEv
0001:00035f40  __ZNK11QWidgetItem11maximumSizeEv
0001:00035f80  __ZNK11QSpacerItem8sizeHintEv
0001:00035fa0  __ZNK11QWidgetItem8sizeHintEv
0001:00036110  __ZNK11QSpacerItem7isEmptyEv
0001:0003611c  __ZNK11QWidgetItem7isEmptyEv
0001:00036178  __ZN7QLayoutC2EP7QWidgetiiPKc
0001:00036328  __ZN7QLayout4initEv
0001:00036700  __ZN7QLayout15setWidgetLayoutEP7QWidgetPS_
0001:00036250  __ZN7QLayoutC1EP7QWidgetiiPKc
0001:00036350  __ZN7QLayoutC2EPS_iPKc
0001:000363d4  __ZN7QLayoutC1EPS_iPKc
0001:00036458  __ZN7QLayoutC2EiPKc
0001:000364b8  __ZN7QLayoutC1EiPKc
0001:00036518  __ZN7QLayout9setMarginEi
0001:00036668  __ZN7QLayout10mainWidgetEv
0001:00036584  __ZN7QLayout10setSpacingEi
0001:00037884  __ZN7QLayout16propagateSpacingEPS_
0001:000366f0  __ZNK7QLayout7isEmptyEv
0001:00036718  __ZN7QLayout11setGeometryERK5QRect
0001:0003673c  __ZN7QLayout10invalidateEv
0001:00036868  __ZN7QLayout11eventFilterEP7QObjectP6QEvent
0001:00037164  __ZN7QLayout8activateEv
0001:00036a3c  __ZN7QLayout10childEventEP11QChildEvent
0001:00036b74  __ZNK7QLayout16totalMinimumSizeEv
0001:00036bfc  __ZNK7QLayout13totalSizeHintEv
0001:00036cc0  __ZNK7QLayout16totalMaximumSizeEv
0001:00036d8c  __ZN7QLayoutD2Ev
0001:00036df0  __ZN7QLayoutD1Ev
0001:00036e5c  __ZN7QLayoutD0Ev
0001:00036ed0  __ZN7QLayout14deleteAllItemsEv
0001:00036f74  __ZN7QLayout14addChildLayoutEPS_
0001:00036fc8  __ZN7QLayout6freezeEii
0001:000373dc  __ZN7QLayout13setResizeModeENS_10ResizeModeE
0001:00037024  __ZN7QLayout10setMenuBarEP8QMenuBar
0001:00037034  __ZNK7QLayout11minimumSizeEv
0001:00037058  __ZNK7QLayout11maximumSizeEv
0001:0003707c  __ZNK7QLayout9expandingEv
0001:000373a8  __ZN16QGLayoutIteratorD2Ev
0001:000373b8  __ZN16QGLayoutIteratorD1Ev
0001:000373c8  __ZN16QGLayoutIteratorD0Ev
0001:00037478  __ZNK7QLayout10resizeModeEv
0001:000374a4  __ZN7QLayout10setAutoAddEb
0001:000374c0  __ZN7QLayout17setSupportsMarginEb
0001:000374dc  __ZNK7QLayout13alignmentRectERK5QRect
0001:00037698  __ZN7QLayout6removeEP7QWidget
0001:00037790  __ZN7QLayout10removeItemEP11QLayoutItem
0001:00037858  __ZN7QLayout10setEnabledEb
0001:00037874  __ZNK7QLayout9isEnabledEv
0001:00037a60  __ZTV11QLayoutItem$w$VpaLxXYE8U6jVGNx4
0001:00035920  __ZThn40_N7QLayout6layoutEv$w$VpaLxXYE8U6jVGNx4
0001:00035c18  __ZThn40_NK7QLayout8geometryEv$w$VpaLxXYE8U6jVGNx4
0001:00037924  __Z7qt_castIP7QLayoutET_PK7QObject$w$VpaLxXYE8U6jVGNx4
0001:000366f8  __ZThn40_NK7QLayout7isEmptyEv$w$VpaLxXYE8U6jVGNx4
0001:00036778  __ZThn40_N7QLayout10invalidateEv$w$VpaLxXYE8U6jVGNx4
0001:00037940  __Z7qt_castIP8QMenuBarET_PK7QObject$w$VpaLxXYE8U6jVGNx4
0001:0003795c  __Z7qt_castIP8QToolBarET_PK7QObject$w$VpaLxXYE8U6jVGNx4
0001:000379a0  __ZTV11QWidgetItem$w$VpaLxXYE8U6jVGNx4
0001:00036e54  __ZThn40_N7QLayoutD1Ev$w$VpaLxXYE8U6jVGNx4
0001:00036ec8  __ZThn40_N7QLayoutD0Ev$w$VpaLxXYE8U6jVGNx4
0001:00037050  __ZThn40_NK7QLayout11minimumSizeEv$w$VpaLxXYE8U6jVGNx4
0001:00037074  __ZThn40_NK7QLayout11maximumSizeEv$w$VpaLxXYE8U6jVGNx4
0001:00037088  __ZThn40_NK7QLayout9expandingEv$w$VpaLxXYE8U6jVGNx4
0001:00037978  __ZTV16QGLayoutIterator$w$VpaLxXYE8U6jVGNx4
0001:00037b3c  __ZN11QWidgetItemD1Ev$w$VpaLxXYE8U6jVGNx4
0001:00037b58  __ZN11QWidgetItemD0Ev$w$VpaLxXYE8U6jVGNx4
0001:00037a00  __ZTV11QSpacerItem$w$VpaLxXYE8U6jVGNx4
0001:00037af8  __ZN11QSpacerItemD1Ev$w$VpaLxXYE8U6jVGNx4
0001:00037b14  __ZN11QSpacerItemD0Ev$w$VpaLxXYE8U6jVGNx4
0001:00037ac0* __ZTV6QGList$w$VpaLxXYE8U6jVGNx4
0001:00037aec* __ZNK6QGList5countEv$w$VpaLxXYE8U6jVGNx4
Module: C:\200\trunk\src\tmp\obj\release_mt_shared\qucomextra.obj(qucomextra.obj)
0001:00037ba0  __ZNK15QUType_QVariant4uuidEv
0001:00037bb4  __ZNK15QUType_QVariant4descEv
0001:00037bc0  __ZN15QUType_QVariant3setEP8QUObjectRK8QVariant
0001:00037bf4  __ZN15QUType_QVariant3getEP8QUObject
0001:00037c00  __ZN15QUType_QVariant14canConvertFromEP8QUObjectP6QUType
0001:00037e90  __ZN15QUType_QVariant12canConvertToEP8QUObjectP6QUType
0001:00037e98  __ZN15QUType_QVariant11convertFromEP8QUObjectP6QUType
0001:000381c0  __ZN15QUType_QVariant9convertToEP8QUObjectP6QUType
0001:000381c8  __ZN15QUType_QVariant5clearEP8QUObject
0001:00038200  __ZN15QUType_QVariant11serializeToEP8QUObjectP8QUBuffer
0001:00038208  __ZN15QUType_QVariant13serializeFromEP8QUObjectP8QUBuffer
0001:00038210  __ZNK13QUType_varptr4uuidEv
0001:00038224  __ZNK13QUType_varptr4descEv
0001:00038230  __ZN13QUType_varptr3setEP8QUObjectPKv
0001:00038244  __ZN13QUType_varptr14canConvertFromEP8QUObjectP6QUType
0001:000382d4  __ZN13QUType_varptr12canConvertToEP8QUObjectP6QUType
0001:0003835c  __ZN13QUType_varptr11convertFromEP8QUObjectP6QUType
0001:000383f4  __ZN13QUType_varptr9convertToEP8QUObjectP6QUType
0001:0003847c  __ZN13QUType_varptr11serializeToEP8QUObjectP8QUBuffer
0001:00038484  __ZN13QUType_varptr13serializeFromEP8QUObjectP8QUBuffer
0002:00002c50  _TID_QUType_QVariant
0002:00002c60  _static_QUType_QVariant
0002:00002c64  _TID_QUType_varptr
0002:00002c74  _static_QUType_varptr
0001:000384a0  __ZTV13QUType_varptr$w$lZl5kZYE8U6lVt6P2
0001:0003865c  __ZN13QUType_varptr5clearEP8QUObject$w$lZl5kZYE8U6lVt6P2
0001:000384e0  __ZTV15QUType_QVariant$w$lZl5kZYE8U6lVt6P2
0001:00038520* __ZTV6QGList$w$lZl5kZYE8U6lVt6P2
0001:00038664* __ZNK6QGList5countEv$w$lZl5kZYE8U6lVt6P2
0001:0003863c  __ZN15QUType_QVariantC1Ev$w$lZl5kZYE8U6lVt6P2
0001:0003864c  __ZN13QUType_varptrC1Ev$w$lZl5kZYE8U6lVt6P2
Module: C:\200\trunk\src\tmp\obj\release_mt_shared\qaccel.obj(qaccel.obj)
0001:000386a0  __Z16qt_tryAccelEventP7QWidgetP9QKeyEvent
0001:00038b58  __ZN13QAccelManager13tryAccelEventEP7QWidgetP9QKeyEvent
0001:00038704  __Z21qt_dispatchAccelEventP7QWidgetP9QKeyEvent
0001:00039044  __ZN13QAccelManager18dispatchAccelEventEP7QWidgetP9QKeyEvent
0001:00038768  __Z20qt_tryComposeUnicodeP7QWidgetP9QKeyEvent
0001:00038bf4  __ZN13QAccelManager17tryComposeUnicodeEP7QWidgetP9QKeyEvent
0001:000387cc  __Z24qt_setAccelAutoShortcutsb
0001:000387dc  __ZN13QAccelManager16correctSubWindowEP7QWidgetP13QAccelPrivate
0001:00038900  __ZN13QAccelManager5matchEP9QKeyEventP10QAccelItemR12QKeySequence
0001:0003a5c8  __ZN13QAccelPrivate8activateEP10QAccelItem
0001:0003a634  __ZN13QAccelPrivate19activateAmbiguouslyEP10QAccelItem
0001:00039b34  __ZN13QAccelPrivateC2EP6QAccel
0001:00039bd4  __ZN13QAccelPrivateC1EP6QAccel
0001:00039c74  __ZN13QAccelPrivateD2Ev
0001:00039d64  __ZN13QAccelPrivateD1Ev
0001:00039f18  __ZN6QAccelC2EP7QWidgetPKc
0001:00039fe4  __ZN6QAccelC1EP7QWidgetPKc
0001:0003a0b0  __ZN6QAccelC2EP7QWidgetP7QObjectPKc
0001:0003a17c  __ZN6QAccelC1EP7QWidgetP7QObjectPKc
0001:0003a248  __ZN6QAccelD2Ev
0001:0003a288  __ZN6QAccelD1Ev
0001:0003a2c8  __ZN6QAccelD0Ev
0001:0003a310  __ZNK6QAccel9isEnabledEv
0001:0003a320  __ZN6QAccel10setEnabledEb
0001:0003a334  __ZNK6QAccel5countEv
0001:0003a358  __ZN6QAccel10insertItemERK12QKeySequencei
0001:0003a3e4  __ZN6QAccel10removeItemEi
0001:0003a41c  __ZN6QAccel5clearEv
0001:0003a430  __ZN6QAccel3keyEi
0001:0003a478  __ZNK6QAccel7findKeyERK12QKeySequence
0001:0003a4a0  __ZNK6QAccel13isItemEnabledEi
0001:0003a4cc  __ZN6QAccel14setItemEnabledEib
0001:0003a508  __ZN6QAccel11connectItemEiPK7QObjectPKc
0001:0003a58c  __ZN6QAccel14disconnectItemEiPK7QObjectPKc
0001:0003a664  __ZN6QAccel11shortcutKeyERK7QString
0001:0003a760  __ZN6QAccel11keyToStringE12QKeySequence
0001:0003a77c  __ZN6QAccel11stringToKeyERK7QString
0001:0003a798  __ZN6QAccel12setWhatsThisEiRK7QString
0001:0003a7d4  __ZNK6QAccel9whatsThisEi
0001:0003a80c  __ZN6QAccel18setIgnoreWhatsThisEb
0001:0003a820  __ZNK6QAccel15ignoreWhatsThisEv
0001:0003a830  __ZN6QAccel17repairEventFilterEv
0001:0003a838  __ZN6QAccel11eventFilterEP7QObjectP6QEvent
0002:00002c80  __ZN13QAccelManager8self_ptrE
0001:0003a860  __ZTV8QPtrListI13QAccelPrivateE$w$7kk5M5ZE8U6rmaw01
0001:0003a840  __Z7qt_castIP11QDockWindowET_PK7QObject$w$7kk5M5ZE8U6rmaw01
0001:0003aa08  __ZN13QAccelManager18translateModifiersEN2Qt11ButtonStateE$w$7kk5M5ZE8U6rmaw01
0001:0003a8d0* __ZTV9QKeyEvent$w$7kk5M5ZE8U6rmaw01
0001:0003a8a0  __ZTV8QPtrListI10QAccelItemE$w$7kk5M5ZE8U6rmaw01
0001:0003aaac  __ZNK8QPtrListI13QAccelPrivateE5countEv$w$7kk5M5ZE8U6rmaw01
0001:0003a9cc  __ZN8QPtrListI13QAccelPrivateE5clearEv$w$7kk5M5ZE8U6rmaw01
0001:0003a9a4  __ZN8QPtrListI13QAccelPrivateED1Ev$w$7kk5M5ZE8U6rmaw01
0001:0003a9d8  __ZN8QPtrListI13QAccelPrivateED0Ev$w$7kk5M5ZE8U6rmaw01
0001:0003aab8  __ZN8QPtrListI13QAccelPrivateE10deleteItemEPv$w$7kk5M5ZE8U6rmaw01
0001:0003aaa0  __ZNK8QPtrListI10QAccelItemE5countEv$w$7kk5M5ZE8U6rmaw01
0001:0003aa64  __ZN8QPtrListI10QAccelItemE5clearEv$w$7kk5M5ZE8U6rmaw01
0001:0003aa3c  __ZN8QPtrListI10QAccelItemED1Ev$w$7kk5M5ZE8U6rmaw01
0001:0003aa70  __ZN8QPtrListI10QAccelItemED0Ev$w$7kk5M5ZE8U6rmaw01
0001:0003aaf0  __ZN8QPtrListI10QAccelItemE10deleteItemEPv$w$7kk5M5ZE8U6rmaw01
0001:0003a960* __ZN9QKeyEventD1Ev$w$7kk5M5ZE8U6rmaw01
0001:0003a918* __ZN9QKeyEventD0Ev$w$7kk5M5ZE8U6rmaw01
0001:0003a8e0* __ZTV6QGList$w$7kk5M5ZE8U6rmaw01
0001:0003a90c* __ZNK6QGList5countEv$w$7kk5M5ZE8U6rmaw01
Module: C:\200\trunk\src\tmp\obj\release_mt_shared\qapplication.obj(qapplication.obj)
0001:0003ab80  __Z28qt_get_application_thread_idv
0001:0003ab8c  __Z19qt_setMaxWindowRectRK5QRect
0001:0003e3c8  __ZN12QApplication15topLevelWidgetsEv
0001:0003ac44  __Z15qAddPostRoutinePFvvE
0001:0003acfc  __Z18qRemovePostRoutinePFvvE
0001:0003adf4  __Z24qGlobalPostedEventsCountv
0001:0003ae14  __Z21qt_create_std_palettev
0001:0003dd90  __ZN12QApplication10setPaletteERK8QPalettebPKc
0001:0003b094  __ZN12QApplication15process_cmdlineEPiPPc
0001:0003d570  __ZN12QApplication8setStyleERK7QString
0001:00040aec  __ZN12QApplication16setReverseLayoutEb
0001:0003b54c  __ZN12QApplicationC2ERiPPc
0001:0003b7bc  __ZN12QApplication9constructERiPPcNS_4TypeE
0001:0003b598  __ZN12QApplicationC1ERiPPc
0001:0003b5e4  __ZN12QApplicationC2ERiPPcb
0001:0003b63c  __ZN12QApplicationC1ERiPPcb
0001:0003b694  __ZN12QApplicationC2ERiPPcNS_4TypeE
0001:0003b6e0  __ZN12QApplicationC1ERiPPcNS_4TypeE
0001:0003b754  __Z17qt_ucm_initializeP12QApplication
0001:0003b8c0  __ZNK12QApplication4typeEv
0001:0003b908  __ZN12QApplication15init_precmdlineEv
0001:0003b94c  __ZN12QApplication10initializeEiPPc
0001:000407e4  __ZN12QApplication7desktopEv
0001:0003dc48  __ZN12QApplication7paletteEPK7QWidget
0001:00040c74  __ZN15QSessionManagerC1EP12QApplicationR7QStringS3_
0001:0003ba38  __ZN12QApplication17activePopupWidgetEv
0001:0003ba54  __ZN12QApplication17activeModalWidgetEv
0001:0003bab4  __ZN12QApplicationD2Ev
0001:0003fe10  __ZN12QApplication18removePostedEventsEP7QObject
0001:0003c108  __ZN12QApplicationD1Ev
0001:0003c760  __ZN12QApplicationD0Ev
0001:0003ce3c  __ZN12QApplication5styleEv
0001:0003d3a8  __ZN12QApplication8setStyleEP6QStyle
0001:0003f1b4  __ZN12QApplication10startingUpEv
0001:0003d5e4  __ZN12QApplication9colorModeEv
0001:0003d5f0  __ZN12QApplication12setColorModeENS_9ColorModeE
0001:0003d600  __ZN12QApplication9colorSpecEv
0001:0003d670  __ZN12QApplication12setColorSpecEi
0001:0003d6a0  __ZN12QApplication14setGlobalStrutERK5QSize
0001:0003d6b8  __ZN12QApplication18applicationDirPathEv
0001:0003d720  __ZN12QApplication19applicationFilePathEv
0001:0003d78c  __ZN12QApplication12libraryPathsEv
0001:0003da34  __ZN12QApplication15setLibraryPathsERK11QStringList
0001:0003da94  __ZN12QApplication14addLibraryPathERK7QString
0001:0003db4c  __ZN12QApplication17removeLibraryPathERK7QString
0001:0003e010  __ZN12QApplication4fontEPK7QWidget
0001:0003e17c  __ZN12QApplication7setFontERK5QFontbPKc
0001:0003e3a4  __ZN12QApplication6polishEP7QWidget
0001:0003e3d4  __ZN12QApplication10allWidgetsEv
0001:0003e3e0  __ZN12QApplication11fontMetricsEv
0001:0003e420  __ZN12QApplication4quitEv
0001:0003f294  __ZN12QApplication4exitEi
0001:0003e430  __ZN12QApplication15closeAllWindowsEv
0001:0003e4f4  __ZN12QApplication7aboutQtEv
0001:0003e540  __ZN12QApplication6notifyEP7QObjectP6QEvent
0001:0003ef00  __ZN12QApplication14internalNotifyEP7QObjectP6QEvent
0001:0003ee44  __ZN12QApplication5eventEP6QEvent
0001:0003f1c4  __ZN12QApplication11closingDownEv
0001:0003f1d0  __ZN12QApplication13processEventsEv
0001:0003f1e8  __ZN12QApplication13processEventsEi
0001:0003f238  __ZN12QApplication9eventLoopEv
0001:0003f208  __ZN12QApplication15processOneEventEv
0001:0003f27c  __ZN12QApplication4execEv
0001:0003f2b0  __ZN12QApplication10enter_loopEv
0001:0003f2c8  __ZN12QApplication9exit_loopEv
0001:0003f2e0  __ZNK12QApplication9loopLevelEv
0001:0003f2f8  __ZN12QApplication15wakeUpGuiThreadEv
0001:0003f310  __ZN12QApplication16hasPendingEventsEv
0001:0003f328  __ZN12QApplication6flushXEv
0001:0003f330  __ZN12QApplication5syncXEv
0001:0003f3f8  __Z20qt_detectRTLLanguagev
0001:0003f44c  __ZN12QApplication17installTranslatorEP11QTranslator
0001:0003f8e4  __ZN12QApplication9postEventEP7QObjectP6QEvent
0001:0003f598  __ZN12QApplication16removeTranslatorEP11QTranslator
0001:0003f684  __ZN12QApplication15setDefaultCodecEP10QTextCodec
0001:0003f694  __ZNK12QApplication12defaultCodecEv
0001:0003f6a0  __ZNK12QApplication9translateEPKcS1_S1_NS_8EncodingE
0001:0003fba0  __ZN12QApplication16sendPostedEventsEv
0001:0003fbb4  __ZN12QApplication16sendPostedEventsEP7QObjecti
0001:0003fec8  __ZN12QApplication17removePostedEventEP6QEvent
0001:0003ff88  __ZN12QApplication15setActiveWindowEP7QWidget
0001:00040378  __Z21qt_dispatchEnterLeaveP7QWidgetS0_
0001:000406bc  __Z17qt_tryModalHelperP7QWidgetPS0_
0001:0004083c  __ZN12QApplication9clipboardEv
0001:00040894  __ZN12QApplication23setDesktopSettingsAwareEb
0001:000408a4  __ZN12QApplication20desktopSettingsAwareEv
0001:000408b0  __ZN12QApplication4lockEv
0001:000408c4  __ZN12QApplication6unlockEb
0001:000408fc  __ZN12QApplication6lockedEv
0001:00040914  __ZN12QApplication7tryLockEv
0001:0004092c  __ZN12QApplication10commitDataER15QSessionManager
0001:00040aac  __ZN12QApplication9saveStateER15QSessionManager
0001:00040ab4  __ZN12QApplication16setStartDragTimeEi
0001:00040ac4  __ZN12QApplication13startDragTimeEv
0001:00040ad0  __ZN12QApplication20setStartDragDistanceEi
0001:00040ae0  __ZN12QApplication17startDragDistanceEv
0001:00040b84  __ZN12QApplication13reverseLayoutEv
0001:00040ba4  __ZN15QSessionManagerC2EP12QApplicationR7QStringS3_
0001:00040d44  __ZN15QSessionManagerD2Ev
0001:00040e14  __ZN15QSessionManagerD1Ev
0001:00040ee4  __ZN15QSessionManagerD0Ev
0001:00040fb8  __ZNK15QSessionManager9sessionIdEv
0001:00040fdc  __ZNK15QSessionManager10sessionKeyEv
0001:00041000  __ZN15QSessionManager14setRestartHintENS_11RestartHintE
0001:00041014  __ZNK15QSessionManager11restartHintEv
0001:00041024  __ZN15QSessionManager17setRestartCommandERK11QStringList
0001:0004106c  __ZNK15QSessionManager14restartCommandEv
0001:00041084  __ZN15QSessionManager17setDiscardCommandERK11QStringList
0001:000410cc  __ZNK15QSessionManager14discardCommandEv
0001:000410e4  __ZN15QSessionManager18setManagerPropertyERK7QStringS2_
0001:000410ec  __ZN15QSessionManager18setManagerPropertyERK7QStringRK11QStringList
0001:000410f4  __ZNK15QSessionManager8isPhase2Ev
0001:000410fc  __ZN15QSessionManager13requestPhase2Ev
0002:000005c0  __ZN12QApplication21obey_desktop_settingsE
0002:000005c4  __ZN12QApplication17cursor_flash_timeE
0002:000005c8  __ZN12QApplication23mouse_double_click_timeE
0002:000005cc  __ZN12QApplication18wheel_scroll_linesE
0002:000005d0  _qt_resolve_symlinks
0002:000005d1  _qt_tab_all_widgets
0002:000005dc  __ZN12QApplication10animate_uiE
0002:00002ca0  _qApp
0002:00002ca4  __ZN12QApplication9app_styleE
0002:00002ca8  _qt_explicit_app_style
0002:00002cac  __ZN12QApplication9app_cspecE
0002:00002cb0  __ZN12QApplication7app_palE
0002:00002cb4  __ZN12QApplication8app_fontE
0002:00002cb8  _qt_app_has_font
0002:00002cbc  __ZN12QApplication10app_cursorE
0002:00002cc0  __ZN12QApplication12app_trackingE
0002:00002cc4  __ZN12QApplication14is_app_runningE
0002:00002cc5  __ZN12QApplication14is_app_closingE
0002:00002cc8  __ZN12QApplication10loop_levelE
0002:00002ccc  __ZN12QApplication11main_widgetE
0002:00002cd0  __ZN12QApplication12focus_widgetE
0002:00002cd4  __ZN12QApplication13active_windowE
0002:00002cd8  _qt_is_gui_used
0002:00002cdc  _qt_maxWindowRect
0002:00002cec  __ZN12QApplication9app_strutE
0002:00002cf4  __ZN12QApplication12animate_menuE
0002:00002cf5  __ZN12QApplication9fade_menuE
0002:00002cf6  __ZN12QApplication13animate_comboE
0002:00002cf7  __ZN12QApplication15animate_tooltipE
0002:00002cf8  __ZN12QApplication12fade_tooltipE
0002:00002cf9  __ZN12QApplication15animate_toolboxE
0002:00002cfa  __ZN12QApplication11widgetCountE
0002:00002cfc  _qt_appType
0002:00002d00  __ZN12QApplication12app_libpathsE
0002:00002d04  __ZN12QApplication18metaComposeUnicodeE
0002:00002d08  __ZN12QApplication15composedUnicodeE
0002:00002d0c  __ZN12QApplication8qt_mutexE
0002:00002d10  __ZN12QApplication9eventloopE
0002:00002d14  __ZN12QApplication12app_palettesE
0002:00002d18  __ZN12QApplication9app_fontsE
0002:00002d1c  __ZN12QApplication11session_keyE
0002:00002d20  __ZN12QApplication12popupWidgetsE
0002:00002d24  _qt_desktopWidget
0002:00002d28  _qt_clipboard
0002:00002d2c  _qt_modal_stack
0002:00002d30  _qt_std_pal
0002:00002d34  _qt_session_manager_self
0001:00041134  __ZN17QValueListPrivateIPFvvEE6insertE18QValueListIteratorIS1_ERKS1_$w$1pOEfhZE8U6llWOH1
0001:00041184  __ZN10QValueListIPFvvEE14detachInternalEv$w$1pOEfhZE8U6llWOH1
0001:00041104  __ZN17QValueListPrivateIPFvvEEC1Ev$w$1pOEfhZE8U6llWOH1
0001:000411e8  __ZN17QValueListPrivateIPFvvEE6removeE18QValueListIteratorIS1_E$w$1pOEfhZE8U6llWOH1
0001:000412c0* __ZN17QValueListPrivateI7QStringED1Ev$w$1pOEfhZE8U6llWOH1
0001:00041284  __ZN17QValueListPrivateIP11QTranslatorED1Ev$w$1pOEfhZE8U6llWOH1
0001:00041248  __ZN17QValueListPrivateIPFvvEED1Ev$w$1pOEfhZE8U6llWOH1
0001:00041a10* __ZTV12QCustomEvent$w$1pOEfhZE8U6llWOH1
0001:0004135c  __ZNK17QValueListPrivateI7QStringE2atEj$w$1pOEfhZE8U6llWOH1
0001:000413a4* __ZN10QValueListI7QStringE14detachInternalEv$w$1pOEfhZE8U6llWOH1
0001:000413d4* __ZN17QValueListPrivateI7QStringEC1Ev$w$1pOEfhZE8U6llWOH1
0001:00041420* __ZN17QValueListPrivateI7QStringE6insertE18QValueListIteratorIS0_ERKS0_$w$1pOEfhZE8U6llWOH1
0001:0004147c* __ZNK17QValueListPrivateI7QStringE8containsERKS0_$w$1pOEfhZE8U6llWOH1
0001:000414d0  __ZN17QValueListPrivateI7QStringE6removeERKS0_$w$1pOEfhZE8U6llWOH1
0001:00041920  __ZTV10QAsciiDictI8QPaletteE$w$1pOEfhZE8U6llWOH1
0001:000418e0  __ZTV10QAsciiDictI5QFontE$w$1pOEfhZE8U6llWOH1
0001:00041a60* __ZTV11QMouseEvent$w$1pOEfhZE8U6llWOH1
0001:00041a50* __ZTV11QWheelEvent$w$1pOEfhZE8U6llWOH1
0001:00041a20* __ZTV17QContextMenuEvent$w$1pOEfhZE8U6llWOH1
0001:00041578  __ZN17QValueListPrivateIP11QTranslatorE6insertE18QValueListIteratorIS1_ERKS1_$w$1pOEfhZE8U6llWOH1
0001:000415c8  __ZN10QValueListIP11QTranslatorE14detachInternalEv$w$1pOEfhZE8U6llWOH1
0001:00041548  __ZN17QValueListPrivateIP11QTranslatorEC1Ev$w$1pOEfhZE8U6llWOH1
0001:000415f8  __ZN17QValueListPrivateIP11QTranslatorE6removeERKS1_$w$1pOEfhZE8U6llWOH1
0001:00041960  __ZTV14QPostEventList$w$1pOEfhZE8U6llWOH1
0001:000419a0* __ZTV11QWidgetList$w$1pOEfhZE8U6llWOH1
0001:000419e0* __ZTV8QPtrListI7QWidgetE$w$1pOEfhZE8U6llWOH1
0001:00041a40  __ZTV11QFocusEvent$w$1pOEfhZE8U6llWOH1
0001:00041a30  __ZTV11QCloseEvent$w$1pOEfhZE8U6llWOH1
0001:0004165c  __ZN17QValueListPrivateIPFvvEEC1ERKS2_$w$1pOEfhZE8U6llWOH1
0001:000416d8* __ZN17QValueListPrivateI7QStringEC1ERKS1_$w$1pOEfhZE8U6llWOH1
0001:0004176c  __ZN17QValueListPrivateI7QStringE6removeE18QValueListIteratorIS0_E$w$1pOEfhZE8U6llWOH1
0001:000417f4  __ZN17QValueListPrivateIP11QTranslatorEC1ERKS2_$w$1pOEfhZE8U6llWOH1
0001:00041870  __ZN17QValueListPrivateIP11QTranslatorE6removeE18QValueListIteratorIS1_E$w$1pOEfhZE8U6llWOH1
0001:00041f14  __ZNK10QAsciiDictI5QFontE5countEv$w$1pOEfhZE8U6llWOH1
0001:00041ee0  __ZN10QAsciiDictI5QFontE5clearEv$w$1pOEfhZE8U6llWOH1
0001:00041eec  __ZN10QAsciiDictI5QFontED1Ev$w$1pOEfhZE8U6llWOH1
0001:00041e24  __ZN10QAsciiDictI5QFontED0Ev$w$1pOEfhZE8U6llWOH1
0001:00041f20  __ZN10QAsciiDictI5QFontE10deleteItemEPv$w$1pOEfhZE8U6llWOH1
0001:00041f58  __ZNK10QAsciiDictI8QPaletteE5countEv$w$1pOEfhZE8U6llWOH1
0001:00041eac  __ZN10QAsciiDictI8QPaletteE5clearEv$w$1pOEfhZE8U6llWOH1
0001:00041eb8  __ZN10QAsciiDictI8QPaletteED1Ev$w$1pOEfhZE8U6llWOH1
0001:00041df4  __ZN10QAsciiDictI8QPaletteED0Ev$w$1pOEfhZE8U6llWOH1
0001:00041f64  __ZN10QAsciiDictI8QPaletteE10deleteItemEPv$w$1pOEfhZE8U6llWOH1
0001:00041de8  __ZNK8QPtrListI10QPostEventE5countEv$w$1pOEfhZE8U6llWOH1
0001:00041d6c  __ZN8QPtrListI10QPostEventE5clearEv$w$1pOEfhZE8U6llWOH1
0001:00041d78  __ZN14QPostEventListD1Ev$w$1pOEfhZE8U6llWOH1
0001:00041dac  __ZN14QPostEventListD0Ev$w$1pOEfhZE8U6llWOH1
0001:00041f9c  __ZN8QPtrListI10QPostEventE10deleteItemEPv$w$1pOEfhZE8U6llWOH1
0001:00041fdc* __ZNK8QPtrListI7QWidgetE5countEv$w$1pOEfhZE8U6llWOH1
0001:00041cf0* __ZN8QPtrListI7QWidgetE5clearEv$w$1pOEfhZE8U6llWOH1
0001:00041cfc* __ZN11QWidgetListD1Ev$w$1pOEfhZE8U6llWOH1
0001:00041d30* __ZN11QWidgetListD0Ev$w$1pOEfhZE8U6llWOH1
0001:00041fe8* __ZN8QPtrListI7QWidgetE10deleteItemEPv$w$1pOEfhZE8U6llWOH1
0001:00041e54* __ZN8QPtrListI7QWidgetED1Ev$w$1pOEfhZE8U6llWOH1
0001:00041e7c* __ZN8QPtrListI7QWidgetED0Ev$w$1pOEfhZE8U6llWOH1
0001:00041cd4* __ZN12QCustomEventD1Ev$w$1pOEfhZE8U6llWOH1
0001:00041cac* __ZN12QCustomEventD0Ev$w$1pOEfhZE8U6llWOH1
0001:00041c90* __ZN17QContextMenuEventD1Ev$w$1pOEfhZE8U6llWOH1
0001:00041c68* __ZN17QContextMenuEventD0Ev$w$1pOEfhZE8U6llWOH1
0001:00041c4c  __ZN11QCloseEventD1Ev$w$1pOEfhZE8U6llWOH1
0001:00041c24  __ZN11QCloseEventD0Ev$w$1pOEfhZE8U6llWOH1
0001:00041c08  __ZN11QFocusEventD1Ev$w$1pOEfhZE8U6llWOH1
0001:00041be0  __ZN11QFocusEventD0Ev$w$1pOEfhZE8U6llWOH1
0001:00041bc4* __ZN11QWheelEventD1Ev$w$1pOEfhZE8U6llWOH1
0001:00041b9c* __ZN11QWheelEventD0Ev$w$1pOEfhZE8U6llWOH1
0001:00041b80* __ZN11QMouseEventD1Ev$w$1pOEfhZE8U6llWOH1
0001:00041b58* __ZN11QMouseEventD0Ev$w$1pOEfhZE8U6llWOH1
0001:00041a80* __ZTV6QGList$w$1pOEfhZE8U6llWOH1
0001:00041b4c* __ZNK6QGList5countEv$w$1pOEfhZE8U6llWOH1
0001:00042020  __ZTV8QPtrListI10QPostEventE$w$1pOEfhZE8U6llWOH1
0001:0004204c  __ZN8QPtrListI10QPostEventED1Ev$w$1pOEfhZE8U6llWOH1
0001:00042074  __ZN8QPtrListI10QPostEventED0Ev$w$1pOEfhZE8U6llWOH1
Module: C:\200\trunk\src\tmp\obj\release_mt_shared\qasyncimageio.obj(qasyncimageio.obj)
0001:000420e0  __ZN20QImageDecoderPrivate7cleanupEv
0001:00042148  __ZN13QImageDecoderC2EP14QImageConsumer
0001:000421a8  __ZN13QImageDecoderC1EP14QImageConsumer
0001:00042208  __ZN13QImageDecoderD2Ev
0001:00042248  __ZN13QImageDecoderD1Ev
0001:00042288  __ZN13QImageDecoder6decodeEPKhi
0001:00042840  __ZN16QImageFormatTypeC2Ev
0001:00042434  __ZN13QImageDecoder6formatEPKc
0001:00042500  __ZN13QImageDecoder10formatNameEPKhi
0001:00042660  __ZN13QImageDecoder12inputFormatsEv
0001:0004275c  __ZN13QImageDecoder22registerDecoderFactoryEP16QImageFormatType
0001:000427e4  __ZN13QImageDecoder24unregisterDecoderFactoryEP16QImageFormatType
0001:0004280c  __ZN12QImageFormatD2Ev
0001:0004281c  __ZN12QImageFormatD1Ev
0001:0004282c  __ZN12QImageFormatD0Ev
0001:00042854  __ZN16QImageFormatTypeC1Ev
0001:00042868  __ZN16QImageFormatTypeD2Ev
0001:00042884  __ZN16QImageFormatTypeD1Ev
0001:000428a0  __ZN16QImageFormatTypeD0Ev
0001:000428c8  __Z21qt_builtin_gif_readerv
0001:000428d4  __ZN10QGIFFormatC2Ev
0001:00042940  __ZN10QGIFFormatC1Ev
0001:000429ac  __ZN10QGIFFormatD2Ev
0001:00042a04  __ZN10QGIFFormatD1Ev
0001:00042a5c  __ZN10QGIFFormatD0Ev
0001:00042abc  __ZN14QGIFFormatType10decoderForEPKhi
0001:00042b1c  __ZNK14QGIFFormatType10formatNameEv
0001:00042b30  __ZN10QGIFFormat15disposePreviousER6QImageP14QImageConsumer
0001:00043c70  __ZN10QGIFFormat8fillRectER6QImageiiiij
0001:000441f0  __ZNK10QGIFFormat5colorEh
0001:00042d38  __ZN10QGIFFormat6decodeER6QImageP14QImageConsumerPKhi
0001:00043cc4  __ZN10QGIFFormat5nextYER6QImageP14QImageConsumer
0002:00002db0  __ZN20QImageDecoderPrivate9factoriesE
0002:00002db4  __ZN20QImageDecoderPrivate19gif_decoder_factoryE
0001:000442a0  __ZTV8QPtrListI16QImageFormatTypeE$w$3eqDRkZE8U6if79h1
0001:00044238  __ZTV14QGIFFormatType$w$3eqDRkZE8U6if79h1
0001:000442e0* __ZTV8QStrList$w$3eqDRkZE8U6if79h1
0001:00044280  __ZTV12QImageFormat$w$3eqDRkZE8U6if79h1
0001:00044268  __ZTV16QImageFormatType$w$3eqDRkZE8U6if79h1
0001:00044250  __ZTV10QGIFFormat$w$3eqDRkZE8U6if79h1
0001:000444a8  __ZN14QGIFFormatTypeD1Ev$w$3eqDRkZE8U6if79h1
0001:00044480  __ZN14QGIFFormatTypeD0Ev$w$3eqDRkZE8U6if79h1
0001:00044528  __ZNK8QPtrListI16QImageFormatTypeE5countEv$w$3eqDRkZE8U6if79h1
0001:000444f4  __ZN8QPtrListI16QImageFormatTypeE5clearEv$w$3eqDRkZE8U6if79h1
0001:00044500  __ZN8QPtrListI16QImageFormatTypeED1Ev$w$3eqDRkZE8U6if79h1
0001:000444c4  __ZN8QPtrListI16QImageFormatTypeED0Ev$w$3eqDRkZE8U6if79h1
0001:00044534  __ZN8QPtrListI16QImageFormatTypeE10deleteItemEPv$w$3eqDRkZE8U6if79h1
0001:0004455c* __ZNK8QPtrListIcE5countEv$w$3eqDRkZE8U6if79h1
0001:00044358* __ZN8QPtrListIcE5clearEv$w$3eqDRkZE8U6if79h1
0001:00044364* __ZN8QStrListD1Ev$w$3eqDRkZE8U6if79h1
0001:00044398* __ZN8QStrListD0Ev$w$3eqDRkZE8U6if79h1
0001:000443d4* __ZN8QStrList7newItemEPv$w$3eqDRkZE8U6if79h1
0001:000443f8* __ZN8QStrList10deleteItemEPv$w$3eqDRkZE8U6if79h1
0001:00044418* __ZN8QStrList12compareItemsEPvS0_$w$3eqDRkZE8U6if79h1
0001:0004444c* __ZN8QStrList4readER11QDataStreamRPv$w$3eqDRkZE8U6if79h1
0001:00044468* __ZNK8QStrList5writeER11QDataStreamPv$w$3eqDRkZE8U6if79h1
0001:00044320* __ZTV6QGList$w$3eqDRkZE8U6if79h1
0001:0004434c* __ZNK6QGList5countEv$w$3eqDRkZE8U6if79h1
0001:00044580* __ZTV8QPtrListIcE$w$3eqDRkZE8U6if79h1
0001:000445ac* __ZN8QPtrListIcED1Ev$w$3eqDRkZE8U6if79h1
0001:000445d4* __ZN8QPtrListIcED0Ev$w$3eqDRkZE8U6if79h1
0001:00044604* __ZN8QPtrListIcE10deleteItemEPv$w$3eqDRkZE8U6if79h1
Module: C:\200\trunk\src\tmp\obj\release_mt_shared\qasyncio.obj(qasyncio.obj)
0001:00044640  __ZN8QAsyncIOD2Ev
0001:00044660  __ZN8QAsyncIOD1Ev
0001:00044680  __ZN8QAsyncIOD0Ev
0001:000446a8  __ZN8QAsyncIO7connectEP7QObjectPKc
0001:000446e0  __ZN8QAsyncIO5readyEv
0001:000446f0  __ZN9QDataSink10maybeReadyEv
0001:00044718  __ZN11QDataSource10maybeReadyEv
0001:00044740  __ZNK11QDataSource10rewindableEv
0001:00044780  __ZN11QDataSource12enableRewindEb
0001:000447c0  __ZN11QDataSource6rewindEv
0001:000447d0  __ZN15QIODeviceSourceC2EP9QIODevicei
0001:00044818  __ZN15QIODeviceSourceC1EP9QIODevicei
0001:00044860  __ZN15QIODeviceSourceD2Ev
0001:000448b4  __ZN15QIODeviceSourceD1Ev
0001:00044908  __ZN15QIODeviceSourceD0Ev
0001:00044964  __ZN15QIODeviceSource11readyToSendEv
0001:000449dc  __ZN15QIODeviceSource6sendToEP9QDataSinki
0001:00044a18  __ZNK15QIODeviceSource10rewindableEv
0001:00044a24  __ZN15QIODeviceSource12enableRewindEb
0001:00044a34  __ZN15QIODeviceSource6rewindEv
0001:00044a90  __ZN9QDataPumpC2EP11QDataSourceP9QDataSink
0001:00044b10  __ZN9QDataPumpC1EP11QDataSourceP9QDataSink
0001:00044b90  __ZN9QDataPump9kickStartEv
0001:00044bc4  __ZN9QDataPump9tryToPumpEv
0001:00044ca8  __ZTV8QAsyncIO$w$jk5jgoZE8U6nnfAX2
0001:00044c40  __ZTV15QIODeviceSource$w$jk5jgoZE8U6nnfAX2
0001:00044c80  __ZTV11QDataSource$w$jk5jgoZE8U6nnfAX2
0001:00044d20  __ZN11QDataSourceD1Ev$w$jk5jgoZE8U6nnfAX2
0001:00044cf8  __ZN11QDataSourceD0Ev$w$jk5jgoZE8U6nnfAX2
0001:00044cc0* __ZTV6QGList$w$jk5jgoZE8U6nnfAX2
0001:00044cec* __ZNK6QGList5countEv$w$jk5jgoZE8U6nnfAX2
Module: C:\200\trunk\src\tmp\obj\release_mt_shared\qbitmap.obj(qbitmap.obj)
0001:00044d40  __ZN7QBitmapC2Ev
0001:00044d68  __ZN7QBitmapC1Ev
0001:00044d90  __ZN7QBitmapC2EiibN7QPixmap12OptimizationE
0001:00044de0  __ZN7QBitmapC1EiibN7QPixmap12OptimizationE
0001:00044e30  __ZN7QBitmapC2ERK5QSizebN7QPixmap12OptimizationE
0001:00044e78  __ZN7QBitmapC1ERK5QSizebN7QPixmap12OptimizationE
0001:00044ec0  __ZN7QBitmapC2EiiPKhb
0001:00044ef4  __ZN7QBitmapC1EiiPKhb
0001:00044f28  __ZN7QBitmapC2ERK5QSizePKhb
0001:00044f60  __ZN7QBitmapC1ERK5QSizePKhb
0001:00044f98  __ZN7QBitmapC2ERKS_
0001:00044fbc  __ZN7QBitmapC1ERKS_
0001:00044fe0  __ZN7QBitmapC2ERK7QStringPKc
0001:00045014  __ZN7QBitmapC1ERK7QStringPKc
0001:00045080  __ZN7QBitmapaSERKS_
0001:000450cc  __ZN7QBitmapaSERK7QPixmap
0001:000451c0  __ZN7QBitmapaSERK6QImage
0001:000451dc  __ZNK7QBitmap5xFormERK8QWMatrix
0001:00045240* __ZTV7QBitmap$w$lj8LlqZE8U6apJK04
0001:000452e0* __ZN7QBitmapD1Ev$w$lj8LlqZE8U6apJK04
0001:000452b8* __ZN7QBitmapD0Ev$w$lj8LlqZE8U6apJK04
0001:00045280* __ZTV6QGList$w$lj8LlqZE8U6apJK04
0001:000452ac* __ZNK6QGList5countEv$w$lj8LlqZE8U6apJK04
Module: C:\200\trunk\src\tmp\obj\release_mt_shared\qclipboard.obj(qclipboard.obj)
0001:00045300  __ZN10QClipboardC2EP7QObjectPKc
0001:00045324  __ZN10QClipboardC1EP7QObjectPKc
0001:00045348  __ZNK10QClipboard4textER8QCStringNS_4ModeE
0001:0004538c  __ZNK10QClipboard4textER8QCString
0001:000453c8  __ZNK10QClipboard4textENS_4ModeE
0001:00045408  __ZNK10QClipboard4textEv
0001:0004543c  __ZN10QClipboard7setTextERK7QStringNS_4ModeE
0001:00045490  __ZN10QClipboard7setTextERK7QString
0001:000454c0  __ZNK10QClipboard5imageENS_4ModeE
0001:000454f4  __ZNK10QClipboard5imageEv
0001:00045528  __ZN10QClipboard8setImageERK6QImageNS_4ModeE
0001:00045584  __ZN10QClipboard8setImageERK6QImage
0001:000455b4  __ZNK10QClipboard6pixmapENS_4ModeE
0001:000455e8  __ZNK10QClipboard6pixmapEv
0001:0004561c  __ZN10QClipboard9setPixmapERK7QPixmapNS_4ModeE
0001:00045678  __ZN10QClipboard9setPixmapERK7QPixmap
0001:000456a8  __ZNK10QClipboard4dataEv
0001:000456d0  __ZN10QClipboard7setDataEP11QMimeSource
0001:00045700  __ZN10QClipboard5clearEv
0001:00045740* __ZTV6QGList$w$dRLVBuZE8U6J1lEj1
0001:0004576c* __ZNK6QGList5countEv$w$dRLVBuZE8U6J1lEj1
Module: C:\200\trunk\src\tmp\obj\release_mt_shared\qcolor.obj(qcolor.obj)
0001:00045780  __ZN6QColor12globalColorsEv
0001:0004578c  __ZN6QColor16initGlobalColorsEv
0001:00045998  __ZN6QColor8setPixelEj
0001:00046388  __ZN6QColor6setRgbEiii
0001:00045950  __ZN6QColorC2Ejj
0001:00046404  __ZN6QColor6setRgbEj
0001:00045974  __ZN6QColorC1Ejj
0001:000459cc  __ZN6QColorC2EiiiNS_4SpecE
0001:000461b4  __ZN6QColor6setHsvEiii
0001:00045a1c  __ZN6QColorC1EiiiNS_4SpecE
0001:00045a6c  __ZN6QColorC2ERK7QString
0001:00045cd4  __ZN6QColor13setNamedColorERK7QString
0001:00045a78  __ZN6QColorC1ERK7QString
0001:00045a84  __ZN6QColorC2EPKc
0001:00045ad0  __ZN6QColorC1EPKc
0001:00045b1c  __ZN6QColorC2ERKS_
0001:00045b48  __ZN6QColorC1ERKS_
0001:00045b74  __ZN6QColoraSERKS_
0001:00045ba0  __ZNK6QColor7isDirtyEv
0001:00045bdc  __ZNK6QColor4nameEv
0001:0004601c  __ZNK6QColor3hsvEPiS0_S0_
0001:00046334  __ZNK6QColor3rgbEPiS0_S0_
0001:00046434  __ZNK6QColor5lightEi
0001:000464fc  __ZNK6QColor4darkEi
0001:0004658c  __ZNK6QColor5pixelEv
0001:000465dc  __ZlsR11QDataStreamRK6QColor
0001:00046624  __ZrsR11QDataStreamR6QColor
0002:000005f0  __ZN2Qt6color0E
0002:000005f4  __ZN2Qt6color1E
0002:000005f8  __ZN2Qt5blackE
0002:000005fc  __ZN2Qt5whiteE
0002:00000600  __ZN2Qt8darkGrayE
0002:00000604  __ZN2Qt4grayE
0002:00000608  __ZN2Qt9lightGrayE
0002:0000060c  __ZN2Qt3redE
0002:00000610  __ZN2Qt5greenE
0002:00000614  __ZN2Qt4blueE
0002:00000618  __ZN2Qt4cyanE
0002:0000061c  __ZN2Qt7magentaE
0002:00000620  __ZN2Qt6yellowE
0002:00000624  __ZN2Qt7darkRedE
0002:00000628  __ZN2Qt9darkGreenE
0002:0000062c  __ZN2Qt8darkBlueE
0002:00000630  __ZN2Qt8darkCyanE
0002:00000634  __ZN2Qt11darkMagentaE
0002:00000638  __ZN2Qt10darkYellowE
0002:0000063c  __ZN6QColor10colormodelE
0002:00002dd0  __ZN6QColor10color_initE
0002:00002dd1  __ZN6QColor12globals_initE
0001:00046680* __ZTV6QGList$w$dJrPGwZE8U6UHVhG4
0001:000466e4* __ZNK6QGList5countEv$w$dJrPGwZE8U6UHVhG4
Module: C:\200\trunk\src\tmp\obj\release_mt_shared\qcolor_p.obj(qcolor_p.obj)
0001:0004673c  __Z16qt_get_named_rgbPKcPj
0001:000467c8  __Z14qt_get_rgb_valPKc
0001:000467e0  __ZN6QColor10colorNamesEv
0001:00046898* __ZN17QValueListPrivateI7QStringEC1Ev$w$vAmliyZE8U6XllTa0
0001:000468e4* __ZN17QValueListPrivateI7QStringE6insertE18QValueListIteratorIS0_ERKS0_$w$vAmliyZE8U6XllTa0
0001:00046940* __ZN10QValueListI7QStringE14detachInternalEv$w$vAmliyZE8U6XllTa0
0001:00046970* __ZN17QValueListPrivateI7QStringEC1ERKS1_$w$vAmliyZE8U6XllTa0
0001:00046a20* __ZTV6QGList$w$vAmliyZE8U6XllTa0
0001:00046a4c* __ZNK6QGList5countEv$w$vAmliyZE8U6XllTa0
Module: C:\200\trunk\src\tmp\obj\release_mt_shared\qconnection.obj(qconnection.obj)
0001:000496e4  __ZN11QConnectionC2EPK7QObjectiPKci
0001:00049748  __ZN11QConnectionC1EPK7QObjectiPKci
0001:000497c0* __ZTV6QGList$w$9LBH6BZE8U6hHP723
0001:000497ec* __ZNK6QGList5countEv$w$9LBH6BZE8U6hHP723
Module: C:\200\trunk\src\tmp\obj\release_mt_shared\qcursor.obj(qcursor.obj)
0001:00049800  __ZlsR11QDataStreamRK7QCursor
0001:00049880  __ZrsR11QDataStreamR7QCursor
0001:00049c58  __ZN7QCursorC1ERK7QBitmapS2_ii
0001:00049964  __ZN7QCursorC2ERK7QPixmapii
0001:00049ad8  __ZN7QCursorC1ERK7QPixmapii
0001:00049c4c  __ZN7QCursorC2ERK7QBitmapS2_ii
0001:00049c80* __ZTV7QBitmap$w$32ol1DZE8U6J46CX1
0001:00049d20* __ZN7QBitmapD1Ev$w$32ol1DZE8U6J46CX1
0001:00049cf8* __ZN7QBitmapD0Ev$w$32ol1DZE8U6J46CX1
0001:00049cc0* __ZTV6QGList$w$32ol1DZE8U6J46CX1
0001:00049cec* __ZNK6QGList5countEv$w$32ol1DZE8U6J46CX1
Module: C:\200\trunk\src\tmp\obj\release_mt_shared\qdragobject.obj(qdragobject.obj)
0001:00049d40  __ZN11QDragObject6targetEv
0001:00049d4c  __ZN11QDragObject9setTargetEP7QWidget
0001:00049d70  __ZN12QDragManagerC2Ev
0001:00049e94  __ZN12QDragManagerC1Ev
0001:00049fb8  __ZN12QDragManagerD2Ev
0001:0004a028  __ZN12QDragManagerD1Ev
0001:0004a098  __ZN12QDragManagerD0Ev
0001:0004a110  __ZN11QDragObjectC2EP7QWidgetPKc
0001:0004a1a0  __ZN11QDragObjectC1EP7QWidgetPKc
0001:0004a230  __ZN11QDragObjectD2Ev
0001:0004a34c  __ZN11QDragObjectD1Ev
0001:0004a474  __ZN11QDragObjectD0Ev
0001:0004a5a4  __ZN11QDragObject9setPixmapE7QPixmapRK6QPoint
0001:0004a5f4  __ZN11QDragObject9setPixmapE7QPixmap
0001:0004a63c  __ZNK11QDragObject6pixmapEv
0001:0004a65c  __ZNK11QDragObject13pixmapHotSpotEv
0001:0004a670  __ZN11QDragObject4dragEv
0001:0004a688  __ZN11QDragObject8dragMoveEv
0001:0004a6a0  __ZN11QDragObject8dragCopyEv
0001:0004a6b8  __ZN11QDragObject8dragLinkEv
0001:0004a6d0  __ZN11QDragObject4dragENS_8DragModeE
0001:0004a6f8  __ZN11QDragObject6sourceEv
0001:0004a8a4  __ZN9QTextDrag10setSubtypeERK8QCString
0001:0004a994  __ZN9QTextDragC2ERK7QStringP7QWidgetPKc
0001:0004aea8  __ZN9QTextDrag7setTextERK7QString
0001:0004aa60  __ZN9QTextDragC1ERK7QStringP7QWidgetPKc
0001:0004ab2c  __ZN9QTextDragC2EP7QWidgetPKc
0001:0004abe8  __ZN9QTextDragC1EP7QWidgetPKc
0001:0004aca4  __ZN9QTextDragD2Ev
0001:0004ad44  __ZN9QTextDragD1Ev
0001:0004adf0  __ZN9QTextDragD0Ev
0001:0004aebc  __ZNK9QTextDrag6formatEi
0001:0004aef0  __Z14qt_findcharsetRK8QCString
0001:0004b34c  __ZNK9QTextDrag11encodedDataEPKc
0001:0004b5a4  __ZN9QTextDrag9canDecodeEPK11QMimeSource
0001:0004b5f8  __ZN9QTextDrag6decodeEPK11QMimeSourceR7QStringR8QCString
0001:0004ba6c  __ZN9QTextDrag6decodeEPK11QMimeSourceR7QString
0001:0004baac  __ZN10QImageDragC2E6QImageP7QWidgetPKc
0001:0004bd8c  __ZN10QImageDrag8setImageE6QImage
0001:0004bb28  __ZN10QImageDragC1E6QImageP7QWidgetPKc
0001:0004bba4  __ZN10QImageDragC2EP7QWidgetPKc
0001:0004bbfc  __ZN10QImageDragC1EP7QWidgetPKc
0001:0004bc54  __ZN10QImageDragD2Ev
0001:0004bcb0  __ZN10QImageDragD1Ev
0001:0004bd14  __ZN10QImageDragD0Ev
0001:0004bec0  __ZNK10QImageDrag6formatEi
0001:0004bffc  __ZNK10QImageDrag11encodedDataEPKc
0001:0004c164  __ZN10QImageDrag9canDecodeEPK11QMimeSource
0001:0004c28c  __ZN10QImageDrag6decodeEPK11QMimeSourceR6QImage
0001:0004c5a0  __ZN10QImageDrag6decodeEPK11QMimeSourceR7QPixmap
0001:0004c64c  __ZN11QStoredDragC2EPKcP7QWidgetS1_
0001:0004c6a8  __ZN11QStoredDragC1EPKcP7QWidgetS1_
0001:0004c704  __ZN11QStoredDragD2Ev
0001:0004c76c  __ZN11QStoredDragD1Ev
0001:0004c7dc  __ZN11QStoredDragD0Ev
0001:0004c854  __ZNK11QStoredDrag6formatEi
0001:0004c874  __ZN11QStoredDrag14setEncodedDataERK9QMemArrayIcE
0001:0004c8e8  __ZNK11QStoredDrag11encodedDataEPKc
0001:0004c954  __ZN8QUriDragC2E8QStrListP7QWidgetPKc
0001:0004cb70  __ZN8QUriDrag7setUrisE8QStrList
0001:0004c9f0  __ZN8QUriDragC1E8QStrListP7QWidgetPKc
0001:0004ca8c  __ZN8QUriDragC2EP7QWidgetPKc
0001:0004cabc  __ZN8QUriDragC1EP7QWidgetPKc
0001:0004caec  __ZN8QUriDragD2Ev
0001:0004cb10  __ZN8QUriDragD1Ev
0001:0004cb3c  __ZN8QUriDragD0Ev
0001:0004cc6c  __ZN8QUriDrag9canDecodeEPK11QMimeSource
0001:0004cc88  __ZN8QUriDrag6decodeEPK11QMimeSourceR8QStrList
0001:0004ce44  __ZN8QUriDrag12setFileNamesERK11QStringList
0001:0004d684  __ZN8QUriDrag14localFileToUriERK7QString
0001:0004cf98  __ZN8QUriDrag14setUnicodeUrisERK11QStringList
0001:0004d0d8  __ZN8QUriDrag15unicodeUriToUriERK7QString
0001:0004d938  __ZN8QUriDrag15uriToUnicodeUriEPKc
0001:0004d9f8  __ZN8QUriDrag14uriToLocalFileEPKc
0001:0004de60  __ZN8QUriDrag16decodeLocalFilesEPK11QMimeSourceR11QStringList
0001:0004dfb8  __ZN8QUriDrag19decodeToUnicodeUrisEPK11QMimeSourceR11QStringList
0001:0004e104  __ZNK10QDropEvent6sourceEv
0001:0004e12c  __ZN10QColorDragC2ERK6QColorP7QWidgetPKc
0001:0004e254  __ZN10QColorDrag8setColorERK6QColor
0001:0004e174  __ZN10QColorDragC1ERK6QColorP7QWidgetPKc
0001:0004e1bc  __ZN10QColorDragC2EP7QWidgetPKc
0001:0004e208  __ZN10QColorDragC1EP7QWidgetPKc
0001:0004e2e4  __ZN10QColorDrag9canDecodeEP11QMimeSource
0001:0004e300  __ZN10QColorDrag6decodeEP11QMimeSourceR6QColor
0002:00002e80  _qt_dnd_manager
0001:0004a468  __ZThn40_N11QDragObjectD1Ev$w$jIXk6MZE8U6kaL9W3
0001:0004a598  __ZThn40_N11QDragObjectD0Ev$w$jIXk6MZE8U6kaL9W3
0001:0004e7fc  __ZN16QTextDragPrivate10setSubTypeERK8QCString$w$jIXk6MZE8U6kaL9W3
0001:0004ade4  __ZThn40_N9QTextDragD1Ev$w$jIXk6MZE8U6kaL9W3
0001:0004ae9c  __ZThn40_N9QTextDragD0Ev$w$jIXk6MZE8U6kaL9W3
0001:0004aed8  __ZThn40_NK9QTextDrag6formatEi$w$jIXk6MZE8U6kaL9W3
0001:0004e650* __ZTV9QMemArrayIcE$w$jIXk6MZE8U6kaL9W3
0001:0004b598  __ZThn40_NK9QTextDrag11encodedDataEPKc$w$jIXk6MZE8U6kaL9W3
0001:0004e5a0* __ZTV8QStrList$w$jIXk6MZE8U6kaL9W3
0001:0004e5e0* __ZTV8QPtrListIcE$w$jIXk6MZE8U6kaL9W3
0001:0004bd0c  __ZThn40_N10QImageDragD1Ev$w$jIXk6MZE8U6kaL9W3
0001:0004bd78  __ZThn40_N10QImageDragD0Ev$w$jIXk6MZE8U6kaL9W3
0001:0004bfe8  __ZThn40_NK10QImageDrag6formatEi$w$jIXk6MZE8U6kaL9W3
0001:0004c158  __ZThn40_NK10QImageDrag11encodedDataEPKc$w$jIXk6MZE8U6kaL9W3
0001:0004c7d4  __ZThn40_N11QStoredDragD1Ev$w$jIXk6MZE8U6kaL9W3
0001:0004c84c  __ZThn40_N11QStoredDragD0Ev$w$jIXk6MZE8U6kaL9W3
0001:0004c86c  __ZThn40_NK11QStoredDrag6formatEi$w$jIXk6MZE8U6kaL9W3
0001:0004c93c  __ZThn40_NK11QStoredDrag11encodedDataEPKc$w$jIXk6MZE8U6kaL9W3
0001:0004cb34  __ZThn40_N8QUriDragD1Ev$w$jIXk6MZE8U6kaL9W3
0001:0004cb68  __ZThn40_N8QUriDragD0Ev$w$jIXk6MZE8U6kaL9W3
0001:0004e38c  __ZN10QValueListI7QStringE5clearEv$w$jIXk6MZE8U6kaL9W3
0001:0004e3d0* __ZN17QValueListPrivateI7QStringE6insertE18QValueListIteratorIS0_ERKS0_$w$jIXk6MZE8U6kaL9W3
0001:0004e42c* __ZN10QValueListI7QStringE14detachInternalEv$w$jIXk6MZE8U6kaL9W3
0001:0004e45c* __ZN17QValueListPrivateI7QStringEC1Ev$w$jIXk6MZE8U6kaL9W3
0001:0004e4a8  __ZN17QValueListPrivateI7QStringE5clearEv$w$jIXk6MZE8U6kaL9W3
0001:0004e50c* __ZN17QValueListPrivateI7QStringEC1ERKS1_$w$jIXk6MZE8U6kaL9W3
0001:0004e93c* __ZNK8QPtrListIcE5countEv$w$jIXk6MZE8U6kaL9W3
0001:0004e694* __ZN8QPtrListIcE5clearEv$w$jIXk6MZE8U6kaL9W3
0001:0004e6a0* __ZN8QStrListD1Ev$w$jIXk6MZE8U6kaL9W3
0001:0004e6d4* __ZN8QStrListD0Ev$w$jIXk6MZE8U6kaL9W3
0001:0004e710* __ZN8QStrList7newItemEPv$w$jIXk6MZE8U6kaL9W3
0001:0004e734* __ZN8QStrList10deleteItemEPv$w$jIXk6MZE8U6kaL9W3
0001:0004e754* __ZN8QStrList12compareItemsEPvS0_$w$jIXk6MZE8U6kaL9W3
0001:0004e788* __ZN8QStrList4readER11QDataStreamRPv$w$jIXk6MZE8U6kaL9W3
0001:0004e7a4* __ZNK8QStrList5writeER11QDataStreamPv$w$jIXk6MZE8U6kaL9W3
0001:0004e8e4* __ZN8QPtrListIcED1Ev$w$jIXk6MZE8U6kaL9W3
0001:0004e90c* __ZN8QPtrListIcED0Ev$w$jIXk6MZE8U6kaL9W3
0001:0004ef08* __ZN8QPtrListIcE10deleteItemEPv$w$jIXk6MZE8U6kaL9W3
0001:0004e620* __ZTV6QGList$w$jIXk6MZE8U6kaL9W3
0001:0004e688* __ZNK6QGList5countEv$w$jIXk6MZE8U6kaL9W3
0001:0004e66c* __ZN9QMemArrayIcED1Ev$w$jIXk6MZE8U6kaL9W3
0001:0004e7d4* __ZN9QMemArrayIcED0Ev$w$jIXk6MZE8U6kaL9W3
0001:0004ef28* __ZN9QMemArrayIcE6detachEv$w$jIXk6MZE8U6kaL9W3
Module: C:\200\trunk\src\tmp\obj\release_mt_shared\qdrawutil.obj(qdrawutil.obj)
0001:0004ef64  __Z14qDrawShadeLineP8QPainteriiiiRK11QColorGroupbii
0001:0004f330  __Z14qDrawShadeRectP8QPainteriiiiRK11QColorGroupbiiPK6QBrush
0001:0004f72c  __Z15qDrawShadePanelP8QPainteriiiiRK11QColorGroupbiPK6QBrush
0001:0004fd84  __Z14qDrawWinButtonP8QPainteriiiiRK11QColorGroupbPK6QBrush
0001:0004fdf8  __Z13qDrawWinPanelP8QPainteriiiiRK11QColorGroupbPK6QBrush
0001:0004fe94  __Z14qDrawPlainRectP8QPainteriiiiRK6QColoriPK6QBrush
0001:0004ffec  __Z9qItemRectP8QPainterN2Qt8GUIStyleEiiiiibPK7QPixmapRK7QStringi
0001:00050200  __Z9qDrawItemP8QPainterN2Qt8GUIStyleEiiiiiRK11QColorGroupbPK7QPixmapRK7QStringiPK6QColor
0001:0005062c  __Z14qDrawShadeLineP8QPainterRK6QPointS3_RK11QColorGroupbii
0001:00050660  __Z14qDrawShadeRectP8QPainterRK5QRectRK11QColorGroupbiiPK6QBrush
0001:000506a4  __Z15qDrawShadePanelP8QPainterRK5QRectRK11QColorGroupbiPK6QBrush
0001:000506e4  __Z14qDrawWinButtonP8QPainterRK5QRectRK11QColorGroupbPK6QBrush
0001:00050720  __Z13qDrawWinPanelP8QPainterRK5QRectRK11QColorGroupbPK6QBrush
0001:0005075c  __Z14qDrawPlainRectP8QPainterRK5QRectRK6QColoriPK6QBrush
0001:00051330  __Z10qDrawArrowP8QPainterN2Qt9ArrowTypeENS1_8GUIStyleEbiiiiRK11QColorGroupb
0001:00051400* __ZTV11QPointArray$w$T4O2ORZE8U6V38nj2
0001:00051420* __ZTV9QMemArrayI6QPointE$w$T4O2ORZE8U6V38nj2
0001:00051440* __ZTV7QBitmap$w$T4O2ORZE8U6V38nj2
0001:000514fc* __ZN11QPointArrayD1Ev$w$T4O2ORZE8U6V38nj2
0001:00051518* __ZN11QPointArrayD0Ev$w$T4O2ORZE8U6V38nj2
0001:00051584* __ZN9QMemArrayI6QPointE6detachEv$w$T4O2ORZE8U6V38nj2
0001:00051540* __ZN9QMemArrayI6QPointED1Ev$w$T4O2ORZE8U6V38nj2
0001:0005155c* __ZN9QMemArrayI6QPointED0Ev$w$T4O2ORZE8U6V38nj2
0001:000514e0* __ZN7QBitmapD1Ev$w$T4O2ORZE8U6V38nj2
0001:000514b8* __ZN7QBitmapD0Ev$w$T4O2ORZE8U6V38nj2
0001:00051480* __ZTV6QGList$w$T4O2ORZE8U6V38nj2
0001:000514ac* __ZNK6QGList5countEv$w$T4O2ORZE8U6V38nj2
Module: C:\200\trunk\src\tmp\obj\release_mt_shared\qdropsite.obj(qdropsite.obj)
0001:000515a0  __ZN9QDropSiteC2EP7QWidget
0001:000515c4  __ZN9QDropSiteC1EP7QWidget
0001:000515e8  __ZN9QDropSiteD2Ev
0001:000515f8  __ZN9QDropSiteD1Ev
0001:00051608  __ZN9QDropSiteD0Ev
0001:00051620  __ZTV9QDropSite$w$VnRP8VZE8U67phMd2
0001:00051640* __ZTV6QGList$w$VnRP8VZE8U67phMd2
0001:0005166c* __ZNK6QGList5countEv$w$VnRP8VZE8U67phMd2
Module: C:\200\trunk\src\tmp\obj\release_mt_shared\qevent.obj(qevent.obj)
0001:00051680  __ZN11QMouseEventC2EN6QEvent4TypeERK6QPointii
0001:000516d8  __ZN11QMouseEventC1EN6QEvent4TypeERK6QPointii
0001:00051730  __ZNK11QMouseEvent10stateAfterEv
0001:00051744  __ZN11QWheelEventC2ERK6QPointiiN2Qt11OrientationE
0001:000517a0  __ZN11QWheelEventC1ERK6QPointiiN2Qt11OrientationE
0001:000517fc  __ZNK9QKeyEvent10stateAfterEv
0001:00051860  __ZN11QFocusEvent6reasonEv
0001:0005186c  __ZN11QFocusEvent9setReasonENS_6ReasonE
0001:00051884  __ZN11QFocusEvent11resetReasonEv
0001:00051894  __ZN17QContextMenuEventC2ENS_6ReasonERK6QPointi
0001:000518f0  __ZN17QContextMenuEventC1ENS_6ReasonERK6QPointi
0001:0005194c  __ZN12QTabletEventC2EN6QEvent4TypeERK6QPointS4_iiiiRK5QPairIiiE
0001:000519b0  __ZN12QTabletEventC1EN6QEvent4TypeERK6QPointS4_iiiiRK5QPairIiiE
0001:00051a14  __ZN12QCustomEventC2Ei
0001:00051a34  __ZN12QCustomEventC1Ei
0001:00051a54  __ZN6QEventD2Ev
0001:00051a88  __ZN6QEventD1Ev
0001:00051abc  __ZN6QEventD0Ev
0002:00000640  __ZN11QFocusEvent8m_reasonE
0002:00000644  __ZN11QFocusEvent11prev_reasonE
0001:00051b50* __ZTV11QMouseEvent$w$HQ9WvZZE8U6fRngc1
0001:00051b40* __ZTV11QWheelEvent$w$HQ9WvZZE8U6fRngc1
0001:00051b20* __ZTV17QContextMenuEvent$w$HQ9WvZZE8U6fRngc1
0001:00051b30  __ZTV12QTabletEvent$w$HQ9WvZZE8U6fRngc1
0001:00051b10* __ZTV12QCustomEvent$w$HQ9WvZZE8U6fRngc1
0001:00051b00  __ZTV6QEvent$w$HQ9WvZZE8U6fRngc1
0001:00051ca8* __ZN12QCustomEventD1Ev$w$HQ9WvZZE8U6fRngc1
0001:00051cc4* __ZN12QCustomEventD0Ev$w$HQ9WvZZE8U6fRngc1
0001:00051c64* __ZN17QContextMenuEventD1Ev$w$HQ9WvZZE8U6fRngc1
0001:00051c80* __ZN17QContextMenuEventD0Ev$w$HQ9WvZZE8U6fRngc1
0001:00051c20  __ZN12QTabletEventD1Ev$w$HQ9WvZZE8U6fRngc1
0001:00051c3c  __ZN12QTabletEventD0Ev$w$HQ9WvZZE8U6fRngc1
0001:00051bdc* __ZN11QWheelEventD1Ev$w$HQ9WvZZE8U6fRngc1
0001:00051bf8* __ZN11QWheelEventD0Ev$w$HQ9WvZZE8U6fRngc1
0001:00051b98* __ZN11QMouseEventD1Ev$w$HQ9WvZZE8U6fRngc1
0001:00051bb4* __ZN11QMouseEventD0Ev$w$HQ9WvZZE8U6fRngc1
0001:00051b60* __ZTV6QGList$w$HQ9WvZZE8U6fRngc1
0001:00051b8c* __ZNK6QGList5countEv$w$HQ9WvZZE8U6fRngc1
Module: C:\200\trunk\src\tmp\obj\release_mt_shared\qeventloop.obj(qeventloop.obj)
0001:00051d5c  __ZN10QEventLoopC2EP7QObjectPKc
0001:00051e18  __ZN10QEventLoopC1EP7QObjectPKc
0001:00051ed8  __ZN10QEventLoopD2Ev
0001:00051f70  __ZN10QEventLoopD1Ev
0001:00052008  __ZN10QEventLoopD0Ev
0001:000520a8  __ZN10QEventLoop4execEv
0001:000520f4  __ZN10QEventLoop4exitEi
0001:0005212c  __ZN10QEventLoop9enterLoopEv
0001:00052208  __ZN10QEventLoop8exitLoopEv
0001:00052220  __ZNK10QEventLoop9loopLevelEv
0001:00052230  __ZN10QEventLoop13processEventsEji
0001:000522a0* __ZTV8QPtrListI8QSockNotE$w$va30L30F8U6xtZIq1
0001:0005237c* __ZNK8QPtrListI8QSockNotE5countEv$w$va30L30F8U6xtZIq1
0001:00052340* __ZN8QPtrListI8QSockNotE5clearEv$w$va30L30F8U6xtZIq1
0001:00052318* __ZN8QPtrListI8QSockNotED1Ev$w$va30L30F8U6xtZIq1
0001:0005234c* __ZN8QPtrListI8QSockNotED0Ev$w$va30L30F8U6xtZIq1
0001:00052388* __ZN8QPtrListI8QSockNotE10deleteItemEPv$w$va30L30F8U6xtZIq1
0001:000522e0* __ZTV6QGList$w$va30L30F8U6xtZIq1
0001:0005230c* __ZNK6QGList5countEv$w$va30L30F8U6xtZIq1
Module: C:\200\trunk\src\tmp\obj\release_mt_shared\qfocusdata.obj(qfocusdata.obj)
0001:000523c0  __ZN10QFocusData4homeEv
0001:000523f0  __ZN10QFocusData4nextEv
0001:0005241c  __ZN10QFocusData4prevEv
0001:00052448  __ZNK10QFocusData4lastEv
0001:0005245c  __ZNK10QFocusData5firstEv
0001:00052480* __ZTV6QGList$w$3yQfn70F8U6ftlyA1
0001:000524ac* __ZNK6QGList5countEv$w$3yQfn70F8U6ftlyA1
Module: C:\200\trunk\src\tmp\obj\release_mt_shared\qfont.obj(qfont.obj)
0001:000524c8  __ZNK8QFontDefeqERKS_
0001:0005280c  __ZN12QFontPrivateC2Ev
0001:00052894  __ZN12QFontPrivateC1Ev
0001:0005291c  __ZN12QFontPrivateC2ERKS_
0001:00052a48  __ZN12QFontPrivateC1ERKS_
0001:00052b74  __ZN12QFontPrivateD2Ev
0001:00052bb4  __ZN12QFontPrivateD1Ev
0001:00052c28  __ZN12QFontPrivate7resolveEPKS_
0001:00052d84  __ZN15QFontEngineDataC2Ev
0001:00052db4  __ZN15QFontEngineDataC1Ev
0001:00052de4  __ZN15QFontEngineDataD2Ev
0001:00052e00  __ZN15QFontEngineDataD1Ev
0001:00052e1c  __ZN5QFontC2EP12QFontPrivateP12QPaintDevice
0001:00052e70  __ZN5QFontC1EP12QFontPrivateP12QPaintDevice
0001:00052ec4  __ZN5QFont6detachEv
0001:000531b0  __ZN5QFontD1Ev
0001:00052f58  __ZN5QFontC2Ev
0001:00052f84  __ZN5QFontC1Ev
0001:00052fb0  __ZN5QFontC2ERK7QStringiib
0001:00053080  __ZN5QFontC1ERK7QStringiib
0001:00053150  __ZN5QFontC2ERKS_
0001:00053164  __ZN5QFontC1ERKS_
0001:00053178  __ZN5QFontD2Ev
0001:000531e8  __ZN5QFontaSERKS_
0001:00053230  __ZNK5QFont6familyEv
0001:00053254  __ZN5QFont9setFamilyERK7QString
0001:00053284  __ZNK5QFont13deciPointSizeEv
0001:00053294  __ZNK5QFont9pointSizeEv
0001:000532f8  __ZN5QFont12setPointSizeEi
0001:00053378  __ZN5QFont17setPointSizeFloatEf
0001:00053454  __ZNK5QFont14pointSizeFloatEv
0001:000534b0  __ZN5QFont12setPixelSizeEi
0001:000534f8  __ZNK5QFont9pixelSizeEv
0001:00053508  __ZN5QFont17setPixelSizeFloatEf
0001:00053530  __ZNK5QFont6italicEv
0001:00053544  __ZN5QFont9setItalicEb
0001:00053578  __ZNK5QFont6weightEv
0001:000535b8  __ZN5QFont9setWeightEi
0001:00053608  __ZNK5QFont9underlineEv
0001:0005361c  __ZN5QFont12setUnderlineEb
0001:00053654  __ZNK5QFont8overlineEv
0001:00053668  __ZN5QFont11setOverlineEb
0001:000536a4  __ZNK5QFont9strikeOutEv
0001:000536b8  __ZN5QFont12setStrikeOutEb
0001:000536f4  __ZNK5QFont10fixedPitchEv
0001:00053708  __ZN5QFont13setFixedPitchEb
0001:00053748  __ZNK5QFont13styleStrategyEv
0001:00053758  __ZNK5QFont9styleHintEv
0001:00053768  __ZN5QFont12setStyleHintENS_9StyleHintENS_13StyleStrategyE
0001:000537b4  __ZN5QFont16setStyleStrategyENS_13StyleStrategyE
0001:000537ec  __ZNK5QFont7stretchEv
0001:00053838  __ZN5QFont10setStretchEi
0001:000538b0  __ZN5QFont10setRawModeEb
0001:00053900  __ZNK5QFont10exactMatchEv
0001:00053990  __ZNK5QFonteqERKS_
0001:000539e8  __ZNK5QFontneERKS_
0001:00053a04  __ZNK5QFont8isCopyOfERKS_
0001:00053a1c  __ZNK5QFont7rawModeEv
0001:00053a30  __ZNK5QFont7resolveERKS_
0001:00053ae4  __ZN5QFont11defaultFontEv
0001:00053b00  __ZN5QFont14setDefaultFontERKS_
0001:00053d14  __ZN5QFont18insertSubstitutionERK7QStringS2_
0001:00053c40  __ZN5QFont10substituteERK7QString
0001:00053cbc  __ZN5QFont11substitutesERK7QString
0001:00053de8  __ZN5QFont19insertSubstitutionsERK7QStringRK11QStringList
0001:00053efc  __ZN5QFont18removeSubstitutionERK7QString
0001:00053f20  __ZN5QFont13substitutionsEv
0001:0005414c  __ZNK5QFont3keyEv
0001:00054168  __ZNK5QFont8toStringEv
0001:00054930  __ZN5QFont10fromStringERK7QString
0001:00054f58  __ZN5QFont15cacheStatisticsEv
0001:00054f60  __ZlsR11QDataStreamRK5QFont
0001:000564d8  __ZN9QFontInfoC1ERK5QFont
0001:0005674c  __ZNK9QFontInfo9pointSizeEv
0001:00056650  __ZN9QFontInfoD1Ev
0001:000550b8  __ZrsR11QDataStreamR5QFont
0001:00055278  __ZN12QFontMetricsC2ERK5QFont
0001:00055298  __ZN12QFontMetricsC1ERK5QFont
0001:000552b8  __ZN12QFontMetricsC2ERK5QFontNS0_6ScriptE
0001:000552d8  __ZN12QFontMetricsC1ERK5QFontNS0_6ScriptE
0001:000552f8  __ZN12QFontMetricsC2EPK8QPainter
0001:00055340  __ZN12QFontMetricsC1EPK8QPainter
0001:00055388  __ZN12QFontMetricsC2ERKS_
0001:000553a8  __ZN12QFontMetricsC1ERKS_
0001:000553c8  __ZN12QFontMetricsD2Ev
0001:000553f8  __ZN12QFontMetricsD1Ev
0001:00055428  __ZN12QFontMetricsaSERKS_
0001:00055488  __ZNK12QFontMetrics6ascentEv
0001:0005556c  __ZNK12QFontMetrics7descentEv
0001:00055650  __ZNK12QFontMetrics6heightEv
0001:00055778  __ZNK12QFontMetrics7leadingEv
0001:0005585c  __ZNK12QFontMetrics11lineSpacingEv
0001:000559b8  __ZNK12QFontMetrics14minLeftBearingEv
0001:00055a9c  __ZNK12QFontMetrics15minRightBearingEv
0001:00055b8c  __ZNK12QFontMetrics8maxWidthEv
0001:00055c70  __ZNK12QFontMetrics6inFontE5QChar
0001:00055d0c  __ZNK12QFontMetrics11leftBearingE5QChar
0001:00055dd8  __ZNK12QFontMetrics12rightBearingE5QChar
0001:00055ea8  __ZNK12QFontMetrics5widthERK7QStringi
0001:000560c0  __ZNK12QFontMetrics12boundingRectERK7QStringi
0001:00056178  __ZNK12QFontMetrics12boundingRectE5QChar
0001:00056250  __ZNK12QFontMetrics12boundingRectEiiiiiRK7QStringiiPiPP10QTextParag
0001:00056334  __ZNK12QFontMetrics4sizeEiRK7QStringiiPiPP10QTextParag
0001:00056380  __ZNK12QFontMetrics12underlinePosEv
0001:000563ec  __ZNK12QFontMetrics11overlinePosEv
0001:00056410  __ZNK12QFontMetrics12strikeOutPosEv
0001:0005644c  __ZNK12QFontMetrics9lineWidthEv
0001:000564b8  __ZN9QFontInfoC2ERK5QFont
0001:000564f8  __ZN9QFontInfoC2ERK5QFontNS0_6ScriptE
0001:00056518  __ZN9QFontInfoC1ERK5QFontNS0_6ScriptE
0001:00056538  __ZN9QFontInfoC2EPK8QPainter
0001:0005658c  __ZN9QFontInfoC1EPK8QPainter
0001:000565e0  __ZN9QFontInfoC2ERKS_
0001:00056600  __ZN9QFontInfoC1ERKS_
0001:00056620  __ZN9QFontInfoD2Ev
0001:00056680  __ZN9QFontInfoaSERKS_
0001:000566d4  __ZNK9QFontInfo6familyEv
0001:000567c8  __ZNK9QFontInfo9pixelSizeEv
0001:00056830  __ZNK9QFontInfo6italicEv
0001:0005689c  __ZNK9QFontInfo6weightEv
0001:00056908  __ZNK9QFontInfo9underlineEv
0001:0005691c  __ZNK9QFontInfo8overlineEv
0001:00056930  __ZNK9QFontInfo9strikeOutEv
0001:00056944  __ZNK9QFontInfo10fixedPitchEv
0001:000569b0  __ZNK9QFontInfo9styleHintEv
0001:00056a18  __ZNK9QFontInfo7rawModeEv
0001:00056a2c  __ZNK9QFontInfo10exactMatchEv
0001:00056ad0  __ZN10QFontCache8min_costE
0001:00056b18  __ZN10QFontCacheC2Ev
0001:00056bd4  __ZN10QFontCacheC1Ev
0001:00056c90  __ZN10QFontCacheD2Ev
0001:00056eb4  __ZN10QFontCacheD1Ev
0001:000570d8  __ZN10QFontCacheD0Ev
0001:00057304  __ZNK10QFontCache14findEngineDataERKNS_3KeyE
0001:0005733c  __ZN10QFontCache16insertEngineDataERKNS_3KeyEP15QFontEngineData
0001:00057460  __ZN10QFontCache12increaseCostEj
0001:00057374  __ZN10QFontCache10findEngineERKNS_3KeyE
0001:000573fc  __ZN10QFontCache12insertEngineERKNS_3KeyEP11QFontEngine
0001:000574d4  __ZN10QFontCache12decreaseCostEj
0001:00057528  __ZN10QFontCache19cleanupPrinterFontsEv
0001:00057814  __ZN10QFontCache10timerEventEP11QTimerEvent
0002:00002ee0  __ZN10QFontCache8instanceE
0001:00059520  __ZTV5QDictI11QStringListE$w$7a5eli0F8U6YzQag4
0001:00057ed8* __ZNK17QValueListPrivateI7QStringE2atEj$w$7a5eli0F8U6YzQag4
0001:00057f20* __ZN10QValueListI7QStringE14detachInternalEv$w$7a5eli0F8U6YzQag4
0001:00057fe4* __ZN17QValueListPrivateI7QStringEC1Ev$w$7a5eli0F8U6YzQag4
0001:00057f50* __ZN10QValueListI7QStringEpLERKS1_$w$7a5eli0F8U6YzQag4
0001:000580c0* __ZNK17QValueListPrivateI7QStringE8containsERKS0_$w$7a5eli0F8U6YzQag4
0001:00058114* __ZN17QValueListPrivateI7QStringE6insertE18QValueListIteratorIS0_ERKS0_$w$7a5eli0F8U6YzQag4
0001:00058030* __ZN17QValueListPrivateI7QStringED1Ev$w$7a5eli0F8U6YzQag4
0001:000595fc* __Z13scriptForChart$w$7a5eli0F8U6YzQag4
0001:000594c0  __ZTV10QFontCache$w$7a5eli0F8U6YzQag4
0001:00058170  __ZN11QMapPrivateIN10QFontCache3KeyEP15QFontEngineDataEC1Ev$w$7a5eli0F8U6YzQag4
0001:0005824c  __ZN11QMapPrivateIN10QFontCache3KeyENS0_6EngineEEC1Ev$w$7a5eli0F8U6YzQag4
0001:00058370  __ZN12QMapIteratorIN10QFontCache3KeyEP15QFontEngineDataE3incEv$w$7a5eli0F8U6YzQag4
0001:000583ec  __ZN12QMapIteratorIN10QFontCache3KeyENS0_6EngineEE3incEv$w$7a5eli0F8U6YzQag4
0001:00058304  __ZN11QMapPrivateIN10QFontCache3KeyENS0_6EngineEE5clearEv$w$7a5eli0F8U6YzQag4
0001:00058210  __ZN11QMapPrivateIN10QFontCache3KeyEP15QFontEngineDataE5clearEv$w$7a5eli0F8U6YzQag4
0001:000583bc  __ZN4QMapIN10QFontCache3KeyENS0_6EngineEE14detachInternalEv$w$7a5eli0F8U6YzQag4
0001:00058340  __ZN4QMapIN10QFontCache3KeyEP15QFontEngineDataE14detachInternalEv$w$7a5eli0F8U6YzQag4
0001:00058438  __ZNK11QMapPrivateIN10QFontCache3KeyEP15QFontEngineDataE4findERKS1_$w$7a5eli0F8U6YzQag4
0001:000584f0  __ZN4QMapIN10QFontCache3KeyEP15QFontEngineDataE6insertERKS1_RKS3_b$w$7a5eli0F8U6YzQag4
0001:00058554  __ZNK11QMapPrivateIN10QFontCache3KeyENS0_6EngineEE4findERKS1_$w$7a5eli0F8U6YzQag4
0001:0005860c  __ZN4QMapIN10QFontCache3KeyENS0_6EngineEE6insertERKS1_RKS2_b$w$7a5eli0F8U6YzQag4
0001:00058684  __ZN17QMapConstIteratorIN10QFontCache3KeyEP15QFontEngineDataE3incEv$w$7a5eli0F8U6YzQag4
0001:000586d0  __ZN17QMapConstIteratorIN10QFontCache3KeyENS0_6EngineEE3incEv$w$7a5eli0F8U6YzQag4
0001:0005871c* __ZN17QValueListPrivateI7QStringEC1ERKS1_$w$7a5eli0F8U6YzQag4
0001:000587b0  __ZN11QMapPrivateIN10QFontCache3KeyEP15QFontEngineDataE5clearEP8QMapNodeIS1_S3_E$w$7a5eli0F8U6YzQag4
0001:00058814  __ZN11QMapPrivateIN10QFontCache3KeyENS0_6EngineEE5clearEP8QMapNodeIS1_S2_E$w$7a5eli0F8U6YzQag4
0001:00058878  __ZN11QMapPrivateIN10QFontCache3KeyEP15QFontEngineDataEC1EPKS4_$w$7a5eli0F8U6YzQag4
0001:00058978  __ZN11QMapPrivateIN10QFontCache3KeyENS0_6EngineEEC1EPKS3_$w$7a5eli0F8U6YzQag4
0001:00059660  __ZNK8QFontDefltERKS_$w$7a5eli0F8U6YzQag4
0001:00058a90  __ZN11QMapPrivateIN10QFontCache3KeyEP15QFontEngineDataE12insertSingleERKS1_$w$7a5eli0F8U6YzQag4
0001:00058b84  __ZN11QMapPrivateIN10QFontCache3KeyENS0_6EngineEE12insertSingleERKS1_$w$7a5eli0F8U6YzQag4
0001:00058c78  __ZN11QMapPrivateIN10QFontCache3KeyEP15QFontEngineDataE4copyEP8QMapNodeIS1_S3_E$w$7a5eli0F8U6YzQag4
0001:00058e2c  __ZN11QMapPrivateIN10QFontCache3KeyENS0_6EngineEE4copyEP8QMapNodeIS1_S2_E$w$7a5eli0F8U6YzQag4
0001:00059004  __ZN11QMapPrivateIN10QFontCache3KeyEP15QFontEngineDataE6insertEP12QMapNodeBaseS6_RKS1_$w$7a5eli0F8U6YzQag4
0001:000591f0  __ZN12QMapIteratorIN10QFontCache3KeyEP15QFontEngineDataE3decEv$w$7a5eli0F8U6YzQag4
0001:00059248  __ZN11QMapPrivateIN10QFontCache3KeyENS0_6EngineEE6insertEP12QMapNodeBaseS5_RKS1_$w$7a5eli0F8U6YzQag4
0001:0005944c  __ZN12QMapIteratorIN10QFontCache3KeyENS0_6EngineEE3decEv$w$7a5eli0F8U6YzQag4
0001:000595f0  __ZNK7QObject10metaObjectEv$w$7a5eli0F8U6YzQag4
0001:00059758  __ZNK5QDictI11QStringListE5countEv$w$7a5eli0F8U6YzQag4
0001:00059764  __ZN5QDictI11QStringListE5clearEv$w$7a5eli0F8U6YzQag4
0001:00059770  __ZN5QDictI11QStringListED1Ev$w$7a5eli0F8U6YzQag4
0001:00059798  __ZN5QDictI11QStringListED0Ev$w$7a5eli0F8U6YzQag4
0001:000597c8  __ZN5QDictI11QStringListE10deleteItemEPv$w$7a5eli0F8U6YzQag4
0001:00059560* __ZTV6QGList$w$7a5eli0F8U6YzQag4
0001:000595e4* __ZNK6QGList5countEv$w$7a5eli0F8U6YzQag4
Module: C:\200\trunk\src\tmp\obj\release_mt_shared\qfontdatabase.obj(qfontdatabase.obj)
0001:00059c90  __ZN11QtFontStyle3KeyC2ERK7QString
0001:00059d10  __ZN11QtFontStyle3KeyC1ERK7QString
0001:00059d90  __ZN11QtFontStyle9pixelSizeEtbt
0001:00059e7c  __ZN13QtFontFoundry5styleERKN11QtFontStyle3KeyEb
0001:0005a0b0  __ZN12QtFontFamily7foundryERK7QStringb
0001:0005a1c0  __ZN20QFontDatabasePrivate6familyERK7QStringb
0001:0005a324  __ZN20QFontDatabasePrivate8instanceEv
0001:0005a370  __ZN20QFontDatabasePrivate6reloadEv
0001:0005a990  __Z10loadEngineN5QFont6ScriptEPK12QFontPrivateRK8QFontDefP12QtFontFamilyP13QtFontFoundryP11QtFontStyleP10QtFontSize
0001:0005afb4  __ZN13QFontDatabase8findFontEN5QFont6ScriptEPK12QFontPrivateRK8QFontDefi
0001:0005e730  __ZN13QFontDatabase13parseFontNameERK7QStringRS0_S3_
0001:0005b95c  __ZN13QFontDatabase11styleStringERK5QFont
0001:0005b994  __ZN13QFontDatabaseC2Ev
0001:0005b9a8  __ZN13QFontDatabaseC1Ev
0001:0005b9bc  __ZNK13QFontDatabase8familiesEv
0001:0005bb9c  __ZNK13QFontDatabase8familiesEN5QFont6ScriptE
0001:0005bd84  __ZNK13QFontDatabase6stylesERK7QString
0001:0005c094  __ZNK13QFontDatabase12isFixedPitchERK7QStringS2_
0001:0005c160  __ZNK13QFontDatabase16isBitmapScalableERK7QStringS2_
0001:0005c374  __ZNK13QFontDatabase18isSmoothlyScalableERK7QStringS2_
0001:0005c574  __ZNK13QFontDatabase10isScalableERK7QStringS2_
0001:0005c5b4  __ZN13QFontDatabase10pointSizesERK7QStringS2_
0001:0005ce08  __ZN13QFontDatabase13standardSizesEv
0001:0005c858  __ZN13QFontDatabase4fontERK7QStringS2_i
0001:0005cb38  __ZN13QFontDatabase11smoothSizesERK7QStringS2_
0001:0005cea0  __ZNK13QFontDatabase6italicERK7QStringS2_
0001:0005d154  __ZNK13QFontDatabase4boldERK7QStringS2_
0001:0005d410  __ZNK13QFontDatabase6weightERK7QStringS2_
0001:0005d948  __ZN13QFontDatabase10scriptNameEN5QFont6ScriptE
0001:0005dcc4  __ZN13QFontDatabase12scriptSampleEN5QFont6ScriptE
0001:0005e910* __ZN17QValueListPrivateI7QStringEC1Ev$w$n4kr0r0F8U6vGepb3
0001:0005e95c* __ZN17QValueListPrivateI7QStringE6insertE18QValueListIteratorIS0_ERKS0_$w$n4kr0r0F8U6vGepb3
0001:0005e9b8* __ZN10QValueListI7QStringE14detachInternalEv$w$n4kr0r0F8U6vGepb3
0001:0005eab8  __ZN17QValueListPrivateIiEC1Ev$w$n4kr0r0F8U6vGepb3
0001:0005eb24  __ZNK17QValueListPrivateIiE8containsERKi$w$n4kr0r0F8U6vGepb3
0001:0005eb68  __ZN17QValueListPrivateIiE6insertE18QValueListIteratorIiERKi$w$n4kr0r0F8U6vGepb3
0001:0005eae8  __ZN17QValueListPrivateIiED1Ev$w$n4kr0r0F8U6vGepb3
0001:0005e9e8  __Z9qHeapSortI10QValueListIiEEvRT_$w$n4kr0r0F8U6vGepb3
0001:0005ebb8  __ZN10QValueListIiE14detachInternalEv$w$n4kr0r0F8U6vGepb3
0001:0005ebe8* __ZN17QValueListPrivateI7QStringEC1ERKS1_$w$n4kr0r0F8U6vGepb3
0001:0005ec7c  __Z15qHeapSortHelperI18QValueListIteratorIiEiEvT_S2_T0_j$w$n4kr0r0F8U6vGepb3
0001:0005ed98  __ZN17QValueListPrivateIiEC1ERKS0_$w$n4kr0r0F8U6vGepb3
0001:0005ee14  __Z17qHeapSortPushDownIiEvPT_ii$w$n4kr0r0F8U6vGepb3
0001:0005eee0* __ZTV6QGList$w$n4kr0r0F8U6vGepb3
0001:0005f0b8* __ZNK6QGList5countEv$w$n4kr0r0F8U6vGepb3
Module: C:\200\trunk\src\tmp\obj\release_mt_shared\qguardedptr.obj(qguardedptr.obj)
0001:0005f12c  __ZN18QGuardedPtrPrivateC2EP7QObject
0001:0005f17c  __ZN18QGuardedPtrPrivateC1EP7QObject
0001:0005f1cc  __ZN18QGuardedPtrPrivateD2Ev
0001:0005f1e8  __ZN18QGuardedPtrPrivateD1Ev
0001:0005f204  __ZN18QGuardedPtrPrivateD0Ev
0001:0005f22c  __ZN18QGuardedPtrPrivate9reconnectEP7QObject
0001:0005f280  __ZN18QGuardedPtrPrivate15objectDestroyedEv
0001:0005f2a0* __ZTV6QGList$w$1L7Z5u0F8U635Cos1
0001:0005f2cc* __ZNK6QGList5countEv$w$1L7Z5u0F8U635Cos1
Module: C:\200\trunk\src\tmp\obj\release_mt_shared\qiconset.obj(qiconset.obj)
0001:0005f2e0  __ZN12QIconSetIconaSERKS_
0001:0005f3c8  __ZN15QIconSetPrivate4iconEPK8QIconSetNS0_4SizeENS0_4ModeENS0_5StateE
0001:0005f4f0  __ZN8QIconSetC2Ev
0001:0005f508  __ZN8QIconSetC1Ev
0001:0005f520  __ZN8QIconSetC2ERK7QPixmapNS_4SizeE
0001:0005f8f4  __ZN8QIconSet5resetERK7QPixmapNS_4SizeE
0001:0005f53c  __ZN8QIconSetC1ERK7QPixmapNS_4SizeE
0001:0005f558  __ZN8QIconSetC2ERK7QPixmapS2_
0001:0005f598  __ZN8QIconSetC1ERK7QPixmapS2_
0001:0005f5d8  __ZN8QIconSetC2ERKS_
0001:0005f5f8  __ZN8QIconSetC1ERKS_
0001:0005f618  __ZN8QIconSetD2Ev
0001:0005f708  __ZN8QIconSetD1Ev
0001:0005f7f8  __ZN8QIconSetD0Ev
0001:00060070  __ZN8QIconSet6detachEv
0001:00060254  __ZN8QIconSet9normalizeERNS_4SizeERK5QSize
0001:0005f9ac  __ZN8QIconSet9setPixmapERK7QPixmapNS_4SizeENS_4ModeENS_5StateE
0001:0005ff64  __ZN8QIconSet14clearGeneratedEv
0001:0005fa9c  __ZN8QIconSet9setPixmapERK7QStringNS_4SizeENS_4ModeENS_5StateE
0001:0005fbf8  __ZNK8QIconSet6pixmapENS_4SizeENS_4ModeENS_5StateE
0001:0006028c  __ZNK8QIconSet12createScaledENS_4SizeEPK7QPixmap
0001:00060420  __ZNK8QIconSet14createDisabledENS_4SizeENS_5StateE
0001:0005fec8  __ZNK8QIconSet6pixmapENS_4SizeEbNS_5StateE
0001:0005fef4  __ZNK8QIconSet6pixmapEv
0001:0005ff28  __ZNK8QIconSet11isGeneratedENS_4SizeENS_4ModeENS_5StateE
0001:00060004  __ZN8QIconSet18installIconFactoryEP12QIconFactory
0001:0006005c  __ZNK8QIconSet6isNullEv
0001:000600cc  __ZN8QIconSetaSERKS_
0001:000601d8  __ZN8QIconSet11setIconSizeENS_4SizeERK5QSize
0001:000601f8  __ZN8QIconSet8iconSizeENS_4SizeE
0001:000606d0  __ZN12QIconFactoryC2Ev
0001:000606ec  __ZN12QIconFactoryC1Ev
0001:00060708  __ZN12QIconFactoryD2Ev
0001:00060718  __ZN12QIconFactoryD1Ev
0001:00060728  __ZN12QIconFactoryD0Ev
0001:0006073c  __ZN12QIconFactory12createPixmapERK8QIconSetNS0_4SizeENS0_4ModeENS0_5StateE
0001:00060744  __ZN12QIconFactory14defaultFactoryEv
0001:00060790  __ZN12QIconFactory21installDefaultFactoryEPS_
0001:00060800  __ZTV8QIconSet$w$ZrkYlz0F8U62xbvC3
0001:000609b0  __ZN15QIconSetPrivateC1ERKS_$w$ZrkYlz0F8U62xbvC3
0001:00060934  __ZN15QIconSetPrivateC1Ev$w$ZrkYlz0F8U62xbvC3
0001:00060820* __ZTV7QBitmap$w$ZrkYlz0F8U62xbvC3
0001:000607e8  __ZTV12QIconFactory$w$ZrkYlz0F8U62xbvC3
0001:00060918* __ZN7QBitmapD1Ev$w$ZrkYlz0F8U62xbvC3
0001:000608f0* __ZN7QBitmapD0Ev$w$ZrkYlz0F8U62xbvC3
0001:00060860* __ZTV6QGList$w$ZrkYlz0F8U62xbvC3
0001:000608e4* __ZNK6QGList5countEv$w$ZrkYlz0F8U62xbvC3
Module: C:\200\trunk\src\tmp\obj\release_mt_shared\qimage.obj(qimage.obj)
0001:00060b00  __Z20qt_get_bitflip_arrayv
0001:00060b0c  __ZN6QImageC2Ev
0001:00061b6c  __ZN6QImage4initEv
0001:00060b18  __ZN6QImageC1Ev
0001:00060b24  __ZN6QImageC2EiiiiNS_6EndianE
0001:0006194c  __ZN6QImage6createEiiiiNS_6EndianE
0001:00060b7c  __ZN6QImageC1EiiiiNS_6EndianE
0001:00060bd4  __ZN6QImageC2ERK5QSizeiiNS_6EndianE
0001:00061b48  __ZN6QImage6createERK5QSizeiiNS_6EndianE
0001:00060c1c  __ZN6QImageC1ERK5QSizeiiNS_6EndianE
0001:00060c64  __ZN6QImageC2ERK7QStringPKc
0001:00066dd4  __ZN6QImage4loadERK7QStringPKc
0001:00060c94  __ZN6QImageC1ERK7QStringPKc
0001:00060cc4  __ZN6QImageC2EPKPKc
0001:00060cec  __ZN6QImageC1EPKPKc
0001:00060d14  __ZN6QImageC2ERK9QMemArrayIcE
0001:00066f18  __ZN6QImage12loadFromDataE9QMemArrayIcEPKc
0001:00060d60  __ZN6QImageC1ERK9QMemArrayIcE
0001:00060dac  __ZN6QImageC2ERKS_
0001:00060dc0  __ZN6QImageC1ERKS_
0001:00060dd4  __ZN6QImageC2EPhiiiPjiNS_6EndianE
0001:00060ee8  __ZN6QImageC1EPhiiiPjiNS_6EndianE
0001:00060ffc  __ZN6QImageD2Ev
0001:00061514  __ZN6QImage5resetEv
0001:00061034  __ZN6QImageD1Ev
0001:000610b8  __ZN6QImage14fromMimeSourceERK7QString
0001:00061134  __ZN6QImageaSERKS_
0001:00061174  __ZN6QImageaSERK7QPixmap
0001:000611a8  __ZN6QImage6detachEv
0001:000611e4  __ZNK6QImage4copyEv
0001:000618a8  __ZN6QImage14setAlphaBufferEb
0001:0006e124  __ZNK6QImage4miscEv
0001:00061340  __ZNK6QImage4copyEiiiii
0001:000615e0  __ZN6QImage4fillEj
0001:0006d5ac  __Z6bitBltP6QImageiiPKS_iiiii
0001:000614f8  __ZN6QImage17warningIndexRangeEPKci
0001:00061c34  __ZN6QImage8freeBitsEv
0001:000617c8  __ZN6QImage12setNumColorsEi
0001:00061bbc  __ZN6QImage6reinitEv
0001:00061710  __ZN6QImage12invertPixelsEb
0001:00061784  __ZN6QImage15systemByteOrderEv
0001:000617bc  __ZN6QImage14systemBitOrderEv
0001:00065ffc  __ZNK6QImage15createAlphaMaskEi
0001:00064154  __ZNK6QImage12convertDepthEii
0001:00064254  __ZNK6QImage12convertDepthEi
0001:00064274  __ZNK6QImage5validEii
0001:0006430c  __ZNK6QImage10pixelIndexEii
0001:000643c8  __ZNK6QImage5pixelEii
0001:00064528  __ZN6QImage8setPixelEiij
0001:00064688  __ZNK6QImage15convertBitOrderENS_6EndianE
0001:000647f8  __ZNK6QImage7allGrayEv
0001:00064884  __ZNK6QImage11isGrayscaleEv
0001:00065578  __ZNK6QImage11smoothScaleEiiNS_9ScaleModeE
0001:000655d4  __ZNK6QImage11smoothScaleERK5QSizeNS_9ScaleModeE
0001:00065738  __ZNK6QImage5scaleEiiNS_9ScaleModeE
0001:00065790  __ZNK6QImage5scaleERK5QSizeNS_9ScaleModeE
0001:00065a6c  __ZNK6QImage5xFormERK8QWMatrix
0001:0006592c  __ZNK6QImage10scaleWidthEi
0001:000659e0  __ZNK6QImage11scaleHeightEi
0001:000660ac  __ZNK6QImage19createHeuristicMaskEb
0001:00066864  __ZNK6QImage6mirrorEbb
0001:00066b70  __ZNK6QImage6mirrorEv
0001:00066b90  __ZNK6QImage7swapRGBEv
0001:00066ce8  __ZN6QImage11imageFormatERK7QString
0001:00068094  __ZN8QImageIO11imageFormatERK7QString
0001:00066cf4  __ZN6QImage12inputFormatsEv
0001:0006826c  __ZN8QImageIO12inputFormatsEv
0001:00066d10  __ZN6QImage15inputFormatListEv
0001:00066d64  __ZN6QImage16outputFormatListEv
0001:00068354  __ZN8QImageIO13outputFormatsEv
0001:00066db8  __ZN6QImage13outputFormatsEv
0001:000676c4  __ZN8QImageIOC1ERK7QStringPKc
0001:000683f4  __ZN8QImageIO4readEv
0001:000677f8  __ZN8QImageIOD1Ev
0001:00066e28  __ZN6QImage12loadFromDataEPKhjPKc
0001:00067608  __ZN8QImageIOC1EP9QIODevicePKc
0001:00066f3c  __ZNK6QImage4saveERK7QStringPKci
0001:0006700c  __ZNK6QImage9doImageIOEP8QImageIOi
0001:00066f8c  __ZNK6QImage4saveEP9QIODevicePKci
0001:00067f70  __ZN8QImageIO8setImageERK6QImage
0001:00067ff8  __ZN8QImageIO10setQualityEi
0001:00068594  __ZN8QImageIO5writeEv
0001:00067080  __ZlsR11QDataStreamRK6QImage
0001:00067540  __ZN8QImageIOC1Ev
0001:00067fc4  __ZN8QImageIO11setIODeviceEP9QIODevice
0001:00067f8c  __ZN8QImageIO9setFormatEPKc
0001:0006711c  __ZrsR11QDataStreamR6QImage
0001:000674dc  __ZN8QImageIOC2Ev
0001:0006771c  __ZN8QImageIO4initEv
0001:000675a4  __ZN8QImageIOC2EP9QIODevicePKc
0001:0006766c  __ZN8QImageIOC2ERK7QStringPKc
0001:0006776c  __ZN8QImageIOD2Ev
0001:00067884  __ZN13QImageHandlerC2EPKcS1_RK8QCStringPFvP8QImageIOES8_
0001:00067948  __ZN13QImageHandlerC1EPKcS1_RK8QCStringPFvP8QImageIOES8_
0001:00067a1c  __Z21qt_init_image_pluginsv
0001:00067cd0  __Z22qt_init_image_handlersv
0001:00067ef0  __ZN8QImageIO15defineIOHandlerEPKcS1_S1_PFvPS_ES4_
0001:00067f7c  __ZN8QImageIO9setStatusEi
0001:00067fd4  __ZN8QImageIO11setFileNameERK7QString
0001:00067fe8  __ZNK8QImageIO7qualityEv
0001:0006800c  __ZNK8QImageIO10parametersEv
0001:0006801c  __ZN8QImageIO13setParametersEPKc
0001:0006805c  __ZN8QImageIO8setGammaEf
0001:00068070  __ZNK8QImageIO5gammaEv
0001:00068080  __ZN8QImageIO14setDescriptionERK7QString
0001:000680f4  __ZN8QImageIO11imageFormatEP9QIODevice
0001:000686ec  __ZrsR11QDataStreamR11BMP_FILEHDR
0001:00068744  __ZlsR11QDataStreamRK11BMP_FILEHDR
0001:0006879c  __ZrsR11QDataStreamR11BMP_INFOHDR
0001:000688d0  __ZlsR11QDataStreamRK11BMP_INFOHDR
0001:0006e0ec  __ZN6QImage16setDotsPerMeterXEi
0001:0006e0fc  __ZN6QImage16setDotsPerMeterYEi
0001:000695c0  __Z11qt_read_dibR11QDataStreamR6QImage
0001:000696a4  __Z12qt_write_dibR11QDataStream6QImage
0001:0006d490  __ZNK6QImage23convertDepthWithPaletteEiPjii
0001:0006df88  __ZNK6QImageeqERKS_
0001:0006e0d0  __ZNK6QImageneERKS_
0001:0006e10c  __ZN6QImage9setOffsetERK6QPoint
0001:0006e17c  __ZNK6QImage4textEPKcS1_
0001:0006e1e0  __ZNK6QImage4textERK17QImageTextKeyLang
0001:0006e210  __ZNK6QImage13textLanguagesEv
0001:0006e3a8  __ZNK6QImage8textKeysEv
0001:0006e540  __ZNK6QImage8textListEv
0001:0006e620  __ZN6QImage7setTextEPKcS1_RK7QString
0001:00070470* __ZTV9QMemArrayIcE$w$FZ6EcP0F8U6qCd2l2
0001:0006e72c  __ZN11QMapPrivateI17QImageTextKeyLang7QStringEC1Ev$w$FZ6EcP0F8U6qCd2l2
0001:0006e688  __ZN4QMapI17QImageTextKeyLang7QStringEaSERKS2_$w$FZ6EcP0F8U6qCd2l2
0001:0006e7ac  __ZN11QMapPrivateI17QImageTextKeyLang7QStringE5clearEv$w$FZ6EcP0F8U6qCd2l2
0001:00070390* __ZTV9QMemArrayI6QPointE$w$FZ6EcP0F8U6qCd2l2
0001:000703c0* __ZTV8QStrList$w$FZ6EcP0F8U6qCd2l2
0001:00070400* __ZTV8QPtrListIcE$w$FZ6EcP0F8U6qCd2l2
0001:0006e7e8* __ZN17QValueListPrivateI7QStringED1Ev$w$FZ6EcP0F8U6qCd2l2
0001:0006e878* __ZN10QValueListI7QStringE14detachInternalEv$w$FZ6EcP0F8U6qCd2l2
0001:00070360  __ZTV8QPtrListI13QImageHandlerE$w$FZ6EcP0F8U6qCd2l2
0001:00070320  __ZTV20QImageIOFrameGrabber$w$FZ6EcP0F8U6qCd2l2
0001:0006e980  __ZN11QMapPrivateI7QStringiEC1Ev$w$FZ6EcP0F8U6qCd2l2
0001:0006e8a8  __ZN4QMapI7QStringiE6insertERKS0_RKib$w$FZ6EcP0F8U6qCd2l2
0001:0006e9d8  __ZN11QMapPrivateI7QStringiE5clearEv$w$FZ6EcP0F8U6qCd2l2
0001:0006e90c  __ZN4QMapI7QStringiEixERKS0_$w$FZ6EcP0F8U6qCd2l2
0001:0006eaec  __ZN11QMapPrivateIjiEC1Ev$w$FZ6EcP0F8U6qCd2l2
0001:0006eb64  __ZNK11QMapPrivateIjiE4findERKj$w$FZ6EcP0F8U6qCd2l2
0001:0006ebe4  __ZN12QMapIteratorIjiE3incEv$w$FZ6EcP0F8U6qCd2l2
0001:0006ea78  __ZN4QMapIjiEixERKj$w$FZ6EcP0F8U6qCd2l2
0001:0006eb28  __ZN11QMapPrivateIjiE5clearEv$w$FZ6EcP0F8U6qCd2l2
0001:0006ebb4  __ZN4QMapIjiE14detachInternalEv$w$FZ6EcP0F8U6qCd2l2
0001:0006ea14  __ZN4QMapIjiE6insertERKjRKib$w$FZ6EcP0F8U6qCd2l2
0001:0006ec30  __ZN4QMapI17QImageTextKeyLang7QStringEixERKS0_$w$FZ6EcP0F8U6qCd2l2
0001:0006ece0* __ZN17QValueListPrivateI7QStringEC1Ev$w$FZ6EcP0F8U6qCd2l2
0001:0006eda8* __ZN17QValueListPrivateI7QStringE6removeERKS0_$w$FZ6EcP0F8U6qCd2l2
0001:0006ee20* __ZN17QValueListPrivateI7QStringE6insertE18QValueListIteratorIS0_ERKS0_$w$FZ6EcP0F8U6qCd2l2
0001:000704a8  __ZN7QStringD1Ev$w$FZ6EcP0F8U6qCd2l2
0001:0006ed5c  __ZN12QMapIteratorI17QImageTextKeyLang7QStringE3incEv$w$FZ6EcP0F8U6qCd2l2
0001:0006ed2c  __ZN4QMapI17QImageTextKeyLang7QStringE14detachInternalEv$w$FZ6EcP0F8U6qCd2l2
0001:0006ee7c  __ZN17QValueListPrivateI17QImageTextKeyLangEC1Ev$w$FZ6EcP0F8U6qCd2l2
0001:0006ef20  __ZN17QValueListPrivateI17QImageTextKeyLangE6insertE18QValueListIteratorIS0_ERKS0_$w$FZ6EcP0F8U6qCd2l2
0001:0006eed4  __ZN17QMapConstIteratorI17QImageTextKeyLang7QStringE3incEv$w$FZ6EcP0F8U6qCd2l2
0001:0006ef9c  __ZN10QValueListI17QImageTextKeyLangE14detachInternalEv$w$FZ6EcP0F8U6qCd2l2
0001:0006efcc  __ZN4QMapI17QImageTextKeyLang7QStringE6removeERKS0_$w$FZ6EcP0F8U6qCd2l2
0001:0006f0b8  __ZN4QMapI17QImageTextKeyLang7QStringE6insertERKS0_RKS1_b$w$FZ6EcP0F8U6qCd2l2
0001:0006f124  __ZN11QMapPrivateI17QImageTextKeyLang7QStringE5clearEP8QMapNodeIS0_S1_E$w$FZ6EcP0F8U6qCd2l2
0001:0006f1a4* __ZN17QValueListPrivateI7QStringEC1ERKS1_$w$FZ6EcP0F8U6qCd2l2
0001:0006f238  __ZN11QMapPrivateI7QStringiE12insertSingleERKS0_$w$FZ6EcP0F8U6qCd2l2
0001:0006f2ec  __ZN4QMapI7QStringiE14detachInternalEv$w$FZ6EcP0F8U6qCd2l2
0001:0006f31c  __ZNK11QMapPrivateI7QStringiE4findERKS0_$w$FZ6EcP0F8U6qCd2l2
0001:0006f3a0  __ZN11QMapPrivateI7QStringiE5clearEP8QMapNodeIS0_iE$w$FZ6EcP0F8U6qCd2l2
0001:0006f404  __ZN11QMapPrivateIjiE12insertSingleERKj$w$FZ6EcP0F8U6qCd2l2
0001:0006f4a0  __ZN11QMapPrivateIjiE5clearEP8QMapNodeIjiE$w$FZ6EcP0F8U6qCd2l2
0001:0006f4dc  __ZN11QMapPrivateIjiEC1EPKS0_$w$FZ6EcP0F8U6qCd2l2
0001:0006f574  __ZNK11QMapPrivateI17QImageTextKeyLang7QStringE4findERKS0_$w$FZ6EcP0F8U6qCd2l2
0001:0006f764  __ZN11QMapPrivateI17QImageTextKeyLang7QStringEC1EPKS2_$w$FZ6EcP0F8U6qCd2l2
0001:0006f878* __ZN17QValueListPrivateI7QStringE6removeE18QValueListIteratorIS0_E$w$FZ6EcP0F8U6qCd2l2
0001:0006f900  __ZN17QValueListPrivateI17QImageTextKeyLangEC1ERKS1_$w$FZ6EcP0F8U6qCd2l2
0001:0006f9a4  __ZN11QMapPrivateI17QImageTextKeyLang7QStringE12insertSingleERKS0_$w$FZ6EcP0F8U6qCd2l2
0001:0006fbcc  __ZN11QMapPrivateI7QStringiE6insertEP12QMapNodeBaseS3_RKS0_$w$FZ6EcP0F8U6qCd2l2
0001:0006fcb0  __ZN12QMapIteratorI7QStringiE3decEv$w$FZ6EcP0F8U6qCd2l2
0001:0006fd08  __ZN11QMapPrivateI7QStringiEC1EPKS1_$w$FZ6EcP0F8U6qCd2l2
0001:0006fdb8  __ZN11QMapPrivateIjiE6insertEP12QMapNodeBaseS2_RKj$w$FZ6EcP0F8U6qCd2l2
0001:0006fe4c  __ZN12QMapIteratorIjiE3decEv$w$FZ6EcP0F8U6qCd2l2
0001:0006fea4  __ZN11QMapPrivateIjiE4copyEP8QMapNodeIjiE$w$FZ6EcP0F8U6qCd2l2
0001:0006ff2c  __ZN11QMapPrivateI17QImageTextKeyLang7QStringE4copyEP8QMapNodeIS0_S1_E$w$FZ6EcP0F8U6qCd2l2
0001:00070034  __ZN11QMapPrivateI17QImageTextKeyLang7QStringE6insertEP12QMapNodeBaseS4_RKS0_$w$FZ6EcP0F8U6qCd2l2
0001:00070200  __ZN12QMapIteratorI17QImageTextKeyLang7QStringE3decEv$w$FZ6EcP0F8U6qCd2l2
0001:00070258  __ZN11QMapPrivateI7QStringiE4copyEP8QMapNodeIS0_iE$w$FZ6EcP0F8U6qCd2l2
0001:00070700  __ZN20QImageIOFrameGrabber3endEv$w$FZ6EcP0F8U6qCd2l2
0001:000706f8  __ZN20QImageIOFrameGrabber7changedERK5QRect$w$FZ6EcP0F8U6qCd2l2
0001:00070714  __ZN20QImageIOFrameGrabber9frameDoneEv$w$FZ6EcP0F8U6qCd2l2
0001:00070708  __ZN20QImageIOFrameGrabber9frameDoneERK6QPointRK5QRect$w$FZ6EcP0F8U6qCd2l2
0001:00070720  __ZN20QImageIOFrameGrabber10setLoopingEi$w$FZ6EcP0F8U6qCd2l2
0001:00070728  __ZN20QImageIOFrameGrabber14setFramePeriodEi$w$FZ6EcP0F8U6qCd2l2
0001:00070730  __ZN20QImageIOFrameGrabber7setSizeEii$w$FZ6EcP0F8U6qCd2l2
0001:00070880  __ZNK8QPtrListI13QImageHandlerE5countEv$w$FZ6EcP0F8U6qCd2l2
0001:00070738  __ZN8QPtrListI13QImageHandlerE5clearEv$w$FZ6EcP0F8U6qCd2l2
0001:00070744  __ZN8QPtrListI13QImageHandlerED1Ev$w$FZ6EcP0F8U6qCd2l2
0001:000706c8  __ZN8QPtrListI13QImageHandlerED0Ev$w$FZ6EcP0F8U6qCd2l2
0001:0007088c  __ZN8QPtrListI13QImageHandlerE10deleteItemEPv$w$FZ6EcP0F8U6qCd2l2
0001:0007062c* __ZN9QMemArrayI6QPointED1Ev$w$FZ6EcP0F8U6qCd2l2
0001:00070648* __ZN9QMemArrayI6QPointED0Ev$w$FZ6EcP0F8U6qCd2l2
0001:000708cc* __ZN9QMemArrayI6QPointE6detachEv$w$FZ6EcP0F8U6qCd2l2
0001:000708e4* __ZNK8QPtrListIcE5countEv$w$FZ6EcP0F8U6qCd2l2
0001:000704dc* __ZN8QPtrListIcE5clearEv$w$FZ6EcP0F8U6qCd2l2
0001:000704e8* __ZN8QStrListD1Ev$w$FZ6EcP0F8U6qCd2l2
0001:0007051c* __ZN8QStrListD0Ev$w$FZ6EcP0F8U6qCd2l2
0001:00070558* __ZN8QStrList7newItemEPv$w$FZ6EcP0F8U6qCd2l2
0001:0007057c* __ZN8QStrList10deleteItemEPv$w$FZ6EcP0F8U6qCd2l2
0001:0007059c* __ZN8QStrList12compareItemsEPvS0_$w$FZ6EcP0F8U6qCd2l2
0001:000705d0* __ZN8QStrList4readER11QDataStreamRPv$w$FZ6EcP0F8U6qCd2l2
0001:000705ec* __ZNK8QStrList5writeER11QDataStreamPv$w$FZ6EcP0F8U6qCd2l2
0001:00070670* __ZN8QPtrListIcED1Ev$w$FZ6EcP0F8U6qCd2l2
0001:00070698* __ZN8QPtrListIcED0Ev$w$FZ6EcP0F8U6qCd2l2
0001:000708f0* __ZN8QPtrListIcE10deleteItemEPv$w$FZ6EcP0F8U6qCd2l2
0001:00070440* __ZTV6QGList$w$FZ6EcP0F8U6qCd2l2
0001:000704d0* __ZNK6QGList5countEv$w$FZ6EcP0F8U6qCd2l2
0001:0007048c* __ZN9QMemArrayIcED1Ev$w$FZ6EcP0F8U6qCd2l2
0001:00070604* __ZN9QMemArrayIcED0Ev$w$FZ6EcP0F8U6qCd2l2
0001:00070910* __ZN9QMemArrayIcE6detachEv$w$FZ6EcP0F8U6qCd2l2
Module: C:\200\trunk\src\tmp\obj\release_mt_shared\qimageformatplugin.obj(qimageformatplugin.obj)
0001:00070940  __ZN25QImageFormatPluginPrivateD2Ev
0001:00070968  __ZN25QImageFormatPluginPrivateD1Ev
0001:00070990  __ZN25QImageFormatPluginPrivateD0Ev
0001:000709c4  __ZN25QImageFormatPluginPrivate14queryInterfaceERK5QUuidPP17QUnknownInterface
0001:00070b2c  __ZNK25QImageFormatPluginPrivate11featureListEv
0001:00070b4c  __ZN25QImageFormatPluginPrivate9loadImageERK7QStringS2_P6QImage
0001:00070b78  __ZN25QImageFormatPluginPrivate9saveImageERK7QStringS2_RK6QImage
0001:00070ba4  __ZN25QImageFormatPluginPrivate16installIOHandlerERK7QString
0001:00070bc8  __ZN18QImageFormatPluginC2Ev
0001:00070c04  __ZN18QImageFormatPluginC1Ev
0001:00070c40  __ZN18QImageFormatPluginD2Ev
0001:00070c5c  __ZN18QImageFormatPluginD1Ev
0001:00070c78  __ZN18QImageFormatPluginD0Ev
0001:00070ca0  __ZN18QImageFormatPlugin9loadImageERK7QStringS2_P6QImage
0001:00070ca8  __ZN18QImageFormatPlugin9saveImageERK7QStringS2_RK6QImage
0001:00070cc0  __ZTV25QImageFormatPluginPrivate$w$VBkvSS0F8U6ch8cl2
0001:00070d38  __ZN25QImageFormatPluginPrivate6addRefEv$w$VBkvSS0F8U6ch8cl2
0001:00070d4c  __ZN25QImageFormatPluginPrivate7releaseEv$w$VBkvSS0F8U6ch8cl2
0001:00070d00* __ZTV6QGList$w$VBkvSS0F8U6ch8cl2
0001:00070d2c* __ZNK6QGList5countEv$w$VBkvSS0F8U6ch8cl2
Module: C:\200\trunk\src\tmp\obj\release_mt_shared\qkeysequence.obj(qkeysequence.obj)
0001:00071034  __ZN12QKeySequenceC2Ev
0001:0007108c  __ZN12QKeySequenceC1Ev
0001:000710e4  __ZN12QKeySequenceC2ERK7QString
0001:000714d0  __ZN12QKeySequence6assignE7QString
0001:00071178  __ZN12QKeySequenceC1ERK7QString
0001:0007120c  __ZN12QKeySequenceC2Ei
0001:0007126c  __ZN12QKeySequenceC1Ei
0001:000712cc  __ZN12QKeySequenceC2Eiiii
0001:00071340  __ZN12QKeySequenceC1Eiiii
0001:000713b4  __ZN12QKeySequenceC2ERKS_
0001:000713c8  __ZN12QKeySequenceC1ERKS_
0001:000713dc  __ZN12QKeySequenceD2Ev
0001:000713fc  __ZN12QKeySequenceD1Ev
0001:0007141c  __ZN12QKeySequence6setKeyEii
0001:00071474  __ZNK12QKeySequence5countEv
0001:000714b8  __ZNK12QKeySequence7isEmptyEv
0001:0007172c  __ZN12QKeySequence12decodeStringERK7QString
0001:000724b4  __ZN12QKeySequence12encodeStringEi
0001:00072994  __ZNK12QKeySequence7matchesERKS_
0001:00072b78  __ZNK12QKeySequenceixEj
0001:00072a24  __ZNK12QKeySequencecv7QStringEv
0001:00072b20  __ZNK12QKeySequencecviEv
0001:00072ba8  __ZN12QKeySequenceaSERKS_
0001:00072be0  __ZNK12QKeySequenceeqERKS_
0001:00072c54  __ZNK12QKeySequenceneERKS_
0001:00072c70  __ZlsR11QDataStreamRK12QKeySequence
0001:00072e5c  __ZrsR11QDataStreamR12QKeySequence
0001:00073018  __ZN17QValueListPrivateI12ModifKeyNameEC1Ev$w$PO0NYX0F8U6HRUkw0
0001:000730f4  __ZN17QValueListPrivateI12ModifKeyNameE6insertE18QValueListIteratorIS0_ERKS0_$w$PO0NYX0F8U6HRUkw0
0001:00073064  __ZN17QValueListPrivateI12ModifKeyNameED1Ev$w$PO0NYX0F8U6HRUkw0
0001:00073158  __ZN10QValueListI12ModifKeyNameE14detachInternalEv$w$PO0NYX0F8U6HRUkw0
0001:000731ec* __ZN17QValueListPrivateIiEC1Ev$w$PO0NYX0F8U6HRUkw0
0001:00073258* __ZN17QValueListPrivateIiE6insertE18QValueListIteratorIiERKi$w$PO0NYX0F8U6HRUkw0
0001:00073188  __ZlsIiER11QDataStreamS1_RK10QValueListIT_E$w$PO0NYX0F8U6HRUkw0
0001:0007321c* __ZN17QValueListPrivateIiED1Ev$w$PO0NYX0F8U6HRUkw0
0001:000732a8* __ZN10QValueListIiE14detachInternalEv$w$PO0NYX0F8U6HRUkw0
0001:000732d8  __ZrsIiER11QDataStreamS1_R10QValueListIT_E$w$PO0NYX0F8U6HRUkw0
0001:000733cc  __ZNK17QValueListPrivateIiE2atEj$w$PO0NYX0F8U6HRUkw0
0001:00073414  __ZN17QValueListPrivateI12ModifKeyNameEC1ERKS1_$w$PO0NYX0F8U6HRUkw0
0001:000734a8* __ZN17QValueListPrivateIiEC1ERKS0_$w$PO0NYX0F8U6HRUkw0
0001:00073524  __ZN10QValueListIiE5clearEv$w$PO0NYX0F8U6HRUkw0
0001:00073564  __ZN17QValueListPrivateIiE5clearEv$w$PO0NYX0F8U6HRUkw0
0001:000735a0* __ZTV6QGList$w$PO0NYX0F8U6HRUkw0
0001:000735cc* __ZNK6QGList5countEv$w$PO0NYX0F8U6HRUkw0
Module: C:\200\trunk\src\tmp\obj\release_mt_shared\qlayout.obj(qlayout.obj)
0001:000735e0  __ZN15QGridLayoutDataC2Ev
0001:00073a80  __ZN15QGridLayoutData4initEv
0001:00073678  __ZN15QGridLayoutDataC1Ev
0001:00073710  __ZN15QGridLayoutDataC2Eii
0001:000740b8  __ZN15QGridLayoutData7setSizeEii
0001:000737e4  __ZN15QGridLayoutDataC1Eii
0001:000738b8  __ZN15QGridLayoutDataD2Ev
0001:0007399c  __ZN15QGridLayoutDataD1Ev
0001:00073acc  __ZN15QGridLayoutData17hasHeightForWidthEi
0001:00075508  __ZN15QGridLayoutData15setupLayoutDataEi
0001:00073af0  __ZN15QGridLayoutData9recalcHFWEii
0001:00075de8  __ZN15QGridLayoutData18setupHfwLayoutDataEi
0001:00073c48  __ZN15QGridLayoutData14heightForWidthEiii
0001:00073cb8  __ZN15QGridLayoutData21minimumHeightForWidthEiii
0001:00073cf4  __ZN15QGridLayoutData10findWidgetEP7QWidgetPiS2_
0001:00073e18  __ZNK15QGridLayoutData8findSizeEM13QLayoutStructii
0001:00073fa4  __ZN15QGridLayoutData9expandingEi
0001:00074070  __ZNK15QGridLayoutData8sizeHintEi
0001:00074088  __ZNK15QGridLayoutData11maximumSizeEi
0001:000740a0  __ZNK15QGridLayoutData11minimumSizeEi
0001:000743f0  __ZN15QGridLayoutData15setNextPosAfterEii
0001:00074464  __ZN15QGridLayoutData3addEP8QGridBoxii
0001:00074540  __ZN15QGridLayoutData3addEP8QGridBoxiiii
0001:000746ac  __ZN15QGridLayoutData7addDataEP8QGridBoxbb
0001:00075ae4  __ZN15QGridLayoutData10addHfwDataEP8QGridBoxi
0001:0007625c  __ZN15QGridLayoutData10distributeE5QRecti
0001:00076714  __ZNK15QGridLayoutData12cellGeometryEii
0001:00076888  __ZN11QGridLayoutC2EP7QWidgetiiiiPKc
0001:00076e18  __ZN11QGridLayout4initEii
0001:000768c8  __ZN11QGridLayoutC1EP7QWidgetiiiiPKc
0001:00076908  __ZN11QGridLayoutC2EP7QLayoutiiiPKc
0001:00076944  __ZN11QGridLayoutC1EP7QLayoutiiiPKc
0001:00076980  __ZN11QGridLayoutC2EiiiPKc
0001:000769bc  __ZN11QGridLayoutC1EiiiPKc
0001:000769f8  __ZN11QGridLayoutD2Ev
0001:00076a40  __ZN11QGridLayoutD1Ev
0001:00076a90  __ZN11QGridLayoutD0Ev
0001:00076ae8  __ZNK11QGridLayout7numRowsEv
0001:00076af8  __ZNK11QGridLayout7numColsEv
0001:00076b08  __ZNK11QGridLayout8sizeHintEv
0001:00076b4c  __ZNK11QGridLayout11minimumSizeEv
0001:00076b90  __ZNK11QGridLayout11maximumSizeEv
0001:00076c40  __ZNK11QGridLayout17hasHeightForWidthEv
0001:00076c64  __ZNK11QGridLayout14heightForWidthEi
0001:00076c88  __ZNK11QGridLayout21minimumHeightForWidthEi
0001:00076ca4  __ZN11QGridLayout10findWidgetEP7QWidgetPiS2_
0001:00076cc4  __ZN11QGridLayout11setGeometryERK5QRect
0001:00076dc0  __ZNK11QGridLayout12cellGeometryEii
0001:00076de4  __ZN11QGridLayout6expandEii
0001:00076e58  __ZN11QGridLayout7addItemEP11QLayoutItem
0001:00076e80  __ZN11QGridLayout3addEP11QLayoutItemii
0001:00076e78  __ZN11QGridLayout7addItemEP11QLayoutItemii
0001:00076ec4  __ZN11QGridLayout12addMultiCellEP11QLayoutItemiiiii
0001:0007714c  __ZN11QGridLayout9addWidgetEP7QWidgetiii
0001:00077224  __ZN11QGridLayout18addMultiCellWidgetEP7QWidgetiiiii
0001:000772b8  __ZN11QGridLayout9addLayoutEP7QLayoutii
0001:00077304  __ZN11QGridLayout18addMultiCellLayoutEP7QLayoutiiiii
0001:00077394  __ZN11QGridLayout13setRowStretchEii
0001:00077408  __ZNK11QGridLayout10rowStretchEi
0001:00077444  __ZNK11QGridLayout10colStretchEi
0001:00077480  __ZN11QGridLayout13setColStretchEii
0001:000774f4  __ZN11QGridLayout13addRowSpacingEii
0001:00077558  __ZN11QGridLayout13addColSpacingEii
0001:000775bc  __ZN11QGridLayout13setRowSpacingEii
0001:00077630  __ZNK11QGridLayout10rowSpacingEi
0001:0007766c  __ZN11QGridLayout13setColSpacingEii
0001:000776e0  __ZNK11QGridLayout10colSpacingEi
0001:0007771c  __ZNK11QGridLayout9expandingEv
0001:0007773c  __ZN11QGridLayout9setOriginENS_6CornerE
0001:0007777c  __ZNK11QGridLayout6originEv
0001:000777bc  __ZN11QGridLayout10invalidateEv
0001:00077814  __ZN11QGridLayout8iteratorEv
0001:00077864  __ZN10QBoxLayoutC2EP7QWidgetNS_9DirectionEiiPKc
0001:00077908  __ZN10QBoxLayoutC1EP7QWidgetNS_9DirectionEiiPKc
0001:000779ac  __ZN10QBoxLayoutC2EP7QLayoutNS_9DirectionEiPKc
0001:00077a4c  __ZN10QBoxLayoutC1EP7QLayoutNS_9DirectionEiPKc
0001:00077aec  __ZN10QBoxLayoutC2ENS_9DirectionEiPKc
0001:00077b88  __ZN10QBoxLayoutC1ENS_9DirectionEiPKc
0001:00077c24  __ZN10QBoxLayoutD2Ev
0001:00077c8c  __ZN10QBoxLayoutD1Ev
0001:00077cfc  __ZN10QBoxLayoutD0Ev
0001:00077d74  __ZNK10QBoxLayout8sizeHintEv
0001:00078d60  __ZN10QBoxLayout9setupGeomEv
0001:00077dcc  __ZNK10QBoxLayout11minimumSizeEv
0001:00077e24  __ZNK10QBoxLayout11maximumSizeEv
0001:00077ee4  __ZNK10QBoxLayout17hasHeightForWidthEv
0001:00077f24  __ZNK10QBoxLayout14heightForWidthEi
0001:000794c4  __ZN10QBoxLayout7calcHfwEi
0001:00077f84  __ZNK10QBoxLayout21minimumHeightForWidthEi
0001:00077fc0  __ZN10QBoxLayout10invalidateEv
0001:00078014  __ZN10QBoxLayout8iteratorEv
0001:00078058  __ZNK10QBoxLayout9expandingEv
0001:00078094  __ZN10QBoxLayout11setGeometryERK5QRect
0001:0007861c  __ZN10QBoxLayout7addItemEP11QLayoutItem
0001:00078658  __ZN10QBoxLayout10insertItemEiP11QLayoutItem
0001:000786a8  __ZN10QBoxLayout13insertSpacingEii
0001:0007878c  __ZN10QBoxLayout13insertStretchEii
0001:00078874  __ZN10QBoxLayout12insertLayoutEiP7QLayouti
0001:000788e4  __ZN10QBoxLayout12insertWidgetEiP7QWidgetii
0001:00078974  __ZN10QBoxLayout10addSpacingEi
0001:0007898c  __ZN10QBoxLayout10addStretchEi
0001:000789a4  __ZN10QBoxLayout9addWidgetEP7QWidgetii
0001:000789c4  __ZN10QBoxLayout9addLayoutEP7QLayouti
0001:000789e0  __ZN10QBoxLayout8addStrutEi
0001:00078aa8  __ZN10QBoxLayout10findWidgetEP7QWidget
0001:00078b10  __ZN10QBoxLayout16setStretchFactorEP7QWidgeti
0001:00078b98  __ZN10QBoxLayout16setStretchFactorEP7QLayouti
0001:00078c20  __ZN10QBoxLayout12setDirectionENS_9DirectionE
0001:0007988c  __ZN11QHBoxLayoutC2EP7QWidgetiiPKc
0001:000798c0  __ZN11QHBoxLayoutC1EP7QWidgetiiPKc
0001:000798f4  __ZN11QHBoxLayoutC2EP7QLayoutiPKc
0001:00079924  __ZN11QHBoxLayoutC1EP7QLayoutiPKc
0001:00079954  __ZN11QHBoxLayoutC2EiPKc
0001:00079980  __ZN11QHBoxLayoutC1EiPKc
0001:000799ac  __ZN11QHBoxLayoutD2Ev
0001:000799d0  __ZN11QHBoxLayoutD1Ev
0001:000799fc  __ZN11QHBoxLayoutD0Ev
0001:00079a30  __ZN11QVBoxLayoutC2EP7QWidgetiiPKc
0001:00079a64  __ZN11QVBoxLayoutC1EP7QWidgetiiPKc
0001:00079a98  __ZN11QVBoxLayoutC2EP7QLayoutiPKc
0001:00079ac8  __ZN11QVBoxLayoutC1EP7QLayoutiPKc
0001:00079af8  __ZN11QVBoxLayoutC2EiPKc
0001:00079b24  __ZN11QVBoxLayoutC1EiPKc
0001:00079b50  __ZN11QVBoxLayoutD2Ev
0001:00079b74  __ZN11QVBoxLayoutD1Ev
0001:00079ba0  __ZN11QVBoxLayoutD0Ev
0001:00079bd4  __ZN10QBoxLayout13createTmpCopyEv
0001:00079d70  __ZTV9QMemArrayI13QLayoutStructE$w$baIMk81F8U65ilzC3
0001:00079d50  __ZTV9QMemArrayIiE$w$baIMk81F8U65ilzC3
0001:00079d20  __ZTV8QPtrListI8QGridBoxE$w$baIMk81F8U65ilzC3
0001:00079ce0  __ZTV8QPtrListI13QGridMultiBoxE$w$baIMk81F8U65ilzC3
0001:00076a88  __ZThn40_N11QGridLayoutD1Ev$w$baIMk81F8U65ilzC3
0001:00076ae0  __ZThn40_N11QGridLayoutD0Ev$w$baIMk81F8U65ilzC3
0001:00076b44  __ZThn40_NK11QGridLayout8sizeHintEv$w$baIMk81F8U65ilzC3
0001:00076b88  __ZThn40_NK11QGridLayout11minimumSizeEv$w$baIMk81F8U65ilzC3
0001:00076c34  __ZThn40_NK11QGridLayout11maximumSizeEv$w$baIMk81F8U65ilzC3
0001:00076c5c  __ZThn40_NK11QGridLayout17hasHeightForWidthEv$w$baIMk81F8U65ilzC3
0001:00076c80  __ZThn40_NK11QGridLayout14heightForWidthEi$w$baIMk81F8U65ilzC3
0001:00076db4  __ZThn40_N11QGridLayout11setGeometryERK5QRect$w$baIMk81F8U65ilzC3
0001:00077734  __ZThn40_NK11QGridLayout9expandingEv$w$baIMk81F8U65ilzC3
0001:0007780c  __ZThn40_N11QGridLayout10invalidateEv$w$baIMk81F8U65ilzC3
0001:00079cb0  __ZTV23QGridLayoutDataIterator$w$baIMk81F8U65ilzC3
0001:0007785c  __ZThn40_N11QGridLayout8iteratorEv$w$baIMk81F8U65ilzC3
0001:00079c80  __ZTV8QPtrListI14QBoxLayoutItemE$w$baIMk81F8U65ilzC3
0001:00077cf4  __ZThn40_N10QBoxLayoutD1Ev$w$baIMk81F8U65ilzC3
0001:00077d6c  __ZThn40_N10QBoxLayoutD0Ev$w$baIMk81F8U65ilzC3
0001:00077dc4  __ZThn40_NK10QBoxLayout8sizeHintEv$w$baIMk81F8U65ilzC3
0001:00077e1c  __ZThn40_NK10QBoxLayout11minimumSizeEv$w$baIMk81F8U65ilzC3
0001:00077ed8  __ZThn40_NK10QBoxLayout11maximumSizeEv$w$baIMk81F8U65ilzC3
0001:00077f1c  __ZThn40_NK10QBoxLayout17hasHeightForWidthEv$w$baIMk81F8U65ilzC3
0001:00077f7c  __ZThn40_NK10QBoxLayout14heightForWidthEi$w$baIMk81F8U65ilzC3
0001:0007800c  __ZThn40_N10QBoxLayout10invalidateEv$w$baIMk81F8U65ilzC3
0001:00079c50  __ZTV18QBoxLayoutIterator$w$baIMk81F8U65ilzC3
0001:00078050  __ZThn40_N10QBoxLayout8iteratorEv$w$baIMk81F8U65ilzC3
0001:0007808c  __ZThn40_NK10QBoxLayout9expandingEv$w$baIMk81F8U65ilzC3
0001:00078610  __ZThn40_N10QBoxLayout11setGeometryERK5QRect$w$baIMk81F8U65ilzC3
0001:000799f4  __ZThn40_N11QHBoxLayoutD1Ev$w$baIMk81F8U65ilzC3
0001:00079a28  __ZThn40_N11QHBoxLayoutD0Ev$w$baIMk81F8U65ilzC3
0001:00079b98  __ZThn40_N11QVBoxLayoutD1Ev$w$baIMk81F8U65ilzC3
0001:00079bcc  __ZThn40_N11QVBoxLayoutD0Ev$w$baIMk81F8U65ilzC3
0001:0007a120  __ZN18QBoxLayoutIteratorD1Ev$w$baIMk81F8U65ilzC3
0001:0007a13c  __ZN18QBoxLayoutIteratorD0Ev$w$baIMk81F8U65ilzC3
0001:0007a1a4  __ZN18QBoxLayoutIterator4nextEv$w$baIMk81F8U65ilzC3
0001:0007a170  __ZN18QBoxLayoutIterator7currentEv$w$baIMk81F8U65ilzC3
0001:0007a1b8  __ZN18QBoxLayoutIterator11takeCurrentEv$w$baIMk81F8U65ilzC3
0001:0007a164  __ZNK8QPtrListI14QBoxLayoutItemE5countEv$w$baIMk81F8U65ilzC3
0001:0007a228  __ZN8QPtrListI14QBoxLayoutItemE5clearEv$w$baIMk81F8U65ilzC3
0001:0007a0f8  __ZN8QPtrListI14QBoxLayoutItemED1Ev$w$baIMk81F8U65ilzC3
0001:0007a234  __ZN8QPtrListI14QBoxLayoutItemED0Ev$w$baIMk81F8U65ilzC3
0001:0007a298  __ZN8QPtrListI14QBoxLayoutItemE10deleteItemEPv$w$baIMk81F8U65ilzC3
0001:00079f54  __ZN23QGridLayoutDataIteratorD1Ev$w$baIMk81F8U65ilzC3
0001:00079f70  __ZN23QGridLayoutDataIteratorD0Ev$w$baIMk81F8U65ilzC3
0001:0007a014  __ZN23QGridLayoutDataIterator4nextEv$w$baIMk81F8U65ilzC3
0001:00079f98  __ZN23QGridLayoutDataIterator7currentEv$w$baIMk81F8U65ilzC3
0001:0007a04c  __ZN23QGridLayoutDataIterator11takeCurrentEv$w$baIMk81F8U65ilzC3
0001:00079e2c  __ZNK8QPtrListI13QGridMultiBoxE5countEv$w$baIMk81F8U65ilzC3
0001:0007a264  __ZN8QPtrListI13QGridMultiBoxE5clearEv$w$baIMk81F8U65ilzC3
0001:0007a270  __ZN8QPtrListI13QGridMultiBoxED1Ev$w$baIMk81F8U65ilzC3
0001:00079f24  __ZN8QPtrListI13QGridMultiBoxED0Ev$w$baIMk81F8U65ilzC3
0001:0007a2d8  __ZN8QPtrListI13QGridMultiBoxE10deleteItemEPv$w$baIMk81F8U65ilzC3
0001:00079e20  __ZNK8QPtrListI8QGridBoxE5countEv$w$baIMk81F8U65ilzC3
0001:00079ee8  __ZN8QPtrListI8QGridBoxE5clearEv$w$baIMk81F8U65ilzC3
0001:00079e70  __ZN8QPtrListI8QGridBoxED1Ev$w$baIMk81F8U65ilzC3
0001:00079ef4  __ZN8QPtrListI8QGridBoxED0Ev$w$baIMk81F8U65ilzC3
0001:0007a330  __ZN8QPtrListI8QGridBoxE10deleteItemEPv$w$baIMk81F8U65ilzC3
0001:00079e54  __ZN9QMemArrayIiED1Ev$w$baIMk81F8U65ilzC3
0001:00079ec0  __ZN9QMemArrayIiED0Ev$w$baIMk81F8U65ilzC3
0001:0007a370  __ZN9QMemArrayIiE6detachEv$w$baIMk81F8U65ilzC3
0001:00079e38  __ZN9QMemArrayI13QLayoutStructED1Ev$w$baIMk81F8U65ilzC3
0001:00079e98  __ZN9QMemArrayI13QLayoutStructED0Ev$w$baIMk81F8U65ilzC3
0001:0007a388  __ZN9QMemArrayI13QLayoutStructE6detachEv$w$baIMk81F8U65ilzC3
0001:00079da0* __ZTV6QGList$w$baIMk81F8U65ilzC3
0001:00079dcc* __ZNK6QGList5countEv$w$baIMk81F8U65ilzC3
Module: C:\200\trunk\src\tmp\obj\release_mt_shared\qlayoutengine.obj(qlayoutengine.obj)
0001:0007a3a0  __Z9qGeomCalcR9QMemArrayI13QLayoutStructEiiiii
0001:0007b330  __Z13qSmartMinSizePK11QWidgetItem
0001:0007b54c  __Z13qSmartMinSizeP7QWidget
0001:0007b598  __Z13qSmartMaxSizePK11QWidgetItemi
0001:0007b728  __Z13qSmartMaxSizeP7QWidgeti
0001:0007b780* __ZTV6QGList$w$30fVhd1F8U61TIaU3
0001:0007b7ac* __ZNK6QGList5countEv$w$30fVhd1F8U61TIaU3
Module: C:\200\trunk\src\tmp\obj\release_mt_shared\qtranslator.obj(qtranslator.obj)
0001:0007b8d0  __ZN11QTranslatorC2EP7QObjectPKc
0001:0007b92c  __ZN11QTranslatorC1EP7QObjectPKc
0001:0007b988  __ZN11QTranslatorD2Ev
0001:0007c65c  __ZN11QTranslator5clearEv
0001:0007b9d4  __ZN11QTranslatorD1Ev
0001:0007ba20  __ZN11QTranslatorD0Ev
0001:0007ba78  __ZN11QTranslator4loadERK7QStringS2_S2_S2_
0001:0007c210  __ZN11QTranslator7do_loadEPKhi
0001:0007c4f4  __ZN11QTranslator4saveERK7QStringNS_8SaveModeE
0001:0007c8f8  __ZN11QTranslator7squeezeENS_8SaveModeE
0001:0007d2dc  __ZN11QTranslator9unsqueezeEv
0001:0007e8e8  __ZNK18QTranslatorMessage5writeER11QDataStreambNS_6PrefixE
0001:0007e9f0  __ZNK18QTranslatorMessage12commonPrefixERKS_
0001:0007e4dc  __ZN18QTranslatorMessageC1ER11QDataStream
0001:0007d444  __ZNK11QTranslator8containsEPKcS1_S1_
0001:0007d4f4  __ZN11QTranslator6insertERK18QTranslatorMessage
0001:0007d544  __ZN11QTranslator6removeERK18QTranslatorMessage
0001:0007d574  __ZNK11QTranslator11findMessageEPKcS1_S1_
0001:0007dea4  __ZN18QTranslatorMessageC1Ev
0001:0007e824  __ZN18QTranslatorMessageC1ERKS_
0001:0007e07c  __ZN18QTranslatorMessageC1EPKcS1_S1_RK7QString
0001:0007dd50  __ZNK11QTranslator7isEmptyEv
0001:0007dd98  __ZNK11QTranslator8messagesEv
0001:0007de50  __ZN18QTranslatorMessageC2Ev
0001:0007def8  __ZN18QTranslatorMessageC2EPKcS1_S1_RK7QString
0001:0007e200  __ZN18QTranslatorMessageC2ER11QDataStream
0001:0007e7b8  __ZN18QTranslatorMessageC2ERKS_
0001:0007e890  __ZN18QTranslatorMessageaSERKS_
0001:0007ead0  __ZNK18QTranslatorMessageeqERKS_
0001:0007eba8  __ZNK18QTranslatorMessageltERKS_
0001:0007fbf0* __ZTV9QMemArrayIcE$w$9NWN4l1F8U6ZyEQx0
0001:0007ecd8  __ZNK17QValueListPrivateIP11QTranslatorE8containsERKS1_$w$9NWN4l1F8U6ZyEQx0
0001:0007ed1c  __ZN11QMapPrivateI18QTranslatorMessagePvE5clearEv$w$9NWN4l1F8U6ZyEQx0
0001:0007ed58  __ZN11QMapPrivateIN18QTranslatorPrivate6OffsetEPvEC1Ev$w$9NWN4l1F8U6ZyEQx0
0001:0007ee10  __ZN12QMapIteratorI18QTranslatorMessagePvE3incEv$w$9NWN4l1F8U6ZyEQx0
0001:0007ee5c  __ZN4QMapIN18QTranslatorPrivate6OffsetEPvE6removeERKS1_$w$9NWN4l1F8U6ZyEQx0
0001:0007eef8  __ZN4QMapIN18QTranslatorPrivate6OffsetEPvE6insertERKS1_RKS2_b$w$9NWN4l1F8U6ZyEQx0
0001:0007ede0  __ZN4QMapI18QTranslatorMessagePvE14detachInternalEv$w$9NWN4l1F8U6ZyEQx0
0001:0007ef8c  __ZN12QMapIteratorIN18QTranslatorPrivate6OffsetEPvE3incEv$w$9NWN4l1F8U6ZyEQx0
0001:0007eda4  __ZN11QMapPrivateIN18QTranslatorPrivate6OffsetEPvE5clearEv$w$9NWN4l1F8U6ZyEQx0
0001:0007fb80* __ZTV10QAsciiDictIiE$w$9NWN4l1F8U6ZyEQx0
0001:0007fb40  __ZTV8QIntDictIcE$w$9NWN4l1F8U6ZyEQx0
0001:0007ef5c  __ZN4QMapIN18QTranslatorPrivate6OffsetEPvE14detachInternalEv$w$9NWN4l1F8U6ZyEQx0
0001:0007f03c  __ZN11QMapPrivateI18QTranslatorMessagePvEC1Ev$w$9NWN4l1F8U6ZyEQx0
0001:0007efd8  __ZN4QMapI18QTranslatorMessagePvE6insertERKS0_RKS1_b$w$9NWN4l1F8U6ZyEQx0
0001:0007f088  __ZN4QMapI18QTranslatorMessagePvE6removeERKS0_$w$9NWN4l1F8U6ZyEQx0
0001:0007f184  __ZNK11QMapPrivateI18QTranslatorMessagePvE4findERKS0_$w$9NWN4l1F8U6ZyEQx0
0001:0007f208  __ZN17QValueListPrivateI18QTranslatorMessageEC1Ev$w$9NWN4l1F8U6ZyEQx0
0001:0007f294  __ZN17QValueListPrivateI18QTranslatorMessageE6insertE18QValueListIteratorIS0_ERKS0_$w$9NWN4l1F8U6ZyEQx0
0001:0007f248  __ZN17QMapConstIteratorI18QTranslatorMessagePvE3incEv$w$9NWN4l1F8U6ZyEQx0
0001:0007f2f0  __ZN10QValueListI18QTranslatorMessageE14detachInternalEv$w$9NWN4l1F8U6ZyEQx0
0001:0007f320  __ZN11QMapPrivateI18QTranslatorMessagePvE5clearEP8QMapNodeIS0_S1_E$w$9NWN4l1F8U6ZyEQx0
0001:0007f3ac  __ZN11QMapPrivateIN18QTranslatorPrivate6OffsetEPvE5clearEP8QMapNodeIS1_S2_E$w$9NWN4l1F8U6ZyEQx0
0001:0007f3e8  __ZN11QMapPrivateI18QTranslatorMessagePvEC1EPKS2_$w$9NWN4l1F8U6ZyEQx0
0001:0007f48c  __ZNK11QMapPrivateIN18QTranslatorPrivate6OffsetEPvE4findERKS1_$w$9NWN4l1F8U6ZyEQx0
0001:0007f510  __ZN11QMapPrivateIN18QTranslatorPrivate6OffsetEPvE12insertSingleERKS1_$w$9NWN4l1F8U6ZyEQx0
0001:0007f5cc  __ZN11QMapPrivateIN18QTranslatorPrivate6OffsetEPvEC1EPKS3_$w$9NWN4l1F8U6ZyEQx0
0001:0007f674  __ZN11QMapPrivateI18QTranslatorMessagePvE12insertSingleERKS0_$w$9NWN4l1F8U6ZyEQx0
0001:0007f728  __ZN17QValueListPrivateI18QTranslatorMessageEC1ERKS1_$w$9NWN4l1F8U6ZyEQx0
0001:0007f7b4  __ZN11QMapPrivateI18QTranslatorMessagePvE4copyEP8QMapNodeIS0_S1_E$w$9NWN4l1F8U6ZyEQx0
0001:0007f914  __ZN12QMapIteratorIN18QTranslatorPrivate6OffsetEPvE3decEv$w$9NWN4l1F8U6ZyEQx0
0001:0007f854  __ZN11QMapPrivateIN18QTranslatorPrivate6OffsetEPvE6insertEP12QMapNodeBaseS5_RKS1_$w$9NWN4l1F8U6ZyEQx0
0001:0007f96c  __ZN11QMapPrivateIN18QTranslatorPrivate6OffsetEPvE4copyEP8QMapNodeIS1_S2_E$w$9NWN4l1F8U6ZyEQx0
0001:0007fa08  __ZN11QMapPrivateI18QTranslatorMessagePvE6insertEP12QMapNodeBaseS4_RKS0_$w$9NWN4l1F8U6ZyEQx0
0001:0007fad4  __ZN12QMapIteratorI18QTranslatorMessagePvE3decEv$w$9NWN4l1F8U6ZyEQx0
0001:0007fd40  __ZNK8QIntDictIcE5countEv$w$9NWN4l1F8U6ZyEQx0
0001:0007fcf4  __ZN8QIntDictIcE5clearEv$w$9NWN4l1F8U6ZyEQx0
0001:0007fc90  __ZN8QIntDictIcED1Ev$w$9NWN4l1F8U6ZyEQx0
0001:0007fd00  __ZN8QIntDictIcED0Ev$w$9NWN4l1F8U6ZyEQx0
0001:0007fd4c  __ZN8QIntDictIcE10deleteItemEPv$w$9NWN4l1F8U6ZyEQx0
0001:0007fc84* __ZNK10QAsciiDictIiE5countEv$w$9NWN4l1F8U6ZyEQx0
0001:0007fcb8* __ZN10QAsciiDictIiE5clearEv$w$9NWN4l1F8U6ZyEQx0
0001:0007fc5c* __ZN10QAsciiDictIiED1Ev$w$9NWN4l1F8U6ZyEQx0
0001:0007fcc4* __ZN10QAsciiDictIiED0Ev$w$9NWN4l1F8U6ZyEQx0
0001:0007fd6c* __ZN10QAsciiDictIiE10deleteItemEPv$w$9NWN4l1F8U6ZyEQx0
0001:0007fbc0* __ZTV6QGList$w$9NWN4l1F8U6ZyEQx0
0001:0007fc28* __ZNK6QGList5countEv$w$9NWN4l1F8U6ZyEQx0
0001:0007fc0c* __ZN9QMemArrayIcED1Ev$w$9NWN4l1F8U6ZyEQx0
0001:0007fc34* __ZN9QMemArrayIcED0Ev$w$9NWN4l1F8U6ZyEQx0
0001:0007fd8c* __ZN9QMemArrayIcE6detachEv$w$9NWN4l1F8U6ZyEQx0
Module: C:\200\trunk\src\tmp\obj\release_mt_shared\qmetaobject.obj(qmetaobject.obj)
0001:0007fdf4  __ZN11QMetaObjectC2EPKcPS_PK9QMetaDataiS5_iPK13QMetaPropertyiPK9QMetaEnumiPK10QClassInfoi
0001:000808a0  __ZN11QMetaObject4initEPK9QMetaDatai
0001:00080a4c  __ZNK11QMetaObject13numPropertiesEb
0001:0008050c  __ZNK11QMetaObject8numSlotsEb
0001:00080560  __ZNK11QMetaObject10numSignalsEb
0001:0007fefc  __ZN11QMetaObjectC1EPKcPS_PK9QMetaDataiS5_iPK13QMetaPropertyiPK9QMetaEnumiPK10QClassInfoi
0001:00080004  __ZN11QMetaObjectC2EPKcPS_PK9QMetaDataiS5_iPK13QMetaPropertyiPK9QMetaEnumiPFbP7QObjectiiP8QVariantEPK10QClassInfoi
0001:0008010c  __ZN11QMetaObjectC1EPKcPS_PK9QMetaDataiS5_iPK13QMetaPropertyiPK9QMetaEnumiPFbP7QObjectiiP8QVariantEPK10QClassInfoi
0001:00080214  __ZN11QMetaObjectD2Ev
0001:0008030c  __ZN11QMetaObjectD1Ev
0001:00080404  __ZN11QMetaObjectD0Ev
0001:000805b8  __ZNK11QMetaObject4slotEib
0001:00080630  __ZNK11QMetaObject6signalEib
0001:000806dc  __ZNK11QMetaObject10findSignalEPKcb
0001:00080770  __ZNK11QMetaObject8findSlotEPKcb
0001:000807fc  __ZN11QMetaObject14new_metaobjectEPKcPS_PK9QMetaDataiS5_iPK13QMetaPropertyiPK9QMetaEnumiPK10QClassInfoi
0001:00080840  __ZN11QMetaObject14new_metaobjectEPKcPS_PK9QMetaDataiS5_iPK13QMetaPropertyiPK9QMetaEnumiPFbP7QObjectiiP8QVariantEPK10QClassInfoi
0001:00080928  __ZNK11QMetaObject12numClassInfoEb
0001:00080964  __ZNK11QMetaObject9classInfoEib
0001:000809bc  __ZNK11QMetaObject9classInfoEPKcb
0001:00080a84  __ZNK11QMetaObject8propertyEib
0001:00080ae4  __ZNK11QMetaObject12findPropertyEPKcb
0001:00081668  __ZNK13QMetaProperty7isValidEv
0001:00080ba4  __ZNK11QMetaObject15indexOfPropertyEPK13QMetaPropertyb
0001:00080c18  __ZNK11QMetaObject15resolvePropertyEPK13QMetaProperty
0001:00080c54  __ZNK11QMetaObject15resolvePropertyEi
0001:00080c90  __ZNK11QMetaObject13propertyNamesEb
0001:00080db0  __ZNK11QMetaObject11signalNamesEb
0001:00080e28  __ZNK11QMetaObject9slotNamesEb
0001:00080ea0  __ZNK11QMetaObject14numEnumeratorsEb
0001:00080edc  __ZNK11QMetaObject15enumeratorNamesEb
0001:00080fec  __ZNK11QMetaObject10enumeratorEPKcb
0001:00081094  __ZNK11QMetaObject8inheritsEPKc
0001:000810e0  __ZN11QMetaObject10metaObjectEPKc
0001:00081168  __ZN11QMetaObject13hasMetaObjectEPKc
0001:000811ec  __ZN11QMetaObject18qt_static_propertyEP7QObjectiiP8QVariant
0001:00081254  __ZNK13QMetaProperty8enumKeysEv
0001:000812fc  __ZNK13QMetaProperty10keyToValueEPKc
0001:00081388  __ZNK13QMetaProperty10valueToKeyEi
0001:000813e4  __ZNK13QMetaProperty11keysToValueERK8QStrList
0001:000814c8  __ZNK13QMetaProperty11valueToKeysEi
0001:00081564  __ZNK13QMetaProperty8writableEv
0001:000815b8  __ZNK13QMetaProperty6stdSetEv
0001:00081610  __ZNK13QMetaProperty2idEv
0001:00081634  __ZN13QMetaProperty5clearEv
0001:000816ec  __ZNK13QMetaProperty9isSetTypeEv
0001:0008172c  __ZNK13QMetaProperty10isEnumTypeEv
0001:00081744  __ZNK13QMetaProperty10designableEP7QObject
0001:000817f4  __ZNK13QMetaProperty10scriptableEP7QObject
0001:00081894  __ZNK13QMetaProperty6storedEP7QObject
0001:00081948  __ZNK13QMetaProperty5resetEP7QObject
0001:00081990  __ZN18QMetaObjectCleanUpC2EPKcPFP11QMetaObjectvE
0001:00081a54  __ZN18QMetaObjectCleanUpC1EPKcPFP11QMetaObjectvE
0001:00081b18  __ZN18QMetaObjectCleanUpC2Ev
0001:00081b28  __ZN18QMetaObjectCleanUpC1Ev
0001:00081b38  __ZN18QMetaObjectCleanUpD2Ev
0001:00081bfc  __ZN18QMetaObjectCleanUpD1Ev
0001:00081d08  __ZN18QMetaObjectCleanUp13setMetaObjectERP11QMetaObject
0001:00081d38  __ZTV11QMetaObject$w$nm1RQp1F8U6peGdS1
0001:00081d60  __ZTV11QMemberDict$w$nm1RQp1F8U6peGdS1
0001:00081de0* __ZTV8QStrList$w$nm1RQp1F8U6peGdS1
0001:00081e20* __ZTV8QPtrListIcE$w$nm1RQp1F8U6peGdS1
0001:00081da0  __ZTV10QAsciiDictIvE$w$nm1RQp1F8U6peGdS1
0001:00082074  __ZNK10QAsciiDictIK9QMetaDataE5countEv$w$nm1RQp1F8U6peGdS1
0001:00081fc8  __ZN10QAsciiDictIK9QMetaDataE5clearEv$w$nm1RQp1F8U6peGdS1
0001:00081fd4  __ZN11QMemberDictD1Ev$w$nm1RQp1F8U6peGdS1
0001:00082008  __ZN11QMemberDictD0Ev$w$nm1RQp1F8U6peGdS1
0001:0008210c  __ZN10QAsciiDictIK9QMetaDataE10deleteItemEPv$w$nm1RQp1F8U6peGdS1
0001:0008212c  __ZNK10QAsciiDictIvE5countEv$w$nm1RQp1F8U6peGdS1
0001:000820d8  __ZN10QAsciiDictIvE5clearEv$w$nm1RQp1F8U6peGdS1
0001:000820e4  __ZN10QAsciiDictIvED1Ev$w$nm1RQp1F8U6peGdS1
0001:00082044  __ZN10QAsciiDictIvED0Ev$w$nm1RQp1F8U6peGdS1
0001:00081fc0  __ZN10QAsciiDictIvE10deleteItemEPv$w$nm1RQp1F8U6peGdS1
0001:00082138* __ZNK8QPtrListIcE5countEv$w$nm1RQp1F8U6peGdS1
0001:00081e98* __ZN8QPtrListIcE5clearEv$w$nm1RQp1F8U6peGdS1
0001:00081ea4* __ZN8QStrListD1Ev$w$nm1RQp1F8U6peGdS1
0001:00081ed8* __ZN8QStrListD0Ev$w$nm1RQp1F8U6peGdS1
0001:00081f14* __ZN8QStrList7newItemEPv$w$nm1RQp1F8U6peGdS1
0001:00081f38* __ZN8QStrList10deleteItemEPv$w$nm1RQp1F8U6peGdS1
0001:00081f58* __ZN8QStrList12compareItemsEPvS0_$w$nm1RQp1F8U6peGdS1
0001:00081f8c* __ZN8QStrList4readER11QDataStreamRPv$w$nm1RQp1F8U6peGdS1
0001:00081fa8* __ZNK8QStrList5writeER11QDataStreamPv$w$nm1RQp1F8U6peGdS1
0001:00082080* __ZN8QPtrListIcED1Ev$w$nm1RQp1F8U6peGdS1
0001:000820a8* __ZN8QPtrListIcED0Ev$w$nm1RQp1F8U6peGdS1
0001:00082144* __ZN8QPtrListIcE10deleteItemEPv$w$nm1RQp1F8U6peGdS1
0001:00081e60* __ZTV6QGList$w$nm1RQp1F8U6peGdS1
0001:00081e8c* __ZNK6QGList5countEv$w$nm1RQp1F8U6peGdS1
0001:00082180  __ZTV10QAsciiDictIK9QMetaDataE$w$nm1RQp1F8U6peGdS1
0001:000821a8  __ZN10QAsciiDictIK9QMetaDataED1Ev$w$nm1RQp1F8U6peGdS1
0001:000821d0  __ZN10QAsciiDictIK9QMetaDataED0Ev$w$nm1RQp1F8U6peGdS1
Module: C:\200\trunk\src\tmp\obj\release_mt_shared\qmime.obj(qmime.obj)
0001:00082200  __ZN11QMimeSourceC2Ev
0001:00082228  __ZN11QMimeSourceC1Ev
0001:00082250  __ZN11QMimeSource10clearCacheEv
0001:000822e4  __ZN11QMimeSourceD2Ev
0001:00082300  __ZN11QMimeSourceD1Ev
0001:0008231c  __ZN11QMimeSourceD0Ev
0001:00082344  __ZNK11QMimeSource8providesEPKc
0001:000823f0  __ZN18QMimeSourceFactoryC2Ev
0001:00083530  __ZN18QMimeSourceFactory16setExtensionTypeERK7QStringPKc
0001:000825bc  __ZN18QMimeSourceFactoryC1Ev
0001:00082788  __ZN18QMimeSourceFactoryD2Ev
0001:00083930  __ZN18QMimeSourceFactory14defaultFactoryEv
0001:00082980  __ZN18QMimeSourceFactoryD1Ev
0001:00082b78  __ZN18QMimeSourceFactoryD0Ev
0001:00082da4  __ZNK18QMimeSourceFactory12dataInternalERK7QStringRK4QMapIS0_S0_E
0001:00083098  __ZNK18QMimeSourceFactory4dataERK7QString
0001:00083464  __ZN18QMimeSourceFactory11setFilePathERK11QStringList
0001:000834ac  __ZNK18QMimeSourceFactory8filePathEv
0001:000834c4  __ZN18QMimeSourceFactory11addFilePathERK7QString
0001:00083598  __ZNK18QMimeSourceFactory12makeAbsoluteERK7QStringS2_
0001:0008372c  __ZNK18QMimeSourceFactory4dataERK7QStringS2_
0001:000837a8  __ZN18QMimeSourceFactory7setTextERK7QStringS2_
0001:000837f0  __ZN18QMimeSourceFactory8setImageERK7QStringRK6QImage
0001:00083850  __ZN18QMimeSourceFactory9setPixmapERK7QStringRK7QPixmap
0001:000838b0  __ZN18QMimeSourceFactory7setDataERK7QStringP11QMimeSource
0001:00083970  __ZN18QMimeSourceFactory17setDefaultFactoryEPS_
0001:000839b0  __ZN18QMimeSourceFactory18takeDefaultFactoryEv
0001:000839c4  __ZN18QMimeSourceFactory10addFactoryEPS_
0001:000839e8  __ZN18QMimeSourceFactory13removeFactoryEPS_
0001:00084a70  __ZTV11QMimeSource$w$byAOaw1F8U6X8DkA2
0001:00084a00  __ZTV18QMimeSourceFactory$w$byAOaw1F8U6X8DkA2
0001:00083a0c  __ZN11QMapPrivateI7QStringP11QMimeSourceEC1Ev$w$byAOaw1F8U6X8DkA2
0001:00083aa0  __ZN11QMapPrivateI7QStringS0_EC1Ev$w$byAOaw1F8U6X8DkA2
0001:00083b4c* __ZN17QValueListPrivateI7QStringEC1Ev$w$byAOaw1F8U6X8DkA2
0001:00084a40  __ZTV8QPtrListI18QMimeSourceFactoryE$w$byAOaw1F8U6X8DkA2
0001:00083c58  __ZN12QMapIteratorI7QStringP11QMimeSourceE3incEv$w$byAOaw1F8U6X8DkA2
0001:00083b10  __ZN11QMapPrivateI7QStringS0_E5clearEv$w$byAOaw1F8U6X8DkA2
0001:00083a64  __ZN11QMapPrivateI7QStringP11QMimeSourceE5clearEv$w$byAOaw1F8U6X8DkA2
0001:00083b98* __ZN17QValueListPrivateI7QStringED1Ev$w$byAOaw1F8U6X8DkA2
0001:00083c28  __ZN4QMapI7QStringP11QMimeSourceE14detachInternalEv$w$byAOaw1F8U6X8DkA2
0001:00083ca4  __ZNK11QMapPrivateI7QStringS0_E4findERKS0_$w$byAOaw1F8U6X8DkA2
0001:00084ad0* __ZTV9QMemArrayIcE$w$byAOaw1F8U6X8DkA2
0001:00083d9c  __ZNK11QMapPrivateI7QStringP11QMimeSourceE4findERKS0_$w$byAOaw1F8U6X8DkA2
0001:00083e20* __ZN10QValueListI7QStringE14detachInternalEv$w$byAOaw1F8U6X8DkA2
0001:00083d28  __ZN4QMapI7QStringP11QMimeSourceEixERKS0_$w$byAOaw1F8U6X8DkA2
0001:00083e50* __ZN17QValueListPrivateI7QStringE6insertE18QValueListIteratorIS0_ERKS0_$w$byAOaw1F8U6X8DkA2
0001:00083eac  __ZN4QMapI7QStringS0_E6removeERKS0_$w$byAOaw1F8U6X8DkA2
0001:00083fa0  __ZN4QMapI7QStringS0_E6insertERKS0_S3_b$w$byAOaw1F8U6X8DkA2
0001:0008400c  __ZN4QMapI7QStringP11QMimeSourceE6removeERKS0_$w$byAOaw1F8U6X8DkA2
0001:000840dc  __ZN4QMapI7QStringP11QMimeSourceE6insertERKS0_RKS2_b$w$byAOaw1F8U6X8DkA2
0001:00084140  __ZN11QMapPrivateI7QStringP11QMimeSourceE5clearEP8QMapNodeIS0_S2_E$w$byAOaw1F8U6X8DkA2
0001:000841a4  __ZN11QMapPrivateI7QStringS0_E5clearEP8QMapNodeIS0_S0_E$w$byAOaw1F8U6X8DkA2
0001:00084228  __ZN11QMapPrivateI7QStringP11QMimeSourceEC1EPKS3_$w$byAOaw1F8U6X8DkA2
0001:000842d8* __ZN17QValueListPrivateI7QStringEC1ERKS1_$w$byAOaw1F8U6X8DkA2
0001:0008436c  __ZN4QMapI7QStringS0_E14detachInternalEv$w$byAOaw1F8U6X8DkA2
0001:0008439c  __ZN11QMapPrivateI7QStringS0_E12insertSingleERKS0_$w$byAOaw1F8U6X8DkA2
0001:00084450  __ZN11QMapPrivateI7QStringP11QMimeSourceE12insertSingleERKS0_$w$byAOaw1F8U6X8DkA2
0001:00084504  __ZN11QMapPrivateI7QStringP11QMimeSourceE4copyEP8QMapNodeIS0_S2_E$w$byAOaw1F8U6X8DkA2
0001:000845b4  __ZN11QMapPrivateI7QStringS0_EC1EPKS1_$w$byAOaw1F8U6X8DkA2
0001:00084680  __ZN11QMapPrivateI7QStringS0_E6insertEP12QMapNodeBaseS3_RKS0_$w$byAOaw1F8U6X8DkA2
0001:00084784  __ZN12QMapIteratorI7QStringS0_E3decEv$w$byAOaw1F8U6X8DkA2
0001:000847dc  __ZN11QMapPrivateI7QStringP11QMimeSourceE6insertEP12QMapNodeBaseS5_RKS0_$w$byAOaw1F8U6X8DkA2
0001:000848c0  __ZN12QMapIteratorI7QStringP11QMimeSourceE3decEv$w$byAOaw1F8U6X8DkA2
0001:00084918  __ZN11QMapPrivateI7QStringS0_E4copyEP8QMapNodeIS0_S0_E$w$byAOaw1F8U6X8DkA2
0001:00084bf8  __ZNK8QPtrListI18QMimeSourceFactoryE5countEv$w$byAOaw1F8U6X8DkA2
0001:00084b94  __ZN8QPtrListI18QMimeSourceFactoryE5clearEv$w$byAOaw1F8U6X8DkA2
0001:00084b6c  __ZN8QPtrListI18QMimeSourceFactoryED1Ev$w$byAOaw1F8U6X8DkA2
0001:00084ba0  __ZN8QPtrListI18QMimeSourceFactoryED0Ev$w$byAOaw1F8U6X8DkA2
0001:00084c04  __ZN8QPtrListI18QMimeSourceFactoryE10deleteItemEPv$w$byAOaw1F8U6X8DkA2
0001:00084aa0* __ZTV6QGList$w$byAOaw1F8U6X8DkA2
0001:00084b60* __ZNK6QGList5countEv$w$byAOaw1F8U6X8DkA2
0001:00084b44* __ZN9QMemArrayIcED1Ev$w$byAOaw1F8U6X8DkA2
0001:00084bd0* __ZN9QMemArrayIcED0Ev$w$byAOaw1F8U6X8DkA2
0001:00084c2c* __ZN9QMemArrayIcE6detachEv$w$byAOaw1F8U6X8DkA2
Module: C:\200\trunk\src\tmp\obj\release_mt_shared\qmovie.obj(qmovie.obj)
0001:00084c80  __ZN13QMoviePrivateC2Ev
0001:000854c4  __ZN13QMoviePrivate4initEb
0001:00084d8c  __ZN13QMoviePrivateC1Ev
0001:00084eac  __ZN13QMoviePrivateC2EP11QDataSourceP6QMoviei
0001:00085028  __ZN13QMoviePrivateC1EP11QDataSourceP6QMoviei
0001:000851a4  __ZN13QMoviePrivateD2Ev
0001:0008529c  __ZN13QMoviePrivateD1Ev
0001:000853a0  __ZN13QMoviePrivateD0Ev
0001:000854b0  __ZNK13QMoviePrivate6isNullEv
0001:00085664  __ZN13QMoviePrivate11flushBufferEv
0001:00086e88  __ZN13QMoviePrivate10dataStatusEi
0001:00085798  __ZN13QMoviePrivate21updatePixmapFromImageEv
0001:000857e8  __ZN13QMoviePrivate21updatePixmapFromImageERK6QPointRK5QRect
0001:00085b24  __ZN13QMoviePrivate11showChangesEv
0001:00086df8  __ZN13QMoviePrivate11areaChangedERK5QRect
0001:00085bac  __ZN13QMoviePrivate7changedERK5QRect
0001:00085c28  __ZN13QMoviePrivate3endEv
0001:00085c40  __ZN13QMoviePrivate12preFrameDoneEv
0001:00085e04  __ZN13QMoviePrivate12restartTimerEv
0001:00085c98  __ZN13QMoviePrivate9frameDoneEv
0001:00085cd0  __ZN13QMoviePrivate9frameDoneERK6QPointRK5QRect
0001:00086d6c  __ZN13QMoviePrivate11sizeChangedERK5QSize
0001:00085e88  __ZN13QMoviePrivate10setLoopingEi
0001:00085ef4  __ZN13QMoviePrivate14setFramePeriodEi
0001:00085f24  __ZN13QMoviePrivate7setSizeEii
0001:00085f7c  __ZN13QMoviePrivate14readyToReceiveEv
0001:00085fbc  __ZN13QMoviePrivate7receiveEPKhi
0001:00086074  __ZN13QMoviePrivate3eofEv
0001:00086188  __ZN13QMoviePrivate5pauseEv
0001:000861c8  __ZN13QMoviePrivate7refreshEv
0001:0008623c  __ZN6QMovieC2Ev
0001:00086264  __ZN6QMovieC1Ev
0001:0008628c  __ZN6QMovieC2Ei
0001:000862bc  __ZN6QMovieC1Ei
0001:000862ec  __ZNK6QMovie9pushSpaceEv
0001:00086300  __ZN6QMovie8pushDataEPKhi
0001:00086320  __ZN6QMovieC2EP11QDataSourcei
0001:00086350  __ZN6QMovieC1EP11QDataSourcei
0001:00086380  __ZN6QMovieC2ERK7QStringi
0001:00086408  __ZN6QMovieC1ERK7QStringi
0001:00086490  __ZN6QMovieC2E9QMemArrayIcEi
0001:00086524  __ZN6QMovieC1E9QMemArrayIcEi
0001:000865b8  __ZN6QMovieC2ERKS_
0001:000865cc  __ZN6QMovieC1ERKS_
0001:000865e0  __ZN6QMovieD2Ev
0001:0008660c  __ZN6QMovieD1Ev
0001:00086638  __ZNK6QMovie6isNullEv
0001:00086650  __ZN6QMovieaSERKS_
0001:0008668c  __ZN6QMovie18setBackgroundColorERK6QColor
0001:000866a4  __ZNK6QMovie15backgroundColorEv
0001:000866b4  __ZNK6QMovie12getValidRectEv
0001:000866c4  __ZNK6QMovie11framePixmapEv
0001:000866d4  __ZNK6QMovie10frameImageEv
0001:000866e4  __ZNK6QMovie5stepsEv
0001:000866f4  __ZNK6QMovie11frameNumberEv
0001:00086704  __ZNK6QMovie6pausedEv
0001:0008671c  __ZNK6QMovie8finishedEv
0001:00086734  __ZNK6QMovie7runningEv
0001:0008675c  __ZN6QMovie5pauseEv
0001:00086770  __ZN6QMovie7unpauseEv
0001:000867b4  __ZN6QMovie4stepEi
0001:00086800  __ZN6QMovie4stepEv
0001:00086818  __ZN6QMovie7restartEv
0001:000868b0  __ZNK6QMovie5speedEv
0001:000868c0  __ZN6QMovie8setSpeedEi
0001:00086940  __ZN6QMovie13connectResizeEP7QObjectPKc
0001:00086960  __ZN6QMovie16disconnectResizeEP7QObjectPKc
0001:0008699c  __ZN6QMovie13connectUpdateEP7QObjectPKc
0001:000869bc  __ZN6QMovie16disconnectUpdateEP7QObjectPKc
0001:000869f0  __ZN6QMovie13connectStatusEP7QObjectPKc
0001:00086a10  __ZN6QMovie16disconnectStatusEP7QObjectPKc
0001:00086a40  __ZNK13QMoviePrivate9classNameEv
0001:00086a4c  __ZN13QMoviePrivate2trEPKcS1_
0001:00086a8c  __ZN13QMoviePrivate6trUtf8EPKcS1_
0001:00086be4  __ZN13QMoviePrivate16staticMetaObjectEv
0001:00086c64  __ZN13QMoviePrivate7qt_castEPKc
0001:00086eac  __ZN13QMoviePrivate9qt_invokeEiP8QUObject
0001:00086eec  __ZN13QMoviePrivate7qt_emitEiP8QUObject
0001:00086f64  __ZN13QMoviePrivate11qt_propertyEiiP8QVariant
0001:00086f80  __ZN13QMoviePrivate18qt_static_propertyEP7QObjectiiP8QVariant
0002:00003850  __ZN13QMoviePrivate7metaObjE
0001:00086fa0  __ZTV13QMoviePrivate$w$dNxfHC1F8U65FFDk2
0001:000870a0* __ZTV7QBitmap$w$dNxfHC1F8U65FFDk2
0001:00087068  __ZTV9QDataSink$w$dNxfHC1F8U65FFDk2
0001:00085394  __ZThn44_N13QMoviePrivateD1Ev$w$dNxfHC1F8U65FFDk2
0001:000854a4  __ZThn44_N13QMoviePrivateD0Ev$w$dNxfHC1F8U65FFDk2
0001:00085c20  __ZThn92_N13QMoviePrivate7changedERK5QRect$w$dNxfHC1F8U65FFDk2
0001:00085c38  __ZThn92_N13QMoviePrivate3endEv$w$dNxfHC1F8U65FFDk2
0001:00085cc8  __ZThn92_N13QMoviePrivate9frameDoneEv$w$dNxfHC1F8U65FFDk2
0001:00085df8  __ZThn92_N13QMoviePrivate9frameDoneERK6QPointRK5QRect$w$dNxfHC1F8U65FFDk2
0001:00085eec  __ZThn92_N13QMoviePrivate10setLoopingEi$w$dNxfHC1F8U65FFDk2
0001:00085f1c  __ZThn92_N13QMoviePrivate14setFramePeriodEi$w$dNxfHC1F8U65FFDk2
0001:00085f74  __ZThn92_N13QMoviePrivate7setSizeEii$w$dNxfHC1F8U65FFDk2
0001:00085fb4  __ZThn44_N13QMoviePrivate14readyToReceiveEv$w$dNxfHC1F8U65FFDk2
0001:00086068  __ZThn44_N13QMoviePrivate7receiveEPKhi$w$dNxfHC1F8U65FFDk2
0001:0008617c  __ZThn44_N13QMoviePrivate3eofEv$w$dNxfHC1F8U65FFDk2
0001:00087110* __ZTV9QMemArrayIcE$w$dNxfHC1F8U65FFDk2
0001:00087228  __ZNK13QMoviePrivate10metaObjectEv$w$dNxfHC1F8U65FFDk2
0001:0008720c  __ZN9QDataSinkD1Ev$w$dNxfHC1F8U65FFDk2
0001:000871e4  __ZN9QDataSinkD0Ev$w$dNxfHC1F8U65FFDk2
0001:000871c8* __ZN7QBitmapD1Ev$w$dNxfHC1F8U65FFDk2
0001:000871a0* __ZN7QBitmapD0Ev$w$dNxfHC1F8U65FFDk2
0001:000870e0* __ZTV6QGList$w$dNxfHC1F8U65FFDk2
0001:00087194* __ZNK6QGList5countEv$w$dNxfHC1F8U65FFDk2
0001:00087178* __ZN9QMemArrayIcED1Ev$w$dNxfHC1F8U65FFDk2
0001:00087234* __ZN9QMemArrayIcED0Ev$w$dNxfHC1F8U65FFDk2
0001:0008725c* __ZN9QMemArrayIcE6detachEv$w$dNxfHC1F8U65FFDk2
Module: C:\200\trunk\src\tmp\obj\release_mt_shared\qnetworkprotocol.obj(qnetworkprotocol.obj)
0001:0008751c  __ZN16QNetworkProtocolC2Ev
0001:000883dc  __ZNK16QNetworkProtocol3urlEv
0001:000877b8  __ZN16QNetworkProtocolC1Ev
0001:00087a70  __ZN16QNetworkProtocolD2Ev
0001:00089138  __ZN17QNetworkOperation8setStateEN16QNetworkProtocol5StateE
0001:00089188  __ZN17QNetworkOperation17setProtocolDetailERK7QString
0001:00087b14  __ZN16QNetworkProtocolD1Ev
0001:00087bb8  __ZN16QNetworkProtocolD0Ev
0001:00087c64  __ZN16QNetworkProtocol6setUrlEP12QUrlOperator
0001:00087f34  __ZN16QNetworkProtocol15checkConnectionEP17QNetworkOperation
0001:00087f40  __ZNK16QNetworkProtocol19supportedOperationsEv
0001:00087f48  __ZN16QNetworkProtocol12addOperationEP17QNetworkOperation
0001:00087f8c  __ZN16QNetworkProtocol23registerNetworkProtocolERK7QStringP27QNetworkProtocolFactoryBase
0001:00088040  __ZN16QNetworkProtocol18getNetworkProtocolERK7QString
0001:00088118  __ZN16QNetworkProtocol22hasOnlyLocalFileSystemEv
0001:000881dc  __ZN16QNetworkProtocol8startOpsEv
0001:000882c8  __ZN16QNetworkProtocol20processNextOperationEP17QNetworkOperation
0001:000881f4  __ZN16QNetworkProtocol16processOperationEP17QNetworkOperation
0001:00089304  __ZNK17QNetworkOperation9operationEv
0001:00088290  __ZN16QNetworkProtocol21operationListChildrenEP17QNetworkOperation
0001:00088298  __ZN16QNetworkProtocol14operationMkDirEP17QNetworkOperation
0001:000882a0  __ZN16QNetworkProtocol15operationRemoveEP17QNetworkOperation
0001:000882a8  __ZN16QNetworkProtocol15operationRenameEP17QNetworkOperation
0001:000882b0  __ZN16QNetworkProtocol12operationGetEP17QNetworkOperation
0001:000882b8  __ZN16QNetworkProtocol12operationPutEP17QNetworkOperation
0001:000882c0  __ZN16QNetworkProtocol17operationPutChunkEP17QNetworkOperation
0001:00089350  __ZNK17QNetworkOperation5stateEv
0001:000883ec  __ZNK16QNetworkProtocol19operationInProgressEv
0001:000883fc  __ZN16QNetworkProtocol19clearOperationQueueEv
0001:0008842c  __ZN16QNetworkProtocol4stopEv
0001:00089580  __ZN17QNetworkOperation4freeEv
0001:000884c0  __ZN16QNetworkProtocol13setAutoDeleteEbi
0001:000884d8  __ZNK16QNetworkProtocol10autoDeleteEv
0001:000884e8  __ZN16QNetworkProtocol8removeMeEv
0001:00088514  __ZN16QNetworkProtocol15emitNewChildrenERK8QUrlInfoP17QNetworkOperation
0001:000885c8  __ZN17QNetworkOperationC2EN16QNetworkProtocol9OperationERK7QStringS4_S4_
0001:000887f8  __ZN17QNetworkOperationC1EN16QNetworkProtocol9OperationERK7QStringS4_S4_
0001:00088a28  __ZN17QNetworkOperationC2EN16QNetworkProtocol9OperationERK9QMemArrayIcES5_S5_
0001:00088bfc  __ZN17QNetworkOperationC1EN16QNetworkProtocol9OperationERK9QMemArrayIcES5_S5_
0001:00088dd0  __ZN17QNetworkOperationD2Ev
0001:00088ef0  __ZN17QNetworkOperationD1Ev
0001:00089010  __ZN17QNetworkOperationD0Ev
0001:000891e4  __ZN17QNetworkOperation12setErrorCodeEi
0001:00089234  __ZN17QNetworkOperation6setArgEiRK7QString
0001:0008929c  __ZN17QNetworkOperation9setRawArgEiRK9QMemArrayIcE
0001:0008939c  __ZNK17QNetworkOperation3argEi
0001:00089408  __ZNK17QNetworkOperation6rawArgEi
0001:0008947c  __ZNK17QNetworkOperation14protocolDetailEv
0001:000894dc  __ZNK17QNetworkOperation9errorCodeEv
0001:00089528  __ZNK17QNetworkOperation3rawEi
0001:000895a0  __ZN17QNetworkOperation8deleteMeEv
0002:00003870  _qNetworkProtocolRegister
0001:0008a300  __ZTV9QPtrQueueI17QNetworkOperationE$w$Pwx6yI1F8U6zWhvY3
0001:0008a2c0  __ZTV8QPtrListI17QNetworkOperationE$w$Pwx6yI1F8U6zWhvY3
0001:0008a404  __ZN23QNetworkProtocolPrivateD1Ev$w$Pwx6yI1F8U6zWhvY3
0001:0008a280  __ZTV5QDictI27QNetworkProtocolFactoryBaseE$w$Pwx6yI1F8U6zWhvY3
0001:0008a270  __ZTV23QNetworkProtocolFactoryI8QLocalFsE$w$Pwx6yI1F8U6zWhvY3
0001:000895cc  __ZN17QValueListPrivateI8QUrlInfoEC1Ev$w$Pwx6yI1F8U6zWhvY3
0001:00089670  __ZN17QValueListPrivateI8QUrlInfoE6insertE18QValueListIteratorIS0_ERKS0_$w$Pwx6yI1F8U6zWhvY3
0001:0008960c  __ZN17QValueListPrivateI8QUrlInfoED1Ev$w$Pwx6yI1F8U6zWhvY3
0001:000896cc  __ZN10QValueListI8QUrlInfoE14detachInternalEv$w$Pwx6yI1F8U6zWhvY3
0001:0008984c  __ZN11QMapPrivateIi7QStringEC1Ev$w$Pwx6yI1F8U6zWhvY3
0001:000898e0  __ZN11QMapPrivateIi9QMemArrayIcEEC1Ev$w$Pwx6yI1F8U6zWhvY3
0001:000896fc  __ZN4QMapIi7QStringEixERKi$w$Pwx6yI1F8U6zWhvY3
0001:000897ac  __ZN4QMapIi9QMemArrayIcEEixERKi$w$Pwx6yI1F8U6zWhvY3
0001:0008a370* __ZTV9QMemArrayIcE$w$Pwx6yI1F8U6zWhvY3
0001:00089934  __ZN11QMapPrivateIi9QMemArrayIcEE5clearEv$w$Pwx6yI1F8U6zWhvY3
0001:000898a4  __ZN11QMapPrivateIi7QStringE5clearEv$w$Pwx6yI1F8U6zWhvY3
0001:00089970  __ZN17QValueListPrivateI8QUrlInfoEC1ERKS1_$w$Pwx6yI1F8U6zWhvY3
0001:000899fc  __ZNK11QMapPrivateIi7QStringE4findERKi$w$Pwx6yI1F8U6zWhvY3
0001:00089a4c  __ZN4QMapIi7QStringE6insertERKiRKS0_b$w$Pwx6yI1F8U6zWhvY3
0001:00089ab8  __ZN4QMapIi7QStringE14detachInternalEv$w$Pwx6yI1F8U6zWhvY3
0001:00089ae8  __ZNK11QMapPrivateIi9QMemArrayIcEE4findERKi$w$Pwx6yI1F8U6zWhvY3
0001:00089b38  __ZN4QMapIi9QMemArrayIcEE6insertERKiRKS1_b$w$Pwx6yI1F8U6zWhvY3
0001:00089ba4  __ZN4QMapIi9QMemArrayIcEE14detachInternalEv$w$Pwx6yI1F8U6zWhvY3
0001:00089bd4  __ZN11QMapPrivateIi7QStringE5clearEP8QMapNodeIiS0_E$w$Pwx6yI1F8U6zWhvY3
0001:00089c38  __ZN11QMapPrivateIi9QMemArrayIcEE5clearEP8QMapNodeIiS1_E$w$Pwx6yI1F8U6zWhvY3
0001:00089c88  __ZN11QMapPrivateIi7QStringE12insertSingleERKi$w$Pwx6yI1F8U6zWhvY3
0001:00089d24  __ZN11QMapPrivateIi7QStringEC1EPKS1_$w$Pwx6yI1F8U6zWhvY3
0001:00089dd4  __ZN11QMapPrivateIi9QMemArrayIcEE12insertSingleERKi$w$Pwx6yI1F8U6zWhvY3
0001:00089e70  __ZN11QMapPrivateIi9QMemArrayIcEEC1EPKS2_$w$Pwx6yI1F8U6zWhvY3
0001:00089f1c  __ZN11QMapPrivateIi7QStringE6insertEP12QMapNodeBaseS3_RKi$w$Pwx6yI1F8U6zWhvY3
0001:00089fc4  __ZN12QMapIteratorIi7QStringE3decEv$w$Pwx6yI1F8U6zWhvY3
0001:0008a01c  __ZN11QMapPrivateIi7QStringE4copyEP8QMapNodeIiS0_E$w$Pwx6yI1F8U6zWhvY3
0001:0008a0cc  __ZN11QMapPrivateIi9QMemArrayIcEE6insertEP12QMapNodeBaseS4_RKi$w$Pwx6yI1F8U6zWhvY3
0001:0008a170  __ZN12QMapIteratorIi9QMemArrayIcEE3decEv$w$Pwx6yI1F8U6zWhvY3
0001:0008a1c8  __ZN11QMapPrivateIi9QMemArrayIcEE4copyEP8QMapNodeIiS1_E$w$Pwx6yI1F8U6zWhvY3
0001:0008a5a0  __ZN23QNetworkProtocolFactoryI8QLocalFsE12createObjectEv$w$Pwx6yI1F8U6zWhvY3
0001:0008a5c0  __ZNK5QDictI27QNetworkProtocolFactoryBaseE5countEv$w$Pwx6yI1F8U6zWhvY3
0001:0008a5cc  __ZN5QDictI27QNetworkProtocolFactoryBaseE5clearEv$w$Pwx6yI1F8U6zWhvY3
0001:0008a5d8  __ZN5QDictI27QNetworkProtocolFactoryBaseED1Ev$w$Pwx6yI1F8U6zWhvY3
0001:0008a600  __ZN5QDictI27QNetworkProtocolFactoryBaseED0Ev$w$Pwx6yI1F8U6zWhvY3
0001:0008a630  __ZN5QDictI27QNetworkProtocolFactoryBaseE10deleteItemEPv$w$Pwx6yI1F8U6zWhvY3
0001:0008a650  __ZNK8QPtrListI17QNetworkOperationE5countEv$w$Pwx6yI1F8U6zWhvY3
0001:0008a53c  __ZN8QPtrListI17QNetworkOperationE5clearEv$w$Pwx6yI1F8U6zWhvY3
0001:0008a3dc  __ZN8QPtrListI17QNetworkOperationED1Ev$w$Pwx6yI1F8U6zWhvY3
0001:0008a548  __ZN8QPtrListI17QNetworkOperationED0Ev$w$Pwx6yI1F8U6zWhvY3
0001:0008a65c  __ZN8QPtrListI17QNetworkOperationE10deleteItemEPv$w$Pwx6yI1F8U6zWhvY3
0001:0008a684  __ZNK9QPtrQueueI17QNetworkOperationE5countEv$w$Pwx6yI1F8U6zWhvY3
0001:0008a500  __ZN9QPtrQueueI17QNetworkOperationE5clearEv$w$Pwx6yI1F8U6zWhvY3
0001:0008a3b4  __ZN9QPtrQueueI17QNetworkOperationED1Ev$w$Pwx6yI1F8U6zWhvY3
0001:0008a50c  __ZN9QPtrQueueI17QNetworkOperationED0Ev$w$Pwx6yI1F8U6zWhvY3
0001:0008a690  __ZN9QPtrQueueI17QNetworkOperationE10deleteItemEPv$w$Pwx6yI1F8U6zWhvY3
0001:0008a340* __ZTV6QGList$w$Pwx6yI1F8U6zWhvY3
0001:0008a3a8* __ZNK6QGList5countEv$w$Pwx6yI1F8U6zWhvY3
0001:0008a38c* __ZN9QMemArrayIcED1Ev$w$Pwx6yI1F8U6zWhvY3
0001:0008a578* __ZN9QMemArrayIcED0Ev$w$Pwx6yI1F8U6zWhvY3
0001:0008a6b8* __ZN9QMemArrayIcE6detachEv$w$Pwx6yI1F8U6zWhvY3
Module: C:\200\trunk\src\tmp\obj\release_mt_shared\qobject.obj(qobject.obj)
0001:0008a8ec  __Z17qt_find_obj_childP7QObjectPKcS2_
0001:0008b64c  __ZNK7QObject4nameEv
0001:0008b5ec  __ZNK7QObject8inheritsEPKc
0001:0008ac60  __ZN7QObjectC2EPS_PKc
0001:0008acf8  __ZN7QObjectC1EPS_PKc
0001:0008ad90  __ZN7QObjectD2Ev
0001:0008d2a0  __ZN7QObject10disconnectEPKS_PKcS1_S3_
0001:0008b03c  __ZN7QObjectD1Ev
0001:0008b2e8  __ZN7QObjectD0Ev
0001:0008b5a0  __ZNK7QObject3isAEPKc
0001:0008b60c  __Z14qt_inheritedByP11QMetaObjectPK7QObject
0001:0008b660  __ZN7QObject7setNameEPKc
0001:0008b6a0  __ZNK7QObject4nameEPKc
0001:0008b6bc  __ZN7QObject5childEPKcS1_b
0001:0008b818  __ZN7QObject5eventEP6QEvent
0001:0008b8f0  __ZN7QObject16activate_filtersEP6QEvent
0001:0008b8d0  __ZN7QObject10timerEventEP11QTimerEvent
0001:0008b8d8  __ZN7QObject10childEventEP11QChildEvent
0001:0008b8e0  __ZN7QObject11customEventEP12QCustomEvent
0001:0008b8e8  __ZN7QObject11eventFilterEPS_P6QEvent
0001:0008b988  __ZN7QObject12blockSignalsEb
0001:0008b9a4  __ZN7QObject10startTimerEi
0001:0008b9c0  __ZN7QObject9killTimerEi
0001:0008b9d0  __ZN7QObject10killTimersEv
0001:0008bb5c  __ZN7QObject11objectTreesEv
0001:0008bb7c  __ZNK7QObject9queryListEPKcS1_bb
0001:0008bca0  __ZNK7QObject9receiversEPKc
0001:0008bd24  __ZNK7QObject9receiversEi
0001:0008be98  __ZN7QObject11insertChildEPS_
0001:0008bfd0  __ZN7QObject11removeChildEPS_
0001:0008c0c8  __ZN7QObject18installEventFilterEPKS_
0001:0008c844  __ZN7QObject7connectEPKS_PKcS1_S3_
0001:0008c17c  __ZN7QObject17removeEventFilterEPKS_
0001:0008c5cc  __ZN7QObject6senderEv
0001:0008c660  __ZN7QObject13connectNotifyEPKc
0001:0008c668  __ZN7QObject16disconnectNotifyEPKc
0001:0008c670  __ZN7QObject16checkConnectArgsEPKcPKS_S1_
0001:0008c724  __ZN7QObject19normalizeSignalSlotEPKc
0001:0008d030  __ZN7QObject15connectInternalEPKS_iS1_ii
0001:0008d64c  __ZN7QObject18disconnectInternalEPKS_iS1_ii
0001:0008d878  __ZN7QObject11deleteLaterEv
0001:0008d8a8  __ZN7QObject18cleanupEventFilterEPS_
0001:0008dc74  __ZN7QObject18staticQtMetaObjectEv
0001:0008dcdc  __ZN7QObject15activate_signalEi
0001:0008ddcc  __ZN7QObject15activate_signalEP15QConnectionListP8QUObject
0001:0008df4c  __ZN7QObject15activate_signalEii
0001:0008e07c  __ZN7QObject15activate_signalEid
0001:0008e1bc  __ZN7QObject15activate_signalEi7QString
0001:0008e2ec  __ZN7QObject20activate_signal_boolEib
0001:0008e430  __ZN7QObject14dumpObjectTreeEv
0001:0008e448  __ZN7QObject14dumpObjectInfoEv
0001:0008e4a8  __ZN7QObject11setPropertyEPKcRK8QVariant
0001:0008e86c  __ZNK7QObject8propertyEPKc
0001:0008e8f8  __ZN7QObject16registerUserDataEv
0001:0008e90c  __ZN15QObjectUserDataD2Ev
0001:0008e91c  __ZN15QObjectUserDataD1Ev
0001:0008e92c  __ZN15QObjectUserDataD0Ev
0001:0008e940  __ZN7QObject11setUserDataEjP15QObjectUserData
0001:0008e9b8  __ZNK7QObject8userDataEj
0002:00003880  _qt_preliminary_signal_spy
0001:0008ec40  __ZTV11QObjectList$w$beeqpQ1F8U64tPOd1
0001:0008ec00  __ZTV15QConnectionList$w$beeqpQ1F8U64tPOd1
0001:0008ebc0  __ZTV10QSignalVec$w$beeqpQ1F8U64tPOd1
0001:0008ec70  __ZTV11QChildEvent$w$beeqpQ1F8U64tPOd1
0001:0008eb40  __ZTV17QSenderObjectList$w$beeqpQ1F8U64tPOd1
0001:0008ec80* __ZTV8QStrList$w$beeqpQ1F8U64tPOd1
0001:0008ecc0* __ZTV8QPtrListIcE$w$beeqpQ1F8U64tPOd1
0001:0008e9dc* __ZN17QValueListPrivateI7QStringED1Ev$w$beeqpQ1F8U64tPOd1
0001:0008ea6c* __ZN10QValueListI7QStringE14detachInternalEv$w$beeqpQ1F8U64tPOd1
0001:0008eb30  __ZTV15QObjectUserData$w$beeqpQ1F8U64tPOd1
0001:0008eb80  __ZTV14QObjectPrivate$w$beeqpQ1F8U64tPOd1
0001:0008ea9c* __ZN17QValueListPrivateI7QStringEC1ERKS1_$w$beeqpQ1F8U64tPOd1
0001:0008f1a4* __ZN17QValueListPrivateI7QStringE6insertE18QValueListIteratorIS0_ERKS0_$w$beeqpQ1F8U64tPOd1
0001:0008f200  __ZNK8QPtrListI7QObjectE5countEv$w$beeqpQ1F8U64tPOd1
0001:0008eef8  __ZN8QPtrListI7QObjectE5clearEv$w$beeqpQ1F8U64tPOd1
0001:0008f100  __ZN17QSenderObjectListD1Ev$w$beeqpQ1F8U64tPOd1
0001:0008f0c4  __ZN17QSenderObjectListD0Ev$w$beeqpQ1F8U64tPOd1
0001:0008f20c  __ZN8QPtrListI7QObjectE10deleteItemEPv$w$beeqpQ1F8U64tPOd1
0001:0008f234  __ZNK10QPtrVectorI15QObjectUserDataE5countEv$w$beeqpQ1F8U64tPOd1
0001:0008f198  __ZN10QPtrVectorI15QObjectUserDataE5clearEv$w$beeqpQ1F8U64tPOd1
0001:0008f09c  __ZN14QObjectPrivateD1Ev$w$beeqpQ1F8U64tPOd1
0001:0008f06c  __ZN14QObjectPrivateD0Ev$w$beeqpQ1F8U64tPOd1
0001:0008f240  __ZN10QPtrVectorI15QObjectUserDataE10deleteItemEPv$w$beeqpQ1F8U64tPOd1
0001:0008f268  __ZNK10QPtrVectorI15QConnectionListE5countEv$w$beeqpQ1F8U64tPOd1
0001:0008eff0  __ZN10QPtrVectorI15QConnectionListE5clearEv$w$beeqpQ1F8U64tPOd1
0001:0008effc  __ZN10QSignalVecD1Ev$w$beeqpQ1F8U64tPOd1
0001:0008f030  __ZN10QSignalVecD0Ev$w$beeqpQ1F8U64tPOd1
0001:0008f274  __ZN10QPtrVectorI15QConnectionListE10deleteItemEPv$w$beeqpQ1F8U64tPOd1
0001:0008f134  __ZNK8QPtrListI11QConnectionE5countEv$w$beeqpQ1F8U64tPOd1
0001:0008ef74  __ZN8QPtrListI11QConnectionE5clearEv$w$beeqpQ1F8U64tPOd1
0001:0008ef80  __ZN15QConnectionListD1Ev$w$beeqpQ1F8U64tPOd1
0001:0008efb4  __ZN15QConnectionListD0Ev$w$beeqpQ1F8U64tPOd1
0001:0008f29c  __ZN8QPtrListI11QConnectionE10deleteItemEPv$w$beeqpQ1F8U64tPOd1
0001:0008ef04  __ZN11QObjectListD1Ev$w$beeqpQ1F8U64tPOd1
0001:0008ef38  __ZN11QObjectListD0Ev$w$beeqpQ1F8U64tPOd1
0001:0008eedc  __ZN11QChildEventD1Ev$w$beeqpQ1F8U64tPOd1
0001:0008eeb4  __ZN11QChildEventD0Ev$w$beeqpQ1F8U64tPOd1
0001:0008f2bc* __ZNK8QPtrListIcE5countEv$w$beeqpQ1F8U64tPOd1
0001:0008ed8c* __ZN8QPtrListIcE5clearEv$w$beeqpQ1F8U64tPOd1
0001:0008ed98* __ZN8QStrListD1Ev$w$beeqpQ1F8U64tPOd1
0001:0008edcc* __ZN8QStrListD0Ev$w$beeqpQ1F8U64tPOd1
0001:0008ee08* __ZN8QStrList7newItemEPv$w$beeqpQ1F8U64tPOd1
0001:0008ee2c* __ZN8QStrList10deleteItemEPv$w$beeqpQ1F8U64tPOd1
0001:0008ee4c* __ZN8QStrList12compareItemsEPvS0_$w$beeqpQ1F8U64tPOd1
0001:0008ee80* __ZN8QStrList4readER11QDataStreamRPv$w$beeqpQ1F8U64tPOd1
0001:0008ee9c* __ZNK8QStrList5writeER11QDataStreamPv$w$beeqpQ1F8U64tPOd1
0001:0008f140* __ZN8QPtrListIcED1Ev$w$beeqpQ1F8U64tPOd1
0001:0008f168* __ZN8QPtrListIcED0Ev$w$beeqpQ1F8U64tPOd1
0001:0008f2c8* __ZN8QPtrListIcE10deleteItemEPv$w$beeqpQ1F8U64tPOd1
0001:0008ed00* __ZTV6QGList$w$beeqpQ1F8U64tPOd1
0001:0008ed80* __ZNK6QGList5countEv$w$beeqpQ1F8U64tPOd1
0001:0008f3c0  __ZTV8QPtrListI7QObjectE$w$beeqpQ1F8U64tPOd1
0001:0008f380  __ZTV8QPtrListI11QConnectionE$w$beeqpQ1F8U64tPOd1
0001:0008f340  __ZTV10QPtrVectorI15QConnectionListE$w$beeqpQ1F8U64tPOd1
0001:0008f300  __ZTV10QPtrVectorI15QObjectUserDataE$w$beeqpQ1F8U64tPOd1
0001:0008f4f4  __ZN10QPtrVectorI15QObjectUserDataED1Ev$w$beeqpQ1F8U64tPOd1
0001:0008f51c  __ZN10QPtrVectorI15QObjectUserDataED0Ev$w$beeqpQ1F8U64tPOd1
0001:0008f444  __ZN10QPtrVectorI15QConnectionListED1Ev$w$beeqpQ1F8U64tPOd1
0001:0008f46c  __ZN10QPtrVectorI15QConnectionListED0Ev$w$beeqpQ1F8U64tPOd1
0001:0008f49c  __ZN8QPtrListI11QConnectionED1Ev$w$beeqpQ1F8U64tPOd1
0001:0008f4c4  __ZN8QPtrListI11QConnectionED0Ev$w$beeqpQ1F8U64tPOd1
0001:0008f3ec  __ZN8QPtrListI7QObjectED1Ev$w$beeqpQ1F8U64tPOd1
0001:0008f414  __ZN8QPtrListI7QObjectED0Ev$w$beeqpQ1F8U64tPOd1
Module: C:\200\trunk\src\tmp\obj\release_mt_shared\qobjectcleanuphandler.obj(qobjectcleanuphandler.obj)
0001:0008f580  __ZN21QObjectCleanupHandlerC2Ev
0001:0008f5ac  __ZN21QObjectCleanupHandlerC1Ev
0001:0008f5d8  __ZN21QObjectCleanupHandlerD2Ev
0001:0008f76c  __ZN21QObjectCleanupHandler5clearEv
0001:0008f600  __ZN21QObjectCleanupHandlerD1Ev
0001:0008f628  __ZN21QObjectCleanupHandlerD0Ev
0001:0008f688  __ZN21QObjectCleanupHandler3addEP7QObject
0001:0008f6f8  __ZN21QObjectCleanupHandler6removeEP7QObject
0001:0008f74c  __ZNK21QObjectCleanupHandler7isEmptyEv
0001:0008f798  __ZN21QObjectCleanupHandler15objectDestroyedEP7QObject
0001:0008f7e0* __ZTV11QObjectList$w$1R2TGT1F8U6GRXiy4
0001:0008f8d4* __ZNK8QPtrListI7QObjectE5countEv$w$1R2TGT1F8U6GRXiy4
0001:0008f858* __ZN8QPtrListI7QObjectE5clearEv$w$1R2TGT1F8U6GRXiy4
0001:0008f864* __ZN11QObjectListD1Ev$w$1R2TGT1F8U6GRXiy4
0001:0008f898* __ZN11QObjectListD0Ev$w$1R2TGT1F8U6GRXiy4
0001:0008f8e0* __ZN8QPtrListI7QObjectE10deleteItemEPv$w$1R2TGT1F8U6GRXiy4
0001:0008f820* __ZTV6QGList$w$1R2TGT1F8U6GRXiy4
0001:0008f84c* __ZNK6QGList5countEv$w$1R2TGT1F8U6GRXiy4
0001:0008f920* __ZTV8QPtrListI7QObjectE$w$1R2TGT1F8U6GRXiy4
0001:0008f94c* __ZN8QPtrListI7QObjectED1Ev$w$1R2TGT1F8U6GRXiy4
0001:0008f974* __ZN8QPtrListI7QObjectED0Ev$w$1R2TGT1F8U6GRXiy4
Module: C:\200\trunk\src\tmp\obj\release_mt_shared\qpainter.obj(qpainter.obj)
0001:0008f9c0  __ZN8QPainterC2Ev
0001:00094854  __ZN4QPenC1Ev
0001:00094e10  __ZN6QBrushC1Ev
0001:0008fa64  __ZN8QPainterC1Ev
0001:0008fb08  __ZN8QPainterC2EPK12QPaintDeviceb
0001:0008fbcc  __ZN8QPainterC1EPK12QPaintDeviceb
0001:0008fc90  __ZN8QPainterC2EPK12QPaintDevicePK7QWidgetb
0001:0008ffd4  __ZN8QPainter5beginEPK12QPaintDevicePK7QWidgetb
0001:0008fd54  __ZN8QPainterC1EPK12QPaintDevicePK7QWidgetb
0001:0008fe18  __ZN8QPainterD2Ev
0001:00094fc0  __ZN6QBrushD1Ev
0001:00094944  __ZN4QPenD1Ev
0001:000900d8  __ZN8QPainter10killPStackEv
0001:0008fed4  __ZN8QPainterD1Ev
0001:00090c44  __ZN8QPainter6setPenERK6QColor
0001:00090070  __ZN8QPainter4setfEjb
0001:00090140  __ZN8QPainter4saveEv
0001:000949a0  __ZN4QPenaSERKS_
0001:0009503c  __ZN6QBrushaSERKS_
0001:000903e4  __ZN8QPainter7restoreEv
0001:00094b50  __ZNK4QPeneqERKS_
0001:00090ac0  __ZN8QPainter6setPenERK4QPen
0001:0009522c  __ZNK6QBrusheqERKS_
0001:00090d94  __ZN8QPainter8setBrushERK6QBrush
0001:000912ec  __ZN8QPainter9setWindowEiiii
0001:000913f8  __ZN8QPainter11setViewportEiiii
0001:00091598  __ZN8QPainter14setWorldMatrixERK8QWMatrixb
0001:0009120c  __ZN8QPainter12setViewXFormEb
0001:000914d8  __ZN8QPainter13setWorldXFormEb
0001:00090904  __ZN8QPainter8redirectEP12QPaintDeviceS1_
0001:000909e4  __ZN8QPainter8redirectEP12QPaintDevice
0001:00090a0c  __ZNK8QPainter11fontMetricsEv
0001:00090a50  __ZNK8QPainter8fontInfoEv
0001:00090b20  __ZN8QPainter6setPenEN2Qt8PenStyleE
0001:00094964  __ZN4QPen6detachEv
0001:00090df4  __ZN8QPainter8setBrushEN2Qt10BrushStyleE
0001:00095000  __ZN6QBrush6detachEv
0001:00090f28  __ZN8QPainter8setBrushERK6QColor
0001:00091084  __ZN8QPainter11setTabStopsEi
0001:0009110c  __ZN8QPainter11setTabArrayEPi
0001:000919e0  __ZN8QPainter11updateXFormEv
0001:0009128c  __ZNK8QPainter6windowEv
0001:00091398  __ZNK8QPainter8viewportEv
0001:00091558  __ZNK8QPainter11worldMatrixEv
0001:00091728  __ZN8QPainter15saveWorldMatrixEv
0001:000917e0  __ZN8QPainter18restoreWorldMatrixEv
0001:00091834  __ZN8QPainter9translateEdd
0001:0009187c  __ZN8QPainter5scaleEdd
0001:000918c4  __ZN8QPainter5shearEdd
0001:0009190c  __ZN8QPainter6rotateEd
0001:00091948  __ZN8QPainter10resetXFormEv
0001:00091bb0  __ZN8QPainter14updateInvXFormEv
0001:00091ce8  __ZNK8QPainter3mapEiiPiS0_
0001:00092150  __ZNK8QPainter3mapEiiiiPiS0_S0_S0_
0001:00092708  __ZNK8QPainter6mapInvEiiPiS0_
0001:00092900  __ZNK8QPainter6mapInvEiiiiPiS0_S0_S0_
0001:00092be8  __ZNK8QPainter5xFormERK6QPoint
0001:00092c44  __ZNK8QPainter5xFormERK5QRect
0001:00092d04  __ZNK8QPainter5xFormERK11QPointArray
0001:00092d80  __ZNK8QPainter5xFormERK11QPointArrayii
0001:00092e14  __ZNK8QPainter8xFormDevERK6QPoint
0001:00092e88  __ZNK8QPainter8xFormDevERK5QRect
0001:00092f7c  __ZNK8QPainter8xFormDevERK11QPointArray
0001:00092fe4  __ZNK8QPainter8xFormDevERK11QPointArrayii
0001:000930d8  __ZN8QPainter8fillRectEiiiiRK6QBrush
0001:00094910  __ZN4QPenC1ERKS_
0001:00094f6c  __ZN6QBrushC1ERKS_
0001:00093158  __ZNK8QPainter10clipRegionENS_14CoordinateModeE
0001:000931d8  __ZN8QPainter16drawWinFocusRectEiiiibRK6QColor
0001:000931e0  __ZN8QPainter10drawPixmapERK6QPointRK7QPixmap
0001:00093210  __ZN8QPainter10drawPixmapERK5QRectRK7QPixmap
0001:00093478  __ZN8QPainter9drawImageEiiRK6QImageiiiii
0001:000936f8  __ZN8QPainter9drawImageERK6QPointRK6QImagei
0001:00093750  __ZN8QPainter9drawImageERK5QRectRK6QImage
0001:000938ec  __Z6bitBltP12QPaintDeviceiiPK6QImageiiiii
0001:000939b0  __ZN8QPainter12fix_neg_rectEPiS0_S0_S0_
0001:000939f4  __ZN8QPainter8drawTextERK5QRectiRK7QStringiPS0_PP10QTextParag
0001:00093b44  __Z14qt_format_textRK5QFontRK5QRectiRK7QStringiPS2_iPiiPP10QTextParagP8QPainter
0001:0009474c  __ZN8QPainter12boundingRectERK5QRectiRK7QStringiPP10QTextParag
0001:000947bc  __ZN4QPen4initERK6QColorjj
0001:00094834  __ZN4QPenC2Ev
0001:00094874  __ZN4QPenC2EN2Qt8PenStyleE
0001:00094894  __ZN4QPenC1EN2Qt8PenStyleE
0001:000948b4  __ZN4QPenC2ERK6QColorjN2Qt8PenStyleE
0001:000948c0  __ZN4QPenC1ERK6QColorjN2Qt8PenStyleE
0001:000948cc  __ZN4QPenC2ERK6QColorjN2Qt8PenStyleENS3_11PenCapStyleENS3_12PenJoinStyleE
0001:000948e4  __ZN4QPenC1ERK6QColorjN2Qt8PenStyleENS3_11PenCapStyleENS3_12PenJoinStyleE
0001:000948fc  __ZN4QPenC2ERKS_
0001:00094924  __ZN4QPenD2Ev
0001:000949d8  __ZNK4QPen4copyEv
0001:00094ad0  __ZNK4QPen9joinStyleEv
0001:00094a80  __ZNK4QPen8capStyleEv
0001:00094a1c  __ZN4QPen8setStyleEN2Qt8PenStyleE
0001:00094a54  __ZN4QPen8setWidthEj
0001:00094a94  __ZN4QPen11setCapStyleEN2Qt11PenCapStyleE
0001:00094ae4  __ZN4QPen12setJoinStyleEN2Qt12PenJoinStyleE
0001:00094b20  __ZN4QPen8setColorERK6QColor
0001:00094c00  __ZlsR11QDataStreamRK4QPen
0001:00094c94  __ZrsR11QDataStreamR4QPen
0001:00094d04  __ZN6QBrush4initERK6QColorN2Qt10BrushStyleE
0001:00094d70  __ZN6QBrushC2Ev
0001:00094eb0  __ZN6QBrushC2EN2Qt10BrushStyleE
0001:00094ecc  __ZN6QBrushC1EN2Qt10BrushStyleE
0001:00094ee8  __ZN6QBrushC2ERK6QColorN2Qt10BrushStyleE
0001:00094ef4  __ZN6QBrushC1ERK6QColorN2Qt10BrushStyleE
0001:00094f00  __ZN6QBrushC2ERK6QColorRK7QPixmap
0001:0009518c  __ZN6QBrush9setPixmapERK7QPixmap
0001:00094f2c  __ZN6QBrushC1ERK6QColorRK7QPixmap
0001:00094f58  __ZN6QBrushC2ERKS_
0001:00094f80  __ZN6QBrushD2Ev
0001:00095088  __ZNK6QBrush4copyEv
0001:00095118  __ZN6QBrush8setStyleEN2Qt10BrushStyleE
0001:0009515c  __ZN6QBrush8setColorERK6QColor
0001:000952f8  __ZlsR11QDataStreamRK6QBrush
0001:0009534c  __ZrsR11QDataStreamR6QBrush
0001:0009563c  __ZN7QPStateC1Ev$w$Fd6S742F8U6snXhu4
0001:00095440  __ZTV9QPtrStackI7QPStateE$w$Fd6S742F8U6snXhu4
0001:00095400  __ZTV8QPtrDictI12QPaintDeviceE$w$Fd6S742F8U6snXhu4
0001:00095480  __ZTV9QPtrStackI8QWMatrixE$w$Fd6S742F8U6snXhu4
0001:000954c0* __ZTV11QPointArray$w$Fd6S742F8U6snXhu4
0001:000954e0* __ZTV9QMemArrayI6QPointE$w$Fd6S742F8U6snXhu4
0001:00095718  __ZNK8QPtrDictI12QPaintDeviceE5countEv$w$Fd6S742F8U6snXhu4
0001:00095818  __ZN8QPtrDictI12QPaintDeviceE5clearEv$w$Fd6S742F8U6snXhu4
0001:00095824  __ZN8QPtrDictI12QPaintDeviceED1Ev$w$Fd6S742F8U6snXhu4
0001:00095724  __ZN8QPtrDictI12QPaintDeviceED0Ev$w$Fd6S742F8U6snXhu4
0001:0009584c  __ZN8QPtrDictI12QPaintDeviceE10deleteItemEPv$w$Fd6S742F8U6snXhu4
0001:00095874  __ZNK9QPtrStackI7QPStateE5countEv$w$Fd6S742F8U6snXhu4
0001:000957e4  __ZN9QPtrStackI7QPStateE5clearEv$w$Fd6S742F8U6snXhu4
0001:000957f0  __ZN9QPtrStackI7QPStateED1Ev$w$Fd6S742F8U6snXhu4
0001:000956e8  __ZN9QPtrStackI7QPStateED0Ev$w$Fd6S742F8U6snXhu4
0001:00095880  __ZN9QPtrStackI7QPStateE10deleteItemEPv$w$Fd6S742F8U6snXhu4
0001:000958d8  __ZNK9QPtrStackI8QWMatrixE5countEv$w$Fd6S742F8U6snXhu4
0001:000957b0  __ZN9QPtrStackI8QWMatrixE5clearEv$w$Fd6S742F8U6snXhu4
0001:000957bc  __ZN9QPtrStackI8QWMatrixED1Ev$w$Fd6S742F8U6snXhu4
0001:0009560c  __ZN9QPtrStackI8QWMatrixED0Ev$w$Fd6S742F8U6snXhu4
0001:000958e4  __ZN9QPtrStackI8QWMatrixE10deleteItemEPv$w$Fd6S742F8U6snXhu4
0001:000954b0  __ZTV19QTextCommandHistory$w$Fd6S742F8U6snXhu4
0001:0009557c  __ZN19QTextCommandHistoryD1Ev$w$Fd6S742F8U6snXhu4
0001:000955c0  __ZN19QTextCommandHistoryD0Ev$w$Fd6S742F8U6snXhu4
0001:00095538* __ZN11QPointArrayD1Ev$w$Fd6S742F8U6snXhu4
0001:00095554* __ZN11QPointArrayD0Ev$w$Fd6S742F8U6snXhu4
0001:00095904* __ZN9QMemArrayI6QPointE6detachEv$w$Fd6S742F8U6snXhu4
0001:00095754* __ZN9QMemArrayI6QPointED1Ev$w$Fd6S742F8U6snXhu4
0001:00095770* __ZN9QMemArrayI6QPointED0Ev$w$Fd6S742F8U6snXhu4
0001:00095500* __ZTV6QGList$w$Fd6S742F8U6snXhu4
0001:0009552c* __ZNK6QGList5countEv$w$Fd6S742F8U6snXhu4
0001:00095920  __ZTV8QPtrListI12QTextCommandE$w$Fd6S742F8U6snXhu4
0001:0009598c  __ZN21QSharedCleanupHandlerIN6QBrush10QBrushDataEED1Ev$w$Fd6S742F8U6snXhu4
0001:00095980  __ZNK8QPtrListI12QTextCommandE5countEv$w$Fd6S742F8U6snXhu4
0001:00095974  __ZN8QPtrListI12QTextCommandE5clearEv$w$Fd6S742F8U6snXhu4
0001:0009594c  __ZN8QPtrListI12QTextCommandED1Ev$w$Fd6S742F8U6snXhu4
0001:000959c0  __ZN8QPtrListI12QTextCommandED0Ev$w$Fd6S742F8U6snXhu4
0001:000959f0  __ZN8QPtrListI12QTextCommandE10deleteItemEPv$w$Fd6S742F8U6snXhu4
Module: C:\200\trunk\src\tmp\obj\release_mt_shared\qpalette.obj(qpalette.obj)
0001:00095a20  __ZN11QColorGroupC2Ev
0001:00095ac0  __ZN11QColorGroupC1Ev
0001:00095b60  __ZN11QColorGroupC2ERKS_
0001:00095b78  __ZN11QColorGroupC1ERKS_
0001:00095b90  __ZN11QColorGroupaSERKS_
0001:00095c6c  __ZN11QColorGroupC2ERK6QBrushS2_S2_S2_S2_S2_S2_S2_S2_
0001:00095eb4  __ZN11QColorGroupC1ERK6QBrushS2_S2_S2_S2_S2_S2_S2_S2_
0001:000960fc  __ZN11QColorGroupC2ERK6QColorS2_S2_S2_S2_S2_S2_
0001:000963e4  __ZN11QColorGroupC1ERK6QColorS2_S2_S2_S2_S2_S2_
0001:000966cc  __ZN11QColorGroupD2Ev
0001:00096724  __ZN11QColorGroupD1Ev
0001:0009677c  __ZNK11QColorGroup5colorENS_9ColorRoleE
0001:00096790  __ZNK11QColorGroup5brushENS_9ColorRoleE
0001:000967a0  __ZN11QColorGroup8setColorENS_9ColorRoleERK6QColor
0001:000967d4  __ZN11QColorGroup8setBrushENS_9ColorRoleERK6QBrush
0001:00096890  __ZNK11QColorGroupeqERKS_
0001:000968e4  __ZN8QPaletteC2Ev
0001:0009698c  __ZN8QPaletteC1Ev
0001:00096a48  __ZN8QPaletteC2ERK6QColor
0001:00096f84  __ZN8QPaletteC1ERK6QColor
0001:000974c0  __ZN8QPaletteC2ERK6QColorS2_
0001:00097a00  __ZN8QPaletteC1ERK6QColorS2_
0001:00097f40  __ZN8QPaletteC2ERK11QColorGroupS2_S2_
0001:00097ff4  __ZN8QPaletteC1ERK11QColorGroupS2_S2_
0001:000980a8  __ZN8QPaletteC2ERKS_
0001:000980bc  __ZN8QPaletteC1ERKS_
0001:000980d0  __ZN8QPaletteD2Ev
0001:0009811c  __ZN8QPaletteD1Ev
0001:00098168  __ZN8QPaletteaSERKS_
0001:000981c8  __ZNK8QPalette5colorENS_10ColorGroupEN11QColorGroup9ColorRoleE
0001:00098b54  __ZNK8QPalette11directBrushENS_10ColorGroupEN11QColorGroup9ColorRoleE
0001:000981e8  __ZNK8QPalette5brushENS_10ColorGroupEN11QColorGroup9ColorRoleE
0001:000981f4  __ZN8QPalette8setColorENS_10ColorGroupEN11QColorGroup9ColorRoleERK6QColor
0001:0009822c  __ZN8QPalette8setBrushENS_10ColorGroupEN11QColorGroup9ColorRoleERK6QBrush
0001:00098338  __ZN8QPalette6detachEv
0001:00098bc8  __ZN8QPalette14directSetBrushENS_10ColorGroupEN11QColorGroup9ColorRoleERK6QBrush
0001:0009827c  __ZN8QPalette8setColorEN11QColorGroup9ColorRoleERK6QColor
0001:000982b0  __ZN8QPalette8setBrushEN11QColorGroup9ColorRoleERK6QBrush
0001:00098308  __ZNK8QPalette4copyEv
0001:00098374  __ZN8QPalette11setDisabledERK11QColorGroup
0001:000983b4  __ZN8QPalette9setActiveERK11QColorGroup
0001:000983f4  __ZN8QPalette11setInactiveERK11QColorGroup
0001:00098434  __ZNK8QPaletteeqERKS_
0001:000984a8  __ZlsR11QDataStreamRK11QColorGroup
0001:0009858c  __ZrsR11QDataStreamR11QColorGroup
0001:000987a0  __ZlsR11QDataStreamRK8QPalette
0001:000989ac  __ZrsR11QDataStreamR8QPalette
0001:00098a90  __ZN8QPalette8isCopyOfERKS_
0001:00098c48  __ZN8QPalette22foregroundRoleFromModeEN2Qt14BackgroundModeE
0001:00098cb4  __ZN8QPalette22backgroundRoleFromModeEN2Qt14BackgroundModeE
0001:00098da0* __ZTV6QGList$w$LKTLt72F8U6YXcvH0
0001:00098dcc* __ZNK6QGList5countEv$w$LKTLt72F8U6YXcvH0
0001:00098e08  __ZN21QSharedCleanupHandlerI18QColorGroupPrivateED1Ev$w$LKTLt72F8U6YXcvH0
0001:00098e70  __ZN21QSharedCleanupHandlerIN8QPalette8QPalDataEED1Ev$w$LKTLt72F8U6YXcvH0
Module: C:\200\trunk\src\tmp\obj\release_mt_shared\qpaintdevicemetrics.obj(qpaintdevicemetrics.obj)
0001:00098ee0  __ZN19QPaintDeviceMetricsC2EPK12QPaintDevice
0001:00098ef0  __ZN19QPaintDeviceMetricsC1EPK12QPaintDevice
Module: C:\200\trunk\src\tmp\obj\release_mt_shared\qpicture.obj(qpicture.obj)
0001:00098f2c  __ZN8QPictureC2Ei
0001:0009ba6c  __ZN8QPicture15QPicturePrivate11resetFormatEv
0001:00098fd8  __ZN8QPictureC1Ei
0001:00099084  __ZN8QPictureC2ERKS_
0001:000990b0  __ZN8QPictureC1ERKS_
0001:000990dc  __ZN8QPictureD2Ev
0001:00099128  __ZN8QPictureD1Ev
0001:00099174  __ZN8QPictureD0Ev
0001:000991c4  __ZN8QPicture7setDataEPKcj
0001:0009b7a0  __ZN8QPicture6detachEv
0001:00099254  __ZN8QPicture4loadERK7QStringPKc
0001:000992e0  __ZN8QPicture4loadEP9QIODevicePKc
0001:0009bb40  __ZN8QPicture15QPicturePrivate11checkFormatEv
0001:000994e8  __ZN8QPicture4saveERK7QStringPKc
0001:000998c0  __ZN8QPicture4playEP8QPainter
0001:000997d8  __ZNK8QPicture12boundingRectEv
0001:00099650  __ZN8QPicture4saveEP9QIODevicePKc
0001:00099824  __ZN8QPicture15setBoundingRectERK5QRect
0001:00099a7c  __ZN8QPicture4execEP8QPainterR11QDataStreami
0001:0009a980  __ZN8QPicture3cmdEiP8QPainterP13QPDevCmdParam
0001:0009a9d8  __ZN8QPicture15QPicturePrivate3cmdEiP8QPainterP13QPDevCmdParam
0001:0009b6c0  __ZNK8QPicture6metricEi
0001:0009b7dc  __ZNK8QPicture4copyEv
0001:0009ba20  __ZN8QPictureaSERKS_
0001:0009b98c  __ZN8QPainter11drawPictureEiiRK8QPicture
0001:0009b9e4  __ZN8QPainter11drawPictureERK6QPointRK8QPicture
0001:0009ba04  __ZN8QPainter11drawPictureERK8QPicture
0001:0009be10  __ZlsR11QDataStreamRK8QPicture
0001:0009bee0  __ZrsR11QDataStreamR8QPicture
0001:0009bfe0  __ZTV8QPicture$w$BJPWyc2F8U6zAO3r1
0001:0009c090* __ZTV9QMemArrayIcE$w$BJPWyc2F8U6zAO3r1
0001:0009c010* __ZTV11QPointArray$w$BJPWyc2F8U6zAO3r1
0001:0009c030* __ZTV9QMemArrayI6QPointE$w$BJPWyc2F8U6zAO3r1
0001:0009c0d4* __ZN11QPointArrayD1Ev$w$BJPWyc2F8U6zAO3r1
0001:0009c0f0* __ZN11QPointArrayD0Ev$w$BJPWyc2F8U6zAO3r1
0001:0009c184* __ZN9QMemArrayI6QPointE6detachEv$w$BJPWyc2F8U6zAO3r1
0001:0009c140* __ZN9QMemArrayI6QPointED1Ev$w$BJPWyc2F8U6zAO3r1
0001:0009c15c* __ZN9QMemArrayI6QPointED0Ev$w$BJPWyc2F8U6zAO3r1
0001:0009c060* __ZTV6QGList$w$BJPWyc2F8U6zAO3r1
0001:0009c0c8* __ZNK6QGList5countEv$w$BJPWyc2F8U6zAO3r1
0001:0009c0ac* __ZN9QMemArrayIcED1Ev$w$BJPWyc2F8U6zAO3r1
0001:0009c118* __ZN9QMemArrayIcED0Ev$w$BJPWyc2F8U6zAO3r1
0001:0009c19c* __ZN9QMemArrayIcE6detachEv$w$BJPWyc2F8U6zAO3r1
Module: C:\200\trunk\src\tmp\obj\release_mt_shared\qpixmap.obj(qpixmap.obj)
0001:0009c1c0  __ZN7QPixmapC2EiiibNS_12OptimizationE
0001:0009c200  __ZN7QPixmapC1EiiibNS_12OptimizationE
0001:0009c240  __ZN7QPixmapC2Ev
0001:0009c278  __ZN7QPixmapC1Ev
0001:0009c2b0  __ZN7QPixmapC2ERK6QImage
0001:0009d084  __ZN7QPixmap16convertFromImageERK6QImageNS_9ColorModeE
0001:0009c2f4  __ZN7QPixmapC1ERK6QImage
0001:0009c338  __ZN7QPixmapC2EiiiNS_12OptimizationE
0001:0009c370  __ZN7QPixmapC1EiiiNS_12OptimizationE
0001:0009c3a8  __ZN7QPixmapC2ERK5QSizeiNS_12OptimizationE
0001:0009c3e4  __ZN7QPixmapC1ERK5QSizeiNS_12OptimizationE
0001:0009c420  __ZN7QPixmapC2ERK7QStringPKci
0001:0009cfe8  __ZN7QPixmap4loadERK7QStringPKci
0001:0009c468  __ZN7QPixmapC1ERK7QStringPKci
0001:0009c4b0  __ZN7QPixmapC2ERK7QStringPKcNS_9ColorModeE
0001:0009d048  __ZN7QPixmap4loadERK7QStringPKcNS_9ColorModeE
0001:0009c4f8  __ZN7QPixmapC1ERK7QStringPKcNS_9ColorModeE
0001:0009c540  __ZN7QPixmapC2EPPKc
0001:0009c5b0  __ZN7QPixmapC1EPPKc
0001:0009c620  __ZN7QPixmapC2ERK9QMemArrayIcE
0001:0009d244  __ZN7QPixmap12loadFromDataERK9QMemArrayIcEPKci
0001:0009c668  __ZN7QPixmapC1ERK9QMemArrayIcE
0001:0009c6b0  __ZN7QPixmapC2ERKS_
0001:0009c918  __ZNK7QPixmap4copyEb
0001:0009c9f8  __ZN7QPixmapaSERKS_
0001:0009c7c8  __ZN7QPixmapD1Ev
0001:0009c728  __ZN7QPixmapC1ERKS_
0001:0009c7a0  __ZN7QPixmapD2Ev
0001:0009c7f0  __ZN7QPixmapD0Ev
0001:0009c86c  __ZN7QPixmap14fromMimeSourceERK7QString
0001:0009cab0  __ZN7QPixmapaSERK6QImage
0001:0009cacc  __ZN7QPixmap4fillEPK7QWidgetii
0001:0009cba0  __ZN7QPixmap6resizeEii
0001:0009cd54  __ZN7QPixmap7setMaskERK7QBitmap
0001:0009cf78  __ZNK7QPixmap19createHeuristicMaskEb
0001:0009cfdc  __ZN7QPixmap11imageFormatERK7QString
0001:0009d0f8  __ZN7QPixmap12loadFromDataEPKhjPKci
0001:0009d204  __ZN7QPixmap12loadFromDataEPKhjPKcNS_9ColorModeE
0001:0009d26c  __ZNK7QPixmap4saveERK7QStringPKci
0001:0009d33c  __ZNK7QPixmap9doImageIOEP8QImageIOi
0001:0009d2bc  __ZNK7QPixmap4saveEP9QIODevicePKci
0001:0009d3c4  __ZN7QPixmap19defaultOptimizationEv
0001:0009d3d0  __ZN7QPixmap22setDefaultOptimizationENS_12OptimizationE
0001:0009d6cc  __ZN7QPixmap10grabWidgetEP7QWidgetiiii
0001:0009d8c4  __ZN7QPixmap10trueMatrixERK8QWMatrixii
0001:0009db1c  __ZlsR11QDataStreamRK7QPixmap
0001:0009db50  __ZrsR11QDataStreamR7QPixmap
0001:0009db94  __Z15qt_xForm_helperRK8QWMatrixiiiPhiiiS2_iii
0002:00000910  __ZN7QPixmap8defOptimE
0001:0009e220  __ZTV7QPixmap$w$91qtOi2F8U6cvkkB3
0001:0009e260* __ZTV7QBitmap$w$91qtOi2F8U6cvkkB3
0001:0009e2d0* __ZTV9QMemArrayIcE$w$91qtOi2F8U6cvkkB3
0001:0009e250* __ZTV11QPaintEvent$w$91qtOi2F8U6cvkkB3
0001:0009e388* __ZN11QPaintEventD1Ev$w$91qtOi2F8U6cvkkB3
0001:0009e358* __ZN11QPaintEventD0Ev$w$91qtOi2F8U6cvkkB3
0001:0009e33c* __ZN7QBitmapD1Ev$w$91qtOi2F8U6cvkkB3
0001:0009e314* __ZN7QBitmapD0Ev$w$91qtOi2F8U6cvkkB3
0001:0009e2a0* __ZTV6QGList$w$91qtOi2F8U6cvkkB3
0001:0009e308* __ZNK6QGList5countEv$w$91qtOi2F8U6cvkkB3
0001:0009e2ec* __ZN9QMemArrayIcED1Ev$w$91qtOi2F8U6cvkkB3
0001:0009e3b4* __ZN9QMemArrayIcED0Ev$w$91qtOi2F8U6cvkkB3
0001:0009e3dc* __ZN9QMemArrayIcE6detachEv$w$91qtOi2F8U6cvkkB3
Module: C:\200\trunk\src\tmp\obj\release_mt_shared\qpixmapcache.obj(qpixmapcache.obj)
0001:0009e400  __ZN8QPMCache10timerEventEP11QTimerEvent
0001:0009e4c4  __ZN8QPMCache6insertERK7QStringPK7QPixmapii
0001:0009e51c  __ZN12QPixmapCache4findERK7QString
0001:0009e54c  __ZN12QPixmapCache4findERK7QStringR7QPixmap
0001:0009e5c0  __ZN12QPixmapCache6insertERK7QStringP7QPixmap
0001:0009e6a8  __ZN12QPixmapCache6insertERK7QStringRK7QPixmap
0001:0009e7c0  __ZN12QPixmapCache10cacheLimitEv
0001:0009e7cc  __ZN12QPixmapCache13setCacheLimitEi
0001:0009e800  __ZN12QPixmapCache6removeERK7QString
0001:0009e828  __ZN12QPixmapCache5clearEv
0001:0009e860  __ZTV8QPMCache$w$BNjtgm2F8U6cdsEs2
0001:0009e970* __ZNK7QObject10metaObjectEv$w$BNjtgm2F8U6cdsEs2
0001:0009e97c  __ZN8QPMCacheD1Ev$w$BNjtgm2F8U6cdsEs2
0001:0009e9c0  __ZN8QPMCacheD0Ev$w$BNjtgm2F8U6cdsEs2
0001:0009ea0c  __ZNK6QCacheI7QPixmapE5countEv$w$BNjtgm2F8U6cdsEs2
0001:0009ea18  __ZN6QCacheI7QPixmapE5clearEv$w$BNjtgm2F8U6cdsEs2
0001:0009e9b8  __ZThn40_N8QPMCacheD1Ev$w$BNjtgm2F8U6cdsEs2
0001:0009ea04  __ZThn40_N8QPMCacheD0Ev$w$BNjtgm2F8U6cdsEs2
0001:0009ea24  __ZN6QCacheI7QPixmapE10deleteItemEPv$w$BNjtgm2F8U6cdsEs2
0001:0009e8e0* __ZTV6QGList$w$BNjtgm2F8U6cdsEs2
0001:0009e964* __ZNK6QGList5countEv$w$BNjtgm2F8U6cdsEs2
0001:0009ea60  __ZTV6QCacheI7QPixmapE$w$BNjtgm2F8U6cdsEs2
0001:0009ea80  __ZN6QCacheI7QPixmapED1Ev$w$BNjtgm2F8U6cdsEs2
0001:0009eaa8  __ZN6QCacheI7QPixmapED0Ev$w$BNjtgm2F8U6cdsEs2
Module: C:\200\trunk\src\tmp\obj\release_mt_shared\qpointarray.obj(qpointarray.obj)
0001:0009eb20  __ZN11QPointArrayC2ERK5QRectb
0001:0009edf8  __ZN11QPointArray9setPointsEiiiz
0001:0009ed44  __ZN11QPointArray8setPointEjii
0001:0009eb90  __ZN11QPointArrayC1ERK5QRectb
0001:0009ec00  __ZN11QPointArrayC2EiPKi
0001:0009ed94  __ZN11QPointArray9setPointsEiPKi
0001:0009ec30  __ZN11QPointArrayC1EiPKi
0001:0009ec60  __ZN11QPointArray9translateEii
0001:0009eca8  __ZNK11QPointArray5pointEjPiS0_
0001:0009ed08  __ZNK11QPointArray5pointEj
0001:0009ee7c  __ZN11QPointArray9putPointsEiiPKi
0001:0009eef4  __ZN11QPointArray9putPointsEiiiiz
0001:0009ef90  __ZN11QPointArray9putPointsEiiRKS_i
0001:0009f050  __ZNK11QPointArray12boundingRectEv
0001:0009f104  __ZN11QPointArray7makeArcEiiiiii
0001:0009f310  __ZN11QPointArray7makeArcEiiiiiiRK8QWMatrix
0001:0009fa7c  __ZN11QPointArray11makeEllipseEiiii
0001:000a0110  __ZNK11QPointArray11cubicBezierEv
0001:000a0528  __ZlsR11QDataStreamRK11QPointArray
0001:000a0588  __ZrsR11QDataStreamR11QPointArray
0001:000a060c  __ZNK11QPointArray11shortPointsEii
0001:000a06ac  __ZN11QPointArray12cleanBuffersEv
0002:000039b0  __ZN11QPointArray5splenE
0002:000039b4  __ZN11QPointArray2spE
0001:000a06e8* __ZTV11QPointArray$w$z4b0Co2F8U6afDGz3
0001:000a0708* __ZTV9QMemArrayI6QPointE$w$z4b0Co2F8U6afDGz3
0001:000a0724* __ZN11QPointArrayD1Ev$w$z4b0Co2F8U6afDGz3
0001:000a0740* __ZN11QPointArrayD0Ev$w$z4b0Co2F8U6afDGz3
0001:000a07ac* __ZN9QMemArrayI6QPointE6detachEv$w$z4b0Co2F8U6afDGz3
0001:000a0768* __ZN9QMemArrayI6QPointED1Ev$w$z4b0Co2F8U6afDGz3
0001:000a0784* __ZN9QMemArrayI6QPointED0Ev$w$z4b0Co2F8U6afDGz3
Module: C:\200\trunk\src\tmp\obj\release_mt_shared\qpoint.obj(qpoint.obj)
0001:000a07f0  __ZN6QPoint16warningDivByZeroEv
0001:000a0808  __ZlsR11QDataStreamRK6QPoint
0001:000a0858  __ZrsR11QDataStreamR6QPoint
0001:000a08c4  __ZNK6QPoint15manhattanLengthEv
Module: C:\200\trunk\src\tmp\obj\release_mt_shared\qpolygonscanner.obj(qpolygonscanner.obj)
0001:000a08f0  __Z16miInsertEdgeInETP9EdgeTableP15_EdgeTableEntryiPP18_ScanLineListBlockPi
0001:000a09d0  __Z13miFreeStorageP18_ScanLineListBlock
0001:000a09fc  __Z16miCreateETandAETiP11DDXPointRecP9EdgeTableP15_EdgeTableEntryS4_P18_ScanLineListBlock
0001:000a0bd4  __Z9miloadAETP15_EdgeTableEntryS0_
0001:000a0c20  __Z13micomputeWAETP15_EdgeTableEntry
0001:000a0c80  __Z15miInsertionSortP15_EdgeTableEntry
0001:000a0ce8  __ZN15QPolygonScanner4scanERK11QPointArraybii
0001:000a0d0c  __ZN15QPolygonScanner4scanERK11QPointArraybiib
0001:000a0d2c  __ZN15QPolygonScanner4scanERK11QPointArraybiiNS_4EdgeE
Module: C:\200\trunk\src\tmp\obj\release_mt_shared\qprocess.obj(qprocess.obj)
0001:000a12f0  __ZN8QProcessC2EP7QObjectPKc
0001:000a135c  __ZN8QProcessC1EP7QObjectPKc
0001:000a13c8  __ZN8QProcessC2ERK7QStringP7QObjectPKc
0001:000a1610  __ZN8QProcess11addArgumentERK7QString
0001:000a1440  __ZN8QProcessC1ERK7QStringP7QObjectPKc
0001:000a14b8  __ZN8QProcessC2ERK11QStringListP7QObjectPKc
0001:000a15cc  __ZN8QProcess12setArgumentsERK11QStringList
0001:000a1530  __ZN8QProcessC1ERK11QStringListP7QObjectPKc
0001:000a15a8  __ZNK8QProcess9argumentsEv
0001:000a15bc  __ZN8QProcess14clearArgumentsEv
0001:000a1678  __ZNK8QProcess16workingDirectoryEv
0001:000a1698  __ZN8QProcess19setWorkingDirectoryERK4QDir
0001:000a16ac  __ZNK8QProcess13communicationEv
0001:000a16b8  __ZN8QProcess16setCommunicationEi
0001:000a16c8  __ZNK8QProcess10normalExitEv
0001:000a16ec  __ZNK8QProcess10exitStatusEv
0001:000a1710  __ZN8QProcess10readStdoutEv
0001:000a1780  __ZN8QProcess10readStderrEv
0001:000a17f0  __ZN8QProcess14readLineStdoutEv
0001:000a1970  __ZN8QProcess14readLineStderrEv
0001:000a1b14  __ZN8QProcess6launchERK9QMemArrayIcEP11QStringList
0001:000a1b90  __ZN8QProcess6launchERK7QStringP11QStringList
0001:000a1c10  __ZN8QProcess16closeStdinLaunchEv
0001:000a1c44  __ZN8QProcess12writeToStdinERK7QString
0001:000a1cec  __ZN8QProcess13connectNotifyEPKc
0001:000a1e30  __ZN8QProcess16disconnectNotifyEPKc
0001:000a1ee4* __ZN17QValueListPrivateI7QStringEC1Ev$w$ryIO3w2F8U6GwzzY1
0001:000a1fc0* __ZN10QValueListI7QStringE5clearEv$w$ryIO3w2F8U6GwzzY1
0001:000a1f30* __ZN17QValueListPrivateI7QStringED1Ev$w$ryIO3w2F8U6GwzzY1
0001:000a2004* __ZN17QValueListPrivateI7QStringE6insertE18QValueListIteratorIS0_ERKS0_$w$ryIO3w2F8U6GwzzY1
0001:000a2060* __ZN10QValueListI7QStringE14detachInternalEv$w$ryIO3w2F8U6GwzzY1
0001:000a21c0* __ZTV9QMemArrayIcE$w$ryIO3w2F8U6GwzzY1
0001:000a2090* __ZN17QValueListPrivateI7QStringE5clearEv$w$ryIO3w2F8U6GwzzY1
0001:000a20f4* __ZN17QValueListPrivateI7QStringEC1ERKS1_$w$ryIO3w2F8U6GwzzY1
0001:000a2190* __ZTV6QGList$w$ryIO3w2F8U6GwzzY1
0001:000a21f8* __ZNK6QGList5countEv$w$ryIO3w2F8U6GwzzY1
0001:000a21dc* __ZN9QMemArrayIcED1Ev$w$ryIO3w2F8U6GwzzY1
0001:000a2204* __ZN9QMemArrayIcED0Ev$w$ryIO3w2F8U6GwzzY1
0001:000a222c* __ZN9QMemArrayIcE6detachEv$w$ryIO3w2F8U6GwzzY1
Module: C:\200\trunk\src\tmp\obj\release_mt_shared\qrect.obj(qrect.obj)
0001:000a2250  __ZN5QRectC2ERK6QPointS2_
0001:000a2278  __ZN5QRectC1ERK6QPointS2_
0001:000a22a0  __ZN5QRectC2ERK6QPointRK5QSize
0001:000a22cc  __ZN5QRectC1ERK6QPointRK5QSize
0001:000a22f8  __ZNK5QRect9normalizeEv
0001:000a2358  __ZN5QRect10setTopLeftERK6QPoint
0001:000a2370  __ZN5QRect14setBottomRightERK6QPoint
0001:000a2388  __ZN5QRect11setTopRightERK6QPoint
0001:000a23a0  __ZN5QRect13setBottomLeftERK6QPoint
0001:000a23b8  __ZNK5QRect4rectEPiS0_S0_S0_
0001:000a23e8  __ZNK5QRect6coordsEPiS0_S0_S0_
0001:000a2410  __ZN5QRect8moveLeftEi
0001:000a2424  __ZN5QRect7moveTopEi
0001:000a243c  __ZN5QRect9moveRightEi
0001:000a2454  __ZN5QRect10moveBottomEi
0001:000a246c  __ZN5QRect11moveTopLeftERK6QPoint
0001:000a2498  __ZN5QRect15moveBottomRightERK6QPoint
0001:000a24c4  __ZN5QRect12moveTopRightERK6QPoint
0001:000a24f4  __ZN5QRect14moveBottomLeftERK6QPoint
0001:000a2524  __ZN5QRect10moveCenterERK6QPoint
0001:000a256c  __ZN5QRect6moveByEii
0001:000a2588  __ZN5QRect7setRectEiiii
0001:000a25b4  __ZN5QRect9setCoordsEiiii
0001:000a25d4  __ZN5QRect9addCoordsEiiii
0001:000a25f8  __ZN5QRect8setWidthEi
0001:000a260c  __ZN5QRect9setHeightEi
0001:000a2620  __ZN5QRect7setSizeERK5QSize
0001:000a2640  __ZNK5QRect8containsERK6QPointb
0001:000a2694  __ZNK5QRect8containsERKS_b
0001:000a26f8  __ZN5QRectoRERKS_
0001:000a2768  __ZNK5QRectorERKS_
0001:000a2730  __ZN5QRectaNERKS_
0001:000a2884  __ZNK5QRectanERKS_
0001:000a2864  __ZNK5QRect5uniteERKS_
0001:000a28ec  __ZNK5QRect9intersectERKS_
0001:000a290c  __ZNK5QRect10intersectsERKS_
0001:000a2960  __ZeqRK5QRectS1_
0001:000a299c  __ZneRK5QRectS1_
0001:000a29d8  __ZlsR11QDataStreamRK5QRect
0001:000a2a70  __ZrsR11QDataStreamR5QRect
Module: C:\200\trunk\src\tmp\obj\release_mt_shared\qregion.obj(qregion.obj)
0001:000a2b20  __ZN7QRegionC2EiiiiNS_10RegionTypeE
0001:000a2b74  __ZN7QRegionC1EiiiiNS_10RegionTypeE
0001:000a2bc8  __ZN7QRegion6detachEv
0001:000a2c20  __ZN7QRegion4execERK9QMemArrayIcEi
0001:000a3120  __ZlsR11QDataStreamRK7QRegion
0001:000a32b4  __ZrsR11QDataStreamR7QRegion
0001:000a3304  __ZNK7QRegionorERKS_
0001:000a3324  __ZNK7QRegionplERKS_
0001:000a3344  __ZNK7QRegionanERKS_
0001:000a3364  __ZNK7QRegionmiERKS_
0001:000a3384  __ZNK7QRegioneoERKS_
0001:000a33a4  __ZN7QRegionoRERKS_
0001:000a33e0  __ZN7QRegionpLERKS_
0001:000a341c  __ZN7QRegionaNERKS_
0001:000a3458  __ZN7QRegionmIERKS_
0001:000a3494  __ZN7QRegioneOERKS_
0001:000a3530* __ZTV9QMemArrayIcE$w$DU4caz2F8U6hBnw01
0001:000a34f0* __ZTV11QPointArray$w$DU4caz2F8U6hBnw01
0001:000a3510* __ZTV9QMemArrayI6QPointE$w$DU4caz2F8U6hBnw01
0001:000a34d0* __ZTV9QMemArrayI5QRectE$w$DU4caz2F8U6hBnw01
0001:000a3618* __ZN9QMemArrayI5QRectED1Ev$w$DU4caz2F8U6hBnw01
0001:000a3634* __ZN9QMemArrayI5QRectED0Ev$w$DU4caz2F8U6hBnw01
0001:000a365c* __ZN9QMemArrayI5QRectE6detachEv$w$DU4caz2F8U6hBnw01
0001:000a3568* __ZN11QPointArrayD1Ev$w$DU4caz2F8U6hBnw01
0001:000a3584* __ZN11QPointArrayD0Ev$w$DU4caz2F8U6hBnw01
0001:000a3674* __ZN9QMemArrayI6QPointE6detachEv$w$DU4caz2F8U6hBnw01
0001:000a35d4* __ZN9QMemArrayI6QPointED1Ev$w$DU4caz2F8U6hBnw01
0001:000a35f0* __ZN9QMemArrayI6QPointED0Ev$w$DU4caz2F8U6hBnw01
0001:000a354c* __ZN9QMemArrayIcED1Ev$w$DU4caz2F8U6hBnw01
0001:000a35ac* __ZN9QMemArrayIcED0Ev$w$DU4caz2F8U6hBnw01
0001:000a368c* __ZN9QMemArrayIcE6detachEv$w$DU4caz2F8U6hBnw01
Module: C:\200\trunk\src\tmp\obj\release_mt_shared\qsignal.obj(qsignal.obj)
0001:000a36b0  __ZN7QSignalC2EP7QObjectPKc
0001:000a3704  __ZN7QSignalC1EP7QObjectPKc
0001:000a3758  __ZN7QSignalD2Ev
0001:000a3784  __ZN7QSignalD1Ev
0001:000a37b0  __ZN7QSignalD0Ev
0001:000a3810  __ZN7QSignal7connectEPK7QObjectPKc
0001:000a38a4  __ZN7QSignal10disconnectEPK7QObjectPKc
0001:000a3950  __ZN7QSignal8activateEv
0001:000a39e4  __ZN7QSignal8setValueERK8QVariant
0001:000a39f8  __ZNK7QSignal5valueEv
0001:000a3a18  __ZN7QSignal12setParameterEi
0001:000a3a4c  __ZNK7QSignal9parameterEv
0001:000a3a70* __ZTV6QGList$w$bwxFmC2F8U6JqZUZ1
0001:000a3a9c* __ZNK6QGList5countEv$w$bwxFmC2F8U6JqZUZ1
Module: C:\200\trunk\src\tmp\obj\release_mt_shared\qsignalmapper.obj(qsignalmapper.obj)
0001:000a3ab0  __ZN13QSignalMapperC2EP7QObjectPKc
0001:000a3b04  __ZN13QSignalMapperC1EP7QObjectPKc
0001:000a3b58  __ZN13QSignalMapperD2Ev
0001:000a3ba4  __ZN13QSignalMapperD1Ev
0001:000a3bf0  __ZN13QSignalMapperD0Ev
0001:000a3c44  __ZN13QSignalMapper10setMappingEPK7QObjecti
0001:000a3d5c  __ZN13QSignalMapper6getRecEPK7QObject
0001:000a3c64  __ZN13QSignalMapper10setMappingEPK7QObjectRK7QString
0001:000a3c90  __ZN13QSignalMapper14removeMappingsEPK7QObject
0001:000a3cac  __ZN13QSignalMapper13removeMappingEv
0001:000a3cd0  __ZN13QSignalMapper3mapEv
0001:000a3df0  __ZTV8QPtrDictI16QSignalMapperRecE$w$td1IuF2F8U6CAXdC1
0001:000a3ecc  __ZNK8QPtrDictI16QSignalMapperRecE5countEv$w$td1IuF2F8U6CAXdC1
0001:000a3e90  __ZN8QPtrDictI16QSignalMapperRecE5clearEv$w$td1IuF2F8U6CAXdC1
0001:000a3e68  __ZN8QPtrDictI16QSignalMapperRecED1Ev$w$td1IuF2F8U6CAXdC1
0001:000a3e9c  __ZN8QPtrDictI16QSignalMapperRecED0Ev$w$td1IuF2F8U6CAXdC1
0001:000a3ed8  __ZN8QPtrDictI16QSignalMapperRecE10deleteItemEPv$w$td1IuF2F8U6CAXdC1
0001:000a3e30* __ZTV6QGList$w$td1IuF2F8U6CAXdC1
0001:000a3e5c* __ZNK6QGList5countEv$w$td1IuF2F8U6CAXdC1
Module: C:\200\trunk\src\tmp\obj\release_mt_shared\qsize.obj(qsize.obj)
0001:000a3f30  __ZN5QSize9transposeEv
0001:000a3f44  __ZN5QSize5scaleEiiNS_9ScaleModeE
0001:000a3f9c  __ZN5QSize5scaleERKS_NS_9ScaleModeE
0001:000a3fd8  __ZN5QSize16warningDivByZeroEv
0001:000a3ff0  __ZlsR11QDataStreamRK5QSize
0001:000a4040  __ZrsR11QDataStreamR5QSize
Module: C:\200\trunk\src\tmp\obj\release_mt_shared\qsizegrip.obj(qsizegrip.obj)
0001:000a412c  __ZN9QSizeGripC2EP7QWidgetPKc
0001:000a41e0  __ZN9QSizeGripC1EP7QWidgetPKc
0001:000a4294  __ZN9QSizeGripD2Ev
0001:000a42b8  __ZN9QSizeGripD1Ev
0001:000a42e4  __ZN9QSizeGripD0Ev
0001:000a4318  __ZNK9QSizeGrip8sizeHintEv
0001:000a4398  __ZN9QSizeGrip10paintEventEP11QPaintEvent
0001:000a4458  __ZN9QSizeGrip15mousePressEventEP11QMouseEvent
0001:000a44a4  __ZN9QSizeGrip14mouseMoveEventEP11QMouseEvent
0001:000a4828  __ZN9QSizeGrip11eventFilterEP7QObjectP6QEvent
0001:000a42dc  __ZThn40_N9QSizeGripD1Ev$w$9HjRDL2F8U6y30EF1
0001:000a4310  __ZThn40_N9QSizeGripD0Ev$w$9HjRDL2F8U6y30EF1
0001:000a4890* __ZTV6QGList$w$9HjRDL2F8U6y30EF1
0001:000a48bc* __ZNK6QGList5countEv$w$9HjRDL2F8U6y30EF1
Module: C:\200\trunk\src\tmp\obj\release_mt_shared\qstyle.obj(qstyle.obj)
0001:000a48d0  __ZN6QStyleC2Ev
0001:000a4904  __ZN6QStyleC1Ev
0001:000a4938  __ZN6QStyleD2Ev
0001:000a4968  __ZN6QStyleD1Ev
0001:000a4998  __ZN6QStyleD0Ev
0001:000a49d0  __ZN6QStyle6polishEP7QWidget
0001:000a49d8  __ZN6QStyle8unPolishEP7QWidget
0001:000a49e0  __ZN6QStyle6polishEP12QApplication
0001:000a49e8  __ZN6QStyle8unPolishEP12QApplication
0001:000a49f0  __ZN6QStyle6polishER8QPalette
0001:000a49f8  __ZN6QStyle15polishPopupMenuEP10QPopupMenu
0001:000a4a00  __ZNK6QStyle8itemRectEP8QPainterRK5QRectibPK7QPixmapRK7QStringi
0001:000a4c84  __ZNK6QStyle8drawItemEP8QPainterRK5QRectiRK11QColorGroupbPK7QPixmapRK7QStringiPK6QColor
0001:000a5208  __ZN6QStyle10visualRectERK5QRectPK7QWidget
0001:000a5290  __ZN6QStyle10visualRectERK5QRectS2_
0001:000a5310* __ZTV7QBitmap$w$tlJYiQ2F8U6kEHgC3
0001:000a53b0* __ZN7QBitmapD1Ev$w$tlJYiQ2F8U6kEHgC3
0001:000a5388* __ZN7QBitmapD0Ev$w$tlJYiQ2F8U6kEHgC3
0001:000a5350* __ZTV6QGList$w$tlJYiQ2F8U6kEHgC3
0001:000a537c* __ZNK6QGList5countEv$w$tlJYiQ2F8U6kEHgC3
Module: C:\200\trunk\src\tmp\obj\release_mt_shared\qsocketnotifier.obj(qsocketnotifier.obj)
0001:000a5438  __ZN15QSocketNotifierC2EiNS_4TypeEP7QObjectPKc
0001:000a54b8  __ZN15QSocketNotifierC1EiNS_4TypeEP7QObjectPKc
0001:000a5538  __ZN15QSocketNotifierD2Ev
0001:000a55b8  __ZN15QSocketNotifier10setEnabledEb
0001:000a5560  __ZN15QSocketNotifierD1Ev
0001:000a5588  __ZN15QSocketNotifierD0Ev
0001:000a5604  __ZN15QSocketNotifier5eventEP6QEvent
0001:000a5650* __ZTV6QGList$w$7QYFmU2F8U6scFIw1
0001:000a567c* __ZNK6QGList5countEv$w$7QYFmU2F8U6scFIw1
Module: C:\200\trunk\src\tmp\obj\release_mt_shared\qsound.obj(qsound.obj)
0001:000a5690  __ZN9QAuServerC2EP7QObjectPKc
0001:000a56f4  __ZN9QAuServerC1EP7QObjectPKc
0001:000a5758  __ZN9QAuServerD2Ev
0001:000a57bc  __ZN9QAuServerD1Ev
0001:000a5820  __ZN9QAuServerD0Ev
0001:000a588c  __ZN9QAuServer4playERK7QString
0001:000a598c  __ZN6QSoundC1ERK7QStringP7QObjectPKc
0001:000a5a98  __ZN6QSoundD1Ev
0001:000a58f0  __ZN6QSound4playERK7QString
0001:000a590c  __ZN6QSoundC2ERK7QStringP7QObjectPKc
0001:000a5a0c  __ZN6QSoundD2Ev
0001:000a5bb8  __ZNK6QSound10isFinishedEv
0001:000a5c50  __ZN6QSound4stopEv
0001:000a5b24  __ZN6QSoundD0Ev
0001:000a5bd0  __ZN6QSound4playEv
0001:000a5bfc  __ZNK6QSound5loopsEv
0001:000a5c0c  __ZNK6QSound14loopsRemainingEv
0001:000a5c1c  __ZN6QSound8setLoopsEi
0001:000a5c30  __ZNK6QSound8fileNameEv
0001:000a5c6c  __ZN6QSound11isAvailableEv
0001:000a5c84  __ZN9QAuServer10isRelevantEP6QSound
0001:000a5c9c  __ZN9QAuServer9setBucketEP6QSoundP9QAuBucket
0001:000a5cd0  __ZN9QAuServer6bucketEP6QSound
0001:000a5ce0  __ZN9QAuServer7decLoopEP6QSound
0001:000a5cfc  __ZN9QAuServer4initEP6QSound
0001:000a5d04  __ZN9QAuBucketD2Ev
0001:000a5d14  __ZN9QAuBucketD1Ev
0001:000a5d24  __ZN9QAuBucketD0Ev
0001:000a5d50  __ZTV8QPtrListI9QAuServerE$w$rGWD3Y2F8U6W7XCy4
0001:000a5d38  __ZTV9QAuBucket$w$rGWD3Y2F8U6W7XCy4
0001:000a5dc8  __ZNK8QPtrListI9QAuServerE5countEv$w$rGWD3Y2F8U6W7XCy4
0001:000a5e04  __ZN8QPtrListI9QAuServerE5clearEv$w$rGWD3Y2F8U6W7XCy4
0001:000a5e10  __ZN8QPtrListI9QAuServerED1Ev$w$rGWD3Y2F8U6W7XCy4
0001:000a5dd4  __ZN8QPtrListI9QAuServerED0Ev$w$rGWD3Y2F8U6W7XCy4
0001:000a5e38  __ZN8QPtrListI9QAuServerE10deleteItemEPv$w$rGWD3Y2F8U6W7XCy4
0001:000a5d90* __ZTV6QGList$w$rGWD3Y2F8U6W7XCy4
0001:000a5dbc* __ZNK6QGList5countEv$w$rGWD3Y2F8U6W7XCy4
Module: C:\200\trunk\src\tmp\obj\release_mt_shared\qstylesheet.obj(qstylesheet.obj)
0001:000a5e70  __ZN15QStyleSheetItemC2EP11QStyleSheetRK7QString
0001:000a664c  __ZN15QStyleSheetItem4initEv
0001:000a8310  __ZN11QStyleSheet6insertEP15QStyleSheetItem
0001:000a5f5c  __ZN15QStyleSheetItemC1EP11QStyleSheetRK7QString
0001:000a6048  __ZN15QStyleSheetItemC2ERKS_
0001:000a61b8  __ZN15QStyleSheetItemC1ERKS_
0001:000a6328  __ZN15QStyleSheetItemD2Ev
0001:000a63b0  __ZN15QStyleSheetItemD1Ev
0001:000a6438  __ZN15QStyleSheetItemaSERKS_
0001:000a662c  __ZN15QStyleSheetItem10styleSheetEv
0001:000a663c  __ZNK15QStyleSheetItem10styleSheetEv
0001:000a670c  __ZNK15QStyleSheetItem4nameEv
0001:000a6730  __ZNK15QStyleSheetItem11displayModeEv
0001:000a673c  __ZN15QStyleSheetItem14setDisplayModeENS_11DisplayModeE
0001:000a674c  __ZNK15QStyleSheetItem9alignmentEv
0001:000a675c  __ZN15QStyleSheetItem12setAlignmentEi
0001:000a676c  __ZNK15QStyleSheetItem17verticalAlignmentEv
0001:000a677c  __ZN15QStyleSheetItem20setVerticalAlignmentENS_17VerticalAlignmentE
0001:000a678c  __ZNK15QStyleSheetItem10fontItalicEv
0001:000a67a4  __ZN15QStyleSheetItem13setFontItalicEb
0001:000a67bc  __ZNK15QStyleSheetItem17definesFontItalicEv
0001:000a67d0  __ZNK15QStyleSheetItem13fontUnderlineEv
0001:000a67e8  __ZN15QStyleSheetItem16setFontUnderlineEb
0001:000a6800  __ZNK15QStyleSheetItem20definesFontUnderlineEv
0001:000a6814  __ZNK15QStyleSheetItem13fontStrikeOutEv
0001:000a682c  __ZN15QStyleSheetItem16setFontStrikeOutEb
0001:000a6844  __ZNK15QStyleSheetItem20definesFontStrikeOutEv
0001:000a6858  __ZNK15QStyleSheetItem10fontWeightEv
0001:000a6868  __ZN15QStyleSheetItem13setFontWeightEi
0001:000a6878  __ZNK15QStyleSheetItem15logicalFontSizeEv
0001:000a6888  __ZN15QStyleSheetItem18setLogicalFontSizeEi
0001:000a6898  __ZNK15QStyleSheetItem19logicalFontSizeStepEv
0001:000a68a8  __ZN15QStyleSheetItem22setLogicalFontSizeStepEi
0001:000a68b8  __ZN15QStyleSheetItem11setFontSizeEi
0001:000a68c8  __ZNK15QStyleSheetItem8fontSizeEv
0001:000a68d8  __ZNK15QStyleSheetItem10fontFamilyEv
0001:000a68fc  __ZN15QStyleSheetItem13setFontFamilyERK7QString
0001:000a6910  __ZNK15QStyleSheetItem15numberOfColumnsEv
0001:000a6920  __ZN15QStyleSheetItem18setNumberOfColumnsEi
0001:000a6934  __ZNK15QStyleSheetItem5colorEv
0001:000a6958  __ZN15QStyleSheetItem8setColorERK6QColor
0001:000a696c  __ZNK15QStyleSheetItem8isAnchorEv
0001:000a697c  __ZN15QStyleSheetItem9setAnchorEb
0001:000a698c  __ZNK15QStyleSheetItem14whiteSpaceModeEv
0001:000a699c  __ZN15QStyleSheetItem17setWhiteSpaceModeENS_14WhiteSpaceModeE
0001:000a69ac  __ZNK15QStyleSheetItem6marginENS_6MarginE
0001:000a69c0  __ZN15QStyleSheetItem9setMarginENS_6MarginEi
0001:000a6a08  __ZNK15QStyleSheetItem9listStyleEv
0001:000a6a18  __ZN15QStyleSheetItem12setListStyleENS_9ListStyleE
0001:000a6a28  __ZNK15QStyleSheetItem8contextsEv
0001:000a6a4c  __ZN15QStyleSheetItem11setContextsERK7QString
0001:000a6b1c  __ZNK15QStyleSheetItem16allowedInContextEPKS_
0001:000a6c48  __ZNK15QStyleSheetItem11selfNestingEv
0001:000a6c58  __ZN15QStyleSheetItem14setSelfNestingEb
0001:000a6c68  __ZN15QStyleSheetItem14setLineSpacingEi
0001:000a6c78  __ZNK15QStyleSheetItem11lineSpacingEv
0001:000a6c88  __ZN11QStyleSheetC2EP7QObjectPKc
0001:000a6ebc  __ZN11QStyleSheet4initEv
0001:000a6cd4  __ZN11QStyleSheetC1EP7QObjectPKc
0001:000a6d20  __ZN11QStyleSheetD2Ev
0001:000a6d5c  __ZN11QStyleSheetD1Ev
0001:000a6d98  __ZN11QStyleSheetD0Ev
0001:000a8284  __ZN11QStyleSheet12defaultSheetEv
0001:000a82c8  __ZN11QStyleSheet15setDefaultSheetEPS_
0001:000a8364  __ZN11QStyleSheet4itemERK7QString
0001:000a8390  __ZNK11QStyleSheet4itemERK7QString
0001:000a83bc  __ZNK11QStyleSheet3tagERK7QStringRK4QMapIS0_S0_ES2_RK18QMimeSourceFactorybP13QTextDocument
0001:000a84e4  __ZN11QStyleSheet20convertFromPlainTextERK7QStringN15QStyleSheetItem14WhiteSpaceModeE
0001:000a8854  __ZN11QStyleSheet6escapeERK7QString
0001:000a8998  __ZN11QStyleSheet15mightBeRichTextERK7QString
0001:000a8e08  __ZNK11QStyleSheet5errorERK7QString
0001:000a8e10  __ZNK11QStyleSheet9scaleFontER5QFonti
0001:000a8f30  __ZTV5QDictI15QStyleSheetItemE$w$hzF5M53F8U6PvJw64
0001:000a8f20* __ZTV19QTextCommandHistory$w$hzF5M53F8U6PvJw64
0001:000a9000* __ZN19QTextCommandHistoryD1Ev$w$hzF5M53F8U6PvJw64
0001:000a9044* __ZN19QTextCommandHistoryD0Ev$w$hzF5M53F8U6PvJw64
0001:000a90f4  __ZNK5QDictI15QStyleSheetItemE5countEv$w$hzF5M53F8U6PvJw64
0001:000a90b8  __ZN5QDictI15QStyleSheetItemE5clearEv$w$hzF5M53F8U6PvJw64
0001:000a9090  __ZN5QDictI15QStyleSheetItemED1Ev$w$hzF5M53F8U6PvJw64
0001:000a90c4  __ZN5QDictI15QStyleSheetItemED0Ev$w$hzF5M53F8U6PvJw64
0001:000a9100  __ZN5QDictI15QStyleSheetItemE10deleteItemEPv$w$hzF5M53F8U6PvJw64
0001:000a8f70* __ZTV6QGList$w$hzF5M53F8U6PvJw64
0001:000a8ff4* __ZNK6QGList5countEv$w$hzF5M53F8U6PvJw64
0001:000a9150* __ZTV8QPtrListI12QTextCommandE$w$hzF5M53F8U6PvJw64
0001:000a91b0* __ZNK8QPtrListI12QTextCommandE5countEv$w$hzF5M53F8U6PvJw64
0001:000a91a4* __ZN8QPtrListI12QTextCommandE5clearEv$w$hzF5M53F8U6PvJw64
0001:000a917c* __ZN8QPtrListI12QTextCommandED1Ev$w$hzF5M53F8U6PvJw64
0001:000a91bc* __ZN8QPtrListI12QTextCommandED0Ev$w$hzF5M53F8U6PvJw64
0001:000a91ec* __ZN8QPtrListI12QTextCommandE10deleteItemEPv$w$hzF5M53F8U6PvJw64
Module: C:\200\trunk\src\tmp\obj\release_mt_shared\qthread.obj(qthread.obj)
0001:000a9250  __ZN7QThreadC2Ev
0001:000a9280  __ZN7QThreadC1Ev
0001:000a92b0  __ZN7QThreadC2Ej
0001:000a92e4  __ZN7QThreadC1Ej
0001:000a9350  __ZN7QThreadD2Ev
0001:000a93e4  __ZN7QThreadD1Ev
0001:000a9478  __ZN7QThreadD0Ev
0001:000a9518  __ZN7QThread9terminateEv
0001:000a9584  __ZNK7QThread8finishedEv
0001:000a95d8  __ZNK7QThread7runningEv
0001:000a962c  __ZN7QThread9postEventEP7QObjectP6QEvent
0001:000a9638  __ZTV7QThread$w$h3fiN93F8U6jwR412
0001:000a9650* __ZTV6QGList$w$h3fiN93F8U6jwR412
0001:000a967c* __ZNK6QGList5countEv$w$h3fiN93F8U6jwR412
Module: C:\200\trunk\src\tmp\obj\release_mt_shared\qtimer.obj(qtimer.obj)
0001:000a9690  __ZN6QTimerC2EP7QObjectPKc
0001:000a96c0  __ZN6QTimerC1EP7QObjectPKc
0001:000a96f0  __ZN6QTimerD2Ev
0001:000a9854  __ZN6QTimer4stopEv
0001:000a9724  __ZN6QTimerD1Ev
0001:000a9758  __ZN6QTimerD0Ev
0001:000a9790  __ZN6QTimer5startEib
0001:000a9814  __ZN6QTimer14changeIntervalEi
0001:000a9880  __ZN6QTimer5eventEP6QEvent
0001:000a9964  __ZN16QSingleShotTimer5startEiP7QObjectPKc
0001:000a99b0  __ZN16QSingleShotTimer5eventEP6QEvent
0001:000a99f0  __ZN6QTimer10singleShotEiP7QObjectPKc
0001:000a9b10* __ZTV11QObjectList$w$TUyfzd3F8U6e5Z7U1
0001:000a9ab0  __ZTV16QSingleShotTimer$w$TUyfzd3F8U6e5Z7U1
0001:000a9b88* __ZNK7QObject10metaObjectEv$w$TUyfzd3F8U6e5Z7U1
0001:000a9c10  __ZN16QSingleShotTimerD1Ev$w$TUyfzd3F8U6e5Z7U1
0001:000a9c3c  __ZN16QSingleShotTimerD0Ev$w$TUyfzd3F8U6e5Z7U1
0001:000a9c6c* __ZNK8QPtrListI7QObjectE5countEv$w$TUyfzd3F8U6e5Z7U1
0001:000a9b94* __ZN8QPtrListI7QObjectE5clearEv$w$TUyfzd3F8U6e5Z7U1
0001:000a9ba0* __ZN11QObjectListD1Ev$w$TUyfzd3F8U6e5Z7U1
0001:000a9bd4* __ZN11QObjectListD0Ev$w$TUyfzd3F8U6e5Z7U1
0001:000a9c78* __ZN8QPtrListI7QObjectE10deleteItemEPv$w$TUyfzd3F8U6e5Z7U1
0001:000a9b50* __ZTV6QGList$w$TUyfzd3F8U6e5Z7U1
0001:000a9b7c* __ZNK6QGList5countEv$w$TUyfzd3F8U6e5Z7U1
0001:000a9cb0* __ZTV8QPtrListI7QObjectE$w$TUyfzd3F8U6e5Z7U1
0001:000a9cdc* __ZN8QPtrListI7QObjectED1Ev$w$TUyfzd3F8U6e5Z7U1
0001:000a9d04* __ZN8QPtrListI7QObjectED0Ev$w$TUyfzd3F8U6e5Z7U1
Module: C:\200\trunk\src\tmp\obj\release_mt_shared\qurl.obj(qurl.obj)
0001:000a9fe8  __ZN4QUrlC2Ev
0001:000aa028  __ZN4QUrlC1Ev
0001:000aa06c  __ZN4QUrlC2ERK7QString
0001:000ab4dc  __ZN4QUrl5parseERK7QString
0001:000aa0c4  __ZN4QUrlC1ERK7QString
0001:000aa11c  __ZN4QUrlC2ERKS_
0001:000aa1d8  __ZN4QUrlC1ERKS_
0001:000aa298  __ZN4QUrl13isRelativeUrlERK7QString
0001:000aa350  __ZN4QUrlC2ERKS_RK7QStringb
0001:000ab418  __ZNK4QUrl7isValidEv
0001:000ac3f0  __ZN4QUrlaSERKS_
0001:000ab380  __ZN4QUrl8setQueryERK7QString
0001:000aaed8  __ZN4QUrlD1Ev
0001:000adeb4  __ZN4QUrl6decodeER7QString
0001:000ab3e0  __ZN4QUrl6setRefERK7QString
0001:000aca74  __ZNK4QUrl4pathEb
0001:000ac964  __ZN4QUrl22setEncodedPathAndQueryERK7QString
0001:000ac5fc  __ZN4QUrl11setFileNameERK7QString
0001:000ac3cc  __ZN4QUrlaSERK7QString
0001:000ab428  __ZN4QUrl5resetEv
0001:000aa878  __ZN4QUrlC1ERKS_RK7QStringb
0001:000aada0  __ZN4QUrlD2Ev
0001:000ab010  __ZN4QUrlD0Ev
0001:000ab150  __ZNK4QUrl8protocolEv
0001:000ab170  __ZN4QUrl11setProtocolERK7QString
0001:000ab2cc  __ZNK4QUrl7hasHostEv
0001:000ab1a0  __ZNK4QUrl4userEv
0001:000ab1c4  __ZN4QUrl7setUserERK7QString
0001:000ab1dc  __ZNK4QUrl7hasUserEv
0001:000ab1fc  __ZNK4QUrl8passwordEv
0001:000ab220  __ZN4QUrl11setPasswordERK7QString
0001:000ab238  __ZNK4QUrl11hasPasswordEv
0001:000ab258  __ZNK4QUrl4hostEv
0001:000ab27c  __ZN4QUrl7setHostERK7QString
0001:000ab2ec  __ZNK4QUrl4portEv
0001:000ab2fc  __ZN4QUrl7setPortEi
0001:000ab310  __ZNK4QUrl7hasPortEv
0001:000ab324  __ZN4QUrl7setPathERK7QString
0001:000ab360  __ZNK4QUrl7hasPathEv
0001:000ab398  __ZNK4QUrl5queryEv
0001:000ab3bc  __ZNK4QUrl3refEv
0001:000ab3f8  __ZNK4QUrl6hasRefEv
0001:000ac494  __ZNK4QUrleqERKS_
0001:000ac5c0  __ZNK4QUrleqERK7QString
0001:000ac8e0  __ZN4QUrl19encodedPathAndQueryEv
0001:000ada48  __ZN4QUrl6encodeER7QString
0001:000ad560  __ZNK4QUrl11isLocalFileEv
0001:000ad57c  __ZNK4QUrl8fileNameEv
0001:000ad6bc  __ZN4QUrl7addPathERK7QString
0001:000ad944  __ZNK4QUrl7dirPathEv
0001:000ae09c  __ZNK4QUrl8toStringEbb
0001:000ae6d8  __ZNK4QUrlcv7QStringEv
0001:000ae6fc  __ZN4QUrl4cdUpEv
0001:000ae730  __ZTV4QUrl$w$rOUGsh3F8U6GE0r50
0001:000ae7c8  __ZN11QUrlPrivateC1Ev$w$rOUGsh3F8U6GE0r50
0001:000ae790* __ZTV6QGList$w$rOUGsh3F8U6GE0r50
0001:000ae7bc* __ZNK6QGList5countEv$w$rOUGsh3F8U6GE0r50
Module: C:\200\trunk\src\tmp\obj\release_mt_shared\qlocalfs.obj(qlocalfs.obj)
0001:000ae8b0  __ZN8QLocalFsC2Ev
0001:000ae8dc  __ZN8QLocalFsC1Ev
0001:000aea00  __ZN8QLocalFs21operationListChildrenEP17QNetworkOperation
0001:000aef98  __ZN8QLocalFs14operationMkDirEP17QNetworkOperation
0001:000af300  __ZN8QLocalFs15operationRemoveEP17QNetworkOperation
0001:000af56c  __ZN8QLocalFs15operationRenameEP17QNetworkOperation
0001:000af79c  __ZN8QLocalFs12operationGetEP17QNetworkOperation
0001:000afe88  __ZNK8QLocalFs13calcBlockSizeEi
0001:000afb9c  __ZN8QLocalFs12operationPutEP17QNetworkOperation
0001:000afe7c  __ZNK8QLocalFs19supportedOperationsEv
0001:000afec8* __ZN17QValueListPrivateI8QUrlInfoEC1Ev$w$57Cxum3F8U6ND2dy4
0001:000aff6c* __ZN17QValueListPrivateI8QUrlInfoE6insertE18QValueListIteratorIS0_ERKS0_$w$57Cxum3F8U6ND2dy4
0001:000aff08* __ZN17QValueListPrivateI8QUrlInfoED1Ev$w$57Cxum3F8U6ND2dy4
0001:000affc8* __ZN10QValueListI8QUrlInfoE14detachInternalEv$w$57Cxum3F8U6ND2dy4
0001:000b00c0* __ZTV9QMemArrayIcE$w$57Cxum3F8U6ND2dy4
0001:000afff8* __ZN17QValueListPrivateI8QUrlInfoEC1ERKS1_$w$57Cxum3F8U6ND2dy4
0001:000b0090* __ZTV6QGList$w$57Cxum3F8U6ND2dy4
0001:000b00f8* __ZNK6QGList5countEv$w$57Cxum3F8U6ND2dy4
0001:000b00dc* __ZN9QMemArrayIcED1Ev$w$57Cxum3F8U6ND2dy4
0001:000b0104* __ZN9QMemArrayIcED0Ev$w$57Cxum3F8U6ND2dy4
0001:000b012c* __ZN9QMemArrayIcE6detachEv$w$57Cxum3F8U6ND2dy4
Module: C:\200\trunk\src\tmp\obj\release_mt_shared\qurloperator.obj(qurloperator.obj)
0001:000b0150  __ZN12QUrlOperatorC2Ev
0001:000b01a0  __ZN12QUrlOperatorC1Ev
0001:000b01f0  __ZN12QUrlOperatorC2ERK7QString
0001:000b22c0  __ZN12QUrlOperator18getNetworkProtocolEv
0001:000b024c  __ZN12QUrlOperatorC1ERK7QString
0001:000b02a8  __ZN12QUrlOperatorC2ERKS_
0001:000b04e4  __ZN12QUrlOperatorC1ERKS_
0001:000b0720  __ZN12QUrlOperatorC2ERKS_RK7QStringb
0001:000b096c  __ZN12QUrlOperatorC1ERKS_RK7QStringb
0001:000b0bb8  __ZN12QUrlOperatorD2Ev
0001:000b0c0c  __ZN12QUrlOperatorD1Ev
0001:000b0c68  __ZN12QUrlOperatorD0Ev
0001:000b0e54  __ZN12QUrlOperator14startOperationEP17QNetworkOperation
0001:000b2df8  __ZN12QUrlOperator15deleteOperationEP17QNetworkOperation
0001:000b11b4  __ZN12QUrlOperator12listChildrenEv
0001:000b120c  __ZN12QUrlOperator5mkdirERK7QString
0001:000b1270  __ZN12QUrlOperator6removeERK7QString
0001:000b12d4  __ZN12QUrlOperator6renameERK7QStringS2_
0001:000b1498  __ZN12QUrlOperator4copyERK7QStringS2_bb
0001:000b1ab8  __ZN12QUrlOperator4copyERK11QStringListRK7QStringb
0001:000b2afc  __ZN12QUrlOperator12finishedCopyEv
0001:000b1b48  __ZN12QUrlOperator5isDirEPb
0001:000b1ca4  __ZN12QUrlOperator3getERK7QString
0001:000b1e00  __ZN12QUrlOperator3putERK9QMemArrayIcERK7QString
0001:000b1f6c  __ZN12QUrlOperator13setNameFilterERK7QString
0001:000b1f84  __ZNK12QUrlOperator10nameFilterEv
0001:000b1fa8  __ZN12QUrlOperator12clearEntriesEv
0001:000b1fbc  __ZN12QUrlOperator8addEntryERK10QValueListI8QUrlInfoE
0001:000b2094  __ZNK12QUrlOperator4infoERK7QString
0001:000b2370  __ZN12QUrlOperator21deleteNetworkProtocolEv
0001:000b23a4  __ZN12QUrlOperator7setPathERK7QString
0001:000b23e8  __ZN12QUrlOperator5resetEv
0001:000b2428  __ZN12QUrlOperator5parseERK7QString
0001:000b246c  __ZN12QUrlOperatoraSERKS_
0001:000b2784  __ZN12QUrlOperatoraSERK7QString
0001:000b27c0  __ZN12QUrlOperator4cdUpEv
0001:000b280c  __ZN12QUrlOperator10checkValidEv
0001:000b282c  __ZN12QUrlOperator11copyGotDataERK9QMemArrayIcEP17QNetworkOperation
0001:000b28bc  __ZN12QUrlOperator12continueCopyEP17QNetworkOperation
0001:000b2c08  __ZN12QUrlOperator4stopEv
0001:000b2e1c  __ZN12QUrlOperator15slotItemChangedEP17QNetworkOperation
0001:000b3d60  __ZN19QUrlOperatorPrivateC1Ev$w$RHm85t3F8U6Inciu0
0001:000b313c  __ZN4QMapI7QString8QUrlInfoEaSERKS2_$w$RHm85t3F8U6Inciu0
0001:000b31c8* __ZN17QValueListPrivateI7QStringED1Ev$w$RHm85t3F8U6Inciu0
0001:000b3f24  __ZN19QUrlOperatorPrivateD1Ev$w$RHm85t3F8U6Inciu0
0001:000b0c60  __ZThn40_N12QUrlOperatorD1Ev$w$RHm85t3F8U6Inciu0
0001:000b0cc4  __ZThn40_N12QUrlOperatorD0Ev$w$RHm85t3F8U6Inciu0
0001:000b3bf0* __ZTV8QPtrListI17QNetworkOperationE$w$RHm85t3F8U6Inciu0
0001:000b32e4  __ZNK11QMapPrivateI7QString8QUrlInfoE4findERKS0_$w$RHm85t3F8U6Inciu0
0001:000b3258  __ZN4QMapI7QString8QUrlInfoEixERKS0_$w$RHm85t3F8U6Inciu0
0001:000b3368  __ZN4QMapI7QString8QUrlInfoE5clearEv$w$RHm85t3F8U6Inciu0
0001:000b23e0  __ZThn40_N12QUrlOperator7setPathERK7QString$w$RHm85t3F8U6Inciu0
0001:000b2420  __ZThn40_N12QUrlOperator5resetEv$w$RHm85t3F8U6Inciu0
0001:000b2464  __ZThn40_N12QUrlOperator5parseERK7QString$w$RHm85t3F8U6Inciu0
0001:000b3c70  __ZTV8QPtrDictI17QNetworkOperationE$w$RHm85t3F8U6Inciu0
0001:000b3c30  __ZTV8QPtrDictI16QNetworkProtocolE$w$RHm85t3F8U6Inciu0
0001:000b2804  __ZThn40_N12QUrlOperator4cdUpEv$w$RHm85t3F8U6Inciu0
0001:000b33dc* __ZN17QValueListPrivateI7QStringE6removeERKS0_$w$RHm85t3F8U6Inciu0
0001:000b33ac* __ZN10QValueListI7QStringE14detachInternalEv$w$RHm85t3F8U6Inciu0
0001:000b3454* __ZN10QValueListI7QStringE5clearEv$w$RHm85t3F8U6Inciu0
0001:000b3498  __ZN4QMapI7QString8QUrlInfoE14detachInternalEv$w$RHm85t3F8U6Inciu0
0001:000b3578  __ZN11QMapPrivateI7QString8QUrlInfoE5clearEv$w$RHm85t3F8U6Inciu0
0001:000b35b4  __ZN4QMapI7QString8QUrlInfoE6insertERKS0_RKS1_b$w$RHm85t3F8U6Inciu0
0001:000b3514  __ZN11QMapPrivateI7QString8QUrlInfoEC1Ev$w$RHm85t3F8U6Inciu0
0001:000b3620* __ZN17QValueListPrivateI7QStringEC1ERKS1_$w$RHm85t3F8U6Inciu0
0001:000b3700* __ZN17QValueListPrivateI7QStringE6removeE18QValueListIteratorIS0_E$w$RHm85t3F8U6Inciu0
0001:000b34c8* __ZN17QValueListPrivateI7QStringEC1Ev$w$RHm85t3F8U6Inciu0
0001:000b3788* __ZN17QValueListPrivateI7QStringE5clearEv$w$RHm85t3F8U6Inciu0
0001:000b37ec  __ZN11QMapPrivateI7QString8QUrlInfoEC1EPKS2_$w$RHm85t3F8U6Inciu0
0001:000b38a4  __ZN11QMapPrivateI7QString8QUrlInfoE5clearEP8QMapNodeIS0_S1_E$w$RHm85t3F8U6Inciu0
0001:000b3914  __ZN11QMapPrivateI7QString8QUrlInfoE12insertSingleERKS0_$w$RHm85t3F8U6Inciu0
0001:000b41e0* __ZN17QValueListPrivateI7QStringE6insertE18QValueListIteratorIS0_ERKS0_$w$RHm85t3F8U6Inciu0
0001:000b39c8  __ZN11QMapPrivateI7QString8QUrlInfoE4copyEP8QMapNodeIS0_S1_E$w$RHm85t3F8U6Inciu0
0001:000b3a94  __ZN11QMapPrivateI7QString8QUrlInfoE6insertEP12QMapNodeBaseS4_RKS0_$w$RHm85t3F8U6Inciu0
0001:000b3b84  __ZN12QMapIteratorI7QString8QUrlInfoE3decEv$w$RHm85t3F8U6Inciu0
0001:000b423c* __ZNK8QPtrListI17QNetworkOperationE5countEv$w$RHm85t3F8U6Inciu0
0001:000b412c* __ZN8QPtrListI17QNetworkOperationE5clearEv$w$RHm85t3F8U6Inciu0
0001:000b3d38* __ZN8QPtrListI17QNetworkOperationED1Ev$w$RHm85t3F8U6Inciu0
0001:000b4138* __ZN8QPtrListI17QNetworkOperationED0Ev$w$RHm85t3F8U6Inciu0
0001:000b4248* __ZN8QPtrListI17QNetworkOperationE10deleteItemEPv$w$RHm85t3F8U6Inciu0
0001:000b4270  __ZNK8QPtrDictI16QNetworkProtocolE5countEv$w$RHm85t3F8U6Inciu0
0001:000b41a4  __ZN8QPtrDictI16QNetworkProtocolE5clearEv$w$RHm85t3F8U6Inciu0
0001:000b3d10  __ZN8QPtrDictI16QNetworkProtocolED1Ev$w$RHm85t3F8U6Inciu0
0001:000b41b0  __ZN8QPtrDictI16QNetworkProtocolED0Ev$w$RHm85t3F8U6Inciu0
0001:000b427c  __ZN8QPtrDictI16QNetworkProtocolE10deleteItemEPv$w$RHm85t3F8U6Inciu0
0001:000b42a4  __ZNK8QPtrDictI17QNetworkOperationE5countEv$w$RHm85t3F8U6Inciu0
0001:000b4168  __ZN8QPtrDictI17QNetworkOperationE5clearEv$w$RHm85t3F8U6Inciu0
0001:000b3ce8  __ZN8QPtrDictI17QNetworkOperationED1Ev$w$RHm85t3F8U6Inciu0
0001:000b4174  __ZN8QPtrDictI17QNetworkOperationED0Ev$w$RHm85t3F8U6Inciu0
0001:000b42b0  __ZN8QPtrDictI17QNetworkOperationE10deleteItemEPv$w$RHm85t3F8U6Inciu0
0001:000b3cb0* __ZTV6QGList$w$RHm85t3F8U6Inciu0
0001:000b3cdc* __ZNK6QGList5countEv$w$RHm85t3F8U6Inciu0
Module: C:\200\trunk\src\tmp\obj\release_mt_shared\qurlinfo.obj(qurlinfo.obj)
0001:000b42f0  __ZN8QUrlInfoC2Ev
0001:000b4308  __ZN8QUrlInfoC1Ev
0001:000b4320  __ZN8QUrlInfoC2ERK12QUrlOperatorRK7QString
0001:000b58f4  __ZN8QUrlInfoD1Ev
0001:000b44f0  __ZN8QUrlInfoC1ERK12QUrlOperatorRK7QString
0001:000b46c0  __ZN8QUrlInfoC2ERKS_
0001:000b4818  __ZN8QUrlInfoC1ERKS_
0001:000b4970  __ZN8QUrlInfoC2ERK7QStringiS2_S2_jRK9QDateTimeS5_bbbbbb
0001:000b4adc  __ZN8QUrlInfoC1ERK7QStringiS2_S2_jRK9QDateTimeS5_bbbbbb
0001:000b4c48  __ZN8QUrlInfoC2ERK4QUrliRK7QStringS5_jRK9QDateTimeS8_bbbbbb
0001:000b4e2c  __ZN8QUrlInfoC1ERK4QUrliRK7QStringS5_jRK9QDateTimeS8_bbbbbb
0001:000b5010  __ZN8QUrlInfo7setNameERK7QString
0001:000b50d4  __ZN8QUrlInfo6setDirEb
0001:000b5198  __ZN8QUrlInfo7setFileEb
0001:000b525c  __ZN8QUrlInfo10setSymLinkEb
0001:000b5320  __ZN8QUrlInfo11setWritableEb
0001:000b53e4  __ZN8QUrlInfo11setReadableEb
0001:000b54a8  __ZN8QUrlInfo8setOwnerERK7QString
0001:000b5570  __ZN8QUrlInfo8setGroupERK7QString
0001:000b5638  __ZN8QUrlInfo7setSizeEj
0001:000b56f0  __ZN8QUrlInfo14setPermissionsEi
0001:000b57a8  __ZN8QUrlInfo15setLastModifiedERK9QDateTime
0001:000b5868  __ZN8QUrlInfoD2Ev
0001:000b5980  __ZN8QUrlInfoD0Ev
0001:000b5a14  __ZN8QUrlInfoaSERKS_
0001:000b5bdc  __ZNK8QUrlInfo4nameEv
0001:000b5c10  __ZNK8QUrlInfo11permissionsEv
0001:000b5c24  __ZNK8QUrlInfo5ownerEv
0001:000b5c5c  __ZNK8QUrlInfo5groupEv
0001:000b5c94  __ZNK8QUrlInfo4sizeEv
0001:000b5ca8  __ZNK8QUrlInfo12lastModifiedEv
0001:000b5cd8  __ZNK8QUrlInfo8lastReadEv
0001:000b5d08  __ZNK8QUrlInfo5isDirEv
0001:000b5d20  __ZNK8QUrlInfo6isFileEv
0001:000b5d38  __ZNK8QUrlInfo9isSymLinkEv
0001:000b5d50  __ZNK8QUrlInfo10isWritableEv
0001:000b5d68  __ZNK8QUrlInfo10isReadableEv
0001:000b5d80  __ZNK8QUrlInfo12isExecutableEv
0001:000b5d98  __ZN8QUrlInfo11greaterThanERKS_S1_i
0001:000b5e8c  __ZN8QUrlInfo8lessThanERKS_S1_i
0001:000b5ea8  __ZN8QUrlInfo5equalERKS_S1_i
0001:000b5f9c  __ZNK8QUrlInfoeqERKS_
0001:000b60c4  __ZNK8QUrlInfo7isValidEv
0001:000b60f0  __ZTV8QUrlInfo$w$pTBxFx3F8U6qcngG3
0001:000b6130* __ZTV6QGList$w$pTBxFx3F8U6qcngG3
0001:000b615c* __ZNK6QGList5countEv$w$pTBxFx3F8U6qcngG3
Module: C:\200\trunk\src\tmp\obj\release_mt_shared\qwidget.obj(qwidget.obj)
0001:000b6170  __ZN13QWidgetMapperC2Ev
0001:000b61a8  __ZN13QWidgetMapperC1Ev
0001:000b61e0  __ZN13QWidgetMapperD2Ev
0001:000b6224  __ZN13QWidgetMapperD1Ev
0001:000b6268  __ZN13QWidgetMapperD0Ev
0001:000b63ec  __Z20qt_naturalWidgetSizeP7QWidget
0001:000b8694  __ZNK7QWidget3posEv
0001:000b65cc  __ZN7QWidgetC2EPS_PKcj
0001:000b9ca4  __ZN7QWidget9focusDataEb
0001:000b8da4  __ZN7QWidget21setBackgroundFromModeEv
0001:000b68e4  __ZN7QWidgetC1EPS_PKcj
0001:000b6c24  __ZN7QWidgetD2Ev
0001:000b986c  __ZNK7QWidget8hasFocusEv
0001:000b76ec  __ZN7QWidget11deleteExtraEv
0001:000ba9b4  __ZN7QWidget4hideEv
0001:000b9a48  __ZN7QWidget10clearFocusEv
0001:000b6e48  __ZN7QWidgetD1Ev
0001:000b7078  __ZN7QWidgetD0Ev
0001:000b72c4  __ZN7QWidget12createMapperEv
0001:000b7304  __ZN7QWidget13destroyMapperEv
0001:000b7438  __ZN7QWidget5wListEv
0001:000b7450  __ZN7QWidget7tlwListEv
0001:000b7468  __ZN7QWidget8setWinIdEm
0001:000b74c8  __ZN7QWidget9extraDataEv
0001:000b74d4  __ZN7QWidget7topDataEv
0001:000b74f0  __ZN7QWidget13createTLExtraEv
0001:000b7618  __ZN7QWidget11createExtraEv
0001:000b784c  __ZN7QWidget23deactivateWidgetCleanupEv
0001:000b788c  __ZN7QWidget4findEm
0001:000b78d0  __ZNK7QWidget5styleEv
0001:000b78f0  __ZN7QWidget8setStyleEP6QStyle
0001:000b795c  __ZN7QWidget8setStyleERK7QString
0001:000b7980  __ZN7QWidget11styleChangeER6QStyle
0001:000bc4ac  __ZN7QWidget14updateGeometryEv
0001:000b79a0  __ZNK7QWidget11isMinimizedEv
0001:000b79b4  __ZN7QWidget13showMinimizedEv
0001:000b7a00  __ZNK7QWidget11isMaximizedEv
0001:000b7a14  __ZNK7QWidget11windowStateEv
0001:000b9d8c  __ZNK7QWidget14isActiveWindowEv
0001:000b7a5c  __ZNK7QWidget12isFullScreenEv
0001:000b7a70  __ZN7QWidget14showFullScreenEv
0001:000b7acc  __ZN7QWidget13showMaximizedEv
0001:000b7b18  __ZN7QWidget10showNormalEv
0001:000b7b54  __ZNK7QWidget11isEnabledToEPS_
0001:000b7b94  __ZN7QWidget10setEnabledEb
0001:000b9c20  __ZNK7QWidget11focusWidgetEv
0001:000b7d88  __ZN7QWidget11setDisabledEb
0001:000b7da8  __ZN7QWidget13enabledChangeEb
0001:000b7db4  __ZN7QWidget22windowActivationChangeEb
0001:000b8edc  __ZNK7QWidget14backgroundModeEv
0001:000b8534  __ZNK7QWidget13frameGeometryEv
0001:000b85f4  __ZNK7QWidget1xEv
0001:000b8644  __ZNK7QWidget1yEv
0001:000b8700  __ZNK7QWidget12childrenRectEv
0001:000b87b4  __ZNK7QWidget14childrenRegionEv
0001:000b8874  __ZNK7QWidget11minimumSizeEv
0001:000b88ac  __ZNK7QWidget11maximumSizeEv
0001:000b88e4  __ZNK7QWidget13sizeIncrementEv
0001:000b8924  __ZNK7QWidget8baseSizeEv
0001:000b8964  __ZN7QWidget12setFixedSizeERK5QSize
0001:000b89a4  __ZN7QWidget12setFixedSizeEii
0001:000b89e4  __ZN7QWidget15setMinimumWidthEi
0001:000b8a14  __ZN7QWidget16setMinimumHeightEi
0001:000b8a3c  __ZN7QWidget15setMaximumWidthEi
0001:000b8a6c  __ZN7QWidget16setMaximumHeightEi
0001:000b8a94  __ZN7QWidget13setFixedWidthEi
0001:000b8ae0  __ZN7QWidget14setFixedHeightEi
0001:000b8b1c  __ZNK7QWidget5mapToEPS_RK6QPoint
0001:000b8bc4  __ZNK7QWidget11mapToParentERK6QPoint
0001:000b8b70  __ZNK7QWidget7mapFromEPS_RK6QPoint
0001:000b8c04  __ZNK7QWidget13mapFromParentERK6QPoint
0001:000b8c44  __ZNK7QWidget14topLevelWidgetEv
0001:000b8c6c  __ZNK7QWidget22paletteForegroundColorEv
0001:000b92d0  __ZNK7QWidget10colorGroupEv
0001:000b8ca4  __ZN7QWidget25setPaletteForegroundColorERK6QColor
0001:000b8d24  __ZNK7QWidget15foregroundColorEv
0001:000b8d30  __ZN7QWidget13setEraseColorERK6QColor
0001:000b8f90  __ZN7QWidget23setBackgroundModeDirectEN2Qt14BackgroundModeE
0001:000b8d60  __ZNK7QWidget11erasePixmapEv
0001:000b8d78  __ZN7QWidget14setErasePixmapERK7QPixmap
0001:000b8ef4  __ZN7QWidget17setBackgroundModeEN2Qt14BackgroundModeE
0001:000b8f2c  __ZN7QWidget17setBackgroundModeEN2Qt14BackgroundModeES1_
0001:000b8fe4  __ZNK7QWidget22paletteBackgroundColorEv
0001:000b9034  __ZN7QWidget25setPaletteBackgroundColorERK6QColor
0001:000b90d4  __ZNK7QWidget23paletteBackgroundPixmapEv
0001:000b9130  __ZN7QWidget26setPaletteBackgroundPixmapERK7QPixmap
0001:000b9250  __ZNK7QWidget15backgroundBrushEv
0001:000b9310  __ZN7QWidget10setPaletteERK8QPalette
0001:000b944c  __ZN7QWidget12unsetPaletteEv
0001:000b9484  __ZN7QWidget13paletteChangeERK8QPalette
0001:000b948c  __ZN7QWidget7setFontERK5QFont
0001:000b95ec  __ZN7QWidget9unsetFontEv
0001:000b9624  __ZN7QWidget10fontChangeERK5QFont
0001:000b9644  __ZNK7QWidget6cursorEv
0001:000b9684  __ZNK7QWidget7captionEv
0001:000b96b4  __ZNK7QWidget4iconEv
0001:000b96d4  __ZNK7QWidget8iconTextEv
0001:000b9758  __ZN7QWidget13setFocusProxyEPS_
0001:000b982c  __ZNK7QWidget10focusProxyEv
0001:000b9840  __ZN7QWidget19focusProxyDestroyedEv
0001:000b98a8  __ZN7QWidget8setFocusEv
0001:000b9ad8  __ZN7QWidget18focusNextPrevChildEb
0001:000bb200  __ZNK7QWidget11isVisibleToEPS_
0001:000b9c90  __ZN7QWidget9focusDataEv
0001:000b9d44  __ZN7QWidget21setInputMethodEnabledEb
0001:000b9d60  __ZN7QWidget17setKeyCompressionEb
0001:000b9eb8  __ZN7QWidget11setTabOrderEPS_S0_
0001:000ba0b8  __ZN7QWidget20reparentFocusWidgetsEPS_
0001:000ba238  __ZNK7QWidget9frameSizeEv
0001:000bc120  __ZNK7QWidget16backgroundOriginEv
0001:000bc670  __ZNK7QWidget16backgroundPixmapEv
0001:000bb358  __ZNK7QWidget10clipRegionEv
0001:000ba3e0  __ZN7QWidget4moveEii
0001:000ba494  __ZN7QWidget6resizeEii
0001:000ba4cc  __ZN7QWidget11setGeometryEiiii
0001:000ba54c  __ZN7QWidget14setFocusPolicyENS_11FocusPolicyE
0001:000ba5c8  __ZN7QWidget17setUpdatesEnabledEb
0001:000ba5f8  __ZN7QWidget4showEv
0001:000babe0  __ZN7QWidget12showChildrenEb
0001:000bacd8  __ZN7QWidget12hideChildrenEb
0001:000bab80  __ZN7QWidget8setShownEb
0001:000babb0  __ZN7QWidget9setHiddenEb
0001:000badcc  __ZN7QWidget6polishEv
0001:000bafe4  __ZN7QWidget5closeEb
0001:000bb24c  __ZNK7QWidget11visibleRectEv
0001:000bb388  __ZN7QWidget10adjustSizeEv
0001:000bb5a0  __ZNK7QWidget8sizeHintEv
0001:000bb5d4  __ZNK7QWidget15minimumSizeHintEv
0001:000bb620  __ZN7QWidget5eventEP6QEvent
0001:000bbd78  __ZN7QWidget14mouseMoveEventEP11QMouseEvent
0001:000bbd84  __ZN7QWidget15mousePressEventEP11QMouseEvent
0001:000bbe3c  __ZN7QWidget17mouseReleaseEventEP11QMouseEvent
0001:000bbe48  __ZN7QWidget21mouseDoubleClickEventEP11QMouseEvent
0001:000bbe64  __ZN7QWidget10wheelEventEP11QWheelEvent
0001:000bbe70  __ZN7QWidget11tabletEventEP12QTabletEvent
0001:000bbe7c  __ZN7QWidget13keyPressEventEP9QKeyEvent
0001:000bbeb4  __ZN7QWidget15keyReleaseEventEP9QKeyEvent
0001:000bbec0  __ZN7QWidget12focusInEventEP11QFocusEvent
0001:000bbf30  __ZN7QWidget13focusOutEventEP11QFocusEvent
0001:000bbf70  __ZNK7QWidget14microFocusHintEv
0001:000bbfe4  __ZN7QWidget10enterEventEP6QEvent
0001:000bbfec  __ZN7QWidget10leaveEventEP6QEvent
0001:000bbff4  __ZN7QWidget10paintEventEP11QPaintEvent
0001:000bbffc  __ZN7QWidget9moveEventEP10QMoveEvent
0001:000bc004  __ZN7QWidget11resizeEventEP12QResizeEvent
0001:000bc02c  __ZN7QWidget10closeEventEP11QCloseEvent
0001:000bc038  __ZN7QWidget16contextMenuEventEP17QContextMenuEvent
0001:000bc048  __ZN7QWidget12imStartEventEP8QIMEvent
0001:000bc054  __ZN7QWidget14imComposeEventEP8QIMEvent
0001:000bc060  __ZN7QWidget10imEndEventEP8QIMEvent
0001:000bc06c  __ZN7QWidget14dragEnterEventEP15QDragEnterEvent
0001:000bc074  __ZN7QWidget13dragMoveEventEP14QDragMoveEvent
0001:000bc07c  __ZN7QWidget14dragLeaveEventEP15QDragLeaveEvent
0001:000bc084  __ZN7QWidget9dropEventEP10QDropEvent
0001:000bc08c  __ZN7QWidget9showEventEP10QShowEvent
0001:000bc094  __ZN7QWidget9hideEventEP10QHideEvent
0001:000bc09c  __ZN7QWidget7pmEventEP5_QMSG
0001:000bc0a4  __ZNK7QWidget8autoMaskEv
0001:000bc0b8  __ZN7QWidget11setAutoMaskEb
0001:000bc138  __ZN7QWidget19setBackgroundOriginENS_16BackgroundOriginE
0001:000bc188  __ZN7QWidget10updateMaskEv
0001:000bc190  __ZNK7QWidget16backgroundOffsetEv
0001:000bc2dc  __ZN7QWidget9setLayoutEP7QLayout
0001:000bc2ec  __ZNK7QWidget10sizePolicyEv
0001:000bc314  __ZN7QWidget13setSizePolicyE11QSizePolicy
0001:000bc368  __ZNK7QWidget14heightForWidthEi
0001:000bc370  __ZNK7QWidget15customWhatsThisEv
0001:000bc378  __ZNK7QWidget7childAtEiib
0001:000bc48c  __ZNK7QWidget7childAtERK6QPointb
0001:000bc4f4  __ZN7QWidget8reparentEPS_jRK6QPointb
0001:000bc5d4  __ZN7QWidget8reparentEPS_RK6QPointb
0001:000bc604  __ZN7QWidget7repaintEb
0001:000bc64c  __ZNK7QWidget15backgroundColorEv
0001:000bc658  __ZN7QWidget18setBackgroundColorERK6QColor
0001:000bc67c  __ZN7QWidget19setBackgroundPixmapERK7QPixmap
0001:000bc694  __ZN14QDesktopWidget11insertChildEP7QObject
0002:00003a00  __ZN7QWidget6mapperE
0002:00003a04  __ZN7QWidget15instanceCounterE
0002:00003a08  __ZN7QWidget12maxInstancesE
0001:000bc6b0  __ZTV13QWidgetMapper$w$5rgPdJ3F8U6TUph43
0001:000bc6f0  __ZTV14QWidgetIntDict$w$5rgPdJ3F8U6TUph43
0001:000bc730  __ZTV8QIntDictI7QWidgetE$w$5rgPdJ3F8U6TUph43
0001:000bc820* __ZTV10QMoveEvent$w$5rgPdJ3F8U6TUph43
0001:000bc810* __ZTV12QResizeEvent$w$5rgPdJ3F8U6TUph43
0001:000b706c  __ZThn40_N7QWidgetD1Ev$w$5rgPdJ3F8U6TUph43
0001:000b72a4  __ZThn40_N7QWidgetD0Ev$w$5rgPdJ3F8U6TUph43
0001:000bc770* __ZTV11QWidgetList$w$5rgPdJ3F8U6TUph43
0001:000bc7b0* __ZTV8QPtrListI7QWidgetE$w$5rgPdJ3F8U6TUph43
0001:000bc840* __ZTV11QFocusEvent$w$5rgPdJ3F8U6TUph43
0001:000bc830* __ZTV11QPaintEvent$w$5rgPdJ3F8U6TUph43
0001:000bc7f0* __ZTV10QShowEvent$w$5rgPdJ3F8U6TUph43
0001:000bc7e0* __ZTV10QHideEvent$w$5rgPdJ3F8U6TUph43
0001:000bc800* __ZTV11QCloseEvent$w$5rgPdJ3F8U6TUph43
0001:000bcc48  __ZNK8QIntDictI7QWidgetE5countEv$w$5rgPdJ3F8U6TUph43
0001:000bcaf8  __ZN8QIntDictI7QWidgetE5clearEv$w$5rgPdJ3F8U6TUph43
0001:000bcc54  __ZN8QIntDictI7QWidgetE10deleteItemEPv$w$5rgPdJ3F8U6TUph43
0001:000bcb04  __ZN14QWidgetIntDictD1Ev$w$5rgPdJ3F8U6TUph43
0001:000bcb38  __ZN14QWidgetIntDictD0Ev$w$5rgPdJ3F8U6TUph43
0001:000bcb80  __ZN8QIntDictI7QWidgetED1Ev$w$5rgPdJ3F8U6TUph43
0001:000bcba8  __ZN8QIntDictI7QWidgetED0Ev$w$5rgPdJ3F8U6TUph43
0001:000bcb74* __ZNK8QPtrListI7QWidgetE5countEv$w$5rgPdJ3F8U6TUph43
0001:000bca7c* __ZN8QPtrListI7QWidgetE5clearEv$w$5rgPdJ3F8U6TUph43
0001:000bca88* __ZN11QWidgetListD1Ev$w$5rgPdJ3F8U6TUph43
0001:000bcabc* __ZN11QWidgetListD0Ev$w$5rgPdJ3F8U6TUph43
0001:000bcc7c* __ZN8QPtrListI7QWidgetE10deleteItemEPv$w$5rgPdJ3F8U6TUph43
0001:000bcbd8* __ZN8QPtrListI7QWidgetED1Ev$w$5rgPdJ3F8U6TUph43
0001:000bcc00* __ZN8QPtrListI7QWidgetED0Ev$w$5rgPdJ3F8U6TUph43
0001:000bca60* __ZN10QHideEventD1Ev$w$5rgPdJ3F8U6TUph43
0001:000bca38* __ZN10QHideEventD0Ev$w$5rgPdJ3F8U6TUph43
0001:000bca1c* __ZN10QShowEventD1Ev$w$5rgPdJ3F8U6TUph43
0001:000bc9f4* __ZN10QShowEventD0Ev$w$5rgPdJ3F8U6TUph43
0001:000bc9d8* __ZN11QCloseEventD1Ev$w$5rgPdJ3F8U6TUph43
0001:000bc9b0* __ZN11QCloseEventD0Ev$w$5rgPdJ3F8U6TUph43
0001:000bc96c* __ZN12QResizeEventD1Ev$w$5rgPdJ3F8U6TUph43
0001:000bc988* __ZN12QResizeEventD0Ev$w$5rgPdJ3F8U6TUph43
0001:000bc928* __ZN10QMoveEventD1Ev$w$5rgPdJ3F8U6TUph43
0001:000bc944* __ZN10QMoveEventD0Ev$w$5rgPdJ3F8U6TUph43
0001:000bc8cc* __ZN11QPaintEventD1Ev$w$5rgPdJ3F8U6TUph43
0001:000bc8f8* __ZN11QPaintEventD0Ev$w$5rgPdJ3F8U6TUph43
0001:000bc8b0* __ZN11QFocusEventD1Ev$w$5rgPdJ3F8U6TUph43
0001:000bc888* __ZN11QFocusEventD0Ev$w$5rgPdJ3F8U6TUph43
0001:000bc850* __ZTV6QGList$w$5rgPdJ3F8U6TUph43
0001:000bc87c* __ZNK6QGList5countEv$w$5rgPdJ3F8U6TUph43
Module: C:\200\trunk\src\tmp\obj\release_mt_shared\qwmatrix.obj(qwmatrix.obj)
0001:000bccb0  __ZN8QWMatrix21setTransformationModeENS_18TransformationModeE
0001:000bccc4  __ZN8QWMatrix18transformationModeEv
0001:000bccd8  __ZN8QWMatrixC2Ev
0001:000bcd10  __ZN8QWMatrixC1Ev
0001:000bcd48  __ZN8QWMatrixC2Edddddd
0001:000bcd98  __ZN8QWMatrixC1Edddddd
0001:000bcde8  __ZN8QWMatrix9setMatrixEdddddd
0001:000bce38  __ZNK8QWMatrix3mapEddPdS0_
0001:000bce78  __ZNK8QWMatrix3mapEiiPiS0_
0001:000bcf8c  __ZNK8QWMatrix7mapRectERK5QRect
0001:000bdb9c  __ZNK8QWMatrixmlERK11QPointArray
0001:000bda70  __ZNK8QWMatrixmlERK6QPoint
0001:000be2c0  __ZNK8QWMatrixmlERK5QRect
0001:000bf680  __ZNK8QWMatrix10isIdentityEv
0001:000be728  __ZNK8QWMatrix12mapToPolygonERK5QRect
0001:000bf2fc  __ZNK8QWMatrixmlERK7QRegion
0001:000bf648  __ZN8QWMatrix5resetEv
0001:000bf6f8  __ZN8QWMatrix9translateEdd
0001:000bf734  __ZN8QWMatrix5scaleEdd
0001:000bf768  __ZN8QWMatrix5shearEdd
0001:000bf7b8  __ZN8QWMatrix6rotateEd
0001:000bf848  __ZNK8QWMatrix6invertEPb
0001:000bf92c  __ZNK8QWMatrixeqERKS_
0001:000bf9bc  __ZNK8QWMatrixneERKS_
0001:000bfa4c  __ZN8QWMatrixmLERKS_
0001:000bfaf8  __ZmlRK8QWMatrixS1_
0001:000bfb28  __ZlsR11QDataStreamRK8QWMatrix
0001:000bfc28  __ZrsR11QDataStreamR8QWMatrix
0002:00000990  _qt_old_transformations
0001:000bfda0* __ZTV9QMemArrayI6QPointE$w$fUURTL3F8U6hNNZA0
0001:000bfd80* __ZTV11QPointArray$w$fUURTL3F8U6hNNZA0
0001:000bfd60  __ZTV9QMemArrayI14QWMDoublePointE$w$fUURTL3F8U6hNNZA0
0001:000bfd40* __ZTV9QMemArrayI5QRectE$w$fUURTL3F8U6hNNZA0
0001:000bfe88* __ZN9QMemArrayI5QRectED1Ev$w$fUURTL3F8U6hNNZA0
0001:000bfea4* __ZN9QMemArrayI5QRectED0Ev$w$fUURTL3F8U6hNNZA0
0001:000bfecc* __ZN9QMemArrayI5QRectE6detachEv$w$fUURTL3F8U6hNNZA0
0001:000bfe44  __ZN9QMemArrayI14QWMDoublePointED1Ev$w$fUURTL3F8U6hNNZA0
0001:000bfe60  __ZN9QMemArrayI14QWMDoublePointED0Ev$w$fUURTL3F8U6hNNZA0
0001:000bfee4  __ZN9QMemArrayI14QWMDoublePointE6detachEv$w$fUURTL3F8U6hNNZA0
0001:000bfdbc* __ZN11QPointArrayD1Ev$w$fUURTL3F8U6hNNZA0
0001:000bfdd8* __ZN11QPointArrayD0Ev$w$fUURTL3F8U6hNNZA0
0001:000bfefc* __ZN9QMemArrayI6QPointE6detachEv$w$fUURTL3F8U6hNNZA0
0001:000bfe00* __ZN9QMemArrayI6QPointED1Ev$w$fUURTL3F8U6hNNZA0
0001:000bfe1c* __ZN9QMemArrayI6QPointED0Ev$w$fUURTL3F8U6hNNZA0
Module: C:\200\trunk\src\tmp\obj\release_mt_shared\qvariant.obj(qvariant.obj)
0001:000bff50  __ZN8QVariant7PrivateC2Ev
0001:000bff6c  __ZN8QVariant7PrivateC1Ev
0001:000bffb4  __ZN8QVariant7PrivateC2EPS0_
0001:000c0354  __ZN8QVariant7PrivateC1EPS0_
0001:000c06f4  __ZN8QVariant7PrivateD2Ev
0001:000c0704  __ZN8QVariant7Private5clearEv
0001:000c06fc  __ZN8QVariant7PrivateD1Ev
0001:000c0a4c  __ZN8QVariantD1Ev
0001:000c09cc  __ZN8QVariantC2Ev
0001:000c09f4  __ZN8QVariantC1Ev
0001:000c0a1c  __ZN8QVariantD2Ev
0001:000c0a7c  __ZN8QVariantC2ERKS_
0001:000c0a90  __ZN8QVariantC1ERKS_
0001:000c0aa4  __ZN8QVariantC2ER11QDataStream
0001:000c2bbc  __ZrsR11QDataStreamR8QVariant
0001:000c0adc  __ZN8QVariantC1ER11QDataStream
0001:000c0b14  __ZN8QVariantC2ERK7QString
0001:000c0b60  __ZN8QVariantC1ERK7QString
0001:000c0bac  __ZN8QVariantC2ERK8QCString
0001:000c0c00  __ZN8QVariantC1ERK8QCString
0001:000c0c54  __ZN8QVariantC2EPKc
0001:000c0ca8  __ZN8QVariantC1EPKc
0001:000c0cfc  __ZN8QVariantC2ERK11QStringList
0001:000c0d4c  __ZN8QVariantC1ERK11QStringList
0001:000c0d9c  __ZN8QVariantC2ERK4QMapI7QStringS_E
0001:000c0dec  __ZN8QVariantC1ERK4QMapI7QStringS_E
0001:000c0e3c  __ZN8QVariantC2ERK5QFont
0001:000c0e90  __ZN8QVariantC1ERK5QFont
0001:000c0ee4  __ZN8QVariantC2ERK7QPixmap
0001:000c0f30  __ZN8QVariantC1ERK7QPixmap
0001:000c0f7c  __ZN8QVariantC2ERK6QImage
0001:000c0fc8  __ZN8QVariantC1ERK6QImage
0001:000c1014  __ZN8QVariantC2ERK6QBrush
0001:000c1068  __ZN8QVariantC1ERK6QBrush
0001:000c10bc  __ZN8QVariantC2ERK6QPoint
0001:000c1104  __ZN8QVariantC1ERK6QPoint
0001:000c114c  __ZN8QVariantC2ERK5QRect
0001:000c11a4  __ZN8QVariantC1ERK5QRect
0001:000c11fc  __ZN8QVariantC2ERK5QSize
0001:000c1244  __ZN8QVariantC1ERK5QSize
0001:000c128c  __ZN8QVariantC2ERK6QColor
0001:000c12e0  __ZN8QVariantC1ERK6QColor
0001:000c1334  __ZN8QVariantC2ERK8QPalette
0001:000c1388  __ZN8QVariantC1ERK8QPalette
0001:000c13dc  __ZN8QVariantC2ERK11QColorGroup
0001:000c1430  __ZN8QVariantC1ERK11QColorGroup
0001:000c1484  __ZN8QVariantC2ERK8QIconSet
0001:000c14d0  __ZN8QVariantC1ERK8QIconSet
0001:000c151c  __ZN8QVariantC2ERK7QRegion
0001:000c157c  __ZN8QVariantC1ERK7QRegion
0001:000c15dc  __ZN8QVariantC2ERK7QBitmap
0001:000c1628  __ZN8QVariantC1ERK7QBitmap
0001:000c1674  __ZN8QVariantC2ERK7QCursor
0001:000c16c8  __ZN8QVariantC1ERK7QCursor
0001:000c171c  __ZN8QVariantC2ERK11QPointArray
0001:000c1770  __ZN8QVariantC1ERK11QPointArray
0001:000c17c4  __ZN8QVariantC2ERK5QDate
0001:000c1808  __ZN8QVariantC1ERK5QDate
0001:000c184c  __ZN8QVariantC2ERK5QTime
0001:000c1890  __ZN8QVariantC1ERK5QTime
0001:000c18d4  __ZN8QVariantC2ERK9QDateTime
0001:000c191c  __ZN8QVariantC1ERK9QDateTime
0001:000c1964  __ZN8QVariantC2ERK9QMemArrayIcE
0001:000c19b8  __ZN8QVariantC1ERK9QMemArrayIcE
0001:000c1a0c  __ZN8QVariantC2ERK9QBitArray
0001:000c1a60  __ZN8QVariantC1ERK9QBitArray
0001:000c1ab4  __ZN8QVariantC2ERK12QKeySequence
0001:000c1b08  __ZN8QVariantC1ERK12QKeySequence
0001:000c1b5c  __ZN8QVariantC2ERK4QPen
0001:000c1ba8  __ZN8QVariantC1ERK4QPen
0001:000c1bf4  __ZN8QVariantC2Ei
0001:000c1c30  __ZN8QVariantC1Ei
0001:000c1c6c  __ZN8QVariantC2Ej
0001:000c1ca8  __ZN8QVariantC1Ej
0001:000c1ce4  __ZN8QVariantC2Ex
0001:000c1d30  __ZN8QVariantC1Ex
0001:000c1d7c  __ZN8QVariantC2Ey
0001:000c1dc8  __ZN8QVariantC1Ey
0001:000c1e14  __ZN8QVariantC2Ebi
0001:000c1e54  __ZN8QVariantC1Ebi
0001:000c1e94  __ZN8QVariantC2Ed
0001:000c1ee0  __ZN8QVariantC1Ed
0001:000c1f2c  __ZN8QVariantC2ERK10QValueListIS_E
0001:000c1f7c  __ZN8QVariantC1ERK10QValueListIS_E
0001:000c1fcc  __ZN8QVariantC2E11QSizePolicy
0001:000c2018  __ZN8QVariantC1E11QSizePolicy
0001:000c2064  __ZN8QVariantaSERKS_
0001:000c20a8  __ZN8QVariant6detachEv
0001:000c20e0  __ZNK8QVariant8typeNameEv
0001:000c2134  __ZN8QVariant10typeToNameENS_4TypeE
0001:000c20f4  __ZN8QVariant5clearEv
0001:000c214c  __ZN8QVariant10nameToTypeEPKc
0001:000c2194  __ZN8QVariant4loadER11QDataStream
0001:000c2864  __ZNK8QVariant4saveER11QDataStream
0001:000c4434  __ZNK8QVariant12toSizePolicyEv
0001:000c2bd8  __ZlsR11QDataStreamRK8QVariant
0001:000c2bf4  __ZrsR11QDataStreamRN8QVariant4TypeE
0001:000c2c1c  __ZlsR11QDataStreamN8QVariant4TypeE
0001:000c2c44  __ZNK8QVariant8toStringEv
0001:000c2ea8  __ZNK8QVariant9toCStringEv
0001:000c311c  __ZNK8QVariant6toFontEv
0001:000c3348  __ZNK8QVariant7toColorEv
0001:000c3b18  __ZNK8QVariant5toIntEPb
0001:000c3c44  __ZNK8QVariant6toUIntEPb
0001:000c4198  __ZNK8QVariant8toDoubleEPb
0001:000c3584  __ZNK8QVariant6toDateEv
0001:000c3674  __ZNK8QVariant6toTimeEv
0001:000c376c  __ZNK8QVariant10toDateTimeEv
0001:000c3d5c  __ZNK8QVariant10toLongLongEPb
0001:000c3ebc  __ZNK8QVariant11toULongLongEPb
0001:000c55ec  __ZNK8QVariant7canCastENS_4TypeE
0001:000c2f64  __ZNK8QVariant12toStringListEv
0001:000c30d8  __ZNK8QVariant5toMapEv
0001:000c31e8  __ZNK8QVariant8toPixmapEv
0001:000c3220  __ZNK8QVariant7toImageEv
0001:000c3258  __ZNK8QVariant7toBrushEv
0001:000c3290  __ZNK8QVariant7toPointEv
0001:000c32c4  __ZNK8QVariant6toRectEv
0001:000c3314  __ZNK8QVariant6toSizeEv
0001:000c33f4  __ZNK8QVariant9toPaletteEv
0001:000c342c  __ZNK8QVariant12toColorGroupEv
0001:000c3464  __ZNK8QVariant9toIconSetEv
0001:000c349c  __ZNK8QVariant12toPointArrayEv
0001:000c34dc  __ZNK8QVariant8toBitmapEv
0001:000c3514  __ZNK8QVariant8toRegionEv
0001:000c354c  __ZNK8QVariant8toCursorEv
0001:000c3894  __ZNK8QVariant11toByteArrayEv
0001:000c3984  __ZNK8QVariant10toBitArrayEv
0001:000c39c4  __ZNK8QVariant13toKeySequenceEv
0001:000c3ae0  __ZNK8QVariant5toPenEv
0001:000c4008  __ZNK8QVariant6toBoolEv
0001:000c42d8  __ZNK8QVariant6toListEv
0001:000c4450  __ZN8QVariant8asStringEv
0001:000c6e28  __ZNK8QVariant6isNullEv
0001:000c44e8  __ZN8QVariant9asCStringEv
0001:000c456c  __ZN8QVariant12asStringListEv
0001:000c4608  __ZN8QVariant6asFontEv
0001:000c468c  __ZN8QVariant8asPixmapEv
0001:000c4710  __ZN8QVariant7asImageEv
0001:000c4794  __ZN8QVariant7asBrushEv
0001:000c4818  __ZN8QVariant7asPointEv
0001:000c4894  __ZN8QVariant6asRectEv
0001:000c490c  __ZN8QVariant6asSizeEv
0001:000c4988  __ZN8QVariant7asColorEv
0001:000c4a00  __ZN8QVariant9asPaletteEv
0001:000c4a84  __ZN8QVariant12asColorGroupEv
0001:000c4b08  __ZN8QVariant9asIconSetEv
0001:000c4b8c  __ZN8QVariant12asPointArrayEv
0001:000c4c18  __ZN8QVariant8asBitmapEv
0001:000c4ca4  __ZN8QVariant8asRegionEv
0001:000c4d28  __ZN8QVariant8asCursorEv
0001:000c4dac  __ZN8QVariant12asSizePolicyEv
0001:000c4e20  __ZN8QVariant6asDateEv
0001:000c4e98  __ZN8QVariant6asTimeEv
0001:000c4f10  __ZN8QVariant10asDateTimeEv
0001:000c4f8c  __ZN8QVariant11asByteArrayEv
0001:000c5018  __ZN8QVariant10asBitArrayEv
0001:000c50a4  __ZN8QVariant13asKeySequenceEv
0001:000c5128  __ZN8QVariant5asPenEv
0001:000c51ac  __ZN8QVariant5asIntEv
0001:000c5214  __ZN8QVariant6asUIntEv
0001:000c527c  __ZN8QVariant10asLongLongEv
0001:000c52fc  __ZN8QVariant11asULongLongEv
0001:000c537c  __ZN8QVariant6asBoolEv
0001:000c53e4  __ZN8QVariant8asDoubleEv
0001:000c5468  __ZN8QVariant6asListEv
0001:000c5504  __ZN8QVariant5asMapEv
0001:000c5974  __ZN8QVariant4castENS_4TypeE
0001:000c5c20  __ZNK8QVarianteqERKS_
0001:000c6d3c  __ZNK8QVariantneERKS_
0001:000c6d58  __ZN8QVariant9rawAccessEPvNS_4TypeEb
0001:000c7db0* __ZTV11QPointArray$w$vkIgQU3F8U6e1ghn4
0001:000c7e30* __ZTV9QMemArrayIcE$w$vkIgQU3F8U6e1ghn4
0001:000c7004  __ZN11QMapPrivateI7QString8QVariantE5clearEv$w$vkIgQU3F8U6e1ghn4
0001:000c7040  __ZN17QValueListPrivateI8QVariantED1Ev$w$vkIgQU3F8U6e1ghn4
0001:000c6f74* __ZN17QValueListPrivateI7QStringED1Ev$w$vkIgQU3F8U6e1ghn4
0001:000c72b4  __ZN11QMapPrivateI7QString8QVariantEC1Ev$w$vkIgQU3F8U6e1ghn4
0001:000c70a4  __ZrsI7QString8QVariantER11QDataStreamS3_R4QMapIT_T0_E$w$vkIgQU3F8U6e1ghn4
0001:000c7318  __ZN17QValueListPrivateI8QVariantEC1Ev$w$vkIgQU3F8U6e1ghn4
0001:000c71cc  __ZrsI8QVariantER11QDataStreamS2_R10QValueListIT_E$w$vkIgQU3F8U6e1ghn4
0001:000c7358* __ZN17QValueListPrivateI7QStringEC1Ev$w$vkIgQU3F8U6e1ghn4
0001:000c740c  __ZlsI7QString8QVariantER11QDataStreamS3_RK4QMapIT_T0_E$w$vkIgQU3F8U6e1ghn4
0001:000c73a4  __ZlsI8QVariantER11QDataStreamS2_RK10QValueListIT_E$w$vkIgQU3F8U6e1ghn4
0001:000c7480* __ZN17QValueListPrivateI7QStringE6insertE18QValueListIteratorIS0_ERKS0_$w$vkIgQU3F8U6e1ghn4
0001:000c74dc* __ZN10QValueListI7QStringE14detachInternalEv$w$vkIgQU3F8U6e1ghn4
0001:000c750c  __ZN17QValueListPrivateI8QVariantE6insertE18QValueListIteratorIS0_ERKS0_$w$vkIgQU3F8U6e1ghn4
0001:000c7568  __ZN10QValueListI8QVariantE14detachInternalEv$w$vkIgQU3F8U6e1ghn4
0001:000c7dd0* __ZTV9QMemArrayI6QPointE$w$vkIgQU3F8U6e1ghn4
0001:000c7d80* __ZTV7QBitmap$w$vkIgQU3F8U6e1ghn4
0001:000c76a8  __ZN17QMapConstIteratorI7QString8QVariantE3incEv$w$vkIgQU3F8U6e1ghn4
0001:000c7598  __ZNK10QValueListI8QVariantEeqERKS1_$w$vkIgQU3F8U6e1ghn4
0001:000c7620  __ZNK10QValueListI7QStringEeqERKS1_$w$vkIgQU3F8U6e1ghn4
0001:000c76f4  __ZN11QMapPrivateI7QString8QVariantE5clearEP8QMapNodeIS0_S1_E$w$vkIgQU3F8U6e1ghn4
0001:000c7764  __ZN4QMapI7QString8QVariantE5clearEv$w$vkIgQU3F8U6e1ghn4
0001:000c77a8  __ZN4QMapI7QString8QVariantE6insertERKS0_RKS1_b$w$vkIgQU3F8U6e1ghn4
0001:000c7814  __ZN10QValueListI8QVariantE5clearEv$w$vkIgQU3F8U6e1ghn4
0001:000c7858* __ZN17QValueListPrivateI7QStringEC1ERKS1_$w$vkIgQU3F8U6e1ghn4
0001:000c78ec  __ZN17QValueListPrivateI8QVariantEC1ERKS1_$w$vkIgQU3F8U6e1ghn4
0001:000c7978  __ZN11QMapPrivateI7QString8QVariantE12insertSingleERKS0_$w$vkIgQU3F8U6e1ghn4
0001:000c7a2c  __ZN4QMapI7QString8QVariantE14detachInternalEv$w$vkIgQU3F8U6e1ghn4
0001:000c7a5c  __ZN17QValueListPrivateI8QVariantE5clearEv$w$vkIgQU3F8U6e1ghn4
0001:000c7aa8  __ZN11QMapPrivateI7QString8QVariantE6insertEP12QMapNodeBaseS4_RKS0_$w$vkIgQU3F8U6e1ghn4
0001:000c7b98  __ZN12QMapIteratorI7QString8QVariantE3decEv$w$vkIgQU3F8U6e1ghn4
0001:000c7bf0  __ZN11QMapPrivateI7QString8QVariantEC1EPKS2_$w$vkIgQU3F8U6e1ghn4
0001:000c7ca8  __ZN11QMapPrivateI7QString8QVariantE4copyEP8QMapNodeIS0_S1_E$w$vkIgQU3F8U6e1ghn4
0001:000c7ee0* __ZN7QBitmapD1Ev$w$vkIgQU3F8U6e1ghn4
0001:000c7eb8* __ZN7QBitmapD0Ev$w$vkIgQU3F8U6e1ghn4
0001:000c7e74* __ZN11QPointArrayD1Ev$w$vkIgQU3F8U6e1ghn4
0001:000c7e90* __ZN11QPointArrayD0Ev$w$vkIgQU3F8U6e1ghn4
0001:000c812c* __ZN9QMemArrayI6QPointE6detachEv$w$vkIgQU3F8U6e1ghn4
0001:000c7efc* __ZN9QMemArrayI6QPointED1Ev$w$vkIgQU3F8U6e1ghn4
0001:000c7f18* __ZN9QMemArrayI6QPointED0Ev$w$vkIgQU3F8U6e1ghn4
0001:000c7e00* __ZTV6QGList$w$vkIgQU3F8U6e1ghn4
0001:000c7e68* __ZNK6QGList5countEv$w$vkIgQU3F8U6e1ghn4
0001:000c7e4c* __ZN9QMemArrayIcED1Ev$w$vkIgQU3F8U6e1ghn4
0001:000c7f40* __ZN9QMemArrayIcED0Ev$w$vkIgQU3F8U6e1ghn4
0001:000c8144* __ZN9QMemArrayIcE6detachEv$w$vkIgQU3F8U6e1ghn4
Module: C:\200\trunk\src\tmp\obj\release_mt_shared\qrichtext.obj(qrichtext.obj)
0001:000c8160  __ZN19QTextCommandHistory10addCommandEP12QTextCommand
0001:000c825c  __ZN19QTextCommandHistory4undoEP11QTextCursor
0001:000c829c  __ZN19QTextCommandHistory4redoEP11QTextCursor
0001:000c82f8  __ZN19QTextCommandHistory15isUndoAvailableEv
0001:000c8308  __ZN19QTextCommandHistory15isRedoAvailableEv
0001:000c833c  __ZN18QTextDeleteCommandC2EP13QTextDocumentiiRK9QMemArrayI15QTextStringCharERKS2_IcE
0001:000ca0c0  __ZN11QTextCursorC1EP13QTextDocument
0001:000c8470  __ZN18QTextDeleteCommandC1EP13QTextDocumentiiRK9QMemArrayI15QTextStringCharERKS2_IcE
0001:000c85a4  __ZN18QTextDeleteCommandC2EP14QTextParagraphiRK9QMemArrayI15QTextStringCharE
0001:000c86d8  __ZN18QTextDeleteCommandC1EP14QTextParagraphiRK9QMemArrayI15QTextStringCharE
0001:000c880c  __ZN18QTextDeleteCommandD2Ev
0001:000c8984  __ZN18QTextDeleteCommandD1Ev
0001:000c8afc  __ZN18QTextDeleteCommandD0Ev
0001:000c8cc8  __ZN18QTextDeleteCommand7executeEP11QTextCursor
0001:000ca45c  __ZN11QTextCursoraSERKS_
0001:000cc050  __ZN11QTextCursor14gotoNextLetterEv
0001:000d7c40  __ZN13QTextDocument15setSelectionEndEiRK11QTextCursor
0001:000c8e24  __ZN18QTextDeleteCommand9unexecuteEP11QTextCursor
0001:000ca9ac  __ZN11QTextCursor6insertERK7QStringbP9QMemArrayI15QTextStringCharE
0001:000c901c  __ZN18QTextFormatCommandC2EP13QTextDocumentiiiiRK9QMemArrayI15QTextStringCharEP11QTextFormati
0001:000c9168  __ZN18QTextFormatCommandC1EP13QTextDocumentiiiiRK9QMemArrayI15QTextStringCharEP11QTextFormati
0001:000c92b4  __ZN18QTextFormatCommandD2Ev
0001:000c9444  __ZN18QTextFormatCommandD1Ev
0001:000c95d4  __ZN18QTextFormatCommandD0Ev
0001:000c976c  __ZN18QTextFormatCommand7executeEP11QTextCursor
0001:000cb068  __ZN11QTextCursor8gotoLeftEv
0001:000c99e4  __ZN18QTextFormatCommand9unexecuteEP11QTextCursor
0001:000c9d4c  __ZN17QTextStyleCommandC2EP13QTextDocumentiiRK9QMemArrayIcE
0001:000c9e74  __ZN17QTextStyleCommand20readStyleInformationEP13QTextDocumentii
0001:000c9de0  __ZN17QTextStyleCommandC1EP13QTextDocumentiiRK9QMemArrayIcE
0001:000c9f34  __ZN17QTextStyleCommand21writeStyleInformationEP13QTextDocumentiRK9QMemArrayIcE
0001:000c9fd4  __ZN17QTextStyleCommand7executeEP11QTextCursor
0001:000c9ff4  __ZN17QTextStyleCommand9unexecuteEP11QTextCursor
0001:000ca014  __ZN11QTextCursorC2EP13QTextDocument
0001:000ca16c  __ZN11QTextCursorC2ERKS_
0001:000ca2e4  __ZN11QTextCursorC1ERKS_
0001:000ca56c  __ZNK11QTextCursoreqERKS_
0001:000ca598  __ZNK11QTextCursor12totalOffsetXEv
0001:000ca5dc  __ZNK11QTextCursor12totalOffsetYEv
0001:000ca668  __ZN11QTextCursor14gotoIntoNestedERK6QPoint
0001:000cb2b0  __ZN11QTextCursor4pushEv
0001:000ca80c  __ZN11QTextCursor16invalidateNestedEv
0001:000cdaa0  __ZN11QTextCursor17fixCursorPositionEv
0001:000cd0f8  __ZN11QTextCursor28splitAndInsertEmptyParagraphEbb
0001:000cb0bc  __ZN11QTextCursor18gotoPreviousLetterEv
0001:000cbcdc  __ZN11QTextCursor14processNestingENS_9OperationE
0001:000cb424  __ZN11QTextCursor3popEv
0001:000cb678  __ZN11QTextCursor12restoreStateEv
0001:000cb6a8  __ZN11QTextCursor5placeERK6QPointP14QTextParagraphb
0001:000cbffc  __ZN11QTextCursor9gotoRightEv
0001:000cc2f8  __ZN11QTextCursor6gotoUpEv
0001:000cc5d4  __ZN11QTextCursor8gotoDownEv
0001:000cc974  __ZN11QTextCursor11gotoLineEndEv
0001:000cc9f8  __ZN11QTextCursor13gotoLineStartEv
0001:000cca30  __ZN11QTextCursor8gotoHomeEv
0001:000ccab0  __ZN11QTextCursor7gotoEndEv
0001:000ccbac  __ZN11QTextCursor10gotoPageUpEi
0001:000ccc04  __ZN11QTextCursor12gotoPageDownEi
0001:000ccc58  __ZN11QTextCursor13gotoWordRightEv
0001:000cce04  __ZN11QTextCursor16gotoPreviousWordEb
0001:000ccf18  __ZN11QTextCursor12gotoNextWordEb
0001:000cccb8  __ZN11QTextCursor12gotoWordLeftEv
0001:000cd0b8  __ZN11QTextCursor12atParagStartEv
0001:000cd0cc  __ZN11QTextCursor10atParagEndEv
0001:000cda50  __ZN11QTextCursor6indentEv
0001:000cd7b8  __ZN11QTextCursor6removeEv
0001:000cd940  __ZN11QTextCursor18removePreviousCharEv
0001:000cdd44  __ZN13QTextDocumentC2EPS_
0001:000ce374  __ZN13QTextDocument4initEv
0001:000cded8  __ZN13QTextDocumentC1EPS_
0001:000ce06c  __ZN13QTextDocumentC2EPS_P21QTextFormatCollection
0001:000ce1f0  __ZN13QTextDocumentC1EPS_P21QTextFormatCollection
0001:000ce634  __ZN13QTextDocumentD2Ev
0001:000cf4e0  __ZN13QTextDocument5clearEb
0001:000ceb14  __ZN13QTextDocumentD1Ev
0001:000ceff4  __ZN13QTextDocumentD0Ev
0001:000cf59c  __ZNK13QTextDocument9widthUsedEv
0001:000cf5b0  __ZNK13QTextDocument6heightEv
0001:000cf620  __ZN13QTextDocument15createParagraphEPS_P14QTextParagraphS2_b
0001:000cf654  __ZN13QTextDocument15setMinimumWidthEiiP14QTextParagraph
0001:000cf72c  __ZN13QTextDocument12setPlainTextERK7QString
0001:000cf97c  __ZN13QTextDocument11setRichTextERK7QStringS2_
0001:000cfc0c  __ZN13QTextDocument19setRichTextInternalERK7QStringP11QTextCursor
0001:000d4eb4  __ZN13QTextDocument26setRichTextMarginsInternalER8QPtrListI10QPtrVectorI15QStyleSheetItemEEP14QTextParagraph
0001:000d57d4  __ZN13QTextDocument7setTextERK7QStringS2_
0001:000d5848  __ZNK13QTextDocument9plainTextEv
0001:000d6a00  __ZNK13QTextDocument8richTextEv
0001:000d75ec  __ZNK13QTextDocument4textEv
0001:000d7630  __ZNK13QTextDocument4textEi
0001:000d76a4  __ZN13QTextDocument10invalidateEv
0001:000d76d0  __ZN13QTextDocument14selectionStartEiRiS0_
0001:000d7798  __ZN13QTextDocument20selectionStartCursorEi
0001:000d7840  __ZN13QTextDocument18selectionEndCursorEi
0001:000d78e8  __ZN13QTextDocument12selectionEndEiRiS0_
0001:000d79b0  __ZN13QTextDocument12addSelectionEi
0001:000da64c  __ZN13QTextDocument18removeSelectedTextEiP11QTextCursor
0001:000e0014  __ZN14QTextParagraph6removeEii
0001:000e07d8  __ZN14QTextParagraph6formatEib
0001:000e5740  __ZN14QTextParagraph10setChangedEbb
0001:000e403c  __ZN14QTextParagraph20readStyleInformationER11QDataStream
0001:000da0f8  __ZN13QTextDocument9setFormatEiP11QTextFormati
0001:000d8bb0  __ZN13QTextDocument15removeSelectionEi
0001:000e1290  __ZN14QTextParagraph9setFormatEiiP11QTextFormatbi
0001:000e4184  __ZNK14QTextParagraph21writeStyleInformationER11QDataStream
0001:000e0d98  __ZNK14QTextParagraph16lineHeightOfCharEiPiS0_
0001:000dfe84  __ZN14QTextParagraph10invalidateEi
0001:000dff1c  __ZN14QTextParagraph6insertEiPK5QChari
0001:000de9f4  __ZN11QTextString9setFormatEiP11QTextFormatb
0001:000e0710  __ZN14QTextParagraph4moveERi
0001:000deafc  __ZNK11QTextString9checkBidiEv
0001:000e0f3c  __ZNK14QTextParagraph5linesEv
0001:000e0f98  __ZNK14QTextParagraph15lineStartOfLineEiPi
0001:000df2fc  __ZNK11QTextString5widthEi
0001:000e0e68  __ZNK14QTextParagraph15lineStartOfCharEiPiS0_
0001:000e55a8  __ZN14QTextParagraph13copyParagDataEPS_
0001:000e1824  __ZN14QTextParagraph6indentEPiS0_
0001:000dfef4  __ZN14QTextParagraph6insertEiRK7QString
0001:000df08c  __ZN15QTextStringChar13setCustomItemEP15QTextCustomItem
0001:000df12c  __ZN15QTextStringChar14loseCustomItemEv
0001:000dff9c  __ZN14QTextParagraph8truncateEi
0001:000df208  __ZNK15QTextStringChar10anchorHrefEv
0001:000df1d4  __ZNK15QTextStringChar10anchorNameEv
0001:000df23c  __ZN15QTextStringChar9setAnchorERK7QStringS2_
0001:000e00f8  __ZN14QTextParagraph4joinEPS_
0001:000e9278  __ZN21QTextFormatCollectionC1Ev
0001:000ded5c  __ZN13QTextDocument13setStyleSheetEP11QStyleSheet
0001:000f12f0  __ZN9QTextFlowC1Ev
0001:000ddab0  __ZNK11QTextFormat5widthERK5QChar
0001:000f1444  __ZN9QTextFlow5clearEv
0001:000dfc30  __ZN14QTextParagraphD1Ev
0001:000df79c  __ZN14QTextParagraphC1EP13QTextDocumentPS_S2_b
0001:000ef5e8  __ZN13QTextDocument9hasPrefixEPK5QChariiS0_
0001:000f0bb0  __ZN13QTextDocument9parseCharEPK5QChariRiN15QStyleSheetItem14WhiteSpaceModeE
0001:000f0cc8  __ZN13QTextDocument12parseOpenTagEPK5QChariRiR4QMapI7QStringS5_ERb
0001:000ebdb8  __ZNK11QTextFormat14makeTextFormatEPK15QStyleSheetItemRK4QMapI7QStringS4_Ed
0001:000dcdf8  __ZN13QTextDocument18registerCustomItemEP15QTextCustomItemP14QTextParagraph
0001:000f04c8  __ZN13QTextDocument8eatSpaceEPK5QChariRib
0001:000f0540  __ZN13QTextDocument3eatEPK5QChariRiS0_
0001:000ef76c  __ZN13QTextDocument10parseTableERK4QMapI7QStringS1_ERK11QTextFormatPK5QChariRiP14QTextParagraph
0001:000ea688  __ZN11QTextFormat8setColorERK6QColor
0001:000f1244  __ZN13QTextDocument13parseCloseTagEPK5QChariRi
0001:000e4fb0  __ZNK14QTextParagraph9topMarginEv
0001:000e511c  __ZNK14QTextParagraph12bottomMarginEv
0001:000e5288  __ZNK14QTextParagraph10leftMarginEv
0001:000e5418  __ZNK14QTextParagraph11rightMarginEv
0001:000e5380  __ZNK14QTextParagraph15firstLineMarginEv
0001:000e426c  __ZN14QTextParagraph11setListItemEb
0001:000e4500  __ZNK14QTextParagraph8richTextEv
0001:000e5720  __ZNK14QTextParagraph9directionEv
0001:000d8878  __ZN13QTextDocument9selectAllEi
0001:000d8e0c  __ZNK13QTextDocument12selectedTextEib
0001:000dac74  __ZN13QTextDocument15indentSelectionEi
0001:000daf14  __ZN13QTextDocument10addCommandEP12QTextCommand
0001:000daf28  __ZN13QTextDocument4undoEP11QTextCursor
0001:000daf3c  __ZN13QTextDocument4redoEP11QTextCursor
0001:000daf50  __ZN13QTextDocument4findER11QTextCursorRK7QStringbbb
0001:000db344  __ZN13QTextDocument13setTextFormatEN2Qt10TextFormatE
0001:000db390  __ZNK13QTextDocument10textFormatEv
0001:000db39c  __ZNK13QTextDocument11inSelectionEiRK6QPoint
0001:000dbb34  __ZN13QTextDocument8doLayoutEP8QPainteri
0001:000e43c0  __ZN14QTextParagraph15adjustToPainterEP8QPainter
0001:000dbbfc  __ZN13QTextDocument12bufferPixmapERK5QSize
0001:000dbd14  __ZN13QTextDocument4drawEP8QPainterRK5QRectRK11QColorGroupPK6QBrush
0001:000e1898  __ZN14QTextParagraph5paintER8QPainterRK11QColorGroupP11QTextCursorbiiii
0001:000dcc5c  __ZN13QTextDocument16setDefaultFormatERK5QFontRK6QColor
0001:000dc084  __ZN13QTextDocument13drawParagraphEP8QPainterP14QTextParagraphiiiiRP7QPixmapRK11QColorGroupbP11QTextCursorb
0001:000dc618  __ZN13QTextDocument4drawEP8QPainteriiiiRK11QColorGroupbbP11QTextCursorb
0001:000e9c38  __ZN21QTextFormatCollection19updateDefaultFormatERK5QFontRK6QColorP11QStyleSheet
0001:000dce58  __ZN13QTextDocument20unregisterCustomItemEP15QTextCustomItemP14QTextParagraph
0001:000dce98  __ZNK13QTextDocument17hasFocusParagraphEv
0001:000dceb0  __ZNK13QTextDocument9focusHrefEv
0001:000dced4  __ZNK13QTextDocument9focusNameEv
0001:000dcef8  __ZN13QTextDocument18focusNextPrevChildEb
0001:000dda58  __ZNK13QTextDocument6lengthEv
0001:000ddce4  __ZNK11QTextFormat5widthERK7QStringi
0001:000dde98  __ZN11QTextStringC2Ev
0001:000ddec4  __ZN11QTextStringC1Ev
0001:000ddef0  __ZN11QTextStringC2ERKS_
0001:000ddfe4  __ZN11QTextStringC1ERKS_
0001:000de0d8  __ZN11QTextString6insertEiRK7QStringP11QTextFormat
0001:000de104  __ZN11QTextString6insertEiPK5QChariP11QTextFormat
0001:000de1d0  __ZN11QTextStringD2Ev
0001:000de7e8  __ZN11QTextString5clearEv
0001:000de200  __ZN11QTextStringD1Ev
0001:000de230  __ZN11QTextStringD0Ev
0001:000de268  __ZN11QTextString6insertEiP15QTextStringCharb
0001:000df018  __ZN15QTextStringChar9setFormatEP11QTextFormat
0001:000de394  __ZN11QTextString8truncateEi
0001:000de5a0  __ZN11QTextString6removeEii
0001:000defc0  __ZN13QTextDocument17setUnderlineLinksEb
0001:000df50c  __ZN14QTextParagraphC2EP13QTextDocumentPS_S2_b
0001:000e4490  __ZNK14QTextParagraph16formatCollectionEv
0001:000dfedc  __ZN14QTextParagraph20invalidateStyleCacheEv
0001:000dfa2c  __ZN14QTextParagraphD2Ev
0001:000dfe5c  __ZN14QTextParagraph7setPrevEPS_
0001:000dfe34  __ZN14QTextParagraph7setNextEPS_
0001:000e1058  __ZNK14QTextParagraph7leftGapEv
0001:000e2a6c  __ZN14QTextParagraph10drawStringER8QPainterRK7QStringiiiiiiibiP15QTextStringCharRK11QColorGroupb
0001:000e3ac4  __ZN14QTextParagraph9drawLabelEP8QPainteriiiiiRK11QColorGroup
0001:000e28d4  __ZN14QTextParagraph20setColorForSelectionER6QColorR8QPainterRK11QColorGroupi
0001:000e42c8  __ZN14QTextParagraph12setListDepthEi
0001:000e431c  __ZNK14QTextParagraph8tabArrayEv
0001:000e4348  __ZN14QTextParagraph7nextTabEii
0001:000e9570  __ZN21QTextFormatCollection14setPaintDeviceEP12QPaintDevice
0001:000ea7bc  __ZNK11QTextFormat20makeFormatChangeTagsEPS_S0_RK7QStringS3_
0001:000eb86c  __ZNK11QTextFormat17makeFormatEndTagsEPS_RK7QString
0001:000e4f20  __ZN14QTextParagraph10addCommandEP12QTextCommand
0001:000e4f50  __ZN14QTextParagraph4undoEP11QTextCursor
0001:000e4f80  __ZN14QTextParagraph4redoEP11QTextCursor
0001:000e5510  __ZNK14QTextParagraph11lineSpacingEv
0001:000e5698  __ZN14QTextParagraph4showEv
0001:000e56b8  __ZN14QTextParagraph4hideEv
0001:000e56d8  __ZN14QTextParagraph12setDirectionEN5QChar9DirectionE
0001:000e57c4  __ZN17QTextPreProcessorC2Ev
0001:000e57d4  __ZN17QTextPreProcessorC1Ev
0001:000e57e4  __ZN14QTextFormatterC2Ev
0001:000e5810  __ZN14QTextFormatterC1Ev
0001:000e583c  __ZN14QTextFormatter10formatLineEP14QTextParagraphP11QTextStringP14QTextLineStartP15QTextStringCharS7_ii
0001:000e5c00  __ZN14QTextFormatter15bidiReorderLineEP14QTextParagraphP11QTextStringP14QTextLineStartP15QTextStringCharS7_ii
0001:000e62c4  __ZN14QTextFormatter15insertLineStartEP14QTextParagraphiP14QTextLineStart
0001:000e63cc  __ZN14QTextFormatter16formatVerticallyEP13QTextDocumentP14QTextParagraph
0001:000e6660  __ZN26QTextFormatterBreakInWordsC2Ev
0001:000e6680  __ZN26QTextFormatterBreakInWordsC1Ev
0001:000e66a0  __ZN26QTextFormatterBreakInWords6formatEP13QTextDocumentP14QTextParagraphiRK4QMapIiP14QTextLineStartE
0001:000e7228  __ZN24QTextFormatterBreakWordsC2Ev
0001:000e7248  __ZN24QTextFormatterBreakWordsC1Ev
0001:000e7268  __ZN24QTextFormatterBreakWords6formatEP13QTextDocumentP14QTextParagraphiRK4QMapIiP14QTextLineStartE
0001:000e913c  __ZN11QTextIndentC2Ev
0001:000e914c  __ZN11QTextIndentC1Ev
0001:000e915c  __ZN21QTextFormatCollectionC2Ev
0001:000e9394  __ZN21QTextFormatCollectionD2Ev
0001:000e9430  __ZN21QTextFormatCollectionD1Ev
0001:000e94cc  __ZN21QTextFormatCollectionD0Ev
0001:000e9580  __ZN21QTextFormatCollection6formatEP11QTextFormat
0001:000e965c  __ZN21QTextFormatCollection6formatEP11QTextFormatS1_i
0001:000e99cc  __ZN21QTextFormatCollection6formatERK5QFontRK6QColor
0001:000e9bc4  __ZN21QTextFormatCollection6removeEP11QTextFormat
0001:000ea328  __ZN21QTextFormatCollection10updateKeysEv
0001:000ea3e8  __ZN11QTextFormat7setBoldEb
0001:000ea44c  __ZN11QTextFormat13setMisspelledEb
0001:000ea484  __ZN11QTextFormat9setVAlignENS_17VerticalAlignmentE
0001:000ea4a0  __ZN11QTextFormat9setItalicEb
0001:000ea4e8  __ZN11QTextFormat12setUnderlineEb
0001:000ea530  __ZN11QTextFormat12setStrikeOutEb
0001:000ea578  __ZN11QTextFormat9setFamilyERK7QString
0001:000ea5ec  __ZN11QTextFormat12setPointSizeEi
0001:000ea634  __ZN11QTextFormat7setFontERK5QFont
0001:000ed014  __ZN10QTextImageC2EP13QTextDocumentRK4QMapI7QStringS3_ERKS3_R18QMimeSourceFactory
0001:000ed8dc  __ZN10QTextImageC1EP13QTextDocumentRK4QMapI7QStringS3_ERKS3_R18QMimeSourceFactory
0001:000ee1a4  __ZN10QTextImageD2Ev
0001:000ee39c  __ZN10QTextImageD1Ev
0001:000ee594  __ZN10QTextImageD0Ev
0001:000ee79c  __ZNK10QTextImage8richTextEv
0001:000eea9c  __ZN10QTextImage15adjustToPainterEP8QPainter
0001:000eecc0  __ZN10QTextImage4drawEP8QPainteriiiiiiRK11QColorGroupb
0001:000eeed4  __ZN19QTextHorizontalLine15adjustToPainterEP8QPainter
0001:000eef74  __ZN19QTextHorizontalLineC2EP13QTextDocumentRK4QMapI7QStringS3_ERKS3_R18QMimeSourceFactory
0001:000ef0f0  __ZN19QTextHorizontalLineC1EP13QTextDocumentRK4QMapI7QStringS3_ERKS3_R18QMimeSourceFactory
0001:000ef26c  __ZN19QTextHorizontalLineD2Ev
0001:000ef288  __ZN19QTextHorizontalLineD1Ev
0001:000ef2a4  __ZN19QTextHorizontalLineD0Ev
0001:000ef2d0  __ZNK19QTextHorizontalLine8richTextEv
0001:000ef2f0  __ZN19QTextHorizontalLine4drawEP8QPainteriiiiiiRK11QColorGroupb
0001:000ef638  __ZN13QTextDocument9hasPrefixEPK5QChariiRK7QString
0001:000f1ff4  __ZN10QTextTableC1EP13QTextDocumentRK4QMapI7QStringS3_E
0001:000f5894  __ZN14QTextTableCellC1EP10QTextTableiiRK4QMapI7QStringS3_EPK15QStyleSheetItemRK11QTextFormatRKS3_R18QMimeSourceFactoryP11QStyleSheetSE_
0001:000f06b4  __ZN13QTextDocument20parseHTMLSpecialCharEPK5QChariRi
0001:000f08cc  __ZN13QTextDocument9parseWordEPK5QChariRib
0001:000f12a8  __ZN9QTextFlowC2Ev
0001:000f1338  __ZN9QTextFlowD2Ev
0001:000f1390  __ZN9QTextFlowD1Ev
0001:000f13e8  __ZN9QTextFlowD0Ev
0001:000f1480  __ZN9QTextFlow8setWidthEi
0001:000f1490  __ZN9QTextFlow13adjustLMarginEiiii
0001:000f14f4  __ZN9QTextFlow13adjustRMarginEiiii
0001:000f1560  __ZN9QTextFlow10adjustFlowEiii
0001:000f15a0  __ZN9QTextFlow22unregisterFloatingItemEP15QTextCustomItem
0001:000f15d0  __ZN9QTextFlow20registerFloatingItemEP15QTextCustomItem
0001:000f1634  __ZNK9QTextFlow12boundingRectEv
0001:000f1784  __ZN9QTextFlow17drawFloatingItemsEP8QPainteriiiiRK11QColorGroupb
0001:000f185c  __ZN15QTextCustomItem9pageBreakEiP9QTextFlow
0001:000f1880  __ZN10QTextTableC2EP13QTextDocumentRK4QMapI7QStringS3_E
0001:000f2768  __ZN10QTextTableD2Ev
0001:000f2878  __ZN10QTextTableD1Ev
0001:000f2988  __ZN10QTextTableD0Ev
0001:000f2ac4  __ZNK10QTextTable8richTextEv
0001:000f2fc4  __ZN10QTextTable15adjustToPainterEP8QPainter
0001:000f6758  __ZN14QTextTableCell15adjustToPainterEP8QPainter
0001:000f32b0  __ZN10QTextTable11adjustCellsEii
0001:000f335c  __ZN10QTextTable9pageBreakEiP9QTextFlow
0001:000f34a0  __ZN10QTextTable4drawEP8QPainteriiiiiiRK11QColorGroupb
0001:000f67fc  __ZN14QTextTableCell4drawEP8QPainteriiiiiiRK11QColorGroupb
0001:000f3ca8  __ZNK10QTextTable12minimumWidthEv
0001:000f3ce0  __ZN10QTextTable6resizeEi
0001:000f3e48  __ZN10QTextTable6formatEi
0001:000f3ec4  __ZN10QTextTable7addCellEP14QTextTableCell
0001:000f3f0c  __ZN10QTextTable5enterEP11QTextCursorRP13QTextDocumentRP14QTextParagraphRiS8_S8_b
0001:000f3fb0  __ZN10QTextTable7enterAtEP11QTextCursorRP13QTextDocumentRP14QTextParagraphRiS8_S8_RK6QPoint
0001:000f678c  __ZNK14QTextTableCell25horizontalAlignmentOffsetEv
0001:000f679c  __ZNK14QTextTableCell23verticalAlignmentOffsetEv
0001:000f4368  __ZN10QTextTable4nextEP11QTextCursorRP13QTextDocumentRP14QTextParagraphRiS8_S8_
0001:000f4638  __ZN10QTextTable4prevEP11QTextCursorRP13QTextDocumentRP14QTextParagraphRiS8_S8_
0001:000f4914  __ZN10QTextTable4downEP11QTextCursorRP13QTextDocumentRP14QTextParagraphRiS8_S8_
0001:000f4c0c  __ZN10QTextTable2upEP11QTextCursorRP13QTextDocumentRP14QTextParagraphRiS8_S8_
0001:000f4f1c  __ZN14QTextTableCellC2EP10QTextTableiiRK4QMapI7QStringS3_EPK15QStyleSheetItemRK11QTextFormatRKS3_R18QMimeSourceFactoryP11QStyleSheetSE_
0001:000f620c  __ZN14QTextTableCellD2Ev
0001:000f6304  __ZN14QTextTableCellD1Ev
0001:000f63fc  __ZN14QTextTableCellD0Ev
0001:000f64fc  __ZNK14QTextTableCell8sizeHintEv
0001:000f65e8  __ZNK14QTextTableCell11minimumSizeEv
0001:000f6628  __ZNK14QTextTableCell11maximumSizeEv
0001:000f6644  __ZNK14QTextTableCell9expandingEv
0001:000f6650  __ZNK14QTextTableCell7isEmptyEv
0001:000f6658  __ZN14QTextTableCell11setGeometryERK5QRect
0001:000f66c8  __ZNK14QTextTableCell8geometryEv
0001:000f66ec  __ZNK14QTextTableCell17hasHeightForWidthEv
0001:000f66f8  __ZNK14QTextTableCell14heightForWidthEi
0001:000faf60* __ZTV8QPtrListI12QTextCommandE$w$LGzODJ4F8U6cxooQ1
0001:000fae10  __ZTV18QTextDeleteCommand$w$LGzODJ4F8U6cxooQ1
0001:000fafa0  __ZTV9QMemArrayI15QTextStringCharE$w$LGzODJ4F8U6cxooQ1
0001:000faff0* __ZTV9QMemArrayIcE$w$LGzODJ4F8U6cxooQ1
0001:000fadf0  __ZTV18QTextFormatCommand$w$LGzODJ4F8U6cxooQ1
0001:000faf90  __ZTV11QTextCursor$w$LGzODJ4F8U6cxooQ1
0001:000f6b50* __ZN17QValueListPrivateIiED1Ev$w$LGzODJ4F8U6cxooQ1
0001:000f6b8c  __ZN17QValueListPrivateIP14QTextParagraphED1Ev$w$LGzODJ4F8U6cxooQ1
0001:000fadd0  __ZTV17QTextStyleCommand$w$LGzODJ4F8U6cxooQ1
0001:000f6bc8* __ZN17QValueListPrivateIiEC1Ev$w$LGzODJ4F8U6cxooQ1
0001:000f6bf8  __ZN17QValueListPrivateIP14QTextParagraphEC1Ev$w$LGzODJ4F8U6cxooQ1
0001:000f6c28  __ZN10QValueListIP14QTextParagraphE14detachInternalEv$w$LGzODJ4F8U6cxooQ1
0001:000f6c58* __ZN10QValueListIiE14detachInternalEv$w$LGzODJ4F8U6cxooQ1
0001:000f6c88* __ZN17QValueListPrivateIiE6insertE18QValueListIteratorIiERKi$w$LGzODJ4F8U6cxooQ1
0001:000f6cd8  __ZN17QValueListPrivateIP14QTextParagraphE6insertE18QValueListIteratorIS1_ERKS1_$w$LGzODJ4F8U6cxooQ1
0001:000f6d5c  __ZN17QValueListPrivateIiE6removeE18QValueListIteratorIiE$w$LGzODJ4F8U6cxooQ1
0001:000f6dbc  __ZN17QValueListPrivateIP14QTextParagraphE6removeE18QValueListIteratorIS1_E$w$LGzODJ4F8U6cxooQ1
0001:000f6e1c  __ZN11QMapPrivateIi6QColorEC1Ev$w$LGzODJ4F8U6cxooQ1
0001:000f6ea4  __ZN11QMapPrivateIi22QTextDocumentSelectionEC1Ev$w$LGzODJ4F8U6cxooQ1
0001:000f6f3c  __ZN11QMapPrivateIibEC1Ev$w$LGzODJ4F8U6cxooQ1
0001:000f6fb4* __ZN11QMapPrivateI7QStringS0_EC1Ev$w$LGzODJ4F8U6cxooQ1
0001:000faea0  __ZTV8QPtrListI13QTextDocumentE$w$LGzODJ4F8U6cxooQ1
0001:000f6a60  __ZN4QMapIi6QColorEixERKi$w$LGzODJ4F8U6cxooQ1
0001:000f6adc  __ZN4QMapIibEixERKi$w$LGzODJ4F8U6cxooQ1
0001:000faf50* __ZTV19QTextCommandHistory$w$LGzODJ4F8U6cxooQ1
0001:000f7024* __ZN11QMapPrivateI7QStringS0_E5clearEv$w$LGzODJ4F8U6cxooQ1
0001:000f6f00  __ZN11QMapPrivateIi22QTextDocumentSelectionE5clearEv$w$LGzODJ4F8U6cxooQ1
0001:000f6e68  __ZN11QMapPrivateIi6QColorE5clearEv$w$LGzODJ4F8U6cxooQ1
0001:000f6f78  __ZN11QMapPrivateIibE5clearEv$w$LGzODJ4F8U6cxooQ1
0001:000f7060  __ZN4QMapIi22QTextDocumentSelectionE5clearEv$w$LGzODJ4F8U6cxooQ1
0001:000f7154  __ZN17QValueListPrivateI16QTextDocumentTagEC1Ev$w$LGzODJ4F8U6cxooQ1
0001:000fada0  __ZTV8QPtrListI10QPtrVectorI15QStyleSheetItemEE$w$LGzODJ4F8U6cxooQ1
0001:000f71c8  __ZN17QValueListPrivateI16QTextDocumentTagED1Ev$w$LGzODJ4F8U6cxooQ1
0001:000fad60  __ZTV10QPtrVectorI15QStyleSheetItemE$w$LGzODJ4F8U6cxooQ1
0001:000f72bc  __ZN10QValueListI16QTextDocumentTagE14detachInternalEv$w$LGzODJ4F8U6cxooQ1
0001:000f72ec  __ZN17QValueListPrivateI16QTextDocumentTagE6removeE18QValueListIteratorIS0_E$w$LGzODJ4F8U6cxooQ1
0001:000f759c  __ZN17QValueListPrivateI16QTextDocumentTagE6insertE18QValueListIteratorIS0_ERKS0_$w$LGzODJ4F8U6cxooQ1
0001:000f70a4  __ZN4QMapI7QStringS0_EixERKS0_$w$LGzODJ4F8U6cxooQ1
0001:000f73b8* __ZNK11QMapPrivateI7QStringS0_E4findERKS0_$w$LGzODJ4F8U6cxooQ1
0001:000f743c* __ZN4QMapI7QStringS0_E6removeERKS0_$w$LGzODJ4F8U6cxooQ1
0001:000f7530* __ZN4QMapI7QStringS0_E6insertERKS0_S3_b$w$LGzODJ4F8U6cxooQ1
0001:000faee0  __ZTV8QPtrListI14QTextTableCellE$w$LGzODJ4F8U6cxooQ1
0001:000fad40* __ZTV9QMemArrayIiE$w$LGzODJ4F8U6cxooQ1
0001:000f76bc  __ZNK11QMapPrivateIi22QTextDocumentSelectionE4findERKi$w$LGzODJ4F8U6cxooQ1
0001:000f770c  __ZN4QMapIi22QTextDocumentSelectionE14detachInternalEv$w$LGzODJ4F8U6cxooQ1
0001:000f773c  __ZN4QMapIi22QTextDocumentSelectionE6insertERKiRKS0_b$w$LGzODJ4F8U6cxooQ1
0001:000f77c8  __ZN4QMapIi22QTextDocumentSelectionEixERKi$w$LGzODJ4F8U6cxooQ1
0001:000f79a4  __ZN4QMapIi22QTextDocumentSelectionE6removeERKi$w$LGzODJ4F8U6cxooQ1
0001:000f7bc0  __ZNK11QMapPrivateIiP14QTextLineStartE4findERKi$w$LGzODJ4F8U6cxooQ1
0001:000f7c10  __ZN4QMapIiP14QTextLineStartE14detachInternalEv$w$LGzODJ4F8U6cxooQ1
0001:000fad30  __ZTV11QTextString$w$LGzODJ4F8U6cxooQ1
0001:000f7c40  __ZN11QMapPrivateIiP14QTextLineStartEC1Ev$w$LGzODJ4F8U6cxooQ1
0001:000f7cb8  __ZN12QMapIteratorIiP14QTextLineStartE3incEv$w$LGzODJ4F8U6cxooQ1
0001:000f7c7c  __ZN11QMapPrivateIiP14QTextLineStartE5clearEv$w$LGzODJ4F8U6cxooQ1
0001:000f7d04  __ZN11QMapPrivateIi23QTextParagraphSelectionE5clearEv$w$LGzODJ4F8U6cxooQ1
0001:000f7d40  __ZN4QMapIiP14QTextLineStartE5clearEv$w$LGzODJ4F8U6cxooQ1
0001:000f7d84  __ZN17QMapConstIteratorIiP14QTextLineStartE3decEv$w$LGzODJ4F8U6cxooQ1
0001:000f7ddc  __ZN17QMapConstIteratorIiP14QTextLineStartE3incEv$w$LGzODJ4F8U6cxooQ1
0001:000f7e28  __ZNK11QMapPrivateIi23QTextParagraphSelectionE4findERKi$w$LGzODJ4F8U6cxooQ1
0001:000f7e78  __ZN4QMapIi23QTextParagraphSelectionE14detachInternalEv$w$LGzODJ4F8U6cxooQ1
0001:000f7ef8  __ZNK11QMapPrivateIibE4findERKi$w$LGzODJ4F8U6cxooQ1
0001:000f7ea8  __ZNK11QMapPrivateIi6QColorE4findERKi$w$LGzODJ4F8U6cxooQ1
0001:000f7f48  __ZN17QMapConstIteratorIi23QTextParagraphSelectionE3decEv$w$LGzODJ4F8U6cxooQ1
0001:000f7fa0* __ZN17QValueListPrivateI7QStringED1Ev$w$LGzODJ4F8U6cxooQ1
0001:000f8030* __ZN10QValueListI7QStringE14detachInternalEv$w$LGzODJ4F8U6cxooQ1
0001:000fae68  __ZTV17QTextPreProcessor$w$LGzODJ4F8U6cxooQ1
0001:000f8060  __ZN4QMapIiP14QTextLineStartE6insertERKiRKS1_b$w$LGzODJ4F8U6cxooQ1
0001:000fad00  __ZTV26QTextFormatterBreakInWords$w$LGzODJ4F8U6cxooQ1
0001:000facc0  __ZTV24QTextFormatterBreakWords$w$LGzODJ4F8U6cxooQ1
0001:000fae80  __ZTV11QTextIndent$w$LGzODJ4F8U6cxooQ1
0001:000fac80  __ZTV21QTextFormatCollection$w$LGzODJ4F8U6cxooQ1
0001:000fae40  __ZTV5QDictI11QTextFormatE$w$LGzODJ4F8U6cxooQ1
0001:000fac20  __ZTV10QTextImage$w$LGzODJ4F8U6cxooQ1
0001:000f69bc  __ZN4QMapI7QStringS0_EaSERKS1_$w$LGzODJ4F8U6cxooQ1
0001:000f81c4  __ZNK11QMapPrivateI7QString10QPixmapIntE4findERKS0_$w$LGzODJ4F8U6cxooQ1
0001:000f80c4  __ZN4QMapI7QString10QPixmapIntEixERKS0_$w$LGzODJ4F8U6cxooQ1
0001:000f8158  __ZN11QMapPrivateI7QString10QPixmapIntEC1Ev$w$LGzODJ4F8U6cxooQ1
0001:000f8248  __ZN4QMapI7QString10QPixmapIntE6removeERKS0_$w$LGzODJ4F8U6cxooQ1
0001:000f8320  __ZN11QMapPrivateI7QString10QPixmapIntE5clearEv$w$LGzODJ4F8U6cxooQ1
0001:000f835c  __ZN17QMapConstIteratorI7QStringS0_E3incEv$w$LGzODJ4F8U6cxooQ1
0001:000fabe0* __ZTV7QBitmap$w$LGzODJ4F8U6cxooQ1
0001:000fab80  __ZTV19QTextHorizontalLine$w$LGzODJ4F8U6cxooQ1
0001:000f83a8  __ZN11QMapPrivateI8QCString5QCharE5clearEv$w$LGzODJ4F8U6cxooQ1
0001:000f8448  __ZN11QMapPrivateI8QCString5QCharEC1Ev$w$LGzODJ4F8U6cxooQ1
0001:000f83e4  __ZN4QMapI8QCString5QCharE6insertERKS0_RKS1_b$w$LGzODJ4F8U6cxooQ1
0001:000f84a4  __ZNK11QMapPrivateI8QCString5QCharE4findERKS0_$w$LGzODJ4F8U6cxooQ1
0001:000f8578  __ZN4QMapI8QCString5QCharE14detachInternalEv$w$LGzODJ4F8U6cxooQ1
0001:000fab40  __ZTV9QTextFlow$w$LGzODJ4F8U6cxooQ1
0001:000faf20  __ZTV8QPtrListI15QTextCustomItemE$w$LGzODJ4F8U6cxooQ1
0001:000faae0  __ZTV10QTextTable$w$LGzODJ4F8U6cxooQ1
0001:000f85a8  __ZN11QMapPrivateIP11QTextCursoriEC1Ev$w$LGzODJ4F8U6cxooQ1
0001:000f85e4  __ZN11QMapPrivateIP11QTextCursoriE5clearEv$w$LGzODJ4F8U6cxooQ1
0001:000f8620* __ZN4QMapI7QStringS0_E14detachInternalEv$w$LGzODJ4F8U6cxooQ1
0001:000f8650  __ZN4QMapIP11QTextCursoriE6removeERKS1_$w$LGzODJ4F8U6cxooQ1
0001:000f86ec  __ZN4QMapIP11QTextCursoriE6insertERKS1_RKib$w$LGzODJ4F8U6cxooQ1
0001:000f8750  __ZNK11QMapPrivateIP11QTextCursoriE4findERKS1_$w$LGzODJ4F8U6cxooQ1
0001:000f87a0  __ZN4QMapIP11QTextCursoriE14detachInternalEv$w$LGzODJ4F8U6cxooQ1
0001:000faa80  __ZTV14QTextTableCell$w$LGzODJ4F8U6cxooQ1
0001:000f87d0  __ZN4QMapIi6QColorE6insertERKiRKS0_b$w$LGzODJ4F8U6cxooQ1
0001:000f883c  __ZN4QMapIi6QColorE14detachInternalEv$w$LGzODJ4F8U6cxooQ1
0001:000f886c  __ZN4QMapIibE6insertERKiRKbb$w$LGzODJ4F8U6cxooQ1
0001:000f88d0  __ZN4QMapIibE14detachInternalEv$w$LGzODJ4F8U6cxooQ1
0001:000f8900  __ZN17QValueListPrivateIP14QTextParagraphEC1ERKS2_$w$LGzODJ4F8U6cxooQ1
0001:000f897c* __ZN17QValueListPrivateIiEC1ERKS0_$w$LGzODJ4F8U6cxooQ1
0001:000f89f8  __ZN11QMapPrivateIi6QColorE5clearEP8QMapNodeIiS0_E$w$LGzODJ4F8U6cxooQ1
0001:000f8a34  __ZN11QMapPrivateIi22QTextDocumentSelectionE5clearEP8QMapNodeIiS0_E$w$LGzODJ4F8U6cxooQ1
0001:000f8bf4  __ZN11QMapPrivateIibE5clearEP8QMapNodeIibE$w$LGzODJ4F8U6cxooQ1
0001:000f8c30* __ZN11QMapPrivateI7QStringS0_E5clearEP8QMapNodeIS0_S0_E$w$LGzODJ4F8U6cxooQ1
0001:000f8cb4  __ZN17QValueListPrivateI16QTextDocumentTagEC1ERKS1_$w$LGzODJ4F8U6cxooQ1
0001:000f8d74* __ZN11QMapPrivateI7QStringS0_E12insertSingleERKS0_$w$LGzODJ4F8U6cxooQ1
0001:000f8e28  __ZN11QMapPrivateIi22QTextDocumentSelectionEC1EPKS1_$w$LGzODJ4F8U6cxooQ1
0001:000f8edc  __ZN11QMapPrivateIi22QTextDocumentSelectionE12insertSingleERKi$w$LGzODJ4F8U6cxooQ1
0001:000f8f78  __ZN11QMapPrivateIiP14QTextLineStartEC1EPKS2_$w$LGzODJ4F8U6cxooQ1
0001:000f9010  __ZN11QMapPrivateIiP14QTextLineStartE5clearEP8QMapNodeIiS1_E$w$LGzODJ4F8U6cxooQ1
0001:000f904c  __ZN11QMapPrivateIi23QTextParagraphSelectionE5clearEP8QMapNodeIiS0_E$w$LGzODJ4F8U6cxooQ1
0001:000f9088  __ZN11QMapPrivateIi23QTextParagraphSelectionEC1EPKS1_$w$LGzODJ4F8U6cxooQ1
0001:000f9120* __ZN17QValueListPrivateI7QStringEC1ERKS1_$w$LGzODJ4F8U6cxooQ1
0001:000f91b4  __ZN11QMapPrivateIiP14QTextLineStartE12insertSingleERKi$w$LGzODJ4F8U6cxooQ1
0001:000f9250  __ZN4QMapI7QString10QPixmapIntE6insertERKS0_RKS1_b$w$LGzODJ4F8U6cxooQ1
0001:000f92cc  __ZN4QMapI7QString10QPixmapIntE14detachInternalEv$w$LGzODJ4F8U6cxooQ1
0001:000f92fc  __ZN11QMapPrivateI7QString10QPixmapIntE5clearEP8QMapNodeIS0_S1_E$w$LGzODJ4F8U6cxooQ1
0001:000f936c  __ZN11QMapPrivateI8QCString5QCharE5clearEP8QMapNodeIS0_S1_E$w$LGzODJ4F8U6cxooQ1
0001:000f93b4  __ZN11QMapPrivateI8QCString5QCharE12insertSingleERKS0_$w$LGzODJ4F8U6cxooQ1
0001:000f94bc  __ZN11QMapPrivateI8QCString5QCharEC1EPKS2_$w$LGzODJ4F8U6cxooQ1
0001:000f956c  __ZN11QMapPrivateIP11QTextCursoriE5clearEP8QMapNodeIS1_iE$w$LGzODJ4F8U6cxooQ1
0001:000f95a8* __ZN11QMapPrivateI7QStringS0_EC1EPKS1_$w$LGzODJ4F8U6cxooQ1
0001:000f9674  __ZN11QMapPrivateIP11QTextCursoriE12insertSingleERKS1_$w$LGzODJ4F8U6cxooQ1
0001:000f9710  __ZN11QMapPrivateIP11QTextCursoriEC1EPKS2_$w$LGzODJ4F8U6cxooQ1
0001:000f97a8  __ZN11QMapPrivateIi6QColorE12insertSingleERKi$w$LGzODJ4F8U6cxooQ1
0001:000f9844  __ZN11QMapPrivateIi6QColorEC1EPKS1_$w$LGzODJ4F8U6cxooQ1
0001:000f98ec  __ZN11QMapPrivateIibE12insertSingleERKi$w$LGzODJ4F8U6cxooQ1
0001:000f9988  __ZN11QMapPrivateIibEC1EPKS0_$w$LGzODJ4F8U6cxooQ1
0001:000f9a20* __ZN11QMapPrivateI7QStringS0_E6insertEP12QMapNodeBaseS3_RKS0_$w$LGzODJ4F8U6cxooQ1
0001:000f9b24* __ZN12QMapIteratorI7QStringS0_E3decEv$w$LGzODJ4F8U6cxooQ1
0001:000f9b7c  __ZN11QMapPrivateIi22QTextDocumentSelectionE4copyEP8QMapNodeIiS0_E$w$LGzODJ4F8U6cxooQ1
0001:000f9c58  __ZN11QMapPrivateIi22QTextDocumentSelectionE6insertEP12QMapNodeBaseS3_RKi$w$LGzODJ4F8U6cxooQ1
0001:000f9d04  __ZN12QMapIteratorIi22QTextDocumentSelectionE3decEv$w$LGzODJ4F8U6cxooQ1
0001:000f9d5c  __ZN11QMapPrivateIiP14QTextLineStartE4copyEP8QMapNodeIiS1_E$w$LGzODJ4F8U6cxooQ1
0001:000f9de4  __ZN11QMapPrivateIi23QTextParagraphSelectionE4copyEP8QMapNodeIiS0_E$w$LGzODJ4F8U6cxooQ1
0001:000fb930* __ZN17QValueListPrivateI7QStringE6insertE18QValueListIteratorIS0_ERKS0_$w$LGzODJ4F8U6cxooQ1
0001:000f9e70  __ZN11QMapPrivateIiP14QTextLineStartE6insertEP12QMapNodeBaseS4_RKi$w$LGzODJ4F8U6cxooQ1
0001:000f9f04  __ZN12QMapIteratorIiP14QTextLineStartE3decEv$w$LGzODJ4F8U6cxooQ1
0001:000f9f5c  __ZN11QMapPrivateI7QString10QPixmapIntE12insertSingleERKS0_$w$LGzODJ4F8U6cxooQ1
0001:000fa010  __ZN11QMapPrivateI7QString10QPixmapIntEC1EPKS2_$w$LGzODJ4F8U6cxooQ1
0001:000fa0d8  __ZN11QMapPrivateI8QCString5QCharE6insertEP12QMapNodeBaseS4_RKS0_$w$LGzODJ4F8U6cxooQ1
0001:000fa1d4  __ZN12QMapIteratorI8QCString5QCharE3decEv$w$LGzODJ4F8U6cxooQ1
0001:000fa22c  __ZN11QMapPrivateI8QCString5QCharE4copyEP8QMapNodeIS0_S1_E$w$LGzODJ4F8U6cxooQ1
0001:000fa2dc* __ZN11QMapPrivateI7QStringS0_E4copyEP8QMapNodeIS0_S0_E$w$LGzODJ4F8U6cxooQ1
0001:000fa3bc  __ZN11QMapPrivateIP11QTextCursoriE6insertEP12QMapNodeBaseS4_RKS1_$w$LGzODJ4F8U6cxooQ1
0001:000fa450  __ZN12QMapIteratorIP11QTextCursoriE3decEv$w$LGzODJ4F8U6cxooQ1
0001:000fa4a8  __ZN11QMapPrivateIP11QTextCursoriE4copyEP8QMapNodeIS1_iE$w$LGzODJ4F8U6cxooQ1
0001:000fa530  __ZN11QMapPrivateIi6QColorE6insertEP12QMapNodeBaseS3_RKi$w$LGzODJ4F8U6cxooQ1
0001:000fa5d0  __ZN12QMapIteratorIi6QColorE3decEv$w$LGzODJ4F8U6cxooQ1
0001:000fa628  __ZN11QMapPrivateIi6QColorE4copyEP8QMapNodeIiS0_E$w$LGzODJ4F8U6cxooQ1
0001:000fa6c8  __ZN11QMapPrivateIibE6insertEP12QMapNodeBaseS2_RKi$w$LGzODJ4F8U6cxooQ1
0001:000fa75c  __ZN12QMapIteratorIibE3decEv$w$LGzODJ4F8U6cxooQ1
0001:000fa7b4  __ZN11QMapPrivateIibE4copyEP8QMapNodeIibE$w$LGzODJ4F8U6cxooQ1
0001:000fa83c  __ZN11QMapPrivateI7QString10QPixmapIntE6insertEP12QMapNodeBaseS4_RKS0_$w$LGzODJ4F8U6cxooQ1
0001:000fa934  __ZN12QMapIteratorI7QString10QPixmapIntE3decEv$w$LGzODJ4F8U6cxooQ1
0001:000fa98c  __ZN11QMapPrivateI7QString10QPixmapIntE4copyEP8QMapNodeIS0_S1_E$w$LGzODJ4F8U6cxooQ1
0001:000fb310  __ZNK10QTextTable9placementEv$w$LGzODJ4F8U6cxooQ1
0001:000fb304  __ZNK10QTextTable7ownLineEv$w$LGzODJ4F8U6cxooQ1
0001:000fb2d4  __ZNK15QTextCustomItem6ascentEv$w$LGzODJ4F8U6cxooQ1
0001:000fb31c  __ZNK10QTextTable8isNestedEv$w$LGzODJ4F8U6cxooQ1
0001:000fb2f8  __ZNK19QTextHorizontalLine7ownLineEv$w$LGzODJ4F8U6cxooQ1
0001:000fb810* __ZN7QBitmapD1Ev$w$LGzODJ4F8U6cxooQ1
0001:000fb7e8* __ZN7QBitmapD0Ev$w$LGzODJ4F8U6cxooQ1
0001:000fb2e0  __ZNK10QTextImage9placementEv$w$LGzODJ4F8U6cxooQ1
0001:000fb2ec  __ZNK10QTextImage12minimumWidthEv$w$LGzODJ4F8U6cxooQ1
0001:000fb50c  __ZN21QTextFormatCollection12createFormatERK11QTextFormat$w$LGzODJ4F8U6cxooQ1
0001:000fb534  __ZN21QTextFormatCollection12createFormatERK5QFontRK6QColor$w$LGzODJ4F8U6cxooQ1
0001:000fb480  __ZN24QTextFormatterBreakWordsD1Ev$w$LGzODJ4F8U6cxooQ1
0001:000fb49c  __ZN24QTextFormatterBreakWordsD0Ev$w$LGzODJ4F8U6cxooQ1
0001:000fb42c  __ZN14QTextFormatter20setAllowBreakInWordsEb$w$LGzODJ4F8U6cxooQ1
0001:000fb43c  __ZN26QTextFormatterBreakInWordsD1Ev$w$LGzODJ4F8U6cxooQ1
0001:000fb458  __ZN26QTextFormatterBreakInWordsD0Ev$w$LGzODJ4F8U6cxooQ1
0001:000fb6ec* __ZN9QMemArrayIiED1Ev$w$LGzODJ4F8U6cxooQ1
0001:000fb708* __ZN9QMemArrayIiED0Ev$w$LGzODJ4F8U6cxooQ1
0001:000fc758* __ZN9QMemArrayIiE6detachEv$w$LGzODJ4F8U6cxooQ1
0001:000fc770  __ZNK10QPtrVectorI15QStyleSheetItemE5countEv$w$LGzODJ4F8U6cxooQ1
0001:000fb8fc  __ZN10QPtrVectorI15QStyleSheetItemE5clearEv$w$LGzODJ4F8U6cxooQ1
0001:000fb908  __ZN10QPtrVectorI15QStyleSheetItemED1Ev$w$LGzODJ4F8U6cxooQ1
0001:000fb644  __ZN10QPtrVectorI15QStyleSheetItemED0Ev$w$LGzODJ4F8U6cxooQ1
0001:000fc77c  __ZN10QPtrVectorI15QStyleSheetItemE10deleteItemEPv$w$LGzODJ4F8U6cxooQ1
0001:000fc7b4  __ZNK8QPtrListI10QPtrVectorI15QStyleSheetItemEE5countEv$w$LGzODJ4F8U6cxooQ1
0001:000fb674  __ZN8QPtrListI10QPtrVectorI15QStyleSheetItemEE5clearEv$w$LGzODJ4F8U6cxooQ1
0001:000fb61c  __ZN8QPtrListI10QPtrVectorI15QStyleSheetItemEED1Ev$w$LGzODJ4F8U6cxooQ1
0001:000fb680  __ZN8QPtrListI10QPtrVectorI15QStyleSheetItemEED0Ev$w$LGzODJ4F8U6cxooQ1
0001:000fc7c0  __ZN8QPtrListI10QPtrVectorI15QStyleSheetItemEE10deleteItemEPv$w$LGzODJ4F8U6cxooQ1
0001:000fb390  __ZN17QTextStyleCommandD1Ev$w$LGzODJ4F8U6cxooQ1
0001:000fb3d4  __ZN17QTextStyleCommandD0Ev$w$LGzODJ4F8U6cxooQ1
0001:000fb420  __ZNK17QTextStyleCommand4typeEv$w$LGzODJ4F8U6cxooQ1
0001:000fb384  __ZNK18QTextFormatCommand4typeEv$w$LGzODJ4F8U6cxooQ1
0001:000fb378  __ZNK18QTextDeleteCommand4typeEv$w$LGzODJ4F8U6cxooQ1
0001:000fb7dc  __ZNK5QDictI11QTextFormatE5countEv$w$LGzODJ4F8U6cxooQ1
0001:000fb7a0  __ZN5QDictI11QTextFormatE5clearEv$w$LGzODJ4F8U6cxooQ1
0001:000fb778  __ZN5QDictI11QTextFormatED1Ev$w$LGzODJ4F8U6cxooQ1
0001:000fb7ac  __ZN5QDictI11QTextFormatED0Ev$w$LGzODJ4F8U6cxooQ1
0001:000fc7e8  __ZN5QDictI11QTextFormatE10deleteItemEPv$w$LGzODJ4F8U6cxooQ1
0001:000fb4e8  __ZN17QTextPreProcessorD1Ev$w$LGzODJ4F8U6cxooQ1
0001:000fb4f8  __ZN17QTextPreProcessorD0Ev$w$LGzODJ4F8U6cxooQ1
0001:000fb4c4  __ZN11QTextIndentD1Ev$w$LGzODJ4F8U6cxooQ1
0001:000fb4d4  __ZN11QTextIndentD0Ev$w$LGzODJ4F8U6cxooQ1
0001:000fc810  __ZNK8QPtrListI13QTextDocumentE5countEv$w$LGzODJ4F8U6cxooQ1
0001:000fb5e0  __ZN8QPtrListI13QTextDocumentE5clearEv$w$LGzODJ4F8U6cxooQ1
0001:000fb350  __ZN8QPtrListI13QTextDocumentED1Ev$w$LGzODJ4F8U6cxooQ1
0001:000fb5ec  __ZN8QPtrListI13QTextDocumentED0Ev$w$LGzODJ4F8U6cxooQ1
0001:000fc81c  __ZN8QPtrListI13QTextDocumentE10deleteItemEPv$w$LGzODJ4F8U6cxooQ1
0001:000fb8f0  __ZNK8QPtrListI14QTextTableCellE5countEv$w$LGzODJ4F8U6cxooQ1
0001:000fb6b0  __ZN8QPtrListI14QTextTableCellE5clearEv$w$LGzODJ4F8U6cxooQ1
0001:000fb328  __ZN8QPtrListI14QTextTableCellED1Ev$w$LGzODJ4F8U6cxooQ1
0001:000fb6bc  __ZN8QPtrListI14QTextTableCellED0Ev$w$LGzODJ4F8U6cxooQ1
0001:000fc844  __ZN8QPtrListI14QTextTableCellE10deleteItemEPv$w$LGzODJ4F8U6cxooQ1
0001:000fc86c  __ZNK8QPtrListI15QTextCustomItemE5countEv$w$LGzODJ4F8U6cxooQ1
0001:000fb8e4  __ZN8QPtrListI15QTextCustomItemE5clearEv$w$LGzODJ4F8U6cxooQ1
0001:000fb8bc  __ZN8QPtrListI15QTextCustomItemED1Ev$w$LGzODJ4F8U6cxooQ1
0001:000fb748  __ZN8QPtrListI15QTextCustomItemED0Ev$w$LGzODJ4F8U6cxooQ1
0001:000fc878  __ZN8QPtrListI15QTextCustomItemE10deleteItemEPv$w$LGzODJ4F8U6cxooQ1
0001:000fb244* __ZN19QTextCommandHistoryD1Ev$w$LGzODJ4F8U6cxooQ1
0001:000fb288* __ZN19QTextCommandHistoryD0Ev$w$LGzODJ4F8U6cxooQ1
0001:000fb238* __ZNK8QPtrListI12QTextCommandE5countEv$w$LGzODJ4F8U6cxooQ1
0001:000fb22c* __ZN8QPtrListI12QTextCommandE5clearEv$w$LGzODJ4F8U6cxooQ1
0001:000fb204* __ZN8QPtrListI12QTextCommandED1Ev$w$LGzODJ4F8U6cxooQ1
0001:000fb560* __ZN8QPtrListI12QTextCommandED0Ev$w$LGzODJ4F8U6cxooQ1
0001:000fc8a0* __ZN8QPtrListI12QTextCommandE10deleteItemEPv$w$LGzODJ4F8U6cxooQ1
0001:000fb0a8  __ZN11QTextCursorD1Ev$w$LGzODJ4F8U6cxooQ1
0001:000fb154  __ZN11QTextCursorD0Ev$w$LGzODJ4F8U6cxooQ1
0001:000fb08c  __ZN9QMemArrayI15QTextStringCharED1Ev$w$LGzODJ4F8U6cxooQ1
0001:000fb590  __ZN9QMemArrayI15QTextStringCharED0Ev$w$LGzODJ4F8U6cxooQ1
0001:000fb730  __ZN9QMemArrayI15QTextStringCharE6detachEv$w$LGzODJ4F8U6cxooQ1
0001:000fafc0* __ZTV6QGList$w$LGzODJ4F8U6cxooQ1
0001:000fb080* __ZNK6QGList5countEv$w$LGzODJ4F8U6cxooQ1
0001:000fb064* __ZN9QMemArrayIcED1Ev$w$LGzODJ4F8U6cxooQ1
0001:000fb5b8* __ZN9QMemArrayIcED0Ev$w$LGzODJ4F8U6cxooQ1
0001:000fc8c8* __ZN9QMemArrayIcE6detachEv$w$LGzODJ4F8U6cxooQ1
Module: C:\200\trunk\src\tmp\obj\release_mt_shared\qinternal.obj(qinternal.obj)
0001:000fc950  __ZN26QSharedDoubleBufferCleanerC2Ev
0001:000fc97c  __ZN26QSharedDoubleBufferCleanerC1Ev
0001:000fc9a8  __ZN26QSharedDoubleBufferCleaner5startEv
0001:000fc9d0  __ZN26QSharedDoubleBufferCleaner4stopEv
0001:000fc9fc  __ZN26QSharedDoubleBufferCleaner9doCleanupEv
0001:000fcaa0  __ZN26QSharedDoubleBufferCleaner5eventEP6QEvent
0001:000fcaec  __ZN19QSharedDoubleBufferC2Ej
0001:000fcb38  __ZN19QSharedDoubleBufferC1Ej
0001:000fcb84  __ZN19QSharedDoubleBufferC2EP7QWidgetiiiij
0001:000fd084  __ZN19QSharedDoubleBuffer5beginEP7QWidgetiiii
0001:000fcbd4  __ZN19QSharedDoubleBufferC1EP7QWidgetiiiij
0001:000fcc24  __ZN19QSharedDoubleBufferC2EP8QPainteriiiij
0001:000fcf60  __ZN19QSharedDoubleBuffer5beginEP8QPainteriiii
0001:000fcc74  __ZN19QSharedDoubleBufferC1EP8QPainteriiiij
0001:000fccc4  __ZN19QSharedDoubleBufferC2EP7QWidgetRK5QRectj
0001:000fcd40  __ZN19QSharedDoubleBufferC1EP7QWidgetRK5QRectj
0001:000fcdbc  __ZN19QSharedDoubleBufferC2EP8QPainterRK5QRectj
0001:000fce38  __ZN19QSharedDoubleBufferC1EP8QPainterRK5QRectj
0001:000fceb4  __ZN19QSharedDoubleBufferD2Ev
0001:000fd27c  __ZN19QSharedDoubleBuffer3endEv
0001:000fced4  __ZN19QSharedDoubleBufferD1Ev
0001:000fd3d0  __ZN19QSharedDoubleBuffer9getPixmapEv
0001:000fd354  __ZN19QSharedDoubleBuffer5flushEv
0001:000fd638  __ZN19QSharedDoubleBuffer13releasePixmapEv
0001:000fd668  __ZN19QSharedDoubleBuffer7cleanupEv
0001:000fd730  __ZN7QMembufC2Ev
0001:000fd770  __ZN7QMembufC1Ev
0001:000fd7b0  __ZN7QMembufD2Ev
0001:000fd7d4  __ZN7QMembufD1Ev
0001:000fd7f8  __ZN7QMembuf12consumeBytesEmPc
0001:000fd8bc  __ZN7QMembuf11scanNewlineEP9QMemArrayIcE
0001:000fda1c  __ZN7QMembuf7ungetchEi
0002:000009a0  __ZN19QSharedDoubleBuffer7dblbufrE
0002:00003af0  _qdb_pixmap_cleanup
0002:00003af4  _cleanup_static_cleaner
0001:000fdae0  __ZTV26QSharedDoubleBufferCleaner$w$nST6FO4F8U6u144T3
0001:000fdb40  __ZTV8QPtrListIP7QPixmapE$w$nST6FO4F8U6u144T3
0001:000fdb80  __ZTV8QPtrListI9QMemArrayIcEE$w$nST6FO4F8U6u144T3
0001:000fdbf0* __ZTV9QMemArrayIcE$w$nST6FO4F8U6u144T3
0001:000fdd90* __ZNK7QObject10metaObjectEv$w$nST6FO4F8U6u144T3
0001:000fdc0c  __ZN26QSharedDoubleBufferCleanerD1Ev$w$nST6FO4F8U6u144T3
0001:000fdc28  __ZN26QSharedDoubleBufferCleanerD0Ev$w$nST6FO4F8U6u144T3
0001:000fde1c  __ZNK8QPtrListIP7QPixmapE5countEv$w$nST6FO4F8U6u144T3
0001:000fde28  __ZN8QPtrListIP7QPixmapE5clearEv$w$nST6FO4F8U6u144T3
0001:000fde34  __ZN8QPtrListIP7QPixmapED1Ev$w$nST6FO4F8U6u144T3
0001:000fde5c  __ZN8QPtrListIP7QPixmapED0Ev$w$nST6FO4F8U6u144T3
0001:000fde8c  __ZN8QPtrListIP7QPixmapE10deleteItemEPv$w$nST6FO4F8U6u144T3
0001:000fdeac  __ZNK8QPtrListI9QMemArrayIcEE5countEv$w$nST6FO4F8U6u144T3
0001:000fdd84  __ZN8QPtrListI9QMemArrayIcEE5clearEv$w$nST6FO4F8U6u144T3
0001:000fddf4  __ZN8QPtrListI9QMemArrayIcEED1Ev$w$nST6FO4F8U6u144T3
0001:000fdd9c  __ZN8QPtrListI9QMemArrayIcEED0Ev$w$nST6FO4F8U6u144T3
0001:000fdeb8  __ZN8QPtrListI9QMemArrayIcEE10deleteItemEPv$w$nST6FO4F8U6u144T3
0001:000fdbc0* __ZTV6QGList$w$nST6FO4F8U6u144T3
0001:000fdd78* __ZNK6QGList5countEv$w$nST6FO4F8U6u144T3
0001:000fdd5c* __ZN9QMemArrayIcED1Ev$w$nST6FO4F8U6u144T3
0001:000fddcc* __ZN9QMemArrayIcED0Ev$w$nST6FO4F8U6u144T3
0001:000fdee0* __ZN9QMemArrayIcE6detachEv$w$nST6FO4F8U6u144T3
Module: C:\200\trunk\src\tmp\obj\release_mt_shared\qrichtext_p.obj(qrichtext_p.obj)
0001:000fdf40  __ZN12QTextCommandD2Ev
0001:000fdff4  __ZN12QTextCommandD1Ev
0001:000fe0a8  __ZN12QTextCommandD0Ev
0001:000fe168  __ZNK12QTextCommand4typeEv
0001:000fe170  __ZN15QTextCustomItemD2Ev
0001:000fe180  __ZN15QTextCustomItemD1Ev
0001:000fe190  __ZN15QTextCustomItemD0Ev
0001:000fe1a4  __ZN15QTextCustomItem15adjustToPainterEP8QPainter
0001:000fe1bc  __ZNK15QTextCustomItem9placementEv
0001:000fe1c4  __ZNK15QTextCustomItem7ownLineEv
0001:000fe1cc  __ZN15QTextCustomItem6resizeEi
0001:000fe1dc  __ZN15QTextCustomItem10invalidateEv
0001:000fe1e4  __ZNK15QTextCustomItem8isNestedEv
0001:000fe1ec  __ZNK15QTextCustomItem12minimumWidthEv
0001:000fe1f4  __ZNK15QTextCustomItem8richTextEv
0001:000fe214  __ZN15QTextCustomItem5enterEP11QTextCursorRP13QTextDocumentRP14QTextParagraphRiS8_S8_b
0001:000fe220  __ZN15QTextCustomItem7enterAtEP11QTextCursorRP13QTextDocumentRP14QTextParagraphRiS8_S8_RK6QPoint
0001:000fe22c  __ZN15QTextCustomItem4nextEP11QTextCursorRP13QTextDocumentRP14QTextParagraphRiS8_S8_
0001:000fe238  __ZN15QTextCustomItem4prevEP11QTextCursorRP13QTextDocumentRP14QTextParagraphRiS8_S8_
0001:000fe244  __ZN15QTextCustomItem4downEP11QTextCursorRP13QTextDocumentRP14QTextParagraphRiS8_S8_
0001:000fe250  __ZN15QTextCustomItem2upEP11QTextCursorRP13QTextDocumentRP14QTextParagraphRiS8_S8_
0001:000fe25c  __ZN9QTextFlow11setPageSizeEi
0001:000fe26c  __ZN9QTextFlow7isEmptyEv
0001:000fe28c  __ZN14QTextTableCell10invalidateEv
0001:000fe2a4  __ZN10QTextTable10invalidateEv
0001:000fe2b4  __ZN18QTextParagraphDataD2Ev
0001:000fe2c4  __ZN18QTextParagraphDataD1Ev
0001:000fe2d4  __ZN18QTextParagraphDataD0Ev
0001:000fe2e8  __ZN18QTextParagraphData4joinEPS_
0001:000fe2f0  __ZN14QTextFormatterD2Ev
0001:000fe300  __ZN14QTextFormatterD1Ev
0001:000fe310  __ZN14QTextFormatterD0Ev
0001:000fe324  __ZN14QTextFormatter14setWrapEnabledEb
0001:000fe334  __ZN14QTextFormatter15setWrapAtColumnEi
0001:000fe344  __ZNK11QTextCursor1xEv
0001:000fe4ac  __ZNK11QTextCursor1yEv
0001:00100254  __ZNK14QTextParagraph5lineYEi
0001:000fe4dc  __ZNK11QTextCursor7globalXEv
0001:000fe520  __ZNK11QTextCursor7globalYEv
0001:000fe564  __ZNK11QTextCursor8documentEv
0001:000fe624  __ZN11QTextCursor12gotoPositionEP14QTextParagraphi
0001:000fe770  __ZNK13QTextDocument12hasSelectionEib
0001:000fe97c  __ZN13QTextDocument17setSelectionStartEiRK11QTextCursor
0001:000feb60  __ZNK13QTextDocument7paragAtEi
0001:000febdc  __ZN11QTextFormatD2Ev
0001:000fec30  __ZN11QTextFormatD1Ev
0001:000fec84  __ZN11QTextFormatD0Ev
0001:000fece0  __ZN11QTextFormatC2Ev
0001:000fedd0  __ZN11QTextFormatC1Ev
0001:000feec0  __ZN11QTextFormatC2EPK15QStyleSheetItem
0001:000ffd1c  __ZN11QTextFormat11generateKeyEv
0001:000ff130  __ZN11QTextFormatC1EPK15QStyleSheetItem
0001:000ff3a0  __ZN11QTextFormatC2ERK5QFontRK6QColorP21QTextFormatCollection
0001:000ff4e0  __ZN11QTextFormatC1ERK5QFontRK6QColorP21QTextFormatCollection
0001:000ff620  __ZN11QTextFormatC2ERKS_
0001:000ff76c  __ZN11QTextFormatC1ERKS_
0001:000ff8b8  __ZN11QTextFormataSERKS_
0001:000ff9bc  __ZN11QTextFormat6updateEv
0001:000ffa78  __ZN11QTextFormat10setPainterEP8QPainter
0001:000ffa88  __ZN11QTextFormat7painterEv
0001:000ffa94  __ZN11QTextFormat9applyFontERK5QFont
0001:000ffbac  __ZNK11QTextFormat14minLeftBearingEv
0001:000ffbec  __ZNK11QTextFormat15minRightBearingEv
0001:000ffc2c  __ZNK11QTextFormat6heightEv
0001:000ffc60  __ZNK11QTextFormat6ascentEv
0001:000ffc94  __ZNK11QTextFormat7descentEv
0001:000ffce4  __ZNK11QTextFormat7leadingEv
0001:000ffd80  __ZN11QTextFormat6getKeyERK5QFontRK6QColorbNS_17VerticalAlignmentE
0001:000ffe84  __ZN11QTextString8toStringERK9QMemArrayI15QTextStringCharE
0001:000ffefc  __ZN14QTextParagraph12setSelectionEiii
0001:0010060c  __ZNK14QTextParagraph10selectionsEv
0001:000fffcc  __ZN14QTextParagraph15removeSelectionEi
0001:00100124  __ZNK14QTextParagraph12hasSelectionEi
0001:00100014  __ZNK14QTextParagraph14selectionStartEi
0001:0010009c  __ZNK14QTextParagraph12selectionEndEi
0001:0010016c  __ZNK14QTextParagraph12fullSelectedEi
0001:00100300  __ZNK14QTextParagraph12lineBaseLineEi
0001:001003b0  __ZNK14QTextParagraph10lineHeightEi
0001:00100464  __ZNK14QTextParagraph8lineInfoEiRiS0_S0_
0001:00100528  __ZN14QTextParagraph12setAlignmentEi
0001:00100570  __ZNK14QTextParagraph9formatterEv
0001:001005b8  __ZN14QTextParagraph11setTabArrayEPi
0001:001005e4  __ZN14QTextParagraph11setTabStopsEi
0001:00100658  __ZNK14QTextParagraph13floatingItemsEv
0001:00100694  __ZN15QTextStringCharD2Ev
0001:00100768  __ZN15QTextStringCharD1Ev
0001:0010083c  __ZN28QTextParagraphPseudoDocumentC2Ev
0001:00100888  __ZN28QTextParagraphPseudoDocumentC1Ev
0001:001008d4  __ZN28QTextParagraphPseudoDocumentD2Ev
0001:00100920  __ZN28QTextParagraphPseudoDocumentD1Ev
0002:000009b0  __ZN11QTextFormat8pntr_ldgE
0002:000009b4  __ZN11QTextFormat8pntr_ascE
0002:000009b8  __ZN11QTextFormat8pntr_heiE
0002:000009bc  __ZN11QTextFormat8pntr_dscE
0002:00003b40  __ZN11QTextFormat4pntrE
0002:00003b44  __ZN11QTextFormat7pntr_fmE
0001:00101618  __ZTV12QTextCommand$w$FRovMW4F8U6DtbQ80
0001:00101680* __ZTV11QTextCursor$w$FRovMW4F8U6DtbQ80
0001:0010096c* __ZN17QValueListPrivateIiED1Ev$w$FRovMW4F8U6DtbQ80
0001:001009a8* __ZN17QValueListPrivateIP14QTextParagraphED1Ev$w$FRovMW4F8U6DtbQ80
0001:001015c0  __ZTV15QTextCustomItem$w$FRovMW4F8U6DtbQ80
0001:00101590  __ZTV18QTextParagraphData$w$FRovMW4F8U6DtbQ80
0001:00101560  __ZTV14QTextFormatter$w$FRovMW4F8U6DtbQ80
0001:001009e4* __ZNK11QMapPrivateIi22QTextDocumentSelectionE4findERKi$w$FRovMW4F8U6DtbQ80
0001:00100a34* __ZN4QMapIi22QTextDocumentSelectionEixERKi$w$FRovMW4F8U6DtbQ80
0001:00101530  __ZTV11QTextFormat$w$FRovMW4F8U6DtbQ80
0001:00100c8c* __ZNK11QMapPrivateIi23QTextParagraphSelectionE4findERKi$w$FRovMW4F8U6DtbQ80
0001:00100c10  __ZN4QMapIi23QTextParagraphSelectionEixERKi$w$FRovMW4F8U6DtbQ80
0001:00100cdc* __ZN4QMapIi23QTextParagraphSelectionE14detachInternalEv$w$FRovMW4F8U6DtbQ80
0001:00100d0c  __ZN4QMapIi23QTextParagraphSelectionE6removeERKi$w$FRovMW4F8U6DtbQ80
0001:00100da8* __ZN17QMapConstIteratorIiP14QTextLineStartE3incEv$w$FRovMW4F8U6DtbQ80
0001:00100df4  __ZN11QMapPrivateIi23QTextParagraphSelectionEC1Ev$w$FRovMW4F8U6DtbQ80
0001:00101640* __ZTV8QPtrListI15QTextCustomItemE$w$FRovMW4F8U6DtbQ80
0001:00100e30* __ZN4QMapIi22QTextDocumentSelectionE6insertERKiRKS0_b$w$FRovMW4F8U6DtbQ80
0001:00100ebc* __ZN4QMapIi22QTextDocumentSelectionE14detachInternalEv$w$FRovMW4F8U6DtbQ80
0001:00100eec  __ZN4QMapIi23QTextParagraphSelectionE6insertERKiRKS0_b$w$FRovMW4F8U6DtbQ80
0001:00100f54* __ZN11QMapPrivateIi23QTextParagraphSelectionEC1EPKS1_$w$FRovMW4F8U6DtbQ80
0001:00100fec* __ZN11QMapPrivateIi22QTextDocumentSelectionE12insertSingleERKi$w$FRovMW4F8U6DtbQ80
0001:00101088* __ZN11QMapPrivateIi22QTextDocumentSelectionEC1EPKS1_$w$FRovMW4F8U6DtbQ80
0001:0010113c  __ZN11QMapPrivateIi23QTextParagraphSelectionE12insertSingleERKi$w$FRovMW4F8U6DtbQ80
0001:001011d8* __ZN11QMapPrivateIi23QTextParagraphSelectionE4copyEP8QMapNodeIiS0_E$w$FRovMW4F8U6DtbQ80
0001:00101264* __ZN11QMapPrivateIi22QTextDocumentSelectionE6insertEP12QMapNodeBaseS3_RKi$w$FRovMW4F8U6DtbQ80
0001:00101310* __ZN12QMapIteratorIi22QTextDocumentSelectionE3decEv$w$FRovMW4F8U6DtbQ80
0001:00101368* __ZN11QMapPrivateIi22QTextDocumentSelectionE4copyEP8QMapNodeIiS0_E$w$FRovMW4F8U6DtbQ80
0001:00101444  __ZN11QMapPrivateIi23QTextParagraphSelectionE6insertEP12QMapNodeBaseS3_RKi$w$FRovMW4F8U6DtbQ80
0001:001014d8  __ZN12QMapIteratorIi23QTextParagraphSelectionE3decEv$w$FRovMW4F8U6DtbQ80
0001:001018d0* __ZN14QTextFormatter20setAllowBreakInWordsEb$w$FRovMW4F8U6DtbQ80
0001:001018c4* __ZNK15QTextCustomItem6ascentEv$w$FRovMW4F8U6DtbQ80
0001:001018e0* __ZNK8QPtrListI15QTextCustomItemE5countEv$w$FRovMW4F8U6DtbQ80
0001:001018ec* __ZN8QPtrListI15QTextCustomItemE5clearEv$w$FRovMW4F8U6DtbQ80
0001:001018f8* __ZN8QPtrListI15QTextCustomItemED1Ev$w$FRovMW4F8U6DtbQ80
0001:00101920* __ZN8QPtrListI15QTextCustomItemED0Ev$w$FRovMW4F8U6DtbQ80
0001:00101950* __ZN8QPtrListI15QTextCustomItemE10deleteItemEPv$w$FRovMW4F8U6DtbQ80
0001:00101670* __ZTV19QTextCommandHistory$w$FRovMW4F8U6DtbQ80
0001:00101834* __ZN19QTextCommandHistoryD1Ev$w$FRovMW4F8U6DtbQ80
0001:00101878* __ZN19QTextCommandHistoryD0Ev$w$FRovMW4F8U6DtbQ80
0001:001016d8* __ZN11QTextCursorD1Ev$w$FRovMW4F8U6DtbQ80
0001:00101784* __ZN11QTextCursorD0Ev$w$FRovMW4F8U6DtbQ80
0001:001016a0* __ZTV6QGList$w$FRovMW4F8U6DtbQ80
0001:001016cc* __ZNK6QGList5countEv$w$FRovMW4F8U6DtbQ80
0001:00101980* __ZTV8QPtrListI12QTextCommandE$w$FRovMW4F8U6DtbQ80
0001:001019e0* __ZNK8QPtrListI12QTextCommandE5countEv$w$FRovMW4F8U6DtbQ80
0001:001019d4* __ZN8QPtrListI12QTextCommandE5clearEv$w$FRovMW4F8U6DtbQ80
0001:001019ac* __ZN8QPtrListI12QTextCommandED1Ev$w$FRovMW4F8U6DtbQ80
0001:001019ec* __ZN8QPtrListI12QTextCommandED0Ev$w$FRovMW4F8U6DtbQ80
0001:00101a1c* __ZN8QPtrListI12QTextCommandE10deleteItemEPv$w$FRovMW4F8U6DtbQ80
Module: C:\200\trunk\src\tmp\obj\release_mt_shared\qgplugin.obj(qgplugin.obj)
0001:00101a60  __ZN8QGPluginC2Ev
0001:00101a8c  __ZN8QGPluginC1Ev
0001:00101ab8  __ZN8QGPluginC2EP17QUnknownInterface
0001:00101ae0  __ZN8QGPluginC1EP17QUnknownInterface
0001:00101b08  __ZN8QGPluginD2Ev
0001:00101b24  __ZN8QGPluginD1Ev
0001:00101b40  __ZN8QGPluginD0Ev
0001:00101b98  __ZN8QGPlugin5ifaceEv
0001:00101c14  __ZN8QGPlugin8setIfaceEP17QUnknownInterface
0001:00101c40* __ZTV6QGList$w$HET6QZ4F8U6LNqU82
0001:00101c6c* __ZNK6QGList5countEv$w$HET6QZ4F8U6LNqU82
Module: C:\200\trunk\src\tmp\obj\release_mt_shared\qsimplerichtext.obj(qsimplerichtext.obj)
0001:00101c80  __ZN19QSimpleRichTextData10adjustSizeEP8QPainter
0001:00101da4  __ZN15QSimpleRichTextC2ERK7QStringRK5QFontS2_PK11QStyleSheet
0001:00101ea4  __ZN15QSimpleRichTextC1ERK7QStringRK5QFontS2_PK11QStyleSheet
0001:00101fa4  __ZN15QSimpleRichTextC2ERK7QStringRK5QFontS2_PK11QStyleSheetPK18QMimeSourceFactoryiRK6QColorb
0001:001020e0  __ZN15QSimpleRichTextC1ERK7QStringRK5QFontS2_PK11QStyleSheetPK18QMimeSourceFactoryiRK6QColorb
0001:0010221c  __ZN15QSimpleRichTextD2Ev
0001:00102268  __ZN15QSimpleRichTextD1Ev
0001:001022b4  __ZN15QSimpleRichText8setWidthEi
0001:00102308  __ZN15QSimpleRichText8setWidthEP8QPainteri
0001:001023a0  __ZNK15QSimpleRichText5widthEv
0001:001023dc  __ZNK15QSimpleRichText9widthUsedEv
0001:00102410  __ZNK15QSimpleRichText6heightEv
0001:00102444  __ZN15QSimpleRichText10adjustSizeEv
0001:0010245c  __ZNK15QSimpleRichText4drawEP8QPainteriiRK5QRectRK11QColorGroupPK6QBrush
0001:00102610  __ZNK15QSimpleRichText7contextEv
0001:0010263c  __ZNK15QSimpleRichText8anchorAtERK6QPoint
0001:00102780  __ZNK15QSimpleRichText6inTextERK6QPoint
0001:0010298c  __ZN15QSimpleRichText14setDefaultFontERK5QFont
0001:00102b28* __ZTV11QTextCursor$w$FndtE55F8U6MqWSw1
0001:00102aa0* __ZN17QValueListPrivateIiED1Ev$w$FndtE55F8U6MqWSw1
0001:00102adc* __ZN17QValueListPrivateIP14QTextParagraphED1Ev$w$FndtE55F8U6MqWSw1
0001:00102b18* __ZTV19QTextCommandHistory$w$FndtE55F8U6MqWSw1
0001:00102cd4* __ZN19QTextCommandHistoryD1Ev$w$FndtE55F8U6MqWSw1
0001:00102d18* __ZN19QTextCommandHistoryD0Ev$w$FndtE55F8U6MqWSw1
0001:00102b78* __ZN11QTextCursorD1Ev$w$FndtE55F8U6MqWSw1
0001:00102c24* __ZN11QTextCursorD0Ev$w$FndtE55F8U6MqWSw1
0001:00102b40* __ZTV6QGList$w$FndtE55F8U6MqWSw1
0001:00102b6c* __ZNK6QGList5countEv$w$FndtE55F8U6MqWSw1
0001:00102d80* __ZTV8QPtrListI12QTextCommandE$w$FndtE55F8U6MqWSw1
0001:00102de0* __ZNK8QPtrListI12QTextCommandE5countEv$w$FndtE55F8U6MqWSw1
0001:00102dd4* __ZN8QPtrListI12QTextCommandE5clearEv$w$FndtE55F8U6MqWSw1
0001:00102dac* __ZN8QPtrListI12QTextCommandED1Ev$w$FndtE55F8U6MqWSw1
0001:00102dec* __ZN8QPtrListI12QTextCommandED0Ev$w$FndtE55F8U6MqWSw1
0001:00102e1c* __ZN8QPtrListI12QTextCommandE10deleteItemEPv$w$FndtE55F8U6MqWSw1
Module: C:\200\trunk\src\tmp\obj\release_mt_shared\qscriptengine.obj(qscriptengine.obj)
0001:00102e60  __Z19q_heuristicPositionP11QTextEngineP11QScriptItem
0001:00103960  _scriptEngines
0001:00103b20* __ZTV6QGList$w$XUf2ja5F8U6SCcM10
0001:00103b4c* __ZNK6QGList5countEv$w$XUf2ja5F8U6SCcM10
Module: C:\200\trunk\src\tmp\obj\release_mt_shared\qtextlayout.obj(qtextlayout.obj)
0001:00104960  __ZNK9QTextItem4rectEv
0001:001049a4  __ZNK9QTextItem1xEv
0001:001049bc  __ZNK9QTextItem1yEv
0001:001049d4  __ZNK9QTextItem5widthEv
0001:001049ec  __ZNK9QTextItem6ascentEv
0001:00104a04  __ZNK9QTextItem7descentEv
0001:00104a1c  __ZN9QTextItem8setWidthEi
0001:00104a38  __ZN9QTextItem9setAscentEi
0001:00104a54  __ZN9QTextItem10setDescentEi
0001:00104a70  __ZNK9QTextItem4fromEv
0001:00104a88  __ZNK9QTextItem6lengthEv
0001:00104acc  __ZNK9QTextItem9cursorToXEPiNS_4EdgeE
0001:00104c18  __ZNK9QTextItem9xToCursorEiNS_14CursorPositionE
0001:00104d6c  __ZNK9QTextItem13isRightToLeftEv
0001:00104d94  __ZNK9QTextItem8isObjectEv
0001:00104db0  __ZNK9QTextItem7isSpaceEv
0001:00104dcc  __ZNK9QTextItem5isTabEv
0001:00104de8  __ZN11QTextLayoutC2Ev
0001:00104df8  __ZN11QTextLayoutC1Ev
0001:00104e08  __ZN11QTextLayoutC2ERK7QStringP8QPainter
0001:00104ed0  __ZN11QTextLayoutC1ERK7QStringP8QPainter
0001:00104f98  __ZN11QTextLayoutC2ERK7QStringRK5QFont
0001:00105018  __ZN11QTextLayoutC1ERK7QStringRK5QFont
0001:00105098  __ZN11QTextLayoutD2Ev
0001:001050c4  __ZN11QTextLayoutD1Ev
0001:001050f0  __ZN11QTextLayout7setTextERK7QStringRK5QFont
0001:001051b0  __ZN11QTextLayout11setBoundaryEi
0001:00105224  __ZNK11QTextLayout8numItemsEv
0001:0010523c  __ZNK11QTextLayout6itemAtEi
0001:00105258  __ZNK11QTextLayout8findItemEi
0001:001052e8  __ZN11QTextLayout11beginLayoutENS_10LayoutModeE
0001:0010533c  __ZN11QTextLayout9beginLineEi
0001:0010535c  __ZNK11QTextLayout5atEndEv
0001:0010537c  __ZN11QTextLayout8nextItemEv
0001:001053dc  __ZN11QTextLayout11currentItemEv
0001:00105438  __ZN11QTextLayout12setLineWidthEi
0001:00105448  __ZNK11QTextLayout9lineWidthEv
0001:00105458  __ZNK11QTextLayout9widthUsedEv
0001:00105468  __ZNK11QTextLayout14availableWidthEv
0001:00105478  __ZN11QTextLayout14addCurrentItemEv
0001:001054f0  __ZN11QTextLayout7endLineEiiiPiS0_S0_S0_
0001:00105c98  __ZN11QTextLayout9endLayoutEv
0001:00105ca0  __ZNK11QTextLayout18nextCursorPositionEiNS_10CursorModeE
0001:00105d38  __ZNK11QTextLayout22previousCursorPositionEiNS_10CursorModeE
0001:00105dc0  __ZNK11QTextLayout19validCursorPositionEi
0001:00105e20* __ZTV6QGList$w$dn2qvf5F8U6C6myU0
0001:00105e4c* __ZNK6QGList5countEv$w$dn2qvf5F8U6C6myU0
Module: C:\200\trunk\src\tmp\obj\release_mt_shared\qtextengine.obj(qtextengine.obj)
0001:0010701c  __ZN16QScriptItemArray6resizeEi
0001:00106d70  __ZN11QTextEngine11bidiReorderEiPKhPi
0001:00106f9c  __ZN16QScriptItemArrayD2Ev
0001:00106fe4  __ZN16QScriptItemArray5clearEv
0001:00106fc0  __ZN16QScriptItemArrayD1Ev
0001:001070a4  __ZNK11QTextEngine5shapeEi
0001:00107234  __ZN11QTextEngineC2ERK7QStringP12QFontPrivate
0001:00107344  __ZN11QTextEngineC1ERK7QStringP12QFontPrivate
0001:00107454  __ZN11QTextEngineD2Ev
0001:001074d0  __ZN11QTextEngineD1Ev
0001:0010754c  __ZN11QTextEngine10reallocateEi
0001:001076b4  __ZN11QTextEngine10attributesEv
0001:00107aa0  __ZN11QTextEngine7itemizeEi
0001:001077d8  __ZN11QTextEngine9splitItemEii
0001:00107920  __ZNK11QTextEngine5widthEii
0001:00107b9c  __ZNK11QTextEngine11boundingBoxEii
0001:00107e38* __Z13scriptForChart$w$HmE5Dk5F8U6OKbPp2
0001:00107e00* __ZTV6QGList$w$HmE5Dk5F8U6OKbPp2
0001:00107e2c* __ZNK6QGList5countEv$w$HmE5Dk5F8U6OKbPp2
Module: C:\200\trunk\src\tmp\obj\release_mt_shared\qbuttongroup.obj(qbuttongroup.obj)
0001:00108040  __ZN12QButtonGroupC2EP7QWidgetPKc
0001:00108220  __ZN12QButtonGroup4initEv
0001:00108074  __ZN12QButtonGroupC1EP7QWidgetPKc
0001:001080a8  __ZN12QButtonGroupC2ERK7QStringP7QWidgetPKc
0001:001080dc  __ZN12QButtonGroupC1ERK7QStringP7QWidgetPKc
0001:00108110  __ZN12QButtonGroupC2EiN2Qt11OrientationEP7QWidgetPKc
0001:0010814c  __ZN12QButtonGroupC1EiN2Qt11OrientationEP7QWidgetPKc
0001:00108188  __ZN12QButtonGroupC2EiN2Qt11OrientationERK7QStringP7QWidgetPKc
0001:001081c8  __ZN12QButtonGroupC1EiN2Qt11OrientationERK7QStringP7QWidgetPKc
0001:0010828c  __ZN12QButtonGroupD2Ev
0001:0010830c  __ZN12QButtonGroupD1Ev
0001:00108398  __ZN12QButtonGroupD0Ev
0001:00108428  __ZNK12QButtonGroup11isExclusiveEv
0001:00108438  __ZN12QButtonGroup12setExclusiveEb
0001:001084c4  __ZN12QButtonGroup6insertEP7QButtoni
0001:00108f9c  __ZNK12QButtonGroup8selectedEv
0001:00108648  __ZN12QButtonGroup6removeEP7QButton
0001:00108630  __ZNK12QButtonGroup5countEv
0001:001086dc  __ZNK12QButtonGroup4findEi
0001:00108724  __ZN12QButtonGroup13buttonPressedEv
0001:00108788  __ZN12QButtonGroup14buttonReleasedEv
0001:00108808  __ZN12QButtonGroup13buttonClickedEv
0001:001088b4  __ZN12QButtonGroup13buttonToggledEb
0001:00108ad0  __ZN12QButtonGroup9setButtonEi
0001:00108b00  __ZN12QButtonGroup23setRadioButtonExclusiveEb
0001:00108b14  __ZN12QButtonGroup9moveFocusEi
0001:00109028  __ZNK12QButtonGroup10selectedIdEv
0001:00109048  __ZNK12QButtonGroup2idEP7QButton
0001:0010909c  __ZN12QButtonGroup5eventEP6QEvent
0001:00109180  __ZTV11QButtonList$w$7aD1iq5F8U6inlyy4
0001:0010838c  __ZThn40_N12QButtonGroupD1Ev$w$7aD1iq5F8U6inlyy4
0001:0010841c  __ZThn40_N12QButtonGroupD0Ev$w$7aD1iq5F8U6inlyy4
0001:0010913c  __Z7qt_castIP7QButtonET_PK7QObject$w$7aD1iq5F8U6inlyy4
0001:00109158  __Z7qt_castIP12QRadioButtonET_PK7QObject$w$7aD1iq5F8U6inlyy4
0001:0010925c  __ZNK8QPtrListI11QButtonItemE5countEv$w$7aD1iq5F8U6inlyy4
0001:00109250  __ZN8QPtrListI11QButtonItemE5clearEv$w$7aD1iq5F8U6inlyy4
0001:001091f8  __ZN11QButtonListD1Ev$w$7aD1iq5F8U6inlyy4
0001:00109220  __ZN11QButtonListD0Ev$w$7aD1iq5F8U6inlyy4
0001:00109268  __ZN8QPtrListI11QButtonItemE10deleteItemEPv$w$7aD1iq5F8U6inlyy4
0001:001091c0* __ZTV6QGList$w$7aD1iq5F8U6inlyy4
0001:001091ec* __ZNK6QGList5countEv$w$7aD1iq5F8U6inlyy4
0001:001092a0  __ZTV8QPtrListI11QButtonItemE$w$7aD1iq5F8U6inlyy4
0001:001092cc  __ZN8QPtrListI11QButtonItemED1Ev$w$7aD1iq5F8U6inlyy4
0001:001092f4  __ZN8QPtrListI11QButtonItemED0Ev$w$7aD1iq5F8U6inlyy4
Module: C:\200\trunk\src\tmp\obj\release_mt_shared\qbutton.obj(qbutton.obj)
0001:00109374  __ZN7QButton10ensureDataEv
0001:001093f0  __ZNK7QButton5groupEv
0001:00109404  __ZN7QButton8setGroupEP12QButtonGroup
0001:00109424  __ZN7QButton5timerEv
0001:00109440  __ZN7QButtonC2EP7QWidgetPKcj
0001:001094e0  __ZN7QButtonC1EP7QWidgetPKcj
0001:00109580  __ZN7QButtonD2Ev
0001:00109628  __ZN7QButtonD1Ev
0001:001096dc  __ZN7QButtonD0Ev
0001:00109798  __ZN7QButton7setTextERK7QString
0001:00109854  __ZN7QButton9setPixmapERK7QPixmap
0001:001099dc  __ZNK7QButton5accelEv
0001:00109a6c  __ZN7QButton8setAccelERK12QKeySequence
0001:00109b40  __ZN7QButton13setAutoResizeEb
0001:00109b8c  __ZN7QButton13setAutoRepeatEb
0001:00109be8  __ZN7QButton12animateClickEv
0001:00109c34  __ZN7QButton12emulateClickEv
0001:0010a43c  __ZN7QButton14animateTimeoutEv
0001:00109c70  __ZN7QButton7setDownEb
0001:00109d3c  __ZN7QButton8setStateENS_11ToggleStateE
0001:00109e10  __ZNK7QButton9hitButtonERK6QPoint
0001:00109e54  __ZN7QButton10drawButtonEP8QPainter
0001:00109e5c  __ZN7QButton15drawButtonLabelEP8QPainter
0001:00109e70  __ZN7QButton13keyPressEventEP9QKeyEvent
0001:0010a030  __ZN7QButton15keyReleaseEventEP9QKeyEvent
0001:0010a478  __ZN7QButton9nextStateEv
0001:0010a08c  __ZN7QButton15mousePressEventEP11QMouseEvent
0001:0010a190  __ZN7QButton17mouseReleaseEventEP11QMouseEvent
0001:0010a274  __ZN7QButton14mouseMoveEventEP11QMouseEvent
0001:0010a310  __ZN7QButton10paintEventEP11QPaintEvent
0001:0010a350  __ZN7QButton12focusInEventEP11QFocusEvent
0001:0010a35c  __ZN7QButton13focusOutEventEP11QFocusEvent
0001:0010a370  __ZN7QButton17autoRepeatTimeoutEv
0001:0010a638  __ZNK7QButton17isExclusiveToggleEv
0001:0010a580  __ZN7QButton13enabledChangeEb
0001:0010a5bc  __ZN7QButton6toggleEv
0001:0010a5f4  __ZN7QButton13setToggleTypeENS_10ToggleTypeE
0001:0010a69c  __Z7qt_castIP12QButtonGroupET_PK7QObject$w$jqMF1w5F8U6tvXgz2
0001:001096d0  __ZThn40_N7QButtonD1Ev$w$jqMF1w5F8U6tvXgz2
0001:0010978c  __ZThn40_N7QButtonD0Ev$w$jqMF1w5F8U6tvXgz2
0001:0010a6b8  __Z7qt_castIP11QPushButtonET_PK7QObject$w$jqMF1w5F8U6tvXgz2
0001:0010a6d4* __Z7qt_castIP12QRadioButtonET_PK7QObject$w$jqMF1w5F8U6tvXgz2
0001:0010a700* __ZTV6QGList$w$jqMF1w5F8U6tvXgz2
0001:0010a72c* __ZNK6QGList5countEv$w$jqMF1w5F8U6tvXgz2
Module: C:\200\trunk\src\tmp\obj\release_mt_shared\qdialogbuttons.obj(qdialogbuttons.obj)
0001:0010a778  __ZN14QDialogButtonsC2EP7QDialogbjN2Qt11OrientationEPKc
0001:0010a910  __ZN14QDialogButtons4initEjN2Qt11OrientationE
0001:0010a7f0  __ZN14QDialogButtonsC1EP7QDialogbjN2Qt11OrientationEPKc
0001:0010a868  __ZN14QDialogButtonsC2EP7QWidgetjN2Qt11OrientationEPKc
0001:0010a8a4  __ZN14QDialogButtonsC1EP7QWidgetjN2Qt11OrientationEPKc
0001:0010a9ec  __ZN14QDialogButtonsD2Ev
0001:0010ab04  __ZN14QDialogButtonsD1Ev
0001:0010ac28  __ZN14QDialogButtonsD0Ev
0001:0010ad58  __ZN14QDialogButtons15setQuestionModeEb
0001:0010ad6c  __ZNK14QDialogButtons12questionModeEv
0001:0010ad7c  __ZN14QDialogButtons16setButtonEnabledENS_6ButtonEb
0001:0010adf8  __ZNK14QDialogButtons15isButtonEnabledENS_6ButtonE
0001:0010ae14  __ZN14QDialogButtons16setButtonVisibleENS_6ButtonEb
0001:0010b8cc  __ZN14QDialogButtons13layoutButtonsEv
0001:0010aee0  __ZNK14QDialogButtons15isButtonVisibleENS_6ButtonE
0001:0010af10  __ZN14QDialogButtons9addWidgetEP7QWidget
0001:0010b3ec  __ZNK14QDialogButtons11orientationEv
0001:0010b104  __ZN14QDialogButtons16setDefaultButtonENS_6ButtonE
0001:0010b230  __ZNK14QDialogButtons13defaultButtonEv
0001:0010b244  __ZN14QDialogButtons13setButtonTextENS_6ButtonERK7QString
0001:0010b2fc  __ZNK14QDialogButtons10buttonTextENS_6ButtonE
0001:0010b378  __ZN14QDialogButtons14setOrientationEN2Qt11OrientationE
0001:0010b488  __ZN14QDialogButtons12createButtonENS_6ButtonE
0001:0010b74c  __ZN14QDialogButtons13handleClickedEv
0001:0010b894  __ZN14QDialogButtons11resizeEventEP12QResizeEvent
0001:0010b89c  __ZN14QDialogButtons9showEventEP10QShowEvent
0001:0010b8a4  __ZN14QDialogButtons12styleChangedER6QStyle
0001:0010bbf4  __ZNK14QDialogButtons8sizeHintEv
0001:0010bcd8  __ZNK14QDialogButtons8sizeHintENS_6ButtonE
0001:0010bd88  __ZNK14QDialogButtons15minimumSizeHintEv
0001:0010bd9c* __ZN11QMapPrivateIi7QStringEC1Ev$w$n2TfHC5F8U64RlAt4
0001:0010be30  __ZN11QMapPrivateIN14QDialogButtons6ButtonEP7QWidgetEC1Ev$w$n2TfHC5F8U64RlAt4
0001:0010bdf4* __ZN11QMapPrivateIi7QStringE5clearEv$w$n2TfHC5F8U64RlAt4
0001:0010be6c  __ZN11QMapPrivateIN14QDialogButtons6ButtonEP7QWidgetE5clearEv$w$n2TfHC5F8U64RlAt4
0001:0010ac1c  __ZThn40_N14QDialogButtonsD1Ev$w$n2TfHC5F8U64RlAt4
0001:0010ad4c  __ZThn40_N14QDialogButtonsD0Ev$w$n2TfHC5F8U64RlAt4
0001:0010bf1c  __ZNK11QMapPrivateIN14QDialogButtons6ButtonEP7QWidgetE4findERKS1_$w$n2TfHC5F8U64RlAt4
0001:0010bea8  __ZN4QMapIN14QDialogButtons6ButtonEP7QWidgetEixERKS1_$w$n2TfHC5F8U64RlAt4
0001:0010bf6c* __ZN4QMapIi7QStringEixERKi$w$n2TfHC5F8U64RlAt4
0001:0010c01c* __ZNK11QMapPrivateIi7QStringE4findERKi$w$n2TfHC5F8U64RlAt4
0001:0010c09c  __ZN12QMapIteratorIN14QDialogButtons6ButtonEP7QWidgetE3incEv$w$n2TfHC5F8U64RlAt4
0001:0010c06c  __ZN4QMapIN14QDialogButtons6ButtonEP7QWidgetE14detachInternalEv$w$n2TfHC5F8U64RlAt4
0001:0010c0e8  __ZN4QMapIN14QDialogButtons6ButtonEP7QWidgetE6insertERKS1_RKS3_b$w$n2TfHC5F8U64RlAt4
0001:0010c14c* __ZN11QMapPrivateIi7QStringE5clearEP8QMapNodeIiS0_E$w$n2TfHC5F8U64RlAt4
0001:0010c1b0  __ZN11QMapPrivateIN14QDialogButtons6ButtonEP7QWidgetE5clearEP8QMapNodeIS1_S3_E$w$n2TfHC5F8U64RlAt4
0001:0010c1ec* __ZN4QMapIi7QStringE6insertERKiRKS0_b$w$n2TfHC5F8U64RlAt4
0001:0010c258* __ZN4QMapIi7QStringE14detachInternalEv$w$n2TfHC5F8U64RlAt4
0001:0010c288  __ZN11QMapPrivateIN14QDialogButtons6ButtonEP7QWidgetEC1EPKS4_$w$n2TfHC5F8U64RlAt4
0001:0010c320  __ZN11QMapPrivateIN14QDialogButtons6ButtonEP7QWidgetE12insertSingleERKS1_$w$n2TfHC5F8U64RlAt4
0001:0010c3bc* __ZN11QMapPrivateIi7QStringE12insertSingleERKi$w$n2TfHC5F8U64RlAt4
0001:0010c458* __ZN11QMapPrivateIi7QStringEC1EPKS1_$w$n2TfHC5F8U64RlAt4
0001:0010c508  __ZN11QMapPrivateIN14QDialogButtons6ButtonEP7QWidgetE4copyEP8QMapNodeIS1_S3_E$w$n2TfHC5F8U64RlAt4
0001:0010c590  __ZN11QMapPrivateIN14QDialogButtons6ButtonEP7QWidgetE6insertEP12QMapNodeBaseS6_RKS1_$w$n2TfHC5F8U64RlAt4
0001:0010c624  __ZN12QMapIteratorIN14QDialogButtons6ButtonEP7QWidgetE3decEv$w$n2TfHC5F8U64RlAt4
0001:0010c67c* __ZN11QMapPrivateIi7QStringE6insertEP12QMapNodeBaseS3_RKi$w$n2TfHC5F8U64RlAt4
0001:0010c724* __ZN12QMapIteratorIi7QStringE3decEv$w$n2TfHC5F8U64RlAt4
0001:0010c77c* __ZN11QMapPrivateIi7QStringE4copyEP8QMapNodeIiS0_E$w$n2TfHC5F8U64RlAt4
0001:0010c840* __ZTV6QGList$w$n2TfHC5F8U64RlAt4
0001:0010c86c* __ZNK6QGList5countEv$w$n2TfHC5F8U64RlAt4
Module: C:\200\trunk\src\tmp\obj\release_mt_shared\qcheckbox.obj(qcheckbox.obj)
0001:0010c880  __ZN9QCheckBoxC2EP7QWidgetPKc
0001:0010c8cc  __ZN9QCheckBoxC1EP7QWidgetPKc
0001:0010c918  __ZN9QCheckBoxC2ERK7QStringP7QWidgetPKc
0001:0010c970  __ZN9QCheckBoxC1ERK7QStringP7QWidgetPKc
0001:0010c9c8  __ZN9QCheckBox11setNoChangeEv
0001:0010c9f0  __ZN9QCheckBox11setTristateEb
0001:0010ca14  __ZNK9QCheckBox10isTristateEv
0001:0010ca2c  __ZNK9QCheckBox8sizeHintEv
0001:0010cc24  __ZN9QCheckBox10drawButtonEP8QPainter
0001:0010d1d8  __ZN9QCheckBox15drawButtonLabelEP8QPainter
0001:0010d2cc  __ZN9QCheckBox11resizeEventEP12QResizeEvent
0001:0010d4d4  __ZN9QCheckBox10updateMaskEv
0001:0010d6e8  __ZNK9QCheckBox9hitButtonERK6QPoint
0001:0010d7d0  __ZTV12QTextOStream$w$baetUH5F8U6Arobd2
0001:0010d760* __ZTV7QBitmap$w$baetUH5F8U6Arobd2
0001:0010d858* __ZN7QBitmapD1Ev$w$baetUH5F8U6Arobd2
0001:0010d830* __ZN7QBitmapD0Ev$w$baetUH5F8U6Arobd2
0001:0010d7a0* __ZTV6QGList$w$baetUH5F8U6Arobd2
0001:0010d824* __ZNK6QGList5countEv$w$baetUH5F8U6Arobd2
0001:0010d808  __ZN12QTextOStreamD1Ev$w$baetUH5F8U6Arobd2
0001:0010d7e0  __ZN12QTextOStreamD0Ev$w$baetUH5F8U6Arobd2
Module: C:\200\trunk\src\tmp\obj\release_mt_shared\qcombobox.obj(qcombobox.obj)
0001:0010d880  __ZN18QComboBoxPopupItem5paintEP8QPainterRK11QColorGroupbbiiii
0001:0010d910  __ZN13QComboBoxData19updateLinedGeometryEv
0001:0010e270  __ZNK9QComboBox5countEv
0001:0010f2c0  __ZNK9QComboBox6pixmapEi
0001:0010da44  __ZN9QComboBoxC2EP7QWidgetPKc
0001:00113054  __ZN9QComboBox12setUpListBoxEv
0001:0010dc60  __ZN9QComboBoxC1EP7QWidgetPKc
0001:0010de7c  __ZN9QComboBoxC2EbP7QWidgetPKc
0001:00112898  __ZN9QComboBox12setSizeLimitEi
0001:00113178  __ZN9QComboBox13setUpLineEditEv
0001:0010e010  __ZN9QComboBoxC1EbP7QWidgetPKc
0001:0010e1a4  __ZN9QComboBoxD2Ev
0001:0010e1d4  __ZN9QComboBoxD1Ev
0001:0010e20c  __ZN9QComboBoxD0Ev
0001:0010e24c  __ZN9QComboBox20setDuplicatesEnabledEb
0001:0010e260  __ZNK9QComboBox17duplicatesEnabledEv
0001:0010e2a0  __ZN9QComboBox13insertStrListERK8QStrListi
0001:0010e2e0  __ZN9QComboBox13insertStrListEPK8QStrListi
0001:0010f218  __ZNK9QComboBox4textEi
0001:00111cec  __ZN9QComboBox14currentChangedEv
0001:00111c9c  __ZN9QComboBox7reIndexEv
0001:0010e4a8  __ZN9QComboBox16insertStringListERK11QStringListi
0001:0010e610  __ZN9QComboBox13insertStrListEPPKcii
0001:0010e824  __ZN9QComboBox10insertItemERK7QStringi
0001:0010e990  __ZN9QComboBox10insertItemERK7QPixmapi
0001:0010eafc  __ZN9QComboBox10insertItemERK7QPixmapRK7QStringi
0001:0010ecf0  __ZN9QComboBox10removeItemEi
0001:0010ef6c  __ZN9QComboBox5clearEv
0001:0010f0e0  __ZNK9QComboBox11currentTextEv
0001:0010f5f0  __ZNK9QComboBox11currentItemEv
0001:0010f148  __ZN9QComboBox14setCurrentTextERK7QString
0001:0010f364  __ZN9QComboBox10changeItemERK7QStringi
0001:0010f474  __ZN9QComboBox10changeItemERK7QPixmapi
0001:0010f51c  __ZN9QComboBox10changeItemERK7QPixmapRK7QStringi
0001:0010f60c  __ZN9QComboBox14setCurrentItemEi
0001:0010fc08  __ZN9QComboBox17internalHighlightEi
0001:00112e0c  __ZNK9QComboBox7listBoxEv
0001:0010f7ec  __ZNK9QComboBox10autoResizeEv
0001:0010f7fc  __ZN9QComboBox13setAutoResizeEb
0001:0010f830  __ZNK9QComboBox8sizeHintEv
0001:0010faa0  __ZN9QComboBox16internalActivateEi
0001:00111bf4  __ZN9QComboBox14popDownListBoxEv
0001:0010fc74  __ZN9QComboBox20internalClickTimeoutEv
0001:0010fc84  __ZN9QComboBox10setPaletteERK8QPalette
0001:0010fcd4  __ZN9QComboBox7setFontERK5QFont
0001:0010fd6c  __ZN9QComboBox11resizeEventEP12QResizeEvent
0001:0010fdd0  __ZN9QComboBox10paintEventEP11QPaintEvent
0001:001107f8  __ZN9QComboBox15mousePressEventEP11QMouseEvent
0001:00112f2c  __ZNK9QComboBox8editableEv
0001:00110a64  __ZN9QComboBox14mouseMoveEventEP11QMouseEvent
0001:00110a6c  __ZN9QComboBox17mouseReleaseEventEP11QMouseEvent
0001:00110a74  __ZN9QComboBox21mouseDoubleClickEventEP11QMouseEvent
0001:00110a90  __ZN9QComboBox13keyPressEventEP9QKeyEvent
0001:001126a4  __ZNK9QComboBox15completionIndexERK7QStringi
0001:00110fc4  __ZN9QComboBox12focusInEventEP11QFocusEvent
0001:00110ff0  __ZN9QComboBox13focusOutEventEP11QFocusEvent
0001:0011101c  __ZN9QComboBox10wheelEventEP11QWheelEvent
0001:00111190  __ZN9QComboBox5popupEv
0001:00111ad4  __ZN9QComboBox10updateMaskEv
0001:00111d20  __ZN9QComboBox11eventFilterEP7QObjectP6QEvent
0001:00112880  __ZNK9QComboBox9sizeLimitEv
0001:001128ac  __ZNK9QComboBox8maxCountEv
0001:001128c4  __ZN9QComboBox11setMaxCountEi
0001:00112908  __ZNK9QComboBox15insertionPolicyEv
0001:00112918  __ZN9QComboBox18setInsertionPolicyENS_6PolicyE
0001:0011292c  __ZN9QComboBox13returnPressedEv
0001:00112bb8  __ZN9QComboBox10setEnabledEb
0001:00112c24  __ZN9QComboBox12setValidatorEPK10QValidator
0001:00112c58  __ZNK9QComboBox9validatorEv
0001:00112c7c  __ZN9QComboBox14clearValidatorEv
0001:00112cbc  __ZN9QComboBox10setListBoxEP8QListBox
0001:00112e2c  __ZNK9QComboBox8lineEditEv
0001:00112e3c  __ZN9QComboBox9clearEditEv
0001:00112e6c  __ZN9QComboBox11setEditTextERK7QString
0001:00112eb0  __ZN9QComboBox17setAutoCompletionEb
0001:00112ec8  __ZNK9QComboBox14autoCompletionEv
0001:00112ed8  __ZN9QComboBox11styleChangeER6QStyle
0001:00112f44  __ZN9QComboBox11setEditableEb
0001:00113210  __ZN9QComboBox11setLineEditEP9QLineEdit
0001:00113384  __ZN9QComboBox4hideEv
0001:00113420  __ZTV14QComboBoxPopup$w$DkuW0S5F8U6aZSUf2
0001:0010e204  __ZThn40_N9QComboBoxD1Ev$w$DkuW0S5F8U6aZSUf2
0001:0010e244  __ZThn40_N9QComboBoxD0Ev$w$DkuW0S5F8U6aZSUf2
0001:001133e0  __ZTV18QComboBoxPopupItem$w$DkuW0S5F8U6aZSUf2
0001:00113680* __ZTV7QBitmap$w$DkuW0S5F8U6aZSUf2
0001:001136b0* __ZTV11QMouseEvent$w$DkuW0S5F8U6aZSUf2
0001:00113878  __ZN18QComboBoxPopupItemD1Ev$w$DkuW0S5F8U6aZSUf2
0001:00113894  __ZN18QComboBoxPopupItemD0Ev$w$DkuW0S5F8U6aZSUf2
0001:001138bc  __ZNK18QComboBoxPopupItem8fullSpanEv$w$DkuW0S5F8U6aZSUf2
0001:001138c8  __ZN18QComboBoxPopupItem8sizeHintEv$w$DkuW0S5F8U6aZSUf2
0001:0011379c  __ZNK10QPopupMenu10metaObjectEv$w$DkuW0S5F8U6aZSUf2
0001:00113838  __ZN14QComboBoxPopupD1Ev$w$DkuW0S5F8U6aZSUf2
0001:001137ec  __ZN14QComboBoxPopupD0Ev$w$DkuW0S5F8U6aZSUf2
0001:0011373c  __ZN7QWidget11setGeometryERK5QRect$w$DkuW0S5F8U6aZSUf2
0001:00113774  __ZN7QWidget9setWStateEj$w$DkuW0S5F8U6aZSUf2
0001:00113788  __ZN7QWidget9setWFlagsEj$w$DkuW0S5F8U6aZSUf2
0001:00113870  __ZThn40_N14QComboBoxPopupD1Ev$w$DkuW0S5F8U6aZSUf2
0001:00113830  __ZThn40_N14QComboBoxPopupD0Ev$w$DkuW0S5F8U6aZSUf2
0001:00113864  __ZThn140_N14QComboBoxPopupD1Ev$w$DkuW0S5F8U6aZSUf2
0001:00113824  __ZThn140_N14QComboBoxPopupD0Ev$w$DkuW0S5F8U6aZSUf2
0001:001137d0* __ZN7QBitmapD1Ev$w$DkuW0S5F8U6aZSUf2
0001:001137a8* __ZN7QBitmapD0Ev$w$DkuW0S5F8U6aZSUf2
0001:00113720* __ZN11QMouseEventD1Ev$w$DkuW0S5F8U6aZSUf2
0001:001136f8* __ZN11QMouseEventD0Ev$w$DkuW0S5F8U6aZSUf2
0001:001136c0* __ZTV6QGList$w$DkuW0S5F8U6aZSUf2
0001:001136ec* __ZNK6QGList5countEv$w$DkuW0S5F8U6aZSUf2
Module: C:\200\trunk\src\tmp\obj\release_mt_shared\qwidgetresizehandler.obj(qwidgetresizehandler.obj)
0001:00113980  __ZN20QWidgetResizeHandlerC2EP7QWidgetS1_PKc
0001:00113a4c  __ZN20QWidgetResizeHandlerC1EP7QWidgetS1_PKc
0001:00113b18  __ZN20QWidgetResizeHandler9setActiveENS_6ActionEb
0001:00113b90  __ZNK20QWidgetResizeHandler8isActiveENS_6ActionE
0001:00114afc  __ZN20QWidgetResizeHandler14setMouseCursorENS_13MousePositionE
0001:00113bf4  __ZN20QWidgetResizeHandler11eventFilterEP7QObjectP6QEvent
0001:00113fb0  __ZN20QWidgetResizeHandler14mouseMoveEventEP11QMouseEvent
0001:00114b98  __ZN20QWidgetResizeHandler13keyPressEventEP9QKeyEvent
0001:00114e50  __ZN20QWidgetResizeHandler8doResizeEv
0001:00114f9c  __ZN20QWidgetResizeHandler6doMoveEv
0001:00115074  __Z7qt_castIP6QFrameET_PK7QObject$w$vc8swX5F8U6jI2Un3
0001:00115090  __Z7qt_castIP9QSizeGripET_PK7QObject$w$vc8swX5F8U6jI2Un3
0001:001150c0* __ZTV6QGList$w$vc8swX5F8U6jI2Un3
0001:001150ec* __ZNK6QGList5countEv$w$vc8swX5F8U6jI2Un3
Module: C:\200\trunk\src\tmp\obj\release_mt_shared\qdial.obj(qdial.obj)
0001:00115100  __ZN5QDialC2EP7QWidgetPKcj
0001:001151c0  __ZN5QDialC1EP7QWidgetPKcj
0001:00115280  __ZN5QDialC2EiiiiP7QWidgetPKc
0001:00115348  __ZN5QDialC1EiiiiP7QWidgetPKc
0001:00115410  __ZN5QDialD2Ev
0001:00115474  __ZN5QDialD1Ev
0001:001154e8  __ZN5QDialD0Ev
0001:00115564  __ZN5QDial11setTrackingEb
0001:00115578  __ZNK5QDial8trackingEv
0001:0011559c  __ZN5QDial8setValueEi
0001:001155b0  __ZN5QDial7addLineEv
0001:001155c0  __ZN5QDial12subtractLineEv
0001:001155d0  __ZN5QDial11resizeEventEP12QResizeEvent
0001:00115604  __ZN5QDial10paintEventEP11QPaintEvent
0001:00115648  __ZN5QDial13repaintScreenEPK5QRect
0001:00117c00  __ZNK5QDial8calcDialEv
0001:001177c8  __ZNK5QDial9calcArrowERd
0001:001173ac  __ZNK5QDial5angleERK6QPointS2_
0001:00117d88  __ZN5QDial9calcLinesEv
0001:00117cf4  __ZNK5QDial15calcBigLineSizeEv
0001:00116f30  __ZN5QDial13keyPressEventEP9QKeyEvent
0001:001181b4  __ZNK5QDial8minValueEv
0001:001181c4  __ZNK5QDial8maxValueEv
0001:001176cc  __ZN5QDial12subtractPageEv
0001:001176bc  __ZN5QDial7addPageEv
0001:00116fe4  __ZN5QDial15mousePressEventEP11QMouseEvent
0001:00117230  __ZNK5QDial14valueFromPointERK6QPoint
0001:00117020  __ZN5QDial17mouseReleaseEventEP11QMouseEvent
0001:0011705c  __ZN5QDial14mouseMoveEventEP11QMouseEvent
0001:0011826c  __ZNK5QDial5valueEv
0001:001170c4  __ZN5QDial10wheelEventEP11QWheelEvent
0001:00117104  __ZN5QDial12focusInEventEP11QFocusEvent
0001:00117138  __ZN5QDial13focusOutEventEP11QFocusEvent
0001:0011716c  __ZN5QDial11valueChangeEv
0001:001171cc  __ZN5QDial11rangeChangeEv
0001:0011743c  __ZN5QDial11setWrappingEb
0001:00117484  __ZNK5QDial8wrappingEv
0001:001174a8  __ZNK5QDial9notchSizeEv
0001:0011820c  __ZNK5QDial8pageStepEv
0001:001181fc  __ZNK5QDial8lineStepEv
0001:0011764c  __ZN5QDial14setNotchTargetEd
0001:001176a8  __ZNK5QDial11notchTargetEv
0001:001176dc  __ZN5QDial17setNotchesVisibleEb
0001:00117718  __ZNK5QDial14notchesVisibleEv
0001:0011772c  __ZNK5QDial15minimumSizeHintEv
0001:00117748  __ZNK5QDial8sizeHintEv
0001:001181d4  __ZN5QDial11setMinValueEi
0001:001181e8  __ZN5QDial11setMaxValueEi
0001:0011821c  __ZN5QDial11setLineStepEi
0001:00118244  __ZN5QDial11setPageStepEi
0001:00118280* __ZTV11QPointArray$w$9nvcD46F8U6J8ZbE0
0001:001182a0* __ZTV9QMemArrayI6QPointE$w$9nvcD46F8U6J8ZbE0
0001:001154d8  __ZThn108_N5QDialD1Ev$w$9nvcD46F8U6J8ZbE0
0001:001154e0  __ZThn40_N5QDialD1Ev$w$9nvcD46F8U6J8ZbE0
0001:00115554  __ZThn108_N5QDialD0Ev$w$9nvcD46F8U6J8ZbE0
0001:0011555c  __ZThn40_N5QDialD0Ev$w$9nvcD46F8U6J8ZbE0
0001:001171c4  __ZThn108_N5QDial11valueChangeEv$w$9nvcD46F8U6J8ZbE0
0001:001171fc  __ZThn108_N5QDial11rangeChangeEv$w$9nvcD46F8U6J8ZbE0
0001:001182f8* __ZN11QPointArrayD1Ev$w$9nvcD46F8U6J8ZbE0
0001:00118314* __ZN11QPointArrayD0Ev$w$9nvcD46F8U6J8ZbE0
0001:00118380* __ZN9QMemArrayI6QPointE6detachEv$w$9nvcD46F8U6J8ZbE0
0001:0011833c* __ZN9QMemArrayI6QPointED1Ev$w$9nvcD46F8U6J8ZbE0
0001:00118358* __ZN9QMemArrayI6QPointED0Ev$w$9nvcD46F8U6J8ZbE0
0001:001182c0* __ZTV6QGList$w$9nvcD46F8U6J8ZbE0
0001:001182ec* __ZNK6QGList5countEv$w$9nvcD46F8U6J8ZbE0
Module: C:\200\trunk\src\tmp\obj\release_mt_shared\qdockarea.obj(qdockarea.obj)
0001:0011849c  __ZN15QDockAreaLayout11setGeometryERK5QRect
0001:0011908c  __ZN15QDockAreaLayout11layoutItemsERK5QRectb
0001:001184d0  __ZN15QDockAreaLayout8iteratorEv
0001:001184e8  __ZNK15QDockAreaLayout8sizeHintEv
0001:001186e0  __ZNK15QDockAreaLayout17hasHeightForWidthEv
0001:001186fc  __ZN15QDockAreaLayout4initEv
0001:00118724  __ZN15QDockAreaLayout10invalidateEv
0001:00118f60  __ZNK15QDockAreaLayout11minimumSizeEv
0001:00119da4  __ZNK15QDockAreaLayout14heightForWidthEi
0001:00119e20  __ZNK15QDockAreaLayout14widthForHeightEi
0001:00119e74  __ZN9QDockAreaC2EN2Qt11OrientationENS_14HandlePositionEP7QWidgetPKc
0001:00119f64  __ZN9QDockAreaC1EN2Qt11OrientationENS_14HandlePositionEP7QWidgetPKc
0001:0011a054  __ZN9QDockAreaD2Ev
0001:0011a0b4  __ZN9QDockAreaD1Ev
0001:0011a11c  __ZN9QDockAreaD0Ev
0001:0011a18c  __ZN9QDockArea14moveDockWindowEP11QDockWindowi
0001:0011c14c  __ZN9QDockArea20invalidateFixedSizesEv
0001:0011b968  __ZN9QDockArea14findDockWindowEP11QDockWindow
0001:0011b994  __ZN9QDockArea12updateLayoutEv
0001:0011a2bc  __ZN9QDockArea13hasDockWindowEP11QDockWindowPi
0001:0011a2ec  __ZN9QDockArea6lineOfEi
0001:0011a36c  __ZN9QDockArea14moveDockWindowEP11QDockWindowRK6QPointRK5QRectb
0001:0011b7a8  __ZN9QDockArea16removeDockWindowEP11QDockWindowbbb
0001:0011b9bc  __ZN9QDockArea11eventFilterEP7QObjectP6QEvent
0001:0011ba40  __ZN9QDockArea17invalidNextOffsetEP11QDockWindow
0001:0011bab0  __ZNK9QDockArea5countEv
0001:0011bac4  __ZNK9QDockArea7isEmptyEv
0001:0011bae0  __ZNK9QDockArea14dockWindowListEv
0001:0011bb08  __ZN9QDockArea6lineUpEb
0001:0011bb7c  __ZN9QDockArea14dockWindowDataEP11QDockWindow
0001:0011bd44  __ZN9QDockArea10dockWindowEP11QDockWindowPNS_14DockWindowDataE
0001:0011c078  __ZN9QDockArea20isDockWindowAcceptedEP11QDockWindow
0001:0011c100  __ZN9QDockArea19setAcceptDockWindowEP11QDockWindowb
0001:0011c1a4  __ZN9QDockArea8maxSpaceEiP11QDockWindow
0001:0011c4e8  __ZN9QDockArea14setFixedExtentEiP11QDockWindow
0001:0011c694  __ZN9QDockArea16isLastDockWindowEP11QDockWindow
0001:0011c768  __ZlsR11QTextStreamRK9QDockArea
0001:0011ceb8  __ZrsR11QTextStreamR9QDockArea
0001:001184c8  __ZThn40_N15QDockAreaLayout11setGeometryERK5QRect$w$1JIU9e6F8U6bbZcT1
0001:001184e0  __ZThn40_N15QDockAreaLayout8iteratorEv$w$1JIU9e6F8U6bbZcT1
0001:001186d4  __ZThn40_NK15QDockAreaLayout8sizeHintEv$w$1JIU9e6F8U6bbZcT1
0001:001186f4  __ZThn40_NK15QDockAreaLayout17hasHeightForWidthEv$w$1JIU9e6F8U6bbZcT1
0001:00118740  __ZThn40_N15QDockAreaLayout10invalidateEv$w$1JIU9e6F8U6bbZcT1
0001:0011d428* __Z7qt_castIP8QToolBarET_PK7QObject$w$1JIU9e6F8U6bbZcT1
0001:0011d444  __ZN10QValueListI8DockDataE14detachInternalEv$w$1JIU9e6F8U6bbZcT1
0001:00119080  __ZThn40_NK15QDockAreaLayout11minimumSizeEv$w$1JIU9e6F8U6bbZcT1
0001:0011d474  __ZN10QValueListI5QRectE5clearEv$w$1JIU9e6F8U6bbZcT1
0001:0011d4fc  __ZN17QValueListPrivateI8DockDataEC1Ev$w$1JIU9e6F8U6bbZcT1
0001:0011d58c  __ZN17QValueListPrivateI5QRectE6insertE18QValueListIteratorIS0_ERKS0_$w$1JIU9e6F8U6bbZcT1
0001:0011d4b8  __ZN10QValueListI8DockDataE5clearEv$w$1JIU9e6F8U6bbZcT1
0001:0011d624  __ZN17QValueListPrivateI8DockDataE6insertE18QValueListIteratorIS0_ERKS0_$w$1JIU9e6F8U6bbZcT1
0001:0011d5f4  __ZN10QValueListI5QRectE14detachInternalEv$w$1JIU9e6F8U6bbZcT1
0001:0011d738  __ZNK17QValueListPrivateI5QRectE2atEj$w$1JIU9e6F8U6bbZcT1
0001:0011d6cc  __ZN17QValueListPrivateI5QRectE6removeE18QValueListIteratorIS0_E$w$1JIU9e6F8U6bbZcT1
0001:0011d550  __ZN17QValueListPrivateI8DockDataED1Ev$w$1JIU9e6F8U6bbZcT1
0001:00119e18  __ZThn40_NK15QDockAreaLayout14heightForWidthEi$w$1JIU9e6F8U6bbZcT1
0001:0011da00  __ZTV8QPtrListI11QDockWindowE$w$1JIU9e6F8U6bbZcT1
0001:0011d780  __ZN17QValueListPrivateI5QRectEC1Ev$w$1JIU9e6F8U6bbZcT1
0001:0011a114  __ZThn40_N9QDockAreaD1Ev$w$1JIU9e6F8U6bbZcT1
0001:0011a184  __ZThn40_N9QDockAreaD0Ev$w$1JIU9e6F8U6bbZcT1
0001:0011d7d0  __ZN17QValueListPrivateI5QRectED1Ev$w$1JIU9e6F8U6bbZcT1
0001:0011d80c* __Z7qt_castIP11QDockWindowET_PK7QObject$w$1JIU9e6F8U6bbZcT1
0001:0011d828  __Z7qt_castIP11QMainWindowET_PK7QObject$w$1JIU9e6F8U6bbZcT1
0001:0011d844  __ZN17QValueListPrivateI8DockDataEC1ERKS1_$w$1JIU9e6F8U6bbZcT1
0001:0011d8e8  __ZN17QValueListPrivateI5QRectE5clearEv$w$1JIU9e6F8U6bbZcT1
0001:0011d924  __ZN17QValueListPrivateI8DockDataE5clearEv$w$1JIU9e6F8U6bbZcT1
0001:0011d960  __ZN17QValueListPrivateI5QRectEC1ERKS1_$w$1JIU9e6F8U6bbZcT1
0001:0011dadc  __ZNK8QPtrListI11QDockWindowE5countEv$w$1JIU9e6F8U6bbZcT1
0001:0011daa0  __ZN8QPtrListI11QDockWindowE5clearEv$w$1JIU9e6F8U6bbZcT1
0001:0011da78  __ZN8QPtrListI11QDockWindowED1Ev$w$1JIU9e6F8U6bbZcT1
0001:0011daac  __ZN8QPtrListI11QDockWindowED0Ev$w$1JIU9e6F8U6bbZcT1
0001:0011dae8  __ZN8QPtrListI11QDockWindowE10deleteItemEPv$w$1JIU9e6F8U6bbZcT1
0001:0011da40* __ZTV6QGList$w$1JIU9e6F8U6bbZcT1
0001:0011da6c* __ZNK6QGList5countEv$w$1JIU9e6F8U6bbZcT1
Module: C:\200\trunk\src\tmp\obj\release_mt_shared\qdockwindow.obj(qdockwindow.obj)
0001:0011db38  __ZN23QDockWindowResizeHandleC2EN2Qt11OrientationEP7QWidgetP11QDockWindowPKc
0001:0011dcc0  __ZN23QDockWindowResizeHandle14setOrientationEN2Qt11OrientationE
0001:0011dba8  __ZN23QDockWindowResizeHandleC1EN2Qt11OrientationEP7QWidgetP11QDockWindowPKc
0001:0011dc18  __ZNK23QDockWindowResizeHandle8sizeHintEv
0001:0011dd28  __ZN23QDockWindowResizeHandle15mousePressEventEP11QMouseEvent
0001:001228f4  __ZNK11QDockWindow12opaqueMovingEv
0001:0011e4b4  __ZN23QDockWindowResizeHandle8drawLineERK6QPoint
0001:0011e3ac  __ZN23QDockWindowResizeHandle13startLineDrawEv
0001:0011ddc0  __ZN23QDockWindowResizeHandle14mouseMoveEventEP11QMouseEvent
0001:0011e08c  __ZN23QDockWindowResizeHandle17mouseReleaseEventEP11QMouseEvent
0001:0011e47c  __ZN23QDockWindowResizeHandle11endLineDrawEv
0001:0011e2e4  __ZN23QDockWindowResizeHandle10paintEventEP11QPaintEvent
0001:00121d00  __ZNK11QDockWindow11orientationEv
0001:0011e644  __ZN17QDockWindowHandleC2EP11QDockWindow
0001:0011e720  __ZN17QDockWindowHandleC1EP11QDockWindow
0001:0011e7fc  __ZN17QDockWindowHandle10paintEventEP11QPaintEvent
0001:0011e944  __ZN17QDockWindowHandle13keyPressEventEP9QKeyEvent
0001:001209bc  __ZN11QDockWindow10handleMoveERK6QPointS2_b
0001:0011e9f0  __ZN17QDockWindowHandle15keyReleaseEventEP9QKeyEvent
0001:0011ea9c  __ZN17QDockWindowHandle15mousePressEventEP11QMouseEvent
0001:0012174c  __ZN11QDockWindow13startRectDrawERK6QPointb
0001:0011ec00  __ZN17QDockWindowHandle14mouseMoveEventEP11QMouseEvent
0001:00121210  __ZN11QDockWindow14updatePositionERK6QPoint
0001:0011ecd0  __ZN17QDockWindowHandle17mouseReleaseEventEP11QMouseEvent
0001:00121914  __ZN11QDockWindow11endRectDrawEb
0001:0011edd4  __ZN17QDockWindowHandle8minimizeEv
0001:0011ee2c  __ZN17QDockWindowHandle11resizeEventEP12QResizeEvent
0001:0011ee58  __ZN17QDockWindowHandle9updateGuiEv
0001:00121be8  __ZNK11QDockWindow14isCloseEnabledEv
0001:0011effc  __ZN17QDockWindowHandle11styleChangeER6QStyle
0001:0011f05c  __ZNK17QDockWindowHandle15minimumSizeHintEv
0001:0011f100  __ZNK17QDockWindowHandle10sizePolicyEv
0001:0011f138  __ZN17QDockWindowHandle21mouseDoubleClickEventEP11QMouseEvent
0001:00123008  __ZN17QDockWindowHandle13doubleClickedEv
0001:0011f188  __ZN19QDockWindowTitleBarC2EP11QDockWindow
0001:0011f250  __ZN19QDockWindowTitleBarC1EP11QDockWindow
0001:0011f318  __ZN19QDockWindowTitleBar13keyPressEventEP9QKeyEvent
0001:0011f3b8  __ZN19QDockWindowTitleBar15keyReleaseEventEP9QKeyEvent
0001:0011f458  __ZN19QDockWindowTitleBar15mousePressEventEP11QMouseEvent
0001:00121b68  __ZNK11QDockWindow15isResizeEnabledEv
0001:0011f5fc  __ZN19QDockWindowTitleBar14mouseMoveEventEP11QMouseEvent
0001:0011f680  __ZN19QDockWindowTitleBar17mouseReleaseEventEP11QMouseEvent
0001:0011f7ac  __ZN19QDockWindowTitleBar11resizeEventEP12QResizeEvent
0001:0011f7d4  __ZN19QDockWindowTitleBar9updateGuiEv
0001:0011f810  __ZN19QDockWindowTitleBar21mouseDoubleClickEventEP11QMouseEvent
0001:0011f82c  __ZN11QDockWindowC2EP7QWidgetPKcj
0001:0011fd58  __ZN11QDockWindow4initEv
0001:0011f8ec  __ZN11QDockWindowC1EP7QWidgetPKcj
0001:0011f9ac  __ZN11QDockWindowC2ENS_5PlaceEP7QWidgetPKcj
0001:0011fa6c  __ZN11QDockWindowC1ENS_5PlaceEP7QWidgetPKcj
0001:0011fb2c  __ZN11QDockWindowC2ENS_5PlaceEP7QWidgetPKcjb
0001:0011fc04  __ZN11QDockWindowC1ENS_5PlaceEP7QWidgetPKcjb
0001:00120de8  __ZN11QDockWindow9updateGuiEv
0001:00120354  __ZN11QDockWindow14setOrientationEN2Qt11OrientationE
0001:00121dfc  __ZN11QDockWindow9boxLayoutEv
0001:001204bc  __ZN11QDockWindowD2Ev
0001:001205ac  __ZN11QDockWindowD1Ev
0001:001206a8  __ZN11QDockWindowD0Ev
0001:001207b0  __ZN11QDockWindow11resizeEventEP12QResizeEvent
0001:001207d4  __ZN11QDockWindow8swapRectER5QRectN2Qt11OrientationERK6QPointP9QDockArea
0001:001208ac  __ZN11QDockWindow6areaAtERK6QPoint
0001:00121708  __ZN11QDockWindow9setWidgetEP7QWidget
0001:0012173c  __ZNK11QDockWindow6widgetEv
0001:001219a4  __ZN11QDockWindow9drawFrameEP8QPainter
0001:00121a64  __ZN11QDockWindow12drawContentsEP8QPainter
0001:00121af4  __ZN11QDockWindow16setResizeEnabledEb
0001:00121b40  __ZN11QDockWindow16setMovingEnabledEb
0001:00121b7c  __ZNK11QDockWindow15isMovingEnabledEv
0001:00121b94  __ZN11QDockWindow12setCloseModeEi
0001:00121c28  __ZNK11QDockWindow9closeModeEv
0001:00121c38  __ZN11QDockWindow26setHorizontallyStretchableEb
0001:00121c4c  __ZN11QDockWindow24setVerticallyStretchableEb
0001:00121c60  __ZNK11QDockWindow25isHorizontallyStretchableEv
0001:00121c94  __ZNK11QDockWindow23isVerticallyStretchableEv
0001:00121cc8  __ZNK11QDockWindow13isStretchableEv
0001:00121d60  __ZNK11QDockWindow6offsetEv
0001:00121d70  __ZN11QDockWindow9setOffsetEi
0001:00121d84  __ZNK11QDockWindow11fixedExtentEv
0001:00121d98  __ZN11QDockWindow19setFixedExtentWidthEi
0001:00121dac  __ZN11QDockWindow20setFixedExtentHeightEi
0001:00121dc0  __ZN11QDockWindow10setNewLineEb
0001:00121de4  __ZNK11QDockWindow7newLineEv
0001:00121e0c  __ZNK11QDockWindow8sizeHintEv
0001:00121f7c  __ZNK11QDockWindow11minimumSizeEv
0001:001220ec  __ZNK11QDockWindow15minimumSizeHintEv
0001:0012225c  __ZN11QDockWindow6undockEP7QWidget
0001:001225a4  __ZN11QDockWindow14removeFromDockEb
0001:001225d8  __ZN11QDockWindow4dockEv
0001:0012269c  __ZN11QDockWindow9hideEventEP10QHideEvent
0001:001226b4  __ZN11QDockWindow9showEventEP10QShowEvent
0001:00122884  __ZN11QDockWindow15setOpaqueMovingEb
0001:0012290c  __ZN11QDockWindow10setCaptionERK7QString
0001:001229a4  __ZN11QDockWindow24updateSplitterVisibilityEb
0001:00122a60  __ZN11QDockWindow11eventFilterEP7QObjectP6QEvent
0001:00122b64  __ZN11QDockWindow5eventEP6QEvent
0001:00122c1c  __ZN11QDockWindow16contextMenuEventEP17QContextMenuEvent
0001:00122c88  __ZNK23QDockWindowResizeHandle9classNameEv
0001:00122c94  __ZN23QDockWindowResizeHandle2trEPKcS1_
0001:00122cd4  __ZN23QDockWindowResizeHandle6trUtf8EPKcS1_
0001:00122d14  __ZN23QDockWindowResizeHandle16staticMetaObjectEv
0001:00122d6c  __ZN23QDockWindowResizeHandle7qt_castEPKc
0001:00122dc4  __ZN23QDockWindowResizeHandle9qt_invokeEiP8QUObject
0001:00122de0  __ZN23QDockWindowResizeHandle7qt_emitEiP8QUObject
0001:00122dfc  __ZN23QDockWindowResizeHandle11qt_propertyEiiP8QVariant
0001:00122e18  __ZN23QDockWindowResizeHandle18qt_static_propertyEP7QObjectiiP8QVariant
0001:00122e34  __ZNK17QDockWindowHandle9classNameEv
0001:00122e40  __ZN17QDockWindowHandle2trEPKcS1_
0001:00122e80  __ZN17QDockWindowHandle6trUtf8EPKcS1_
0001:00122f50  __ZN17QDockWindowHandle16staticMetaObjectEv
0001:00122fb0  __ZN17QDockWindowHandle7qt_castEPKc
0001:00123028  __ZN17QDockWindowHandle9qt_invokeEiP8QUObject
0001:00123068  __ZN17QDockWindowHandle7qt_emitEiP8QUObject
0001:001230a8  __ZN17QDockWindowHandle11qt_propertyEiiP8QVariant
0001:00123148  __ZN17QDockWindowHandle18qt_static_propertyEP7QObjectiiP8QVariant
0001:00123164  __ZNK19QDockWindowTitleBar9classNameEv
0001:00123170  __ZN19QDockWindowTitleBar2trEPKcS1_
0001:001231b0  __ZN19QDockWindowTitleBar6trUtf8EPKcS1_
0001:001231f0  __ZN19QDockWindowTitleBar16staticMetaObjectEv
0001:00123248  __ZN19QDockWindowTitleBar7qt_castEPKc
0001:001232a0  __ZN19QDockWindowTitleBar9qt_invokeEiP8QUObject
0001:001232bc  __ZN19QDockWindowTitleBar7qt_emitEiP8QUObject
0001:001232d8  __ZN19QDockWindowTitleBar11qt_propertyEiiP8QVariant
0001:001232f4  __ZN19QDockWindowTitleBar18qt_static_propertyEP7QObjectiiP8QVariant
0002:00003b70  __ZN23QDockWindowResizeHandle7metaObjE
0002:00003b74  __ZN17QDockWindowHandle7metaObjE
0002:00003b78  __ZN19QDockWindowTitleBar7metaObjE
0001:00123760  __ZTV23QDockWindowResizeHandle$w$jE7Xsp6F8U6o8uNS0
0001:00123560  __ZTV17QDockWindowHandle$w$jE7Xsp6F8U6o8uNS0
0001:001232fc* __Z7qt_castIP11QMainWindowET_PK7QObject$w$jE7Xsp6F8U6o8uNS0
0001:00123360  __ZTV19QDockWindowTitleBar$w$jE7Xsp6F8U6o8uNS0
0001:00123960  __ZTV21QDockWindowGridLayout$w$jE7Xsp6F8U6o8uNS0
0001:00123318  __Z7qt_castIP9QDockAreaET_PK7QObject$w$jE7Xsp6F8U6o8uNS0
0001:0012069c  __ZThn40_N11QDockWindowD1Ev$w$jE7Xsp6F8U6o8uNS0
0001:001207a4  __ZThn40_N11QDockWindowD0Ev$w$jE7Xsp6F8U6o8uNS0
0001:00123a58* __ZTV11QMouseEvent$w$jE7Xsp6F8U6o8uNS0
0001:00123334* __Z7qt_castIP8QToolBarET_PK7QObject$w$jE7Xsp6F8U6o8uNS0
0001:00123e08  __ZNK19QDockWindowTitleBar10metaObjectEv$w$jE7Xsp6F8U6o8uNS0
0001:00123d58  __ZN19QDockWindowTitleBarD1Ev$w$jE7Xsp6F8U6o8uNS0
0001:00123dac  __ZN19QDockWindowTitleBarD0Ev$w$jE7Xsp6F8U6o8uNS0
0001:00123bac* __ZN7QWidget11setGeometryERK5QRect$w$jE7Xsp6F8U6o8uNS0
0001:00123be4* __ZN7QWidget9setWStateEj$w$jE7Xsp6F8U6o8uNS0
0001:00123bf8* __ZN7QWidget9setWFlagsEj$w$jE7Xsp6F8U6o8uNS0
0001:00123da4  __ZThn40_N19QDockWindowTitleBarD1Ev$w$jE7Xsp6F8U6o8uNS0
0001:00123e00  __ZThn40_N19QDockWindowTitleBarD0Ev$w$jE7Xsp6F8U6o8uNS0
0001:00123d34  __ZNK17QDockWindowHandle10metaObjectEv$w$jE7Xsp6F8U6o8uNS0
0001:00123c84  __ZN17QDockWindowHandleD1Ev$w$jE7Xsp6F8U6o8uNS0
0001:00123cd8  __ZN17QDockWindowHandleD0Ev$w$jE7Xsp6F8U6o8uNS0
0001:00123d40  __ZNK17QDockWindowHandle8sizeHintEv$w$jE7Xsp6F8U6o8uNS0
0001:00123cd0  __ZThn40_N17QDockWindowHandleD1Ev$w$jE7Xsp6F8U6o8uNS0
0001:00123d2c  __ZThn40_N17QDockWindowHandleD0Ev$w$jE7Xsp6F8U6o8uNS0
0001:00123c78  __ZNK23QDockWindowResizeHandle10metaObjectEv$w$jE7Xsp6F8U6o8uNS0
0001:00123c18  __ZN23QDockWindowResizeHandleD1Ev$w$jE7Xsp6F8U6o8uNS0
0001:00123c44  __ZN23QDockWindowResizeHandleD0Ev$w$jE7Xsp6F8U6o8uNS0
0001:00123c3c  __ZThn40_N23QDockWindowResizeHandleD1Ev$w$jE7Xsp6F8U6o8uNS0
0001:00123c70  __ZThn40_N23QDockWindowResizeHandleD0Ev$w$jE7Xsp6F8U6o8uNS0
0001:00123c0c  __ZNK11QGridLayout10metaObjectEv$w$jE7Xsp6F8U6o8uNS0
0001:00123e14  __ZN21QDockWindowGridLayoutD1Ev$w$jE7Xsp6F8U6o8uNS0
0001:00123e40  __ZN21QDockWindowGridLayoutD0Ev$w$jE7Xsp6F8U6o8uNS0
0001:00123e74  __ZNK21QDockWindowGridLayout9expandingEv$w$jE7Xsp6F8U6o8uNS0
0001:00123e38  __ZThn40_N21QDockWindowGridLayoutD1Ev$w$jE7Xsp6F8U6o8uNS0
0001:00123e6c  __ZThn40_N21QDockWindowGridLayoutD0Ev$w$jE7Xsp6F8U6o8uNS0
0001:00123e7c  __ZThn40_NK21QDockWindowGridLayout9expandingEv$w$jE7Xsp6F8U6o8uNS0
0001:00123b90* __ZN11QMouseEventD1Ev$w$jE7Xsp6F8U6o8uNS0
0001:00123b68* __ZN11QMouseEventD0Ev$w$jE7Xsp6F8U6o8uNS0
0001:00123a80* __ZTV6QGList$w$jE7Xsp6F8U6o8uNS0
0001:00123b5c* __ZNK6QGList5countEv$w$jE7Xsp6F8U6o8uNS0
Module: C:\200\trunk\src\tmp\obj\release_mt_shared\qframe.obj(qframe.obj)
0001:00123ec0  __ZN6QFrameC2EP7QWidgetPKcj
0001:00124100  __ZN6QFrame16updateFrameWidthEb
0001:00123f68  __ZN6QFrameC1EP7QWidgetPKcj
0001:00124010  __ZN6QFrame13setFrameStyleEi
0001:001240ac  __ZN6QFrame12setLineWidthEi
0001:001240c8  __ZN6QFrame15setMidLineWidthEi
0001:001240e4  __ZN6QFrame9setMarginEi
0001:001242b4  __ZNK6QFrame9frameRectEv
0001:0012431c  __ZN6QFrame12setFrameRectERK5QRect
0001:00124398  __ZNK6QFrame12contentsRectEv
0001:0012447c  __ZNK6QFrame8sizeHintEv
0001:001244d0  __ZN6QFrame10paintEventEP11QPaintEvent
0001:00124760  __ZN6QFrame11resizeEventEP12QResizeEvent
0001:0012480c  __ZN6QFrame9drawFrameEP8QPainter
0001:00124fa4  __ZN6QFrame12drawContentsEP8QPainter
0001:00124fac  __ZN6QFrame12frameChangedEv
0001:00124fcc  __ZN6QFrame11styleChangeER6QStyle
0001:00125000* __ZTV6QGList$w$Hwhb9u6F8U6ElDoL3
0001:0012502c* __ZNK6QGList5countEv$w$Hwhb9u6F8U6ElDoL3
Module: C:\200\trunk\src\tmp\obj\release_mt_shared\qgrid.obj(qgrid.obj)
0001:00125040  __ZN5QGridC2EiN2Qt11OrientationEP7QWidgetPKcj
0001:001250cc  __ZN5QGridC1EiN2Qt11OrientationEP7QWidgetPKcj
0001:00125158  __ZN5QGridC2EiP7QWidgetPKcj
0001:001251c4  __ZN5QGridC1EiP7QWidgetPKcj
0001:00125230  __ZN5QGrid10setSpacingEi
0001:00125254  __ZN5QGrid12frameChangedEv
0001:0012527c  __ZNK5QGrid8sizeHintEv
0001:001252a0* __ZTV6QGList$w$ZxLywy6F8U6d4KLc3
0001:001252cc* __ZNK6QGList5countEv$w$ZxLywy6F8U6d4KLc3
Module: C:\200\trunk\src\tmp\obj\release_mt_shared\qgridview.obj(qgridview.obj)
0001:001252e0  __ZN9QGridViewC2EP7QWidgetPKcj
0001:00125370  __ZN9QGridViewC1EP7QWidgetPKcj
0001:00125400  __ZN9QGridViewD2Ev
0001:00125424  __ZN9QGridViewD1Ev
0001:00125450  __ZN9QGridViewD0Ev
0001:00125484  __ZN9QGridView10updateGridEv
0001:001254b8  __ZN9QGridView10setNumRowsEi
0001:001254f0  __ZN9QGridView10setNumColsEi
0001:00125528  __ZN9QGridView12setCellWidthEi
0001:00125550  __ZN9QGridView13setCellHeightEi
0001:00125578  __ZN9QGridView12cellGeometryEii
0001:001255f4  __ZN9QGridView11repaintCellEiib
0001:0012562c  __ZN9QGridView10updateCellEii
0001:0012565c  __ZN9QGridView17ensureCellVisibleEii
0001:001256a0  __ZN9QGridView14paintEmptyAreaEP8QPainteriiii
0001:001258e8  __ZN9QGridView12drawContentsEP8QPainteriiii
0001:00125a80  __ZN9QGridView12drawContentsEP8QPainter
0001:00125a88  __ZN9QGridView15dimensionChangeEii
0001:00125448  __ZThn40_N9QGridViewD1Ev$w$LgQf2D6F8U60oaFB0
0001:0012547c  __ZThn40_N9QGridViewD0Ev$w$LgQf2D6F8U60oaFB0
0001:00125a90* __ZTV9QMemArrayI5QRectE$w$LgQf2D6F8U60oaFB0
0001:00125af8* __ZN9QMemArrayI5QRectED1Ev$w$LgQf2D6F8U60oaFB0
0001:00125b14* __ZN9QMemArrayI5QRectED0Ev$w$LgQf2D6F8U60oaFB0
0001:00125b3c* __ZN9QMemArrayI5QRectE6detachEv$w$LgQf2D6F8U60oaFB0
0001:00125ac0* __ZTV6QGList$w$LgQf2D6F8U60oaFB0
0001:00125aec* __ZNK6QGList5countEv$w$LgQf2D6F8U60oaFB0
Module: C:\200\trunk\src\tmp\obj\release_mt_shared\qgroupbox.obj(qgroupbox.obj)
0001:00125b60  __ZN9QGroupBoxC2EP7QWidgetPKc
0001:00125fa0  __ZN9QGroupBox4initEv
0001:00125bb0  __ZN9QGroupBoxC1EP7QWidgetPKc
0001:00125c00  __ZN9QGroupBoxC2ERK7QStringP7QWidgetPKc
0001:00126388  __ZN9QGroupBox8setTitleERK7QString
0001:00125c5c  __ZN9QGroupBoxC1ERK7QStringP7QWidgetPKc
0001:00125cb8  __ZN9QGroupBoxC2EiN2Qt11OrientationEP7QWidgetPKc
0001:00126ccc  __ZN9QGroupBox15setColumnLayoutEiN2Qt11OrientationE
0001:00125d18  __ZN9QGroupBoxC1EiN2Qt11OrientationEP7QWidgetPKc
0001:00125d78  __ZN9QGroupBoxC2EiN2Qt11OrientationERK7QStringP7QWidgetPKc
0001:00125de4  __ZN9QGroupBoxC1EiN2Qt11OrientationERK7QStringP7QWidgetPKc
0001:00125e50  __ZN9QGroupBoxD2Ev
0001:00125eb8  __ZN9QGroupBoxD1Ev
0001:00125f28  __ZN9QGroupBoxD0Ev
0001:0012604c  __ZN9QGroupBox13setTextSpacerEv
0001:00127a38  __ZNK9QGroupBox11isCheckableEv
0001:00127234  __ZN9QGroupBox14calculateFrameEv
0001:00127bb4  __ZN9QGroupBox22updateCheckBoxGeometryEv
0001:001264dc  __ZN9QGroupBox12setAlignmentEi
0001:00126504  __ZN9QGroupBox11resizeEventEP12QResizeEvent
0001:00126554  __ZN9QGroupBox10paintEventEP11QPaintEvent
0001:00126aa8  __ZN9QGroupBox8addSpaceEi
0001:00127088  __ZN9QGroupBox4skipEv
0001:00126bd0  __ZNK9QGroupBox7columnsEv
0001:00126bf0  __ZN9QGroupBox10setColumnsEi
0001:00126c10  __ZNK9QGroupBox12insideMarginEv
0001:00126c20  __ZNK9QGroupBox13insideSpacingEv
0001:00126c30  __ZN9QGroupBox15setInsideMarginEi
0001:00126c68  __ZN9QGroupBox16setInsideSpacingEi
0001:00126ca0  __ZN9QGroupBox14setOrientationEN2Qt11OrientationE
0001:00126fc4  __ZN9QGroupBox9insertWidEP7QWidget
0001:00126ef4  __ZN9QGroupBox5eventEP6QEvent
0001:00126f34  __ZN9QGroupBox10childEventEP11QChildEvent
0001:00127130  __ZN9QGroupBox8fixFocusEv
0001:00127518  __ZN9QGroupBox12focusInEventEP11QFocusEvent
0001:00127524  __ZN9QGroupBox10fontChangeERK5QFont
0001:00127558  __ZNK9QGroupBox8sizeHintEv
0001:00127848  __ZNK9QGroupBox6isFlatEv
0001:0012785c  __ZN9QGroupBox7setFlatEb
0001:001278dc  __ZN9QGroupBox12setCheckableEb
0001:00127a78  __ZN9QGroupBox10setCheckedEb
0001:00127ab0  __ZN9QGroupBox18setChildrenEnabledEb
0001:00127a54  __ZNK9QGroupBox9isCheckedEv
0001:00127b60  __ZN9QGroupBox10setEnabledEb
0001:00125f20  __ZThn40_N9QGroupBoxD1Ev$w$F5qQ4K6F8U6VO4SU1
0001:00125f98  __ZThn40_N9QGroupBoxD0Ev$w$F5qQ4K6F8U6VO4SU1
0001:00127d64* __Z7qt_castIP12QRadioButtonET_PK7QObject$w$F5qQ4K6F8U6VO4SU1
0001:00127d80* __ZTV6QGList$w$F5qQ4K6F8U6VO4SU1
0001:00127dac* __ZNK6QGList5countEv$w$F5qQ4K6F8U6VO4SU1
Module: C:\200\trunk\src\tmp\obj\release_mt_shared\qhbuttongroup.obj(qhbuttongroup.obj)
0001:00127dc0  __ZN13QHButtonGroupC2EP7QWidgetPKc
0001:00127df0  __ZN13QHButtonGroupC1EP7QWidgetPKc
0001:00127e20  __ZN13QHButtonGroupC2ERK7QStringP7QWidgetPKc
0001:00127e54  __ZN13QHButtonGroupC1ERK7QStringP7QWidgetPKc
0001:00127e88  __ZN13QHButtonGroupD2Ev
0001:00127eac  __ZN13QHButtonGroupD1Ev
0001:00127ed8  __ZN13QHButtonGroupD0Ev
0001:00127ed0  __ZThn40_N13QHButtonGroupD1Ev$w$b8bk6O6F8U6yLTEp0
0001:00127f04  __ZThn40_N13QHButtonGroupD0Ev$w$b8bk6O6F8U6yLTEp0
0001:00127f20* __ZTV6QGList$w$b8bk6O6F8U6yLTEp0
0001:00127f4c* __ZNK6QGList5countEv$w$b8bk6O6F8U6yLTEp0
Module: C:\200\trunk\src\tmp\obj\release_mt_shared\qheader.obj(qheader.obj)
0001:00127f60  __ZN7QHeaderC2EP7QWidgetPKc
0001:0012847c  __ZN7QHeader4initEi
0001:00127fa4  __ZN7QHeaderC1EP7QWidgetPKc
0001:00127fe8  __ZN7QHeaderC2EiP7QWidgetPKc
0001:0012802c  __ZN7QHeaderC1EiP7QWidgetPKc
0001:00128070  __ZN7QHeaderD2Ev
0001:00128164  __ZN7QHeaderD1Ev
0001:00128264  __ZN7QHeaderD0Ev
0001:00128368  __ZN7QHeader9showEventEP10QShowEvent
0001:0012d488  __ZN7QHeader18calculatePositionsEbi
0001:00128394  __ZNK7QHeader7cellPosEi
0001:00128468  __ZNK7QHeader5countEv
0001:0012cb7c  __ZNK7QHeader12mapToSectionEi
0001:0012ca8c  __ZNK7QHeader10sectionPosEi
0001:0012d100  __ZNK7QHeader7reverseEv
0001:0012853c  __ZN7QHeader14setOrientationEN2Qt11OrientationE
0001:0012859c  __ZN7QHeader9paintRectEii
0001:00128670  __ZN7QHeader8markLineEi
0001:0012ba94  __ZNK7QHeader4pPosEi
0001:00128828  __ZN7QHeader10unMarkLineEi
0001:001288c0  __ZN7QHeader8findLineEi
0001:0012cb38  __ZNK7QHeader9sectionAtEi
0001:0012bb20  __ZNK7QHeader5pSizeEi
0001:00128a28  __ZN7QHeader8handleAtEi
0001:00128c94  __ZN7QHeader8moveCellEii
0001:0012cc3c  __ZN7QHeader11moveSectionEii
0001:00128cbc  __ZN7QHeader16handleColumnMoveEii
0001:0012a04c  __ZN7QHeader5sRectEi
0001:00128d94  __ZN7QHeader13keyPressEventEP9QKeyEvent
0001:00129cb4  __ZN7QHeader18handleColumnResizeEiibb
0001:001290fc  __ZN7QHeader15keyReleaseEventEP9QKeyEvent
0001:001291c8  __ZN7QHeader15mousePressEventEP11QMouseEvent
0001:0012b994  __ZNK7QHeader6offsetEv
0001:00129704  __ZN7QHeader17mouseReleaseEventEP11QMouseEvent
0001:00129a2c  __ZN7QHeader14mouseMoveEventEP11QMouseEvent
0001:00129c40  __ZN7QHeader21mouseDoubleClickEventEP11QMouseEvent
0001:0012d1cc  __ZN7QHeader16adjustHeaderSizeEi
0001:0012a3dc  __ZNK7QHeader11sectionRectEi
0001:0012cbdc  __ZNK7QHeader10mapToIndexEi
0001:0012a678  __ZN7QHeader8setLabelEiRK8QIconSetRK7QStringi
0001:0012a6ec  __ZN7QHeader8setLabelEiRK7QStringi
0001:0012b104  __ZN7QHeader23setSectionSizeAndHeightEii
0001:0012a7b4  __ZNK7QHeader5labelEi
0001:0012a860  __ZNK7QHeader7iconSetEi
0001:0012a8b0  __ZN7QHeader8addLabelERK8QIconSetRK7QStringi
0001:0012b240  __ZN7QHeader8addLabelERK7QStringi
0001:0012a93c  __ZN7QHeader11removeLabelEi
0001:0012adf0  __ZNK7QHeader15sectionSizeHintEiRK12QFontMetrics
0001:0012b590  __ZN7QHeader12resizeArraysEi
0001:0012b63c  __ZN7QHeader17setIsATableHeaderEb
0001:0012b660  __ZNK7QHeader8sizeHintEv
0001:0012b9d0  __ZN7QHeader9setOffsetEi
0001:0012bb84  __ZNK7QHeader12mapToLogicalEi
0001:0012bb90  __ZNK7QHeader11mapToActualEi
0001:0012bb9c  __ZN7QHeader11setCellSizeEii
0001:0012bc24  __ZN7QHeader16setResizeEnabledEbi
0001:0012bcc8  __ZN7QHeader16setMovingEnabledEb
0001:0012bce8  __ZN7QHeader15setClickEnabledEbi
0001:0012bd88  __ZN7QHeader12paintSectionEP8QPainteriRK5QRect
0001:0012ca34  __ZNK7QHeader11sectionSizeEi
0001:0012cf4c  __ZNK7QHeader14isClickEnabledEi
0001:0012c370  __ZN7QHeader17paintSectionLabelEP8QPainteriRK5QRect
0001:0012c6cc  __ZN7QHeader10paintEventEP11QPaintEvent
0001:0012c9a0  __ZN7QHeader16setSortIndicatorEib
0001:0012c9e0  __ZNK7QHeader20sortIndicatorSectionEv
0001:0012c9f4  __ZNK7QHeader18sortIndicatorOrderEv
0001:0012ca0c  __ZN7QHeader13resizeSectionEii
0001:0012d000  __ZNK7QHeader15isResizeEnabledEi
0001:0012d0b4  __ZNK7QHeader15isMovingEnabledEv
0001:0012d0cc  __ZN7QHeader17setUpdatesEnabledEb
0001:0012d108  __ZN7QHeader11resizeEventEP12QResizeEvent
0001:0012d448  __ZNK7QHeader11headerWidthEv
0001:0012d63c  __ZN7QHeader17setStretchEnabledEbi
0001:0012d674  __ZNK7QHeader16isStretchEnabledEv
0001:0012d68c  __ZNK7QHeader16isStretchEnabledEi
0001:0012d6a8  __ZN7QHeader10fontChangeERK5QFont
0002:00003bc0  _qt_qheader_label_return_null_strings
0001:0012d810* __ZTV9QMemArrayIcE$w$Rxn7rX6F8U68Sjil4
0001:0012d7b0* __ZTV9QMemArrayIiE$w$Rxn7rX6F8U68Sjil4
0001:0012d740  __ZTV10QPtrVectorI8QIconSetE$w$Rxn7rX6F8U68Sjil4
0001:0012d780  __ZTV10QPtrVectorI7QStringE$w$Rxn7rX6F8U68Sjil4
0001:00128258  __ZThn40_N7QHeaderD1Ev$w$Rxn7rX6F8U68Sjil4
0001:0012835c  __ZThn40_N7QHeaderD0Ev$w$Rxn7rX6F8U68Sjil4
0001:0012d8c0  __ZN11QHeaderDataC1Ei$w$Rxn7rX6F8U68Sjil4
0001:0012db60  __ZN11QHeaderData9sectionAtEi$w$Rxn7rX6F8U68Sjil4
0001:0012ddac  __ZNK10QPtrVectorI8QIconSetE5countEv$w$Rxn7rX6F8U68Sjil4
0001:0012dd48  __ZN10QPtrVectorI8QIconSetE5clearEv$w$Rxn7rX6F8U68Sjil4
0001:0012d898  __ZN10QPtrVectorI8QIconSetED1Ev$w$Rxn7rX6F8U68Sjil4
0001:0012dd54  __ZN10QPtrVectorI8QIconSetED0Ev$w$Rxn7rX6F8U68Sjil4
0001:0012ddb8  __ZN10QPtrVectorI8QIconSetE10deleteItemEPv$w$Rxn7rX6F8U68Sjil4
0001:0012dde0  __ZNK10QPtrVectorI7QStringE5countEv$w$Rxn7rX6F8U68Sjil4
0001:0012dd0c  __ZN10QPtrVectorI7QStringE5clearEv$w$Rxn7rX6F8U68Sjil4
0001:0012d870  __ZN10QPtrVectorI7QStringED1Ev$w$Rxn7rX6F8U68Sjil4
0001:0012dd18  __ZN10QPtrVectorI7QStringED0Ev$w$Rxn7rX6F8U68Sjil4
0001:0012ddec  __ZN10QPtrVectorI7QStringE10deleteItemEPv$w$Rxn7rX6F8U68Sjil4
0001:0012d854* __ZN9QMemArrayIiED1Ev$w$Rxn7rX6F8U68Sjil4
0001:0012dce4* __ZN9QMemArrayIiED0Ev$w$Rxn7rX6F8U68Sjil4
0001:0012de38* __ZN9QMemArrayIiE6detachEv$w$Rxn7rX6F8U68Sjil4
0001:0012d7e0* __ZTV6QGList$w$Rxn7rX6F8U68Sjil4
0001:0012d848* __ZNK6QGList5countEv$w$Rxn7rX6F8U68Sjil4
0001:0012d82c* __ZN9QMemArrayIcED1Ev$w$Rxn7rX6F8U68Sjil4
0001:0012dd84* __ZN9QMemArrayIcED0Ev$w$Rxn7rX6F8U68Sjil4
0001:0012de50* __ZN9QMemArrayIcE6detachEv$w$Rxn7rX6F8U68Sjil4
Module: C:\200\trunk\src\tmp\obj\release_mt_shared\qhgroupbox.obj(qhgroupbox.obj)
0001:0012de80  __ZN10QHGroupBoxC2EP7QWidgetPKc
0001:0012deb0  __ZN10QHGroupBoxC1EP7QWidgetPKc
0001:0012dee0  __ZN10QHGroupBoxC2ERK7QStringP7QWidgetPKc
0001:0012df14  __ZN10QHGroupBoxC1ERK7QStringP7QWidgetPKc
0001:0012df48  __ZN10QHGroupBoxD2Ev
0001:0012df6c  __ZN10QHGroupBoxD1Ev
0001:0012df98  __ZN10QHGroupBoxD0Ev
0001:0012df90  __ZThn40_N10QHGroupBoxD1Ev$w$vw4Dd17F8U6FKoOQ1
0001:0012dfc4  __ZThn40_N10QHGroupBoxD0Ev$w$vw4Dd17F8U6FKoOQ1
0001:0012dfe0* __ZTV6QGList$w$vw4Dd17F8U6FKoOQ1
0001:0012e00c* __ZNK6QGList5countEv$w$vw4Dd17F8U6FKoOQ1
Module: C:\200\trunk\src\tmp\obj\release_mt_shared\qhbox.obj(qhbox.obj)
0001:0012e020  __ZN5QHBoxC2EP7QWidgetPKcj
0001:0012e08c  __ZN5QHBoxC1EP7QWidgetPKcj
0001:0012e0f8  __ZN5QHBoxC2EbP7QWidgetPKcj
0001:0012e178  __ZN5QHBoxC1EbP7QWidgetPKcj
0001:0012e1f8  __ZN5QHBox12frameChangedEv
0001:0012e220  __ZN5QHBox10setSpacingEi
0001:0012e244  __ZNK5QHBox8sizeHintEv
0001:0012e264  __ZN5QHBox16setStretchFactorEP7QWidgeti
0001:0012e2a0* __ZTV6QGList$w$HsdWH57F8U6cC2L04
0001:0012e2cc* __ZNK6QGList5countEv$w$HsdWH57F8U6cC2L04
Module: C:\200\trunk\src\tmp\obj\release_mt_shared\qlabel.obj(qlabel.obj)
0001:0012e2e0  __ZN6QLabelC2EP7QWidgetPKcj
0001:0012e6a0  __ZN6QLabel4initEv
0001:0012e338  __ZN6QLabelC1EP7QWidgetPKcj
0001:0012e390  __ZN6QLabelC2ERK7QStringP7QWidgetPKcj
0001:0012e7c0  __ZN6QLabel7setTextERK7QString
0001:0012e3f4  __ZN6QLabelC1ERK7QStringP7QWidgetPKcj
0001:0012e458  __ZN6QLabelC2EP7QWidgetRK7QStringS1_PKcj
0001:001302b0  __ZN6QLabel8setBuddyEP7QWidget
0001:0012e4c8  __ZN6QLabelC1EP7QWidgetRK7QStringS1_PKcj
0001:0012e538  __ZN6QLabelD2Ev
0001:001306c8  __ZN6QLabel13clearContentsEv
0001:0012e5a8  __ZN6QLabelD1Ev
0001:0012e620  __ZN6QLabelD0Ev
0001:001300f0  __ZN6QLabel11updateLabelE5QSize
0001:0012ea04  __ZN6QLabel5clearEv
0001:0012ea58  __ZN6QLabel9setPixmapERK7QPixmap
0001:0012eafc  __ZN6QLabel10setPictureERK8QPicture
0001:0012eb58  __ZN6QLabel6setNumEi
0001:0012ebc4  __ZN6QLabel6setNumEd
0001:0012ec3c  __ZN6QLabel12setAlignmentEi
0001:0012ed10  __ZN6QLabel9setIndentEi
0001:0012ed44  __ZN6QLabel13setAutoResizeEb
0001:0012ed90  __ZNK6QLabel12sizeForWidthEi
0001:00130858  __ZNK6QLabel5movieEv
0001:0012f350  __ZNK6QLabel14heightForWidthEi
0001:0012f394  __ZNK6QLabel8sizeHintEv
0001:0012f3cc  __ZNK6QLabel15minimumSizeHintEv
0001:0012f534  __ZN6QLabel11resizeEventEP12QResizeEvent
0001:0012f954  __ZN6QLabel12drawContentsEP8QPainter
0001:00130204  __ZN6QLabel15acceleratorSlotEv
0001:00130284  __ZN6QLabel9buddyDiedEv
0001:0013041c  __ZNK6QLabel5buddyEv
0001:0013042c  __ZN6QLabel12movieUpdatedERK5QRect
0001:00130584  __ZN6QLabel12movieResizedERK5QSize
0001:00130630  __ZN6QLabel8setMovieERK6QMovie
0001:00130868  __ZNK6QLabel10textFormatEv
0001:00130878  __ZN6QLabel13setTextFormatEN2Qt10TextFormatE
0001:00130900  __ZN6QLabel10fontChangeERK5QFont
0001:00130978  __ZNK6QLabel17hasScaledContentsEv
0001:0013098c  __ZN6QLabel17setScaledContentsEb
0001:00130a48  __ZN6QLabel7setFontERK5QFont
0001:0012e618  __ZThn40_N6QLabelD1Ev$w$rWAYhc7F8U6B3Ktl0
0001:0012e698  __ZThn40_N6QLabelD0Ev$w$rWAYhc7F8U6B3Ktl0
0001:00130a60* __ZTV6QGList$w$rWAYhc7F8U6B3Ktl0
0001:00130a8c* __ZNK6QGList5countEv$w$rWAYhc7F8U6B3Ktl0
Module: C:\200\trunk\src\tmp\obj\release_mt_shared\qlcdnumber.obj(qlcdnumber.obj)
0001:0013135c  __ZN10QLCDNumberC2EP7QWidgetPKc
0001:001314fc  __ZN10QLCDNumber4initEv
0001:001313c4  __ZN10QLCDNumberC1EP7QWidgetPKc
0001:0013142c  __ZN10QLCDNumberC2EjP7QWidgetPKc
0001:00131494  __ZN10QLCDNumberC1EjP7QWidgetPKc
0001:00131578  __ZN10QLCDNumberD2Ev
0001:001315ec  __ZN10QLCDNumberD1Ev
0001:00131668  __ZN10QLCDNumberD0Ev
0001:00131764  __ZN10QLCDNumber12setNumDigitsEi
0001:00131ba4  __ZNK10QLCDNumber5valueEv
0001:00131bb4  __ZN10QLCDNumber7displayEd
0001:00131aa8  __ZNK10QLCDNumber13checkOverflowEi
0001:00131b00  __ZNK10QLCDNumber13checkOverflowEd
0001:00131b58  __ZNK10QLCDNumber4modeEv
0001:00131b6c  __ZN10QLCDNumber7setModeENS_4ModeE
0001:00131e40  __ZN10QLCDNumber17internalSetStringERK7QString
0001:00131c40  __ZNK10QLCDNumber8intValueEv
0001:00131c88  __ZN10QLCDNumber7displayEi
0001:00131d0c  __ZN10QLCDNumber7displayERK7QString
0001:00131d60  __ZN10QLCDNumber10setHexModeEv
0001:00131d7c  __ZN10QLCDNumber10setDecModeEv
0001:00131d98  __ZN10QLCDNumber10setOctModeEv
0001:00131db4  __ZN10QLCDNumber10setBinModeEv
0001:00131dd0  __ZN10QLCDNumber20setSmallDecimalPointEb
0001:00131df4  __ZN10QLCDNumber12drawContentsEP8QPainter
0001:00132624  __ZN10QLCDNumber10drawStringERK7QStringR8QPainterP9QBitArrayb
0001:00131e38  __ZN10QLCDNumber15internalDisplayERK7QString
0001:00132930  __ZN10QLCDNumber9drawDigitERK6QPointR8QPaintericc
0001:00132ad8  __ZN10QLCDNumber11drawSegmentERK6QPointcR8QPainterib
0001:0013423c  __ZN10QLCDNumber15setSegmentStyleENS_12SegmentStyleE
0001:001342b8  __ZNK10QLCDNumber12segmentStyleEv
0001:00134308  __ZNK10QLCDNumber8sizeHintEv
0001:001343d0* __ZTV9QMemArrayIcE$w$xpiwPi7F8U6XmHqh3
0001:00131660  __ZThn40_N10QLCDNumberD1Ev$w$xpiwPi7F8U6XmHqh3
0001:001316e4  __ZThn40_N10QLCDNumberD0Ev$w$xpiwPi7F8U6XmHqh3
0001:00134348* __ZTV11QPointArray$w$xpiwPi7F8U6XmHqh3
0001:00134368* __ZTV9QMemArrayI6QPointE$w$xpiwPi7F8U6XmHqh3
0001:00134414* __ZN11QPointArrayD1Ev$w$xpiwPi7F8U6XmHqh3
0001:00134430* __ZN11QPointArrayD0Ev$w$xpiwPi7F8U6XmHqh3
0001:001344c4* __ZN9QMemArrayI6QPointE6detachEv$w$xpiwPi7F8U6XmHqh3
0001:00134480* __ZN9QMemArrayI6QPointED1Ev$w$xpiwPi7F8U6XmHqh3
0001:0013449c* __ZN9QMemArrayI6QPointED0Ev$w$xpiwPi7F8U6XmHqh3
0001:001343a0* __ZTV6QGList$w$xpiwPi7F8U6XmHqh3
0001:00134408* __ZNK6QGList5countEv$w$xpiwPi7F8U6XmHqh3
0001:001343ec* __ZN9QMemArrayIcED1Ev$w$xpiwPi7F8U6XmHqh3
0001:00134458* __ZN9QMemArrayIcED0Ev$w$xpiwPi7F8U6XmHqh3
0001:001344dc* __ZN9QMemArrayIcE6detachEv$w$xpiwPi7F8U6XmHqh3
Module: C:\200\trunk\src\tmp\obj\release_mt_shared\qlineedit.obj(qlineedit.obj)
0001:00134500  __ZN9QLineEditC2EP7QWidgetPKc
0001:00139604  __ZN16QLineEditPrivate4initERK7QString
0001:00134560  __ZN9QLineEditC1EP7QWidgetPKc
0001:001345c0  __ZN9QLineEditC2ERK7QStringP7QWidgetPKc
0001:00134620  __ZN9QLineEditC1ERK7QStringP7QWidgetPKc
0001:00134680  __ZN9QLineEditC2ERK7QStringS2_P7QWidgetPKc
0001:0013af00  __ZN16QLineEditPrivate14parseInputMaskERK7QString
0001:0013b990  __ZNK16QLineEditPrivate10maskStringEjRK7QStringb
0001:0013bfb0  __ZNK16QLineEditPrivate11clearStringEjj
0001:0013c1b8  __ZNK16QLineEditPrivate10findInMaskEibb5QChar
0001:0013483c  __ZN9QLineEditC1ERK7QStringS2_P7QWidgetPKc
0001:001349f8  __ZN9QLineEditD2Ev
0001:00134acc  __ZN9QLineEditD1Ev
0001:00134bac  __ZN9QLineEditD0Ev
0001:00134c94  __ZNK9QLineEdit4textEv
0001:0013c07c  __ZNK16QLineEditPrivate11stripStringERK7QString
0001:00134cf8  __ZN9QLineEdit7setTextERK7QString
0001:0013a074  __ZN16QLineEditPrivate7setTextERK7QString
0001:00139d30  __ZN16QLineEditPrivate12finishChangeEib
0001:00134d3c  __ZNK9QLineEdit11displayTextEv
0001:001395a0  __ZNK9QLineEdit12passwordCharEv
0001:00134e0c  __ZNK9QLineEdit9maxLengthEv
0001:00134e20  __ZN9QLineEdit12setMaxLengthEi
0001:00134e58  __ZNK9QLineEdit5frameEv
0001:00134e6c  __ZN9QLineEdit8setFrameEb
0001:00134e94  __ZNK9QLineEdit8echoModeEv
0001:00134eac  __ZN9QLineEdit11setEchoModeENS_8EchoModeE
0001:001396e8  __ZN16QLineEditPrivate16updateTextLayoutEv
0001:00134ee8  __ZNK9QLineEdit9validatorEv
0001:00134f18  __ZN9QLineEdit12setValidatorEPK10QValidator
0001:00134f74  __ZNK9QLineEdit8sizeHintEv
0001:001350d4  __ZNK9QLineEdit15minimumSizeHintEv
0001:00135198  __ZNK9QLineEdit14cursorPositionEv
0001:001351ac  __ZN9QLineEdit17setCursorPositionEi
0001:00139ae0  __ZN16QLineEditPrivate10moveCursorEib
0001:001351e4  __ZN9QLineEdit14validateAndSetERK7QStringiii
0001:0013ab88  __ZN16QLineEditPrivate18removeSelectedTextEv
0001:0013a6e8  __ZN16QLineEditPrivate6insertERK7QString
0001:00139a80  __ZN16QLineEditPrivate20updateMicroFocusHintEv
0001:00135288  __ZNK9QLineEdit9alignmentEv
0001:001352a0  __ZN9QLineEdit12setAlignmentEi
0001:001352d0  __ZN9QLineEdit13cursorForwardEbi
0001:00135360  __ZN9QLineEdit14cursorBackwardEbi
0001:00135374  __ZN9QLineEdit17cursorWordForwardEb
0001:001353b8  __ZN9QLineEdit18cursorWordBackwardEb
0001:001353fc  __ZN9QLineEdit9backspaceEv
0001:0013aa08  __ZN16QLineEditPrivate3delEb
0001:001354d8  __ZN9QLineEdit3delEv
0001:00135570  __ZN9QLineEdit4homeEb
0001:00135590  __ZN9QLineEdit3endEb
0001:001355c4  __ZNK9QLineEdit10isModifiedEv
0001:001355dc  __ZN9QLineEdit13clearModifiedEv
0001:00135658  __ZNK9QLineEdit6editedEv
0001:00135670  __ZN9QLineEdit9setEditedEb
0001:00135694  __ZNK9QLineEdit15hasSelectedTextEv
0001:001356c4  __ZNK9QLineEdit12selectedTextEv
0001:00135724  __ZNK9QLineEdit14selectionStartEv
0001:0013574c  __ZN9QLineEdit12getSelectionEPiS0_
0001:00135794  __ZN9QLineEdit12setSelectionEii
0001:00135810  __ZNK9QLineEdit15isUndoAvailableEv
0001:0013583c  __ZNK9QLineEdit15isRedoAvailableEv
0001:00135874  __ZNK9QLineEdit11dragEnabledEv
0001:0013588c  __ZN9QLineEdit14setDragEnabledEb
0001:001358b0  __ZNK9QLineEdit18hasAcceptableInputEv
0001:0013b6a0  __ZNK16QLineEditPrivate12isValidInputE5QCharS0_
0001:00135a6c  __ZNK9QLineEdit9inputMaskEv
0001:00135b10  __ZN9QLineEdit12setInputMaskERK7QString
0001:00135ba8  __ZN9QLineEdit9selectAllEv
0001:00135bec  __ZN9QLineEdit8deselectEv
0001:00135c48  __ZN9QLineEdit14clearValidatorEv
0001:00135c64  __ZN9QLineEdit6insertERK7QString
0001:00135cac  __ZN9QLineEdit5clearEv
0001:00135d10  __ZN9QLineEdit4undoEv
0001:00135d4c  __ZN9QLineEdit4redoEv
0001:00135d84  __ZNK9QLineEdit10isReadOnlyEv
0001:00135d9c  __ZN9QLineEdit11setReadOnlyEb
0001:00135df0  __ZN9QLineEdit3cutEv
0001:00135e28  __ZNK9QLineEdit4copyEv
0001:00135ec4  __ZNK16QLineEditPrivate4copyEb
0001:00135e44  __ZN9QLineEdit5pasteEv
0001:00135f74  __ZN9QLineEdit11resizeEventEP12QResizeEvent
0001:00135f80  __ZN9QLineEdit5eventEP6QEvent
0001:00138724  __ZN16QLineEditPrivate4dragEv
0001:0013a298  __ZN16QLineEditPrivate16setCursorVisibleEb
0001:00136154  __ZN9QLineEdit15mousePressEventEP11QMouseEvent
0001:00139838  __ZNK16QLineEditPrivate6xToPosEiN9QTextItem14CursorPositionE
0001:0013629c  __ZN9QLineEdit14mouseMoveEventEP11QMouseEvent
0001:001363b8  __ZN9QLineEdit17mouseReleaseEventEP11QMouseEvent
0001:001364d4  __ZN9QLineEdit21mouseDoubleClickEventEP11QMouseEvent
0001:0013662c  __ZN9QLineEdit13keyPressEventEP9QKeyEvent
0001:00136ef8  __ZN9QLineEdit12imStartEventEP8QIMEvent
0001:00136f4c  __ZN9QLineEdit14imComposeEventEP8QIMEvent
0001:00137008  __ZN9QLineEdit10imEndEventEP8QIMEvent
0001:00137084  __ZN9QLineEdit12focusInEventEP11QFocusEvent
0001:001371ec  __ZN9QLineEdit13focusOutEventEP11QFocusEvent
0001:00137260  __ZN9QLineEdit12drawContentsEP8QPainter
0001:001384a4  __ZN9QLineEdit13dragMoveEventEP14QDragMoveEvent
0001:00138520  __ZN9QLineEdit14dragEnterEventEP15QDragEnterEvent
0001:0013852c  __ZN9QLineEdit14dragLeaveEventEP15QDragLeaveEvent
0001:00138564  __ZN9QLineEdit9dropEventEP10QDropEvent
0001:00138810  __ZN9QLineEdit16contextMenuEventEP17QContextMenuEvent
0001:00138a74  __ZN9QLineEdit15createPopupMenuEv
0001:0013944c  __ZN9QLineEdit22windowActivationChangeEb
0001:00139498  __ZN9QLineEdit10setPaletteERK8QPalette
0001:001394bc  __ZN9QLineEdit7setFontERK5QFont
0001:001394e4  __ZNK9QLineEdit11characterAtEiP5QChar
0001:00139588  __ZN9QLineEdit15setPasswordCharE5QChar
0001:001395fc  __ZN9QLineEdit16clipboardChangedEv
0001:001398f0  __ZNK16QLineEditPrivate10cursorRectEv
0001:0013a340  __ZN16QLineEditPrivate10addCommandERKNS_7CommandE
0001:0013c638  __ZN16QLineEditPrivateC1EP9QLineEdit$w$916F3v7F8U6ZAE3D3
0001:00134ba0  __ZThn40_N9QLineEditD1Ev$w$916F3v7F8U6ZAE3D3
0001:00134c88  __ZThn40_N9QLineEditD0Ev$w$916F3v7F8U6ZAE3D3
0001:0013c284  __ZN12QValueVectorIN16QLineEditPrivate7CommandEE14detachInternalEv$w$916F3v7F8U6ZAE3D3
0001:0013c794  __ZN16QLineEditPrivate4undoEi$w$916F3v7F8U6ZAE3D3
0001:0013c984  __ZN16QLineEditPrivate4redoEv$w$916F3v7F8U6ZAE3D3
0001:0013c2b4  __ZN12QValueVectorIN16QLineEditPrivate7CommandEE6insertEPS1_jRKS1_$w$916F3v7F8U6ZAE3D3
0001:0013c31c  __ZN19QValueVectorPrivateIN16QLineEditPrivate7CommandEEC1ERKS2_$w$916F3v7F8U6ZAE3D3
0001:0013c3c0  __ZN19QValueVectorPrivateIN16QLineEditPrivate7CommandEE6insertEPS1_jRKS1_$w$916F3v7F8U6ZAE3D3
0001:0013c600* __ZTV6QGList$w$916F3v7F8U6ZAE3D3
0001:0013c62c* __ZNK6QGList5countEv$w$916F3v7F8U6ZAE3D3
Module: C:\200\trunk\src\tmp\obj\release_mt_shared\qlistbox.obj(qlistbox.obj)
0001:0013cb94  __ZN15QListBoxPrivateD2Ev
0001:0013cc40  __ZN15QListBoxPrivateD1Ev
0001:0013ccec  __ZN12QListBoxItemC2EP8QListBox
0001:0013e560  __ZN8QListBox10insertItemEPK12QListBoxItemi
0001:0013cd58  __ZN12QListBoxItemC1EP8QListBox
0001:0013cdc4  __ZN12QListBoxItemC2EP8QListBoxPS_
0001:0013e704  __ZN8QListBox10insertItemEPK12QListBoxItemS2_
0001:0013ce30  __ZN12QListBoxItemC1EP8QListBoxPS_
0001:0013ce9c  __ZN12QListBoxItemD2Ev
0001:00145794  __ZN8QListBox8takeItemEPK12QListBoxItem
0001:0013ceec  __ZN12QListBoxItemD1Ev
0001:0013cf3c  __ZN12QListBoxItemD0Ev
0001:0013cf90  __ZN12QListBoxItem21setCustomHighlightingEb
0001:0013cfac  __ZNK12QListBoxItem5widthEPK8QListBox
0001:0013cfb8  __ZNK12QListBoxItem6heightEPK8QListBox
0001:0013cfd4  __ZNK12QListBoxItem4textEv
0001:0013cff4  __ZNK12QListBoxItem6pixmapEv
0001:0013cffc  __ZN12QListBoxItem13setSelectableEb
0001:00145788  __ZNK12QListBoxItem7listBoxEv
0001:0013d0b0  __ZNK12QListBoxItem12isSelectableEv
0001:0013d108  __ZN12QListBoxTextC2EP8QListBoxRK7QString
0001:0013d138  __ZN12QListBoxTextC1EP8QListBoxRK7QString
0001:0013d168  __ZN12QListBoxTextC2ERK7QString
0001:0013d198  __ZN12QListBoxTextC1ERK7QString
0001:0013d1c8  __ZN12QListBoxTextC2EP8QListBoxRK7QStringP12QListBoxItem
0001:0013d1fc  __ZN12QListBoxTextC1EP8QListBoxRK7QStringP12QListBoxItem
0001:0013d230  __ZN12QListBoxTextD2Ev
0001:0013d24c  __ZN12QListBoxTextD1Ev
0001:0013d268  __ZN12QListBoxTextD0Ev
0001:0013d290  __ZN12QListBoxText5paintEP8QPainter
0001:0013d33c  __ZNK12QListBoxText6heightEPK8QListBox
0001:0013d3b4  __ZNK12QListBoxText5widthEPK8QListBox
0001:0013d458  __ZNK12QListBoxText4rttiEv
0001:0013d464  __ZN14QListBoxPixmapC2EP8QListBoxRK7QPixmap
0001:0013d49c  __ZN14QListBoxPixmapC1EP8QListBoxRK7QPixmap
0001:0013d4d4  __ZN14QListBoxPixmapC2ERK7QPixmap
0001:0013d50c  __ZN14QListBoxPixmapC1ERK7QPixmap
0001:0013d544  __ZN14QListBoxPixmapC2EP8QListBoxRK7QPixmapP12QListBoxItem
0001:0013d580  __ZN14QListBoxPixmapC1EP8QListBoxRK7QPixmapP12QListBoxItem
0001:0013d5bc  __ZN14QListBoxPixmapD2Ev
0001:0013d5e8  __ZN14QListBoxPixmapD1Ev
0001:0013d614  __ZN14QListBoxPixmapD0Ev
0001:0013d644  __ZN14QListBoxPixmapC2EP8QListBoxRK7QPixmapRK7QString
0001:0013d68c  __ZN14QListBoxPixmapC1EP8QListBoxRK7QPixmapRK7QString
0001:0013d6d4  __ZN14QListBoxPixmapC2ERK7QPixmapRK7QString
0001:0013d71c  __ZN14QListBoxPixmapC1ERK7QPixmapRK7QString
0001:0013d764  __ZN14QListBoxPixmapC2EP8QListBoxRK7QPixmapRK7QStringP12QListBoxItem
0001:0013d7b0  __ZN14QListBoxPixmapC1EP8QListBoxRK7QPixmapRK7QStringP12QListBoxItem
0001:0013d7fc  __ZN14QListBoxPixmap5paintEP8QPainter
0001:0013d948  __ZNK14QListBoxPixmap6heightEPK8QListBox
0001:0013da74  __ZNK14QListBoxPixmap5widthEPK8QListBox
0001:0013dc24  __ZNK14QListBoxPixmap4rttiEv
0001:0013dcc4  __ZN8QListBoxC2EP7QWidgetPKcj
0001:0013deac  __ZN8QListBoxC1EP7QWidgetPKcj
0001:0013e094  __ZN8QListBoxD2Ev
0001:0013e9b8  __ZN8QListBox5clearEv
0001:0013e10c  __ZN8QListBoxD1Ev
0001:0013e18c  __ZN8QListBoxD0Ev
0001:0013e218  __ZN8QListBox7setFontERK5QFont
0001:00141efc  __ZN8QListBox13triggerUpdateEb
0001:0013e244  __ZNK8QListBox5countEv
0001:0013e260  __ZN8QListBox13insertStrListEPK8QStrListi
0001:0013e330  __ZN8QListBox13insertStrListERK8QStrListi
0001:0013e2a4  __ZN8QListBox16insertStringListERK11QStringListi
0001:0013e43c  __ZN8QListBox13insertStrListEPPKcii
0001:00141514  __ZN8QListBox10updateItemEP12QListBoxItem
0001:0013f26c  __ZNK8QListBox5indexEPK12QListBoxItem
0001:0013e874  __ZN8QListBox10insertItemERK7QStringi
0001:0013e8b8  __ZN8QListBox10insertItemERK7QPixmapi
0001:0013e8fc  __ZN8QListBox10insertItemERK7QPixmapRK7QStringi
0001:0013e94c  __ZN8QListBox10removeItemEi
0001:0013ef24  __ZNK8QListBox11currentItemEv
0001:0013f2d8  __ZN8QListBox11itemVisibleEi
0001:0013f1e8  __ZNK8QListBox4itemEi
0001:0013ead0  __ZNK8QListBox4textEi
0001:0013eb14  __ZNK8QListBox6pixmapEi
0001:0013eb3c  __ZN8QListBox10changeItemERK7QStringi
0001:0013ec68  __ZN8QListBox10changeItemEPK12QListBoxItemi
0001:0013eba0  __ZN8QListBox10changeItemERK7QPixmapi
0001:0013ec00  __ZN8QListBox10changeItemERK7QPixmapRK7QStringi
0001:0013ecc4  __ZNK8QListBox15numItemsVisibleEv
0001:00142130  __ZNK8QListBox8doLayoutEv
0001:0013ef54  __ZN8QListBox14setCurrentItemEi
0001:0013ef80  __ZN8QListBox14setCurrentItemEP12QListBoxItem
0001:00144b00  __ZNK8QListBox8itemRectEP12QListBoxItem
0001:001415e8  __ZNK8QListBox13selectionModeEv
0001:001420cc  __ZNK8QListBox7numRowsEv
0001:0013f318  __ZN8QListBox11itemVisibleEPK12QListBoxItem
0001:0013f4d8  __ZN8QListBox15mousePressEventEP11QMouseEvent
0001:0013f4e0  __ZN8QListBox17mousePressEventExEP11QMouseEvent
0001:001431ac  __ZNK8QListBox6itemAtERK6QPoint
0001:0013f9e0  __ZN8QListBox17mouseReleaseEventEP11QMouseEvent
0001:001460fc  __ZN8QListBox10drawRubberEv
0001:00140110  __ZN8QListBox15updateSelectionEv
0001:0013fc40  __ZN8QListBox21mouseDoubleClickEventEP11QMouseEvent
0001:0013fd30  __ZN8QListBox14mouseMoveEventEP11QMouseEvent
0001:00144828  __ZNK8QListBox8columnAtEi
0001:001448f0  __ZNK8QListBox5rowAtEi
0001:00143574  __ZN8QListBox12doAutoScrollEv
0001:00142068  __ZNK8QListBox10numColumnsEv
0001:001461f4  __ZN8QListBox17doRubberSelectionERK5QRectS2_
0001:001403b4  __ZN8QListBox16repaintSelectionEv
0001:0014384c  __ZNK8QListBox7topItemEv
0001:001404b0  __ZN8QListBox24contentsContextMenuEventEP17QContextMenuEvent
0001:001405b4  __ZN8QListBox13keyPressEventEP9QKeyEvent
0001:00145978  __ZN15QListBoxPrivate14findItemByNameEiRK7QString
0001:00141650  __ZN8QListBox17toggleCurrentItemEv
0001:00146680  __ZN8QListBox16handleItemChangeEP12QListBoxItembb
0001:00142e3c  __ZNK8QListBox13currentColumnEv
0001:00142ddc  __ZNK8QListBox10currentRowEv
0001:0014120c  __ZN8QListBox12focusInEventEP11QFocusEvent
0001:001414e4  __ZN8QListBox10updateItemEi
0001:001413ec  __ZN8QListBox13focusOutEventEP11QFocusEvent
0001:001414c8  __ZN8QListBox11eventFilterEP7QObjectP6QEvent
0001:00141540  __ZN8QListBox16setSelectionModeENS_13SelectionModeE
0001:001416d8  __ZN8QListBox11setSelectedEib
0001:001415fc  __ZNK8QListBox16isMultiSelectionEv
0001:0014162c  __ZN8QListBox17setMultiSelectionEb
0001:00141708  __ZN8QListBox11setSelectedEP12QListBoxItemb
0001:001419d8  __ZNK8QListBox10isSelectedEi
0001:00141a2c  __ZNK8QListBox10isSelectedEPK12QListBoxItem
0001:00141a44  __ZNK8QListBox12selectedItemEv
0001:00141a88  __ZN8QListBox14clearSelectionEv
0001:00141aa4  __ZN8QListBox9selectAllEb
0001:00141b58  __ZN8QListBox15invertSelectionEv
0001:00141bf4  __ZN8QListBox17emitChangedSignalEb
0001:00141bfc  __ZNK8QListBox8sizeHintEv
0001:00141eec  __ZNK8QListBox15minimumSizeHintEv
0001:00141f30  __ZN8QListBox13setColumnModeENS_10LayoutModeE
0001:00141f68  __ZN8QListBox13setColumnModeEi
0001:00141fa4  __ZN8QListBox10setRowModeENS_10LayoutModeE
0001:00141fdc  __ZN8QListBox10setRowModeEi
0001:00142018  __ZNK8QListBox10columnModeEv
0001:00142040  __ZNK8QListBox7rowModeEv
0001:00143904  __ZNK8QListBox13variableWidthEv
0001:001427cc  __ZNK8QListBox11tryGeometryEii
0001:0014389c  __ZNK8QListBox14variableHeightEv
0001:00142e9c  __ZN8QListBox10setTopItemEi
0001:0014301c  __ZN8QListBox13setBottomItemEi
0001:00143364  __ZN8QListBox20ensureCurrentVisibleEv
0001:001438b8  __ZN8QListBox17setVariableHeightEb
0001:00143920  __ZN8QListBox16setVariableWidthEb
0001:00143970  __ZN8QListBox11refreshSlotEv
0001:00144048  __ZN8QListBox18viewportPaintEventEP11QPaintEvent
0001:0014477c  __ZNK8QListBox10itemHeightEi
0001:00144dc0  __ZN8QListBox6inSortEPK12QListBoxItem
0001:00144e9c  __ZN8QListBox6inSortERK7QString
0001:00144eec  __ZN8QListBox11resizeEventEP12QResizeEvent
0001:00145198  __ZN8QListBox11adjustItemsEv
0001:001451c0  __ZN8QListBox9paintCellEP8QPainterii
0001:001455b4  __ZNK8QListBox12maxItemWidthEv
0001:00145690  __ZN8QListBox9showEventEP10QShowEvent
0001:001456d8  __ZNK8QListBox8itemYPosEiPi
0001:0014571c  __ZNK12QListBoxItem9isCurrentEv
0001:00145b4c  __ZN8QListBox16clearInputStringEv
0001:00145b70  __ZNK8QListBox8findItemERK7QStringj
0001:001463a8  __ZNK8QListBox17isRubberSelectingEv
0001:001463c4  __ZNK12QListBoxItem4nextEv
0001:001463d0  __ZNK12QListBoxItem4prevEv
0001:001463dc  __ZNK8QListBox9firstItemEv
0001:0014647c  __ZN8QListBox4sortEb
0001:00146760  __ZN8QListBox11selectRangeEP12QListBoxItemS1_bbb
0001:0014699c  __ZN8QListBox22windowActivationChangeEb
0001:00146a14  __ZNK12QListBoxItem4rttiEv
0002:00000a10  __ZN12QListBoxText4RTTIE
0002:00000a14  __ZN14QListBoxPixmap4RTTIE
0002:00003bd0  __ZN8QListBox14changedListBoxE
0002:00003bd4  __ZN12QListBoxItem4RTTIE
0001:00146ae0  __ZTV8QPtrDictIbE$w$jCsYxI7F8U6ClE9B3
0001:00146b08* __ZTV9QMemArrayIiE$w$jCsYxI7F8U6ClE9B3
0001:00146aa0  __ZTV12QListBoxItem$w$jCsYxI7F8U6ClE9B3
0001:00146a60  __ZTV12QListBoxText$w$jCsYxI7F8U6ClE9B3
0001:00146a20  __ZTV14QListBoxPixmap$w$jCsYxI7F8U6ClE9B3
0001:00146bdc  __ZN15QListBoxPrivateC1EP8QListBox$w$jCsYxI7F8U6ClE9B3
0001:0013e184  __ZThn40_N8QListBoxD1Ev$w$jCsYxI7F8U6ClE9B3
0001:0013e20c  __ZThn40_N8QListBoxD0Ev$w$jCsYxI7F8U6ClE9B3
0001:00146b8c  __ZNK14QListBoxPixmap6pixmapEv$w$jCsYxI7F8U6ClE9B3
0001:00146b78  __ZN12QListBoxItem7setTextERK7QString$w$jCsYxI7F8U6ClE9B3
0001:00146d90  __ZNK8QPtrDictIbE5countEv$w$jCsYxI7F8U6ClE9B3
0001:00146d54  __ZN8QPtrDictIbE5clearEv$w$jCsYxI7F8U6ClE9B3
0001:00146bb4  __ZN8QPtrDictIbED1Ev$w$jCsYxI7F8U6ClE9B3
0001:00146d60  __ZN8QPtrDictIbED0Ev$w$jCsYxI7F8U6ClE9B3
0001:00146d9c  __ZN8QPtrDictIbE10deleteItemEPv$w$jCsYxI7F8U6ClE9B3
0001:00146b98* __ZN9QMemArrayIiED1Ev$w$jCsYxI7F8U6ClE9B3
0001:00146d2c* __ZN9QMemArrayIiED0Ev$w$jCsYxI7F8U6ClE9B3
0001:00146dbc* __ZN9QMemArrayIiE6detachEv$w$jCsYxI7F8U6ClE9B3
0001:00146b40* __ZTV6QGList$w$jCsYxI7F8U6ClE9B3
0001:00146b6c* __ZNK6QGList5countEv$w$jCsYxI7F8U6ClE9B3
Module: C:\200\trunk\src\tmp\obj\release_mt_shared\qlistview.obj(qlistview.obj)
0001:00146de0  __ZN16QListViewToolTipC2EP7QWidgetP9QListView
0001:00146e0c  __ZN16QListViewToolTipC1EP7QWidgetP9QListView
0001:00146e38  __ZN16QListViewToolTip8maybeTipERK6QPoint
0001:0014b7fc  __ZNK9QListView12showToolTipsEv
0001:00152604  __ZNK9QListView6itemAtERK6QPoint
0001:00152de4  __ZNK9QListView8itemRectEPK13QListViewItem
0001:00147248  __ZN13QListViewItemC2EP9QListView
0001:00147b28  __ZN13QListViewItem4initEv
0001:00147278  __ZN13QListViewItemC1EP9QListView
0001:001472a8  __ZN13QListViewItemC2EPS_
0001:001472d8  __ZN13QListViewItemC1EPS_
0001:00147308  __ZN13QListViewItemC2EP9QListViewPS_
0001:00147348  __ZN13QListViewItemC1EP9QListViewPS_
0001:00147388  __ZN13QListViewItemC2EPS_S0_
0001:001473c4  __ZN13QListViewItemC1EPS_S0_
0001:00147400  __ZN13QListViewItemC2EP9QListView7QStringS2_S2_S2_S2_S2_S2_S2_
0001:00149a24  __ZN13QListViewItem7setTextEiRK7QString
0001:001474d4  __ZN13QListViewItemC1EP9QListView7QStringS2_S2_S2_S2_S2_S2_S2_
0001:001475a8  __ZN13QListViewItemC2EPS_7QStringS1_S1_S1_S1_S1_S1_S1_
0001:00147678  __ZN13QListViewItemC1EPS_7QStringS1_S1_S1_S1_S1_S1_S1_
0001:00147748  __ZN13QListViewItemC2EP9QListViewPS_7QStringS3_S3_S3_S3_S3_S3_S3_
0001:0014782c  __ZN13QListViewItemC1EP9QListViewPS_7QStringS3_S3_S3_S3_S3_S3_S3_
0001:00147910  __ZN13QListViewItemC2EPS_S0_7QStringS1_S1_S1_S1_S1_S1_S1_
0001:001479f4  __ZN13QListViewItemC1EPS_S0_7QStringS1_S1_S1_S1_S1_S1_S1_
0001:00147ad8  __ZN13QListViewItem4sortEv
0001:0014eebc  __ZNK13QListViewItem8listViewEv
0001:0014ebfc  __ZN9QListView13triggerUpdateEv
0001:00147b1c  __ZNK13QListViewItem4rttiEv
0001:00147b88  __ZN13QListViewItem10setVisibleEb
0001:0014f05c  __ZNK13QListViewItem6parentEv
0001:00147c90  __ZNK13QListViewItem9isVisibleEv
0001:00147ca0  __ZN13QListViewItem16setRenameEnabledEib
0001:00147db4  __ZNK13QListViewItem13renameEnabledEi
0001:00147dec  __ZN13QListViewItem10setEnabledEb
0001:00147e40  __ZNK13QListViewItem9isEnabledEv
0001:00147e5c  __ZN13QListViewItem11startRenameEi
0001:00152dd0  __ZNK9QListView11currentItemEv
0001:001531fc  __ZNK9QListView10itemMarginEv
0001:0014eef4  __ZNK13QListViewItem5depthEv
0001:0014d480  __ZNK9QListView12treeStepSizeEv
0001:0014dfec  __ZN9QListView14updateContentsEv
0001:0014839c  __ZN13QListViewItem15removeRenameBoxEv
0001:00148428  __ZN13QListViewItem8okRenameEi
0001:00148538  __ZN13QListViewItem12cancelRenameEi
0001:00148568  __ZN13QListViewItemD2Ev
0001:00148704  __ZN13QListViewItemD1Ev
0001:001488a0  __ZN13QListViewItemD0Ev
0001:00148a48  __ZN13QListViewItem20setMultiLinesEnabledEb
0001:00148a64  __ZNK13QListViewItem17multiLinesEnabledEv
0001:00148a74  __ZN13QListViewItem14setDragEnabledEb
0001:00148a90  __ZN13QListViewItem14setDropEnabledEb
0001:00148aac  __ZNK13QListViewItem11dragEnabledEv
0001:00148ac0  __ZNK13QListViewItem11dropEnabledEv
0001:00148ad4  __ZNK13QListViewItem10acceptDropEPK11QMimeSource
0001:00148adc  __ZN13QListViewItem7droppedEP10QDropEvent
0001:00148ae4  __ZN13QListViewItem11dragEnteredEv
0001:00148aec  __ZN13QListViewItem8dragLeftEv
0001:00148af4  __ZN13QListViewItem10insertItemEPS_
0001:00153668  __ZNK9QListView10firstChildEv
0001:0015371c  __ZNK9QListView11repaintItemEPK13QListViewItem
0001:00148c64  __ZN13QListViewItem8takeItemEPS_
0001:00152b38  __ZNK9QListView12selectedItemEv
0001:0014ef18  __ZN13QListViewItem9itemAboveEv
0001:00148fa8  __ZNK13QListViewItem3keyEib
0001:00148fc8  __ZNK13QListViewItem7compareEPS_ib
0001:0014905c  __ZN13QListViewItem14sortChildItemsEib
0001:0014d910  __ZNK9QListView7columnsEv
0001:0014929c  __ZN13QListViewItem9setHeightEi
0001:001492cc  __ZN13QListViewItem16invalidateHeightEv
0001:0014930c  __ZN13QListViewItem7setOpenEb
0001:0014d18c  __ZNK9QListView17buildDrawableListEv
0001:001494e0  __ZN13QListViewItem5setupEv
0001:0014f0b8  __ZNK13QListViewItem12widthChangedEi
0001:001497d8  __ZN13QListViewItem8activateEv
0001:001497e0  __ZN13QListViewItem12activatedPosER6QPoint
0001:0014980c  __ZN13QListViewItem13setSelectableEb
0001:00149828  __ZN13QListViewItem13setExpandableEb
0001:00149844  __ZNK13QListViewItem16enforceSortOrderEv
0001:0014990c  __ZN13QListViewItem11setSelectedEb
0001:001527d8  __ZNK9QListView13selectionModeEv
0001:00149964  __ZNK13QListViewItem11totalHeightEv
0001:001499e0  __ZNK13QListViewItem4textEi
0001:00149c40  __ZN13QListViewItem9setPixmapEiRK7QPixmap
0001:00149f04  __ZNK13QListViewItem6pixmapEi
0001:00149f38  __ZN13QListViewItem9paintCellEP8QPainterRK11QColorGroupiii
0001:0014f07c  __ZNK13QListViewItem6heightEv
0001:00153648  __ZNK9QListView19allColumnsShowFocusEv
0001:0014aa58  __ZNK13QListViewItem5widthERK12QFontMetricsPK9QListViewi
0001:0014ab3c  __ZN13QListViewItem10paintFocusEP8QPainterRK11QColorGroupRK5QRect
0001:0014abbc  __ZN13QListViewItem13paintBranchesEP8QPainterRK11QColorGroupiii
0001:0014ac78  __ZN16QListViewPrivate4RootC2EP9QListView
0001:0014acf0  __ZN16QListViewPrivate4Root9setHeightEi
0001:0014acb4  __ZN16QListViewPrivate4RootC1EP9QListView
0001:0014ad00  __ZN16QListViewPrivate4Root16invalidateHeightEv
0001:0014ad24  __ZNK16QListViewPrivate4Root11theListViewEv
0001:0014ad30  __ZN16QListViewPrivate4Root5setupEv
0001:0014ad38  __ZN13QListViewItem17ignoreDoubleClickEv
0001:0014ad5c  __ZN9QListViewC2EP7QWidgetPKcj
0001:0014af44  __ZN9QListView4initEv
0001:0014ad98  __ZN9QListViewC1EP7QWidgetPKcj
0001:0014b72c  __ZN9QListView20setShowSortIndicatorEb
0001:0014b7b8  __ZNK9QListView17showSortIndicatorEv
0001:0014b7d4  __ZN9QListView15setShowToolTipsEb
0001:0014b81c  __ZN9QListView13setResizeModeENS_10ResizeModeE
0001:0014b8a4  __ZNK9QListView10resizeModeEv
0001:0014b8b8  __ZN9QListViewD2Ev
0001:0014ba94  __ZN9QListViewD1Ev
0001:0014bc7c  __ZN9QListViewD0Ev
0001:0014be68  __ZN9QListView18drawContentsOffsetEP8QPainteriiiiii
0001:0014df50  __ZNK9QListView15columnAlignmentEi
0001:0014d0d0  __ZN9QListView14paintEmptyAreaEP8QPainterRK5QRect
0001:0014d494  __ZN9QListView15setTreeStepSizeEi
0001:0014d4d0  __ZN9QListView10insertItemEP13QListViewItem
0001:0014d4fc  __ZN9QListView5clearEv
0001:0014f044  __ZNK13QListViewItem10firstChildEv
0001:0014d77c  __ZN9QListView14setContentsPosEii
0001:0014e0d4  __ZN9QListView16updateGeometriesEv
0001:0014d7ac  __ZN9QListView9addColumnERK7QStringi
0001:0014d85c  __ZN9QListView9addColumnERK8QIconSetRK7QStringi
0001:0014d924  __ZN9QListView12removeColumnEi
0001:0014dc14  __ZN9QListView13setColumnTextEiRK7QString
0001:0014dc78  __ZN9QListView13setColumnTextEiRK8QIconSetRK7QString
0001:0014dce0  __ZN9QListView14setColumnWidthEii
0001:0014dd9c  __ZNK9QListView10columnTextEi
0001:0014ddc4  __ZNK9QListView11columnWidthEi
0001:0014de04  __ZN9QListView18setColumnWidthModeEiNS_9WidthModeE
0001:0014de58  __ZNK9QListView15columnWidthModeEi
0001:0014deac  __ZN9QListView18setColumnAlignmentEii
0001:0014dfb8  __ZN9QListView4showEv
0001:00153270  __ZN9QListView16reconfigureItemsEv
0001:0014e244  __ZN9QListView16handleSizeChangeEiii
0001:0014e780  __ZN9QListView16updateDirtyItemsEv
0001:0014e89c  __ZN9QListView11makeVisibleEv
0001:0014e8c4  __ZN9QListView11resizeEventEP12QResizeEvent
0001:0014e920  __ZN9QListView19viewportResizeEventEP12QResizeEvent
0001:0014ec3c  __ZN9QListView11eventFilterEP7QObjectP6QEvent
0001:0014efcc  __ZN13QListViewItem9itemBelowEv
0001:0015341c  __ZN9QListView12widthChangedEPK13QListViewItemi
0001:0014f0e4  __ZN9QListView23contentsMousePressEventEP11QMouseEvent
0001:0014f0ec  __ZN9QListView25contentsMousePressEventExEP11QMouseEvent
0001:0014fd8c  __ZN9QListView24contentsContextMenuEventEP17QContextMenuEvent
0001:0014ff78  __ZN9QListView25contentsMouseReleaseEventEP11QMouseEvent
0001:0014ff90  __ZN9QListView27contentsMouseReleaseEventExEP11QMouseEvent
0001:00150924  __ZN9QListView29contentsMouseDoubleClickEventEP11QMouseEvent
0001:00150aa8  __ZN9QListView22contentsMouseMoveEventEP11QMouseEvent
0001:00150d80  __ZN9QListView12doAutoScrollERK6QPoint
0001:00150d58  __ZN9QListView12doAutoScrollEv
0001:001526fc  __ZN9QListView7itemPosEPK13QListViewItem
0001:001510d4  __ZN9QListView12focusInEventEP11QFocusEvent
0001:001512c8  __ZN9QListView13focusOutEventEP11QFocusEvent
0001:001513fc  __ZN9QListView13keyPressEventEP9QKeyEvent
0001:00152714  __ZN9QListView17setMultiSelectionEb
0001:00152748  __ZNK9QListView16isMultiSelectionEv
0001:00152764  __ZN9QListView16setSelectionModeENS_13SelectionModeE
0001:001527ec  __ZN9QListView11setSelectedEP13QListViewItemb
0001:00152914  __ZN9QListView18setSelectionAnchorEP13QListViewItem
0001:0015293c  __ZN9QListView14clearSelectionEv
0001:00152958  __ZN9QListView9selectAllEb
0001:00152a5c  __ZN9QListView15invertSelectionEv
0001:00152b18  __ZNK9QListView10isSelectedEPK13QListViewItem
0001:00152b64  __ZN9QListView14setCurrentItemEP13QListViewItem
0001:00152f28  __ZN9QListView10setSortingEib
0001:00152fd4  __ZN9QListView16changeSortColumnEi
0001:00153090  __ZN9QListView17handleIndexChangeEv
0001:001530f8  __ZNK9QListView10sortColumnEv
0001:0015310c  __ZN9QListView13setSortColumnEi
0001:0015313c  __ZNK9QListView9sortOrderEv
0001:0015315c  __ZN9QListView12setSortOrderEN2Qt9SortOrderE
0001:0015318c  __ZN9QListView4sortEv
0001:001531b4  __ZN9QListView13setItemMarginEi
0001:00153210  __ZN9QListView11styleChangeER6QStyle
0001:00153230  __ZN9QListView7setFontERK5QFont
0001:00153250  __ZN9QListView10setPaletteERK8QPalette
0001:00153620  __ZN9QListView22setAllColumnsShowFocusEb
0001:0015369c  __ZNK9QListView8lastItemEv
0001:001536f0  __ZNK13QListViewItem7repaintEv
0001:001537f8  __ZN14QCheckListItemC2EPS_RK7QStringNS_4TypeE
0001:00155960  __ZN14QCheckListItem4initEv
0001:00153a1c  __ZN14QCheckListItemC1EPS_RK7QStringNS_4TypeE
0001:00153c40  __ZN14QCheckListItemC2EPS_P13QListViewItemRK7QStringNS_4TypeE
0001:00153e68  __ZN14QCheckListItemC1EPS_P13QListViewItemRK7QStringNS_4TypeE
0001:001540e4  __ZN14QCheckListItemC2EP13QListViewItemRK7QStringNS_4TypeE
0001:001542f0  __ZN14QCheckListItemC1EP13QListViewItemRK7QStringNS_4TypeE
0001:001544fc  __ZN14QCheckListItemC2EP13QListViewItemS1_RK7QStringNS_4TypeE
0001:0015470c  __ZN14QCheckListItemC1EP13QListViewItemS1_RK7QStringNS_4TypeE
0001:0015491c  __ZN14QCheckListItemC2EP9QListViewRK7QStringNS_4TypeE
0001:00154b28  __ZN14QCheckListItemC1EP9QListViewRK7QStringNS_4TypeE
0001:00154d34  __ZN14QCheckListItemC2EP9QListViewP13QListViewItemRK7QStringNS_4TypeE
0001:00154f44  __ZN14QCheckListItemC1EP9QListViewP13QListViewItemRK7QStringNS_4TypeE
0001:00155154  __ZNK14QCheckListItem4rttiEv
0001:00155160  __ZN14QCheckListItemC2EP9QListViewRK7QStringRK7QPixmap
0001:00155360  __ZN14QCheckListItemC1EP9QListViewRK7QStringRK7QPixmap
0001:00155560  __ZN14QCheckListItemC2EP13QListViewItemRK7QStringRK7QPixmap
0001:00155760  __ZN14QCheckListItemC1EP13QListViewItemRK7QStringRK7QPixmap
0001:00155be0  __ZN14QCheckListItem11setTristateEb
0001:00155a00  __ZN14QCheckListItemD2Ev
0001:00156010  __ZN14QCheckListItem12turnOffChildEv
0001:00155a80  __ZN14QCheckListItemD1Ev
0001:00155b00  __ZN14QCheckListItemD0Ev
0001:00155c0c  __ZNK14QCheckListItem10isTristateEv
0001:00155c1c  __ZNK14QCheckListItem5stateEv
0001:00155c54  __ZNK14QCheckListItem13internalStateEv
0001:00155c64  __ZN14QCheckListItem8setStateENS_11ToggleStateE
0001:00155ca8  __ZN14QCheckListItem8setStateENS_11ToggleStateEbb
0001:001565b8  __ZN14QCheckListItem17updateStoredStateEPv
0001:00155f78  __ZN14QCheckListItem15setCurrentStateENS_11ToggleStateE
0001:001562ec  __ZN14QCheckListItem11stateChangeENS_11ToggleStateE
0001:0015642c  __ZN14QCheckListItem16updateControllerEbb
0001:00156310  __ZN14QCheckListItem12restoreStateEPvi
0001:00155f90  __ZN14QCheckListItem14setStoredStateENS_11ToggleStateEPv
0001:00155fd8  __ZNK14QCheckListItem11storedStateEPv
0001:00156044  __ZN14QCheckListItem8activateEv
0001:001562bc  __ZN14QCheckListItem5setOnEb
0001:001562e4  __ZN14QCheckListItem11stateChangeEb
0001:0015664c  __ZN14QCheckListItem5setupEv
0001:001566f8  __ZNK14QCheckListItem5widthERK12QFontMetricsPK9QListViewi
0001:00156784  __ZN14QCheckListItem9paintCellEP8QPainterRK11QColorGroupiii
0001:00156d68  __ZN14QCheckListItem10paintFocusEP8QPainterRK11QColorGroupRK5QRect
0001:0015755c  __ZNK9QListView6headerEv
0001:0015758c  __ZN13QListViewItem15moveToJustAfterEPS_
0001:00157424  __ZN9QListView17ensureItemVisibleEPK13QListViewItem
0001:0015740c  __ZNK9QListView15rootIsDecoratedEv
0001:001586a0  __ZNK21QListViewItemIterator7currentEv
0001:00158828  __ZN21QListViewItemIterator14currentRemovedEv
0001:00157f54  __ZN21QListViewItemIteratorC1EP9QListView
0001:001582bc  __ZN21QListViewItemIteratorppEv
0001:001581fc  __ZN21QListViewItemIteratorD1Ev
0001:00158f58  __ZN9QListView11selectRangeEP13QListViewItemS1_S1_
0001:00158a70  __ZN9QListView16handleItemChangeEP13QListViewItembb
0001:00157744  __ZNK13QListViewItem7itemPosEv
0001:00157ccc  __ZNK9QListView10isRenamingEv
0001:00157030  __ZNK9QListView8sizeHintEv
0001:001571cc  __ZNK9QListView15minimumSizeHintEv
0001:001571dc  __ZN9QListView7setOpenEP13QListViewItemb
0001:001573b4  __ZNK9QListView6isOpenEPK13QListViewItem
0001:001573c8  __ZN9QListView18setRootIsDecoratedEb
0001:00157570  __ZNK9QListView10childCountEv
0001:001575f4  __ZN13QListViewItem8moveItemEPS_
0001:001576a0  __ZN13QListViewItem26enforceSortOrderBackToRootEv
0001:001576d0  __ZN9QListView9showEventEP10QShowEvent
0001:00157840  __ZN9QListView8takeItemEP13QListViewItem
0001:0015786c  __ZN9QListView13openFocusItemEv
0001:001578d0  __ZN9QListView22contentsDragEnterEventEP15QDragEnterEvent
0001:001579dc  __ZN9QListView21contentsDragMoveEventEP14QDragMoveEvent
0001:00157b1c  __ZN9QListView22contentsDragLeaveEventEP15QDragLeaveEvent
0001:00157b84  __ZN9QListView17contentsDropEventEP10QDropEvent
0001:00157c4c  __ZN9QListView10dragObjectEv
0001:00157c54  __ZN9QListView9startDragEv
0001:00157ca0  __ZN9QListView22setDefaultRenameActionENS_12RenameActionE
0001:00157cb8  __ZNK9QListView19defaultRenameActionEv
0001:00157cf8  __ZN21QListViewItemIteratorC2Ev
0001:00158704  __ZN21QListViewItemIterator4initEi
0001:00157d1c  __ZN21QListViewItemIteratorC1Ev
0001:00157d40  __ZN21QListViewItemIteratorC2EP13QListViewItem
0001:0015879c  __ZN21QListViewItemIterator13addToListViewEv
0001:00157d8c  __ZN21QListViewItemIteratorC1EP13QListViewItem
0001:00157dd8  __ZN21QListViewItemIteratorC2EP13QListViewItemi
0001:00158898  __ZNK21QListViewItemIterator12matchesFlagsEPK13QListViewItem
0001:00157e4c  __ZN21QListViewItemIteratorC1EP13QListViewItemi
0001:00157ec0  __ZN21QListViewItemIteratorC2ERKS_
0001:00157ef0  __ZN21QListViewItemIteratorC1ERKS_
0001:00157f20  __ZN21QListViewItemIteratorC2EP9QListView
0001:00157f88  __ZN21QListViewItemIteratorC2EP9QListViewi
0001:00157fe0  __ZN21QListViewItemIteratorC1EP9QListViewi
0001:00158038  __ZN21QListViewItemIteratoraSERKS_
0001:001586dc  __ZNK21QListViewItemIterator1dEv
0001:0015813c  __ZN21QListViewItemIteratorD2Ev
0001:00158330  __ZN21QListViewItemIteratorppEi
0001:00158358  __ZN21QListViewItemIteratorpLEi
0001:00158394  __ZN21QListViewItemIteratormmEv
0001:00158598  __ZN21QListViewItemIteratormmEi
0001:001585c0  __ZN21QListViewItemIteratormIEi
0001:00158630  __ZN21QListViewItemIteratordeEv
0001:00158a48  __ZNK21QListViewItemIterator9isCheckedEPK13QListViewItem
0001:00158c7c  __ZN9QListView11selectRangeEP13QListViewItemS1_bbb
0001:00158b48  __ZN9QListView11startRenameEv
0001:00158b8c  __ZN9QListView10clearRangeEP13QListViewItemS1_b
0001:001590e0  __ZNK9QListView8findItemERK7QStringij
0001:001595a0  __ZN9QListView22windowActivationChangeEb
0001:00159618  __ZN9QListView10hideColumnEi
0001:00159634  __ZN9QListView12adjustColumnEi
0002:00000a20  __ZN14QCheckListItem4RTTIE
0002:00003be0  __ZN13QListViewItem4RTTIE
0001:0014bc70  __ZThn40_N9QListViewD1Ev$w$TSt7M38F8U60JwOU3
0001:0014be5c  __ZThn40_N9QListViewD0Ev$w$TSt7M38F8U60JwOU3
0001:0015a230  __ZTV16QListViewToolTip$w$TSt7M38F8U60JwOU3
0001:0015a140  __ZTV13QListViewItem$w$TSt7M38F8U60JwOU3
0001:0015a504  __ZN16QListViewPrivate14ItemColumnInfoD1Ev$w$TSt7M38F8U60JwOU3
0001:0015993c  __Z9qHeapSortIPN16QListViewPrivate12SortableItemEEvT_S3_$w$TSt7M38F8U60JwOU3
0001:0015a0c0  __ZTV9QPtrStackI13QListViewItemE$w$TSt7M38F8U60JwOU3
0001:00159990* __ZN17QValueListPrivateI7QStringED1Ev$w$TSt7M38F8U60JwOU3
0001:00159a20* __ZN10QValueListI7QStringE14detachInternalEv$w$TSt7M38F8U60JwOU3
0001:0015a000  __ZTVN16QListViewPrivate4RootE$w$TSt7M38F8U60JwOU3
0001:0015a240  __ZTV10QPtrVectorIN16QListViewPrivate6ColumnEE$w$TSt7M38F8U60JwOU3
0001:0015a58c  __ZN16QListViewPrivate14ViewColumnInfoD1Ev$w$TSt7M38F8U60JwOU3
0001:00159fc0  __ZTV9QPtrStackIN16QListViewPrivate7PendingEE$w$TSt7M38F8U60JwOU3
0001:0015a100  __ZTV8QPtrListIN16QListViewPrivate12DrawableItemEE$w$TSt7M38F8U60JwOU3
0001:00159a50  __Z7qt_castIP9QLineEditET_PK7QObject$w$TSt7M38F8U60JwOU3
0001:0015a2a8* __ZTV11QMouseEvent$w$TSt7M38F8U60JwOU3
0001:0015a280  __ZTV8QPtrDictIvE$w$TSt7M38F8U60JwOU3
0001:00159ec0  __ZTV14QCheckListItem$w$TSt7M38F8U60JwOU3
0001:00159f80  __ZTV8QPtrDictIN14QCheckListItem11ToggleStateEE$w$TSt7M38F8U60JwOU3
0001:00159e80  __ZTV8QPtrDictI28QListViewItemIteratorPrivateE$w$TSt7M38F8U60JwOU3
0001:0015a200  __ZTV8QPtrListI21QListViewItemIteratorE$w$TSt7M38F8U60JwOU3
0001:00159a6c  __Z15qHeapSortHelperIPN16QListViewPrivate12SortableItemES1_EvT_S3_T0_j$w$TSt7M38F8U60JwOU3
0001:00159bf0* __ZN17QValueListPrivateI7QStringEC1ERKS1_$w$TSt7M38F8U60JwOU3
0001:0015a49c  __ZNK16QListViewPrivate12SortableItem3cmpERKS0_$w$TSt7M38F8U60JwOU3
0001:00159c84  __Z17qHeapSortPushDownIN16QListViewPrivate12SortableItemEEvPT_ii$w$TSt7M38F8U60JwOU3
0001:0015a908* __ZN17QValueListPrivateI7QStringE6insertE18QValueListIteratorIS0_ERKS0_$w$TSt7M38F8U60JwOU3
0001:0015a964  __ZNK8QPtrDictI28QListViewItemIteratorPrivateE5countEv$w$TSt7M38F8U60JwOU3
0001:0015a8d4  __ZN8QPtrDictI28QListViewItemIteratorPrivateE5clearEv$w$TSt7M38F8U60JwOU3
0001:0015a8e0  __ZN8QPtrDictI28QListViewItemIteratorPrivateED1Ev$w$TSt7M38F8U60JwOU3
0001:0015a7e0  __ZN8QPtrDictI28QListViewItemIteratorPrivateED0Ev$w$TSt7M38F8U60JwOU3
0001:0015a970  __ZN8QPtrDictI28QListViewItemIteratorPrivateE10deleteItemEPv$w$TSt7M38F8U60JwOU3
0001:0015a418  __ZN13QListViewItem10removeItemEPS_$w$TSt7M38F8U60JwOU3
0001:0015a430  __ZNK14QCheckListItem4textEi$w$TSt7M38F8U60JwOU3
0001:0015a990  __ZNK8QPtrDictIN14QCheckListItem11ToggleStateEE5countEv$w$TSt7M38F8U60JwOU3
0001:0015a8a0  __ZN8QPtrDictIN14QCheckListItem11ToggleStateEE5clearEv$w$TSt7M38F8U60JwOU3
0001:0015a8ac  __ZN8QPtrDictIN14QCheckListItem11ToggleStateEED1Ev$w$TSt7M38F8U60JwOU3
0001:0015a798  __ZN8QPtrDictIN14QCheckListItem11ToggleStateEED0Ev$w$TSt7M38F8U60JwOU3
0001:0015a99c  __ZN8QPtrDictIN14QCheckListItem11ToggleStateEE10deleteItemEPv$w$TSt7M38F8U60JwOU3
0001:0015a9bc  __ZNK9QPtrStackIN16QListViewPrivate7PendingEE5countEv$w$TSt7M38F8U60JwOU3
0001:0015a750  __ZN9QPtrStackIN16QListViewPrivate7PendingEE5clearEv$w$TSt7M38F8U60JwOU3
0001:0015a728  __ZN9QPtrStackIN16QListViewPrivate7PendingEED1Ev$w$TSt7M38F8U60JwOU3
0001:0015a75c  __ZN9QPtrStackIN16QListViewPrivate7PendingEED0Ev$w$TSt7M38F8U60JwOU3
0001:0015a9c8  __ZN9QPtrStackIN16QListViewPrivate7PendingEE10deleteItemEPv$w$TSt7M38F8U60JwOU3
0001:0015a480  __ZN16QListViewPrivate4RootD1Ev$w$TSt7M38F8U60JwOU3
0001:0015a458  __ZN16QListViewPrivate4RootD0Ev$w$TSt7M38F8U60JwOU3
0001:0015a7c8  __ZNK9QPtrStackI13QListViewItemE5countEv$w$TSt7M38F8U60JwOU3
0001:0015a64c  __ZN9QPtrStackI13QListViewItemE5clearEv$w$TSt7M38F8U60JwOU3
0001:0015a618  __ZN9QPtrStackI13QListViewItemED1Ev$w$TSt7M38F8U60JwOU3
0001:0015a658  __ZN9QPtrStackI13QListViewItemED0Ev$w$TSt7M38F8U60JwOU3
0001:0015a9e8  __ZN9QPtrStackI13QListViewItemE10deleteItemEPv$w$TSt7M38F8U60JwOU3
0001:0015aa10  __ZNK8QPtrListIN16QListViewPrivate12DrawableItemEE5countEv$w$TSt7M38F8U60JwOU3
0001:0015a640  __ZN8QPtrListIN16QListViewPrivate12DrawableItemEE5clearEv$w$TSt7M38F8U60JwOU3
0001:0015a810  __ZN8QPtrListIN16QListViewPrivate12DrawableItemEED1Ev$w$TSt7M38F8U60JwOU3
0001:0015a5b8  __ZN8QPtrListIN16QListViewPrivate12DrawableItemEED0Ev$w$TSt7M38F8U60JwOU3
0001:0015aa1c  __ZN8QPtrListIN16QListViewPrivate12DrawableItemEE10deleteItemEPv$w$TSt7M38F8U60JwOU3
0001:0015a7d4  __ZNK8QPtrListI21QListViewItemIteratorE5countEv$w$TSt7M38F8U60JwOU3
0001:0015a86c  __ZN8QPtrListI21QListViewItemIteratorE5clearEv$w$TSt7M38F8U60JwOU3
0001:0015a878  __ZN8QPtrListI21QListViewItemIteratorED1Ev$w$TSt7M38F8U60JwOU3
0001:0015a6ec  __ZN8QPtrListI21QListViewItemIteratorED0Ev$w$TSt7M38F8U60JwOU3
0001:0015aa3c  __ZN8QPtrListI21QListViewItemIteratorE10deleteItemEPv$w$TSt7M38F8U60JwOU3
0001:0015a78c  __ZNK10QPtrVectorIN16QListViewPrivate6ColumnEE5countEv$w$TSt7M38F8U60JwOU3
0001:0015a6b0  __ZN10QPtrVectorIN16QListViewPrivate6ColumnEE5clearEv$w$TSt7M38F8U60JwOU3
0001:0015a688  __ZN10QPtrVectorIN16QListViewPrivate6ColumnEED1Ev$w$TSt7M38F8U60JwOU3
0001:0015a6bc  __ZN10QPtrVectorIN16QListViewPrivate6ColumnEED0Ev$w$TSt7M38F8U60JwOU3
0001:0015aa74  __ZN10QPtrVectorIN16QListViewPrivate6ColumnEE10deleteItemEPv$w$TSt7M38F8U60JwOU3
0001:0015a71c  __ZNK8QPtrDictIvE5countEv$w$TSt7M38F8U60JwOU3
0001:0015a838  __ZN8QPtrDictIvE5clearEv$w$TSt7M38F8U60JwOU3
0001:0015a844  __ZN8QPtrDictIvED1Ev$w$TSt7M38F8U60JwOU3
0001:0015a5e8  __ZN8QPtrDictIvED0Ev$w$TSt7M38F8U60JwOU3
0001:0015a450  __ZN8QPtrDictIvE10deleteItemEPv$w$TSt7M38F8U60JwOU3
0001:0015a3fc* __ZN11QMouseEventD1Ev$w$TSt7M38F8U60JwOU3
0001:0015a3d4* __ZN11QMouseEventD0Ev$w$TSt7M38F8U60JwOU3
0001:0015a2c0* __ZTV6QGList$w$TSt7M38F8U60JwOU3
0001:0015a3c8* __ZNK6QGList5countEv$w$TSt7M38F8U60JwOU3
Module: C:\200\trunk\src\tmp\obj\release_mt_shared\qmainwindow.obj(qmainwindow.obj)
0001:0015aae0  __ZNK17QMainWindowLayout8sizeHintEv
0001:0015b050  __ZNK17QMainWindowLayout11extraPixelsEv
0001:0015ac30  __ZNK17QMainWindowLayout11minimumSizeEv
0001:0015ada4  __ZN17QMainWindowLayoutC2EP11QMainWindowP7QLayout
0001:0015adec  __ZN17QMainWindowLayoutC1EP11QMainWindowP7QLayout
0001:0015ae34  __ZN17QMainWindowLayout11setLeftDockEP9QDockArea
0001:0015ae44  __ZN17QMainWindowLayout12setRightDockEP9QDockArea
0001:0015ae54  __ZN17QMainWindowLayout16setCentralWidgetEP7QWidget
0001:0015ae64  __ZN17QMainWindowLayout11layoutItemsERK5QRectb
0001:0015b0b0  __ZN17QMainWindowLayout7addItemEP11QLayoutItem
0001:0015b0b8  __ZN17QMainWindowLayout8iteratorEv
0001:0015b0d0  __ZN12QHideToolTip8maybeTipERK6QPoint
0001:0015b258  __ZN11QMainWindowC2EP7QWidgetPKcj
0001:0015b428  __ZN11QMainWindowC1EP7QWidgetPKcj
0001:0015b5f8  __ZN11QMainWindowD2Ev
0001:0015b798  __ZN11QMainWindowD1Ev
0001:0015b918  __ZN11QMainWindowD0Ev
0001:0015baa0  __ZN11QMainWindow10setMenuBarEP8QMenuBar
0001:0015d240  __ZN11QMainWindow13triggerLayoutEb
0001:0015bb18  __ZNK11QMainWindow7menuBarEv
0001:0015bc1c  __ZN11QMainWindow12setStatusBarEP10QStatusBar
0001:0015be2c  __ZNK11QMainWindow12toolTipGroupEv
0001:0015bcdc  __ZNK11QMainWindow9statusBarEv
0001:0015bd8c  __ZN11QMainWindow15setToolTipGroupEP13QToolTipGroup
0001:0015be70  __ZN11QMainWindow14setDockEnabledEN2Qt4DockEb
0001:0015beb4  __ZNK11QMainWindow13isDockEnabledEN2Qt4DockE
0001:0015bed4  __ZNK11QMainWindow13isDockEnabledEP9QDockArea
0001:0015bf84  __ZN11QMainWindow14setDockEnabledEP11QDockWindowN2Qt4DockEb
0001:0015e028  __ZNK11QMainWindow7topDockEv
0001:0015e008  __ZNK11QMainWindow8leftDockEv
0001:0015e018  __ZNK11QMainWindow9rightDockEv
0001:0015e038  __ZNK11QMainWindow10bottomDockEv
0001:0015c1bc  __ZNK11QMainWindow13isDockEnabledEP11QDockWindowP9QDockArea
0001:0015c22c  __ZNK11QMainWindow13isDockEnabledEP11QDockWindowN2Qt4DockE
0001:0015c31c  __ZN11QMainWindow13addDockWindowEP11QDockWindowN2Qt4DockEb
0001:0015c3bc  __ZN11QMainWindow13addDockWindowEP11QDockWindowRK7QStringN2Qt4DockEb
0001:0015c404  __ZN11QMainWindow14moveDockWindowEP11QDockWindowN2Qt4DockE
0001:0015c55c  __ZN11QMainWindow14moveDockWindowEP11QDockWindowN2Qt4DockEbii
0001:0015c6ec  __ZN11QMainWindow16removeDockWindowEP11QDockWindow
0001:0015c73c  __ZN11QMainWindow11setUpLayoutEv
0001:0015ccc4  __ZNK11QMainWindow13centralWidgetEv
0001:0015cab0  __ZN11QMainWindow4showEv
0001:0015cb60  __ZN11QMainWindow4hideEv
0001:0015cbf0  __ZNK11QMainWindow8sizeHintEv
0001:0015cc38  __ZNK11QMainWindow15minimumSizeHintEv
0001:0015cc70  __ZN11QMainWindow16setCentralWidgetEP7QWidget
0001:0015ccd4  __ZN11QMainWindow10paintEventEP11QPaintEvent
0001:0015cdb8  __ZN11QMainWindow14dockMainWindowEP7QObject
0001:0015cdfc  __ZN11QMainWindow11eventFilterEP7QObjectP6QEvent
0001:0015ced0  __ZN11QMainWindow10childEventEP11QChildEvent
0001:0015cffc  __ZN11QMainWindow5eventEP6QEvent
0001:0015d05c  __ZNK11QMainWindow14usesBigPixmapsEv
0001:0015d078  __ZN11QMainWindow17setUsesBigPixmapsEb
0001:0015d124  __ZNK11QMainWindow13usesTextLabelEv
0001:0015d138  __ZN11QMainWindow16setUsesTextLabelEb
0001:0015d1e8  __ZN11QMainWindow21setRightJustificationEb
0001:0015d22c  __ZNK11QMainWindow18rightJustificationEv
0001:0015d294  __ZN11QMainWindow9whatsThisEv
0001:0015d2a0  __ZN11QMainWindow11styleChangeER6QStyle
0001:0015d2ac  __ZNK11QMainWindow11getLocationEP11QDockWindowRN2Qt4DockERiRbS5_
0001:0015d39c  __ZNK11QMainWindow8toolBarsEN2Qt4DockE
0001:0015d428  __ZNK11QMainWindow11dockWindowsEN2Qt4DockE
0001:0015d5ac  __ZNK11QMainWindow11dockWindowsEv
0001:0015d5e4  __ZN11QMainWindow21setDockWindowsMovableEb
0001:0015d670  __ZNK11QMainWindow18dockWindowsMovableEv
0001:0015d684  __ZN11QMainWindow15setOpaqueMovingEb
0001:0015d710  __ZNK11QMainWindow12opaqueMovingEv
0001:0015d724  __ZN11QMainWindow17lineUpDockWindowsEb
0001:0015d790  __ZNK11QMainWindow17isDockMenuEnabledEv
0001:0015d7a4  __ZN11QMainWindow18setDockMenuEnabledEb
0001:0015d7f8  __ZNK11QMainWindow20createDockWindowMenuENS_11DockWindowsE
0001:0015d8ec  __ZN11QMainWindow15menuAboutToShowEv
0001:0015e058  __ZNK11QMainWindow11appropriateEP11QDockWindow
0001:0015dd88  __ZN11QMainWindow12showDockMenuERK6QPoint
0001:0015de64  __ZN11QMainWindow16slotPlaceChangedEv
0001:0015deb8  __ZN11QMainWindow11dockingAreaERK6QPoint
0001:0015dfe0  __ZN11QMainWindow13hasDockWindowEP11QDockWindow
0001:0015e048  __ZN11QMainWindow9customizeEv
0001:0015e050  __ZNK11QMainWindow14isCustomizableEv
0001:0015e0e4  __ZN11QMainWindow14setAppropriateEP11QDockWindowb
0001:0015e1e0  __ZlsR11QTextStreamRK11QMainWindow
0001:0015eb3c  __ZrsR11QTextStreamR11QMainWindow
0001:0015eea8  __ZNK17QMainWindowLayout9classNameEv
0001:0015eeb4  __ZN17QMainWindowLayout2trEPKcS1_
0001:0015eef4  __ZN17QMainWindowLayout6trUtf8EPKcS1_
0001:0015ef34  __ZN17QMainWindowLayout16staticMetaObjectEv
0001:0015ef8c  __ZN17QMainWindowLayout7qt_castEPKc
0001:0015efe4  __ZN17QMainWindowLayout9qt_invokeEiP8QUObject
0001:0015f000  __ZN17QMainWindowLayout7qt_emitEiP8QUObject
0001:0015f01c  __ZN17QMainWindowLayout11qt_propertyEiiP8QVariant
0001:0015f038  __ZN17QMainWindowLayout18qt_static_propertyEP7QObjectiiP8QVariant
0001:0015f04c  __ZNK9QHideDock9classNameEv
0001:0015f058  __ZN9QHideDock2trEPKcS1_
0001:0015f098  __ZN9QHideDock6trUtf8EPKcS1_
0001:0015f0d8  __ZN9QHideDock16staticMetaObjectEv
0001:0015f130  __ZN9QHideDock7qt_castEPKc
0001:0015f188  __ZN9QHideDock9qt_invokeEiP8QUObject
0001:0015f1a4  __ZN9QHideDock7qt_emitEiP8QUObject
0001:0015f1c0  __ZN9QHideDock11qt_propertyEiiP8QVariant
0001:0015f1dc  __ZN9QHideDock18qt_static_propertyEP7QObjectiiP8QVariant
0002:00003c30  __ZN17QMainWindowLayout7metaObjE
0002:00003c34  __ZN9QHideDock7metaObjE
0001:0015ac24  __ZThn40_NK17QMainWindowLayout8sizeHintEv$w$bmyIUf8F8U6GxRk03
0001:0015ad98  __ZThn40_NK17QMainWindowLayout11minimumSizeEv$w$bmyIUf8F8U6GxRk03
0001:00160620  __ZTV17QMainWindowLayout$w$bmyIUf8F8U6GxRk03
0001:0015b0c8  __ZThn40_N17QMainWindowLayout8iteratorEv$w$bmyIUf8F8U6GxRk03
0001:0015f248* __Z7qt_castIP11QDockWindowET_PK7QObject$w$bmyIUf8F8U6GxRk03
0001:00160918  __ZN18QMainWindowPrivateC1Ev$w$bmyIUf8F8U6GxRk03
0001:00160420  __ZTV9QHideDock$w$bmyIUf8F8U6GxRk03
0001:00160750  __ZTV12QHideToolTip$w$bmyIUf8F8U6GxRk03
0001:00160760* __ZTV8QPtrListI11QDockWindowE$w$bmyIUf8F8U6GxRk03
0001:0015f264  __ZN11QMapPrivateIN2Qt4DockEbE5clearEv$w$bmyIUf8F8U6GxRk03
0001:0015f2a0* __ZN17QValueListPrivateI7QStringED1Ev$w$bmyIUf8F8U6GxRk03
0001:0015f330  __ZN11QMapPrivateIP11QDockWindowbE5clearEv$w$bmyIUf8F8U6GxRk03
0001:0015f36c  __ZN11QMapPrivateIP10QPopupMenuN11QMainWindow11DockWindowsEE5clearEv$w$bmyIUf8F8U6GxRk03
0001:001608dc  __ZN4QMapIP10QPopupMenuN11QMainWindow11DockWindowsEED1Ev$w$bmyIUf8F8U6GxRk03
0001:0015b90c  __ZThn40_N11QMainWindowD1Ev$w$bmyIUf8F8U6GxRk03
0001:0015ba94  __ZThn40_N11QMainWindowD0Ev$w$bmyIUf8F8U6GxRk03
0001:0015f3a8  __ZN4QMapIN2Qt4DockEbE6removeERKS1_$w$bmyIUf8F8U6GxRk03
0001:0015f1e4  __ZN4QMapIN2Qt4DockEbE6insertERKS1_RKbb$w$bmyIUf8F8U6GxRk03
0001:0015f444  __ZN4QMapIN2Qt4DockEbEixERKS1_$w$bmyIUf8F8U6GxRk03
0001:0015f4b8* __ZN17QValueListPrivateI7QStringE6removeERKS0_$w$bmyIUf8F8U6GxRk03
0001:0015f530* __ZN10QValueListI7QStringE14detachInternalEv$w$bmyIUf8F8U6GxRk03
0001:0015f560  __ZNK17QValueListPrivateI7QStringE4findEP14QValueListNodeIS0_ERKS0_$w$bmyIUf8F8U6GxRk03
0001:0015f5b8* __ZN17QValueListPrivateI7QStringE6insertE18QValueListIteratorIS0_ERKS0_$w$bmyIUf8F8U6GxRk03
0001:0015f614* __Z7qt_castIP8QToolBarET_PK7QObject$w$bmyIUf8F8U6GxRk03
0001:0015f630* __Z7qt_castIP11QMainWindowET_PK7QObject$w$bmyIUf8F8U6GxRk03
0001:0015f64c* __Z7qt_castIP9QDockAreaET_PK7QObject$w$bmyIUf8F8U6GxRk03
0001:0015f704  __Z7qt_castIP10QStatusBarET_PK7QObject$w$bmyIUf8F8U6GxRk03
0001:0015f668  __ZN4QMapIP11QDockWindowbE6removeERKS1_$w$bmyIUf8F8U6GxRk03
0001:00160720  __ZTV8QPtrListI8QToolBarE$w$bmyIUf8F8U6GxRk03
0001:0015f720  __ZN4QMapIP10QPopupMenuN11QMainWindow11DockWindowsEE6removeERKS1_$w$bmyIUf8F8U6GxRk03
0001:0015f7bc  __ZN4QMapIP10QPopupMenuN11QMainWindow11DockWindowsEE6insertERKS1_RKS3_b$w$bmyIUf8F8U6GxRk03
0001:0015f820  __ZNK11QMapPrivateIP10QPopupMenuN11QMainWindow11DockWindowsEE4findERKS1_$w$bmyIUf8F8U6GxRk03
0001:0015f870  __ZN4QMapIP10QPopupMenuN11QMainWindow11DockWindowsEE14detachInternalEv$w$bmyIUf8F8U6GxRk03
0001:0015f8a0  __ZNK11QMapPrivateIP11QDockWindowbE4findERKS1_$w$bmyIUf8F8U6GxRk03
0001:0015f8f0  __ZN4QMapIP11QDockWindowbE14detachInternalEv$w$bmyIUf8F8U6GxRk03
0001:0015f920  __ZN4QMapIP11QDockWindowbE6insertERKS1_RKbb$w$bmyIUf8F8U6GxRk03
0001:0015f984  __ZN11QMapPrivateIN2Qt4DockEbE12insertSingleERKS1_$w$bmyIUf8F8U6GxRk03
0001:0015fa20  __ZN4QMapIN2Qt4DockEbE14detachInternalEv$w$bmyIUf8F8U6GxRk03
0001:0015fa50  __ZN11QMapPrivateIN2Qt4DockEbE5clearEP8QMapNodeIS1_bE$w$bmyIUf8F8U6GxRk03
0001:0015fa8c  __ZN11QMapPrivateIP11QDockWindowbE5clearEP8QMapNodeIS1_bE$w$bmyIUf8F8U6GxRk03
0001:0015fac8  __ZN11QMapPrivateIP10QPopupMenuN11QMainWindow11DockWindowsEE5clearEP8QMapNodeIS1_S3_E$w$bmyIUf8F8U6GxRk03
0001:0015fb04  __ZNK11QMapPrivateIN2Qt4DockEbE4findERKS1_$w$bmyIUf8F8U6GxRk03
0001:0015fba0* __ZN17QValueListPrivateI7QStringE6removeE18QValueListIteratorIS0_E$w$bmyIUf8F8U6GxRk03
0001:0015fc28* __ZN17QValueListPrivateI7QStringEC1ERKS1_$w$bmyIUf8F8U6GxRk03
0001:0015fcbc  __ZN11QMapPrivateIP10QPopupMenuN11QMainWindow11DockWindowsEE12insertSingleERKS1_$w$bmyIUf8F8U6GxRk03
0001:0015fd58  __ZN11QMapPrivateIP10QPopupMenuN11QMainWindow11DockWindowsEEC1EPKS4_$w$bmyIUf8F8U6GxRk03
0001:0015fdf0  __ZN11QMapPrivateIP11QDockWindowbEC1EPKS2_$w$bmyIUf8F8U6GxRk03
0001:0015fe88  __ZN11QMapPrivateIP11QDockWindowbE12insertSingleERKS1_$w$bmyIUf8F8U6GxRk03
0001:0015ff24  __ZN11QMapPrivateIN2Qt4DockEbE6insertEP12QMapNodeBaseS4_RKS1_$w$bmyIUf8F8U6GxRk03
0001:0015ffb8  __ZN12QMapIteratorIN2Qt4DockEbE3decEv$w$bmyIUf8F8U6GxRk03
0001:00160010  __ZN11QMapPrivateIN2Qt4DockEbEC1EPKS2_$w$bmyIUf8F8U6GxRk03
0001:001600a8  __ZN11QMapPrivateIP10QPopupMenuN11QMainWindow11DockWindowsEE6insertEP12QMapNodeBaseS6_RKS1_$w$bmyIUf8F8U6GxRk03
0001:0016013c  __ZN12QMapIteratorIP10QPopupMenuN11QMainWindow11DockWindowsEE3decEv$w$bmyIUf8F8U6GxRk03
0001:00160194  __ZN11QMapPrivateIP10QPopupMenuN11QMainWindow11DockWindowsEE4copyEP8QMapNodeIS1_S3_E$w$bmyIUf8F8U6GxRk03
0001:0016021c  __ZN11QMapPrivateIP11QDockWindowbE4copyEP8QMapNodeIS1_bE$w$bmyIUf8F8U6GxRk03
0001:001602a4  __ZN11QMapPrivateIP11QDockWindowbE6insertEP12QMapNodeBaseS4_RKS1_$w$bmyIUf8F8U6GxRk03
0001:00160338  __ZN12QMapIteratorIP11QDockWindowbE3decEv$w$bmyIUf8F8U6GxRk03
0001:00160390  __ZN11QMapPrivateIN2Qt4DockEbE4copyEP8QMapNodeIS1_bE$w$bmyIUf8F8U6GxRk03
0001:00160bb8  __ZNK9QHideDock10metaObjectEv$w$bmyIUf8F8U6GxRk03
0001:00160bc4  __ZN9QHideDockD1Ev$w$bmyIUf8F8U6GxRk03
0001:00160bfc  __ZN9QHideDockD0Ev$w$bmyIUf8F8U6GxRk03
0001:00161038  __ZN9QHideDock11eventFilterEP7QObjectP6QEvent$w$bmyIUf8F8U6GxRk03
0001:00161090  __ZN9QHideDock10childEventEP11QChildEvent$w$bmyIUf8F8U6GxRk03
0001:00160854* __ZN7QWidget11setGeometryERK5QRect$w$bmyIUf8F8U6GxRk03
0001:00160f20  __ZN9QHideDock15mousePressEventEP11QMouseEvent$w$bmyIUf8F8U6GxRk03
0001:00160f88  __ZN9QHideDock17mouseReleaseEventEP11QMouseEvent$w$bmyIUf8F8U6GxRk03
0001:00160e24  __ZN9QHideDock14mouseMoveEventEP11QMouseEvent$w$bmyIUf8F8U6GxRk03
0001:00160c3c  __ZN9QHideDock10paintEventEP11QPaintEvent$w$bmyIUf8F8U6GxRk03
0001:0016088c* __ZN7QWidget9setWStateEj$w$bmyIUf8F8U6GxRk03
0001:001608a0* __ZN7QWidget9setWFlagsEj$w$bmyIUf8F8U6GxRk03
0001:00160bf4  __ZThn40_N9QHideDockD1Ev$w$bmyIUf8F8U6GxRk03
0001:00160c34  __ZThn40_N9QHideDockD0Ev$w$bmyIUf8F8U6GxRk03
0001:00160ae4  __ZNK17QMainWindowLayout10metaObjectEv$w$bmyIUf8F8U6GxRk03
0001:00160af0  __ZN17QMainWindowLayoutD1Ev$w$bmyIUf8F8U6GxRk03
0001:00160b1c  __ZN17QMainWindowLayoutD0Ev$w$bmyIUf8F8U6GxRk03
0001:00160b74  __ZN17QMainWindowLayout10invalidateEv$w$bmyIUf8F8U6GxRk03
0001:00160b60  __ZNK17QMainWindowLayout9expandingEv$w$bmyIUf8F8U6GxRk03
0001:00160b84  __ZN17QMainWindowLayout11setGeometryERK5QRect$w$bmyIUf8F8U6GxRk03
0001:00160b50  __ZNK17QMainWindowLayout17hasHeightForWidthEv$w$bmyIUf8F8U6GxRk03
0001:00160b14  __ZThn40_N17QMainWindowLayoutD1Ev$w$bmyIUf8F8U6GxRk03
0001:00160b48  __ZThn40_N17QMainWindowLayoutD0Ev$w$bmyIUf8F8U6GxRk03
0001:00160b6c  __ZThn40_NK17QMainWindowLayout9expandingEv$w$bmyIUf8F8U6GxRk03
0001:00160bb0  __ZThn40_N17QMainWindowLayout11setGeometryERK5QRect$w$bmyIUf8F8U6GxRk03
0001:00160b58  __ZThn40_NK17QMainWindowLayout17hasHeightForWidthEv$w$bmyIUf8F8U6GxRk03
0001:00160b7c  __ZThn40_N17QMainWindowLayout10invalidateEv$w$bmyIUf8F8U6GxRk03
0001:0016127c  __ZNK8QPtrListI8QToolBarE5countEv$w$bmyIUf8F8U6GxRk03
0001:00161140  __ZN8QPtrListI8QToolBarE5clearEv$w$bmyIUf8F8U6GxRk03
0001:00161118  __ZN8QPtrListI8QToolBarED1Ev$w$bmyIUf8F8U6GxRk03
0001:0016114c  __ZN8QPtrListI8QToolBarED0Ev$w$bmyIUf8F8U6GxRk03
0001:00161288  __ZN8QPtrListI8QToolBarE10deleteItemEPv$w$bmyIUf8F8U6GxRk03
0001:001612b0* __ZNK8QPtrListI11QDockWindowE5countEv$w$bmyIUf8F8U6GxRk03
0001:001610dc* __ZN8QPtrListI11QDockWindowE5clearEv$w$bmyIUf8F8U6GxRk03
0001:001608b4* __ZN8QPtrListI11QDockWindowED1Ev$w$bmyIUf8F8U6GxRk03
0001:001610e8* __ZN8QPtrListI11QDockWindowED0Ev$w$bmyIUf8F8U6GxRk03
0001:001612bc* __ZN8QPtrListI11QDockWindowE10deleteItemEPv$w$bmyIUf8F8U6GxRk03
0001:001607a0* __ZTV6QGList$w$bmyIUf8F8U6GxRk03
0001:00160848* __ZNK6QGList5countEv$w$bmyIUf8F8U6GxRk03
0001:001611c8  __ZN11QMapPrivateIN2Qt4DockEbEC1Ev$w$bmyIUf8F8U6GxRk03
0001:0016117c* __ZN17QValueListPrivateI7QStringEC1Ev$w$bmyIUf8F8U6GxRk03
0001:00161204  __ZN11QMapPrivateIP11QDockWindowbEC1Ev$w$bmyIUf8F8U6GxRk03
0001:00161240  __ZN11QMapPrivateIP10QPopupMenuN11QMainWindow11DockWindowsEEC1Ev$w$bmyIUf8F8U6GxRk03
0001:001612e4  __ZN9QHideDock11updateStateEv$w$bmyIUf8F8U6GxRk03
Module: C:\200\trunk\src\tmp\obj\release_mt_shared\qmenubar.obj(qmenubar.obj)
0001:001613e0  __ZN8QMenuBarC2EP7QWidgetPKc
0001:0016156c  __ZN8QMenuBarC1EP7QWidgetPKc
0001:001616f8  __ZN8QMenuBar11styleChangeER6QStyle
0001:00161750  __ZN8QMenuBarD2Ev
0001:001617d0  __ZN8QMenuBarD1Ev
0001:0016186c  __ZN8QMenuBarD0Ev
0001:00161910  __ZN8QMenuBar10updateItemEi
0001:00161994  __ZN8QMenuBar19menuContentsChangedEv
0001:001619f8  __ZN8QMenuBar29performDelayedContentsChangedEv
0001:00162748  __ZN8QMenuBar14calculateRectsEi
0001:001647fc  __ZN8QMenuBar17setupAcceleratorsEv
0001:00161a90  __ZN8QMenuBar16menuStateChangedEv
0001:00161ad8  __ZN8QMenuBar26performDelayedStateChangedEv
0001:00161b00  __ZN8QMenuBar21performDelayedChangesEv
0001:00161bcc  __ZN8QMenuBar12menuInsPopupEP10QPopupMenu
0001:00161c28  __ZN8QMenuBar12menuDelPopupEP10QPopupMenu
0001:00161c7c  __ZN8QMenuBar12frameChangedEv
0001:00161c94  __ZN8QMenuBar14languageChangeEv
0001:00161cac  __ZN8QMenuBar11eventFilterEP7QObjectP6QEvent
0001:001645f8  __ZN8QMenuBar10setAltModeEb
0001:0016202c  __ZN8QMenuBar12subActivatedEi
0001:00162038  __ZN8QMenuBar14subHighlightedEi
0001:00162044  __ZN8QMenuBar14accelActivatedEi
0001:00164310  __ZN8QMenuBar13setActiveItemEibb
0001:00162084  __ZN8QMenuBar14accelDestroyedEv
0001:00162098  __ZN8QMenuBar14popupDestroyedEP7QObject
0001:001620ac  __ZN8QMenuBar13tryMouseEventEP10QPopupMenuP11QMouseEvent
0001:00163420  __ZN8QMenuBar9itemAtPosERK6QPoint
0001:001625c0  __ZN8QMenuBar10hidePopupsEv
0001:001621d8  __ZN8QMenuBar7goodbyeEb
0001:001621c0  __ZN8QMenuBar11tryKeyEventEP10QPopupMenuP9QKeyEvent
0001:00162288  __ZN8QMenuBar12openActPopupEv
0001:001633b0  __ZN8QMenuBar8itemRectEi
0001:0016262c  __ZN8QMenuBar4showEv
0001:001626b4  __ZN8QMenuBar4hideEv
0001:001626fc  __ZN8QMenuBar10fontChangeERK5QFont
0001:00163398  __ZNK8QMenuBar14heightForWidthEi
0001:00163574  __ZN8QMenuBar12setSeparatorENS_9SeparatorE
0001:00163594  __ZNK8QMenuBar9separatorEv
0001:001635a8  __ZN8QMenuBar12drawContentsEP8QPainter
0001:00163a28  __ZN8QMenuBar15mousePressEventEP11QMouseEvent
0001:00163af0  __ZN8QMenuBar17mouseReleaseEventEP11QMouseEvent
0001:00163c28  __ZN8QMenuBar14mouseMoveEventEP11QMouseEvent
0001:00163cd4  __ZN8QMenuBar10leaveEventEP6QEvent
0001:00163d48  __ZN8QMenuBar13keyPressEventEP9QKeyEvent
0001:001642c8  __ZN8QMenuBar11resizeEventEP12QResizeEvent
0001:00164a04  __ZNK8QMenuBar15customWhatsThisEv
0001:00164a10  __ZN8QMenuBar12focusInEventEP11QFocusEvent
0001:00164acc  __ZN8QMenuBar13focusOutEventEP11QFocusEvent
0001:00164b24  __ZNK8QMenuBar8sizeHintEv
0001:00164c24  __ZNK8QMenuBar11minimumSizeEv
0001:00164c5c  __ZNK8QMenuBar15minimumSizeHintEv
0001:00164c6c  __ZN8QMenuBar12setDefaultUpEb
0001:00164c90  __ZNK8QMenuBar11isDefaultUpEv
0001:00164ca4  __ZN8QMenuBar14activateItemAtEi
0001:00161850  __ZThn140_N8QMenuBarD1Ev$w$RHwL8o8F8U6x4ehu3
0001:00161860  __ZThn40_N8QMenuBarD1Ev$w$RHwL8o8F8U6x4ehu3
0001:001618f4  __ZThn140_N8QMenuBarD0Ev$w$RHwL8o8F8U6x4ehu3
0001:00161904  __ZThn40_N8QMenuBarD0Ev$w$RHwL8o8F8U6x4ehu3
0001:00161970  __ZThn140_N8QMenuBar10updateItemEi$w$RHwL8o8F8U6x4ehu3
0001:001619ec  __ZThn140_N8QMenuBar19menuContentsChangedEv$w$RHwL8o8F8U6x4ehu3
0001:00164d04* __Z7qt_castIP11QMainWindowET_PK7QObject$w$RHwL8o8F8U6x4ehu3
0001:00161acc  __ZThn140_N8QMenuBar16menuStateChangedEv$w$RHwL8o8F8U6x4ehu3
0001:00161c1c  __ZThn140_N8QMenuBar12menuInsPopupEP10QPopupMenu$w$RHwL8o8F8U6x4ehu3
0001:00161c70  __ZThn140_N8QMenuBar12menuDelPopupEP10QPopupMenu$w$RHwL8o8F8U6x4ehu3
0001:00164d20* __Z7qt_castIP8QToolBarET_PK7QObject$w$RHwL8o8F8U6x4ehu3
0001:00164d40* __ZTV11QMouseEvent$w$RHwL8o8F8U6x4ehu3
0001:00164cf8  __ZThn140_N8QMenuBar14activateItemAtEi$w$RHwL8o8F8U6x4ehu3
0001:00164dc0* __ZN11QMouseEventD1Ev$w$RHwL8o8F8U6x4ehu3
0001:00164d98* __ZN11QMouseEventD0Ev$w$RHwL8o8F8U6x4ehu3
0001:00164d60* __ZTV6QGList$w$RHwL8o8F8U6x4ehu3
0001:00164d8c* __ZNK6QGList5countEv$w$RHwL8o8F8U6x4ehu3
Module: C:\200\trunk\src\tmp\obj\release_mt_shared\qmenudata.obj(qmenudata.obj)
0001:00164de0  __ZN13QMenuDataDataC2Ev
0001:00164e14  __ZN13QMenuDataDataC1Ev
0001:00164e48  __ZN9QMenuItemC2Ev
0001:00164ecc  __ZN9QMenuItemC1Ev
0001:00164f50  __ZN9QMenuItemD2Ev
0001:00165054  __ZN9QMenuItemD1Ev
0001:00165158  __ZN9QMenuItem5extraEv
0001:00165180  __ZNK9QMenuItem6customEv
0001:001651c0  __ZN9QMenuDataC2Ev
0001:0016524c  __ZN9QMenuDataC1Ev
0001:001652d8  __ZN9QMenuDataD2Ev
0001:00165334  __ZN9QMenuDataD1Ev
0001:00165390  __ZN9QMenuDataD0Ev
0001:001653f8  __ZN9QMenuData10updateItemEi
0001:00165400  __ZN9QMenuData19menuContentsChangedEv
0001:00165408  __ZN9QMenuData16menuStateChangedEv
0001:00165410  __ZN9QMenuData12menuInsPopupEP10QPopupMenu
0001:00165418  __ZN9QMenuData12menuDelPopupEP10QPopupMenu
0001:00165420  __ZNK9QMenuData5countEv
0001:00165434  __ZN9QMenuData9insertAnyEPK7QStringPK7QPixmapP10QPopupMenuPK8QIconSetiiP7QWidgetP15QCustomMenuItem
0001:00165738  __ZN9QMenuData9findPopupEP10QPopupMenuPi
0001:00165788  __ZN9QMenuData11removePopupEP10QPopupMenu
0001:00165b80  __ZN9QMenuData12removeItemAtEi
0001:001657c8  __ZN9QMenuData10insertItemERK7QStringPK7QObjectPKcRK12QKeySequenceii
0001:0016665c  __ZN9QMenuData11connectItemEiPK7QObjectPKc
0001:00165ccc  __ZN9QMenuData8setAccelERK12QKeySequencei
0001:0016582c  __ZN9QMenuData10insertItemERK8QIconSetRK7QStringPK7QObjectPKcRK12QKeySequenceii
0001:00165890  __ZN9QMenuData10insertItemERK7QPixmapPK7QObjectPKcRK12QKeySequenceii
0001:001658f4  __ZN9QMenuData10insertItemERK8QIconSetRK7QPixmapPK7QObjectPKcRK12QKeySequenceii
0001:00165958  __ZN9QMenuData10insertItemERK7QStringii
0001:0016597c  __ZN9QMenuData10insertItemERK8QIconSetRK7QStringii
0001:001659a0  __ZN9QMenuData10insertItemERK7QStringP10QPopupMenuii
0001:001659c4  __ZN9QMenuData10insertItemERK8QIconSetRK7QStringP10QPopupMenuii
0001:001659ec  __ZN9QMenuData10insertItemERK7QPixmapii
0001:00165a10  __ZN9QMenuData10insertItemERK8QIconSetRK7QPixmapii
0001:00165a34  __ZN9QMenuData10insertItemERK7QPixmapP10QPopupMenuii
0001:00165a58  __ZN9QMenuData10insertItemERK8QIconSetRK7QPixmapP10QPopupMenuii
0001:00165a80  __ZN9QMenuData10insertItemEP7QWidgetii
0001:00165aa4  __ZN9QMenuData10insertItemEP15QCustomMenuItemii
0001:00165ac8  __ZN9QMenuData10insertItemERK8QIconSetP15QCustomMenuItemii
0001:00165aec  __ZN9QMenuData15insertSeparatorEi
0001:00165b10  __ZN9QMenuData10removeItemEi
0001:0016636c  __ZNK9QMenuData8findItemEiPPS_
0001:00166460  __ZNK9QMenuData7indexOfEi
0001:00165c14  __ZN9QMenuData5clearEv
0001:00165c88  __ZNK9QMenuData5accelEi
0001:00166354  __ZNK9QMenuData8findItemEi
0001:00165d08  __ZNK9QMenuData7iconSetEi
0001:00165d2c  __ZNK9QMenuData4textEi
0001:00165da0  __ZNK9QMenuData6pixmapEi
0001:00165dc4  __ZN9QMenuData10changeItemEiRK7QString
0001:00165e94  __ZN9QMenuData10changeItemEiRK7QPixmap
0001:00165fe8  __ZN9QMenuData10changeItemEiRK8QIconSetRK7QString
0001:00166050  __ZN9QMenuData17changeItemIconSetEiRK8QIconSet
0001:0016601c  __ZN9QMenuData10changeItemEiRK8QIconSetRK7QPixmap
0001:001660fc  __ZNK9QMenuData13isItemEnabledEi
0001:0016612c  __ZN9QMenuData14setItemEnabledEib
0001:0016619c  __ZNK9QMenuData12isItemActiveEi
0001:001661cc  __ZNK9QMenuData13isItemCheckedEi
0001:001661fc  __ZN9QMenuData14setItemCheckedEib
0001:001662c0  __ZNK9QMenuData13isItemVisibleEi
0001:001662f0  __ZN9QMenuData14setItemVisibleEib
0001:001664d8  __ZNK9QMenuData4idAtEi
0001:00166524  __ZN9QMenuData5setIdEii
0001:00166568  __ZN9QMenuData16setItemParameterEii
0001:00166600  __ZNK9QMenuData13itemParameterEi
0001:001666fc  __ZN9QMenuData14disconnectItemEiPK7QObjectPKc
0001:00166734  __ZN9QMenuData12setWhatsThisEiRK7QString
0001:00166770  __ZNK9QMenuData9whatsThisEi
0001:001667e4  __ZN15QCustomMenuItemC2Ev
0001:001667f4  __ZN15QCustomMenuItemC1Ev
0001:00166804  __ZN15QCustomMenuItemD2Ev
0001:00166814  __ZN15QCustomMenuItemD1Ev
0001:00166824  __ZN15QCustomMenuItemD0Ev
0001:00166838  __ZN15QCustomMenuItem7setFontERK5QFont
0001:00166840  __ZNK15QCustomMenuItem8fullSpanEv
0001:00166848  __ZNK15QCustomMenuItem11isSeparatorEv
0001:00166850  __ZN9QMenuData14activateItemAtEi
0001:00166900  __ZTV9QMenuData$w$3ITOJt8F8U6sxrB12
0001:00166940  __ZTV8QPtrListI9QMenuItemE$w$3ITOJt8F8U6sxrB12
0001:001668c0  __ZTV15QCustomMenuItem$w$3ITOJt8F8U6sxrB12
0001:001669e8  __ZNK8QPtrListI9QMenuItemE5countEv$w$3ITOJt8F8U6sxrB12
0001:001669f4  __ZN8QPtrListI9QMenuItemE5clearEv$w$3ITOJt8F8U6sxrB12
0001:00166a00  __ZN8QPtrListI9QMenuItemED1Ev$w$3ITOJt8F8U6sxrB12
0001:001669b8  __ZN8QPtrListI9QMenuItemED0Ev$w$3ITOJt8F8U6sxrB12
0001:00166a28  __ZN8QPtrListI9QMenuItemE10deleteItemEPv$w$3ITOJt8F8U6sxrB12
0001:00166980* __ZTV6QGList$w$3ITOJt8F8U6sxrB12
0001:001669ac* __ZNK6QGList5countEv$w$3ITOJt8F8U6sxrB12
Module: C:\200\trunk\src\tmp\obj\release_mt_shared\qmultilineedit.obj(qmultilineedit.obj)
0001:00166a60  __ZN14QMultiLineEditC2EP7QWidgetPKc
0001:00166aa8  __ZN14QMultiLineEditC1EP7QWidgetPKc
0001:00166b10  __ZNK14QMultiLineEdit8numLinesEv
0001:00166b48  __ZNK14QMultiLineEdit5atEndEv
0001:00166b84  __ZNK14QMultiLineEdit11atBeginningEv
0001:00166bc0  __ZNK14QMultiLineEdit10lineLengthEi
0001:00166c18  __ZN14QMultiLineEditD2Ev
0001:00166c4c  __ZN14QMultiLineEditD1Ev
0001:00166c88  __ZN14QMultiLineEditD0Ev
0001:00166ccc  __ZNK14QMultiLineEdit15getMarkedRegionEPiS0_S0_S0_
0001:00166d50  __ZNK14QMultiLineEdit13hasMarkedTextEv
0001:00166d64  __ZNK14QMultiLineEdit10markedTextEv
0001:00166d80  __ZN14QMultiLineEdit8pageDownEb
0001:00166da0  __ZN14QMultiLineEdit6pageUpEb
0001:00166dc0  __ZN14QMultiLineEdit10insertLineERK7QStringi
0001:00166de0  __ZN14QMultiLineEdit10removeLineEi
0001:00166dfc  __ZN14QMultiLineEdit13insertAndMarkERK7QStringb
0001:00166e4c  __ZN14QMultiLineEdit7newLineEv
0001:00166e9c  __ZN14QMultiLineEdit9backspaceEv
0001:00166f08  __ZN14QMultiLineEdit4homeEb
0001:00166f28  __ZN14QMultiLineEdit3endEb
0001:00166f48  __ZN14QMultiLineEdit17setCursorPositionEiib
0001:00166fbc  __ZNK14QMultiLineEdit11cursorPointEv
0001:00167008  __ZN14QMultiLineEdit12setAlignmentEi
0001:0016705c  __ZNK14QMultiLineEdit9alignmentEv
0001:00167078  __ZN14QMultiLineEdit9setEditedEb
0001:00167094  __ZNK14QMultiLineEdit6editedEv
0001:001670a8  __ZN14QMultiLineEdit17cursorWordForwardEb
0001:001670c8  __ZN14QMultiLineEdit18cursorWordBackwardEb
0001:001670e8  __ZN14QMultiLineEdit8insertAtERK7QStringiib
0001:0016714c  __ZN14QMultiLineEdit8killLineEv
0001:00167168  __ZN14QMultiLineEdit10cursorLeftEbb
0001:00167188  __ZN14QMultiLineEdit11cursorRightEbb
0001:001671a8  __ZN14QMultiLineEdit8cursorUpEb
0001:001671c8  __ZN14QMultiLineEdit10cursorDownEb
0001:001671e8  __ZNK14QMultiLineEdit8textLineEi
0001:00166c80  __ZThn40_N14QMultiLineEditD1Ev$w$BNVuXA8F8U60i3OM0
0001:00166cc4  __ZThn40_N14QMultiLineEditD0Ev$w$BNVuXA8F8U60i3OM0
0001:00167290* __ZTV19QTextCommandHistory$w$BNVuXA8F8U60i3OM0
0001:001672d8* __ZN19QTextCommandHistoryD1Ev$w$BNVuXA8F8U60i3OM0
0001:0016731c* __ZN19QTextCommandHistoryD0Ev$w$BNVuXA8F8U60i3OM0
0001:001672a0* __ZTV6QGList$w$BNVuXA8F8U60i3OM0
0001:001672cc* __ZNK6QGList5countEv$w$BNVuXA8F8U60i3OM0
0001:00167380* __ZTV8QPtrListI12QTextCommandE$w$BNVuXA8F8U60i3OM0
0001:001673e0* __ZNK8QPtrListI12QTextCommandE5countEv$w$BNVuXA8F8U60i3OM0
0001:001673d4* __ZN8QPtrListI12QTextCommandE5clearEv$w$BNVuXA8F8U60i3OM0
0001:001673ac* __ZN8QPtrListI12QTextCommandED1Ev$w$BNVuXA8F8U60i3OM0
0001:001673ec* __ZN8QPtrListI12QTextCommandED0Ev$w$BNVuXA8F8U60i3OM0
0001:0016741c* __ZN8QPtrListI12QTextCommandE10deleteItemEPv$w$BNVuXA8F8U60i3OM0
Module: C:\200\trunk\src\tmp\obj\release_mt_shared\qpopupmenu.obj(qpopupmenu.obj)
0001:00167550  __ZN10QPopupMenuC2EP7QWidgetPKc
0001:001676a8  __ZN10QPopupMenuC1EP7QWidgetPKc
0001:00167800  __ZN10QPopupMenuD2Ev
0001:00168d48  __ZN10QPopupMenu10hidePopupsEv
0001:00167918  __ZN10QPopupMenuD1Ev
0001:00167a4c  __ZN10QPopupMenuD0Ev
0001:00167b8c  __ZN10QPopupMenu10updateItemEi
0001:0016e8ec  __ZN10QPopupMenu9updateRowEi
0001:00167bc4  __ZN10QPopupMenu12setCheckableEb
0001:00167c3c  __ZNK10QPopupMenu11isCheckableEv
0001:00167c68  __ZN10QPopupMenu19menuContentsChangedEv
0001:00167cd0  __ZN10QPopupMenu29performDelayedContentsChangedEv
0001:00169818  __ZN10QPopupMenu10updateSizeEbb
0001:0016a988  __ZN10QPopupMenu11updateAccelEP7QWidget
0001:00167e04  __ZN10QPopupMenu16menuStateChangedEv
0001:00167e50  __ZN10QPopupMenu26performDelayedStateChangedEv
0001:00167ea8  __ZN10QPopupMenu21performDelayedChangesEv
0001:00167f78  __ZN10QPopupMenu12menuInsPopupEPS_
0001:00167fd4  __ZN10QPopupMenu12menuDelPopupEPS_
0001:00168028  __ZN10QPopupMenu12frameChangedEv
0001:00168040  __ZN10QPopupMenu5popupERK6QPointi
0001:00169418  __ZN10QPopupMenu12itemGeometryEi
0001:0016b198  __ZNK10QPopupMenu10itemHeightEP9QMenuItem
0001:00168950  __ZN10QPopupMenu12subActivatedEi
0001:0016895c  __ZN10QPopupMenu14subHighlightedEi
0001:00168968  __ZN10QPopupMenu14accelActivatedEi
0001:00168a50  __ZN10QPopupMenu6actSigEib
0001:00168a28  __ZN10QPopupMenu14accelDestroyedEv
0001:00168a3c  __ZN10QPopupMenu14popupDestroyedEP7QObject
0001:00168b8c  __ZN10QPopupMenu8hilitSigEi
0001:00168bb8  __ZN10QPopupMenu18setFirstItemActiveEv
0001:00168ca8  __ZN10QPopupMenu13hideAllPopupsEv
0001:00168e90  __ZN10QPopupMenu10tryMenuBarEP11QMouseEvent
0001:00168efc  __ZN10QPopupMenu13tryMouseEventEPS_P11QMouseEvent
0001:00168fdc  __ZN10QPopupMenu10byeMenuBarEv
0001:00169038  __ZNK10QPopupMenu9itemAtPosERK6QPointb
0001:0016ae80  __ZN10QPopupMenu11enableAccelEb
0001:0016af2c  __ZN10QPopupMenu7setFontERK5QFont
0001:0016af70  __ZN10QPopupMenu4showEv
0001:0016b074  __ZN10QPopupMenu4hideEv
0001:0016b168  __ZNK10QPopupMenu10itemHeightEi
0001:0016b358  __ZN10QPopupMenu8drawItemEP8QPainteriP9QMenuItembiiii
0001:0016b570  __ZN10QPopupMenu12drawContentsEP8QPainter
0001:0016be0c  __ZN10QPopupMenu10paintEventEP11QPaintEvent
0001:0016be18  __ZN10QPopupMenu10closeEventEP11QCloseEvent
0001:0016be28  __ZN10QPopupMenu15mousePressEventEP11QMouseEvent
0001:0016bff4  __ZN10QPopupMenu17mouseReleaseEventEP11QMouseEvent
0001:0016c42c  __ZN10QPopupMenu14mouseMoveEventEP11QMouseEvent
0001:0016c9d0  __ZN10QPopupMenu13keyPressEventEP9QKeyEvent
0001:0016f3ec  __ZN10QPopupMenu19updateScrollerStateEv
0001:0016e1f8  __ZN10QPopupMenu12subMenuTimerEv
0001:0016dc6c  __ZN10QPopupMenu10timerEventEP11QTimerEvent
0001:0016dc78  __ZN10QPopupMenu10leaveEventEP6QEvent
0001:0016dce0  __ZN10QPopupMenu11styleChangeER6QStyle
0001:0016dd54  __ZN10QPopupMenu13enabledChangeEb
0001:0016dd9c  __ZNK10QPopupMenu7columnsEv
0001:0016ddac  __ZN10QPopupMenu14subScrollTimerEv
0001:0016e8e0  __ZN10QPopupMenu14allowAnimationEv
0001:0016e980  __ZN10QPopupMenu4execERK6QPointi
0001:0016ea70  __ZN10QPopupMenu12connectModalEPS_b
0001:0016eb48  __ZN10QPopupMenu4execEv
0001:0016eb84  __ZN10QPopupMenu15modalActivationEi
0001:0016eb94  __ZN10QPopupMenu13setActiveItemEi
0001:0016ecb0  __ZNK10QPopupMenu8sizeHintEv
0001:0016ed70  __ZNK10QPopupMenu4idAtERK6QPoint
0001:0016eda0  __ZNK10QPopupMenu15customWhatsThisEv
0001:0016edac  __ZN10QPopupMenu18focusNextPrevChildEb
0001:0016eedc  __ZN10QPopupMenu12focusInEventEP11QFocusEvent
0001:0016eee4  __ZN10QPopupMenu13focusOutEventEP11QFocusEvent
0001:0016eefc  __ZN10QPopupMenu19insertTearOffHandleEii
0001:0016ef68  __ZN10QPopupMenu13toggleTearOffEv
0001:0016f188  __ZN10QPopupMenu14activateItemAtEi
0001:00167a30  __ZThn140_N10QPopupMenuD1Ev$w$7wWpkM8F8U6ulj1r1
0001:00167a40  __ZThn40_N10QPopupMenuD1Ev$w$7wWpkM8F8U6ulj1r1
0001:00167b70  __ZThn140_N10QPopupMenuD0Ev$w$7wWpkM8F8U6ulj1r1
0001:00167b80  __ZThn40_N10QPopupMenuD0Ev$w$7wWpkM8F8U6ulj1r1
0001:00167bb8  __ZThn140_N10QPopupMenu10updateItemEi$w$7wWpkM8F8U6ulj1r1
0001:00167cc4  __ZThn140_N10QPopupMenu19menuContentsChangedEv$w$7wWpkM8F8U6ulj1r1
0001:00167e44  __ZThn140_N10QPopupMenu16menuStateChangedEv$w$7wWpkM8F8U6ulj1r1
0001:00167fc8  __ZThn140_N10QPopupMenu12menuInsPopupEPS_$w$7wWpkM8F8U6ulj1r1
0001:0016801c  __ZThn140_N10QPopupMenu12menuDelPopupEPS_$w$7wWpkM8F8U6ulj1r1
0001:0016f668* __ZTV11QMouseEvent$w$7wWpkM8F8U6ulj1r1
0001:0016f628* __ZTV11QPointArray$w$7wWpkM8F8U6ulj1r1
0001:0016f648* __ZTV9QMemArrayI6QPointE$w$7wWpkM8F8U6ulj1r1
0001:0016f600  __ZTV16QTearOffMenuItem$w$7wWpkM8F8U6ulj1r1
0001:0016f3dc  __ZThn140_N10QPopupMenu14activateItemAtEi$w$7wWpkM8F8U6ulj1r1
0001:0016f784  __ZN16QTearOffMenuItemD1Ev$w$7wWpkM8F8U6ulj1r1
0001:0016f7a0  __ZN16QTearOffMenuItemD0Ev$w$7wWpkM8F8U6ulj1r1
0001:0016f878  __ZNK16QTearOffMenuItem8fullSpanEv$w$7wWpkM8F8U6ulj1r1
0001:0016f7c8  __ZN16QTearOffMenuItem5paintEP8QPainterRK11QColorGroupbbiiii$w$7wWpkM8F8U6ulj1r1
0001:0016f884  __ZN16QTearOffMenuItem8sizeHintEv$w$7wWpkM8F8U6ulj1r1
0001:0016f6fc* __ZN11QPointArrayD1Ev$w$7wWpkM8F8U6ulj1r1
0001:0016f718* __ZN11QPointArrayD0Ev$w$7wWpkM8F8U6ulj1r1
0001:0016f8a0* __ZN9QMemArrayI6QPointE6detachEv$w$7wWpkM8F8U6ulj1r1
0001:0016f740* __ZN9QMemArrayI6QPointED1Ev$w$7wWpkM8F8U6ulj1r1
0001:0016f75c* __ZN9QMemArrayI6QPointED0Ev$w$7wWpkM8F8U6ulj1r1
0001:0016f6e0* __ZN11QMouseEventD1Ev$w$7wWpkM8F8U6ulj1r1
0001:0016f6b8* __ZN11QMouseEventD0Ev$w$7wWpkM8F8U6ulj1r1
0001:0016f680* __ZTV6QGList$w$7wWpkM8F8U6ulj1r1
0001:0016f6ac* __ZNK6QGList5countEv$w$7wWpkM8F8U6ulj1r1
Module: C:\200\trunk\src\tmp\obj\release_mt_shared\qprogressbar.obj(qprogressbar.obj)
0001:0016f8c0  __ZN12QProgressBarC2EP7QWidgetPKcj
0001:0016fe9c  __ZN12QProgressBar9initFrameEv
0001:0016f958  __ZN12QProgressBarC1EP7QWidgetPKcj
0001:0016f9f0  __ZN12QProgressBarC2EiP7QWidgetPKcj
0001:0016fa88  __ZN12QProgressBarC1EiP7QWidgetPKcj
0001:0016fb20  __ZN12QProgressBar5resetEv
0001:0016fb6c  __ZN12QProgressBar13setTotalStepsEi
0001:0016fbdc  __ZN12QProgressBar11setProgressEi
0001:0016fc38  __ZN12QProgressBar11setProgressEii
0001:0016fc74  __ZNK12QProgressBar8sizeHintEv
0001:0016fd74  __ZNK12QProgressBar15minimumSizeHintEv
0001:0016fd88  __ZN12QProgressBar18setCenterIndicatorEb
0001:0016fdd4  __ZN12QProgressBar24setIndicatorFollowsStyleEb
0001:0016fe1c  __ZN12QProgressBar20setPercentageVisibleEb
0001:0016fe68  __ZN12QProgressBar4showEv
0001:0016feb8  __ZN12QProgressBar11styleChangeER6QStyle
0001:0016fee8  __ZN12QProgressBar12setIndicatorER7QStringii
0001:0016ffc4  __ZN12QProgressBar12drawContentsEP8QPainter
0001:00170300* __ZTV6QGList$w$PwPb6R8F8U67be294
0001:0017032c* __ZNK6QGList5countEv$w$PwPb6R8F8U67be294
Module: C:\200\trunk\src\tmp\obj\release_mt_shared\qpushbutton.obj(qpushbutton.obj)
0001:00170340  __ZN11QPushButtonC2EP7QWidgetPKc
0001:00170638  __ZN11QPushButton4initEv
0001:00170374  __ZN11QPushButtonC1EP7QWidgetPKc
0001:001703a8  __ZN11QPushButtonC2ERK7QStringP7QWidgetPKc
0001:001703e8  __ZN11QPushButtonC1ERK7QStringP7QWidgetPKc
0001:00170428  __ZN11QPushButtonC2ERK8QIconSetRK7QStringP7QWidgetPKc
0001:001714c4  __ZN11QPushButton10setIconSetERK8QIconSet
0001:00170474  __ZN11QPushButtonC1ERK8QIconSetRK7QStringP7QWidgetPKc
0001:001704c0  __ZN11QPushButtonD2Ev
0001:00170534  __ZN11QPushButtonD1Ev
0001:001705b0  __ZN11QPushButtonD0Ev
0001:00170694  __ZN11QPushButton15setToggleButtonEb
0001:001706b8  __ZN11QPushButton5setOnEb
0001:001706ec  __ZN11QPushButton14setAutoDefaultEb
0001:00170734  __ZN11QPushButton10setDefaultEb
0001:001707ac  __ZNK11QPushButton8sizeHintEv
0001:001715b0  __ZNK11QPushButton7iconSetEv
0001:00170ae4  __ZN11QPushButton4moveEii
0001:00170af0  __ZN11QPushButton4moveERK6QPoint
0001:00170b10  __ZN11QPushButton6resizeEii
0001:00170b1c  __ZN11QPushButton6resizeERK5QSize
0001:00170b3c  __ZN11QPushButton11setGeometryEiiii
0001:00170b48  __ZN11QPushButton11setGeometryERK5QRect
0001:00170b80  __ZN11QPushButton11resizeEventEP12QResizeEvent
0001:00170bb0  __ZN11QPushButton10drawButtonEP8QPainter
0001:001719d8  __ZNK11QPushButton6isFlatEv
0001:001710b8  __ZN11QPushButton15drawButtonLabelEP8QPainter
0001:001711a0  __ZN11QPushButton10updateMaskEv
0001:001712ac  __ZN11QPushButton12focusInEventEP11QFocusEvent
0001:00171314  __ZN11QPushButton13focusOutEventEP11QFocusEvent
0001:001715c8  __ZNK11QPushButton5popupEv
0001:001713bc  __ZN11QPushButton8setPopupEP10QPopupMenu
0001:001715e8  __ZN11QPushButton12popupPressedEv
0001:001719b4  __ZN11QPushButton7setFlatEb
0001:001705a8  __ZThn40_N11QPushButtonD1Ev$w$riWpvX8F8U67WmMJ3
0001:0017062c  __ZThn40_N11QPushButtonD0Ev$w$riWpvX8F8U67WmMJ3
0001:001719ec  __Z7qt_castIP7QDialogET_PK7QObject$w$riWpvX8F8U67WmMJ3
0001:00171a40* __ZTV7QBitmap$w$riWpvX8F8U67WmMJ3
0001:00171a08* __Z7qt_castIP8QToolBarET_PK7QObject$w$riWpvX8F8U67WmMJ3
0001:00171ae0* __ZN7QBitmapD1Ev$w$riWpvX8F8U67WmMJ3
0001:00171ab8* __ZN7QBitmapD0Ev$w$riWpvX8F8U67WmMJ3
0001:00171a80* __ZTV6QGList$w$riWpvX8F8U67WmMJ3
0001:00171aac* __ZNK6QGList5countEv$w$riWpvX8F8U67WmMJ3
Module: C:\200\trunk\src\tmp\obj\release_mt_shared\qradiobutton.obj(qradiobutton.obj)
0001:00171b00  __ZN12QRadioButtonC2EP7QWidgetPKc
0001:00171bf8  __ZN12QRadioButton4initEv
0001:00171b38  __ZN12QRadioButtonC1EP7QWidgetPKc
0001:00171b70  __ZN12QRadioButtonC2ERK7QStringP7QWidgetPKc
0001:00171bb4  __ZN12QRadioButtonC1ERK7QStringP7QWidgetPKc
0001:00171c4c  __ZN12QRadioButton10setCheckedEb
0001:00171c70  __ZNK12QRadioButton8sizeHintEv
0001:00171e40  __ZNK12QRadioButton9hitButtonERK6QPoint
0001:00171ed8  __ZN12QRadioButton10drawButtonEP8QPainter
0001:0017247c  __ZN12QRadioButton15drawButtonLabelEP8QPainter
0001:00172564  __ZN12QRadioButton11resizeEventEP12QResizeEvent
0001:0017276c  __ZN12QRadioButton10updateMaskEv
0001:00172980* __Z7qt_castIP12QButtonGroupET_PK7QObject$w$JnExZ29F8U6YhIIu4
0001:00172a10* __ZTV12QTextOStream$w$JnExZ29F8U6YhIIu4
0001:001729a0* __ZTV7QBitmap$w$JnExZ29F8U6YhIIu4
0001:00172a98* __ZN7QBitmapD1Ev$w$JnExZ29F8U6YhIIu4
0001:00172a70* __ZN7QBitmapD0Ev$w$JnExZ29F8U6YhIIu4
0001:001729e0* __ZTV6QGList$w$JnExZ29F8U6YhIIu4
0001:00172a64* __ZNK6QGList5countEv$w$JnExZ29F8U6YhIIu4
0001:00172a48* __ZN12QTextOStreamD1Ev$w$JnExZ29F8U6YhIIu4
0001:00172a20* __ZN12QTextOStreamD0Ev$w$JnExZ29F8U6YhIIu4
Module: C:\200\trunk\src\tmp\obj\release_mt_shared\qrangecontrol.obj(qrangecontrol.obj)
0001:00172ac0  __ZN13QRangeControlC2Ev
0001:00172b00  __ZN13QRangeControlC1Ev
0001:00172b40  __ZN13QRangeControlC2Eiiiii
0001:00172e44  __ZNK13QRangeControl5boundEi
0001:00172b9c  __ZN13QRangeControlC1Eiiiii
0001:00172bf8  __ZN13QRangeControlD2Ev
0001:00172c08  __ZN13QRangeControlD1Ev
0001:00172c18  __ZN13QRangeControlD0Ev
0001:00172c2c  __ZN13QRangeControl8setValueEi
0001:00172c5c  __ZN13QRangeControl14directSetValueEi
0001:00172c80  __ZN13QRangeControl7addPageEv
0001:00172c9c  __ZN13QRangeControl12subtractPageEv
0001:00172cb8  __ZN13QRangeControl7addLineEv
0001:00172cd4  __ZN13QRangeControl12subtractLineEv
0001:00172cf0  __ZN13QRangeControl11setMinValueEi
0001:00172d74  __ZN13QRangeControl8setRangeEii
0001:00172d18  __ZN13QRangeControl11setMaxValueEi
0001:00172de8  __ZN13QRangeControl8setStepsEii
0001:00172e2c  __ZN13QRangeControl11valueChangeEv
0001:00172e34  __ZN13QRangeControl11rangeChangeEv
0001:00172e3c  __ZN13QRangeControl10stepChangeEv
0001:00172e64  __ZNK13QRangeControl17positionFromValueEii
0001:00172ee4  __ZNK13QRangeControl17valueFromPositionEii
0001:00172f40  __ZTV13QRangeControl$w$h1eoK69F8U6zBxye0
0001:00172f60* __ZTV6QGList$w$h1eoK69F8U6zBxye0
0001:00172f8c* __ZNK6QGList5countEv$w$h1eoK69F8U6zBxye0
Module: C:\200\trunk\src\tmp\obj\release_mt_shared\qscrollbar.obj(qscrollbar.obj)
0001:00172fa0  __ZN10QScrollBarC2EP7QWidgetPKc
0001:00173270  __ZN10QScrollBar4initEv
0001:00172ff0  __ZN10QScrollBarC1EP7QWidgetPKc
0001:00173040  __ZN10QScrollBarC2EN2Qt11OrientationEP7QWidgetPKc
0001:00173090  __ZN10QScrollBarC1EN2Qt11OrientationEP7QWidgetPKc
0001:001730e0  __ZN10QScrollBarC2EiiiiiN2Qt11OrientationEP7QWidgetPKc
0001:00173140  __ZN10QScrollBarC1EiiiiiN2Qt11OrientationEP7QWidgetPKc
0001:001731a0  __ZN10QScrollBarD2Ev
0001:001731d8  __ZN10QScrollBarD1Ev
0001:00173220  __ZN10QScrollBarD0Ev
0001:00173324  __ZN10QScrollBar14setOrientationEN2Qt11OrientationE
0001:00174234  __ZN10QScrollBar23positionSliderFromValueEv
0001:001733e4  __ZNK10QScrollBar14draggingSliderEv
0001:001733fc  __ZN10QScrollBar10setPaletteERK8QPalette
0001:00173448  __ZNK10QScrollBar8sizeHintEv
0001:001734cc  __ZN10QScrollBar13setSizePolicyE11QSizePolicy
0001:001734d8  __ZN10QScrollBar11valueChangeEv
0001:00174748  __ZNK10QScrollBar5valueEv
0001:00174504  __ZNK10QScrollBar12drawControlsEjj
0001:00173538  __ZN10QScrollBar10stepChangeEv
0001:00173558  __ZN10QScrollBar11rangeChangeEv
0001:00173594  __ZN10QScrollBar12doAutoRepeatEv
0001:001743a8  __ZN10QScrollBar6actionEi
0001:00173754  __ZN10QScrollBar14stopAutoRepeatEv
0001:001736e8  __ZN10QScrollBar15startAutoRepeatEv
0001:0017378c  __ZN10QScrollBar10wheelEventEP11QWheelEvent
0001:001746d8  __ZNK10QScrollBar8lineStepEv
0001:001746e8  __ZNK10QScrollBar8pageStepEv
0001:00174758  __ZN10QScrollBar8setValueEi
0001:0017393c  __ZN10QScrollBar13keyPressEventEP9QKeyEvent
0001:00174690  __ZNK10QScrollBar8minValueEv
0001:001746b4  __ZNK10QScrollBar8maxValueEv
0001:00173a1c  __ZN10QScrollBar11resizeEventEP12QResizeEvent
0001:00173a28  __ZN10QScrollBar10paintEventEP11QPaintEvent
0001:00174548  __ZNK10QScrollBar12drawControlsEjjP8QPainter
0001:00173a6c  __ZN10QScrollBar16contextMenuEventEP17QContextMenuEvent
0001:00173a94  __ZN10QScrollBar15mousePressEventEP11QMouseEvent
0001:0017430c  __ZNK10QScrollBar21sliderPosToRangeValueEi
0001:00173d54  __ZN10QScrollBar17mouseReleaseEventEP11QMouseEvent
0001:0017425c  __ZNK10QScrollBar24calculateValueFromSliderEv
0001:00173e30  __ZN10QScrollBar14mouseMoveEventEP11QMouseEvent
0001:001741f8  __ZNK10QScrollBar10sliderRectEv
0001:00174274  __ZNK10QScrollBar21rangeValueToSliderPosEi
0001:0017463c  __ZN10QScrollBar11styleChangeER6QStyle
0001:001746a0  __ZN10QScrollBar11setMinValueEi
0001:001746c4  __ZN10QScrollBar11setMaxValueEi
0001:001746f8  __ZN10QScrollBar11setLineStepEi
0001:00174720  __ZN10QScrollBar11setPageStepEi
0001:0017476c  __ZN10QScrollBar9hideEventEP10QHideEvent
0001:00173210  __ZThn108_N10QScrollBarD1Ev$w$DQeOwc9F8U6XOLeA0
0001:00173218  __ZThn40_N10QScrollBarD1Ev$w$DQeOwc9F8U6XOLeA0
0001:00173260  __ZThn108_N10QScrollBarD0Ev$w$DQeOwc9F8U6XOLeA0
0001:00173268  __ZThn40_N10QScrollBarD0Ev$w$DQeOwc9F8U6XOLeA0
0001:00173530  __ZThn108_N10QScrollBar11valueChangeEv$w$DQeOwc9F8U6XOLeA0
0001:00173550  __ZThn108_N10QScrollBar10stepChangeEv$w$DQeOwc9F8U6XOLeA0
0001:0017358c  __ZThn108_N10QScrollBar11rangeChangeEv$w$DQeOwc9F8U6XOLeA0
0001:001747a0* __ZTV6QGList$w$DQeOwc9F8U6XOLeA0
0001:001747cc* __ZNK6QGList5countEv$w$DQeOwc9F8U6XOLeA0
Module: C:\200\trunk\src\tmp\obj\release_mt_shared\qscrollview.obj(qscrollview.obj)
0001:001747e0  __ZN11QSVChildRec10hideOrShowEP11QScrollViewP7QWidget
0001:00178298  __ZNK11QScrollView9contentsXEv
0001:001782ac  __ZNK11QScrollView9contentsYEv
0001:00174970  __ZNK15QViewportWidget9classNameEv
0001:0017497c  __ZN15QViewportWidget2trEPKcS1_
0001:001749bc  __ZN15QViewportWidget6trUtf8EPKcS1_
0001:001749fc  __ZN15QViewportWidget16staticMetaObjectEv
0001:00174a54  __ZN15QViewportWidget7qt_castEPKc
0001:00174aac  __ZN15QViewportWidget9qt_invokeEiP8QUObject
0001:00174ac8  __ZN15QViewportWidget7qt_emitEiP8QUObject
0001:00174ae4  __ZN15QViewportWidget11qt_propertyEiiP8QVariant
0001:00174b00  __ZN15QViewportWidget18qt_static_propertyEP7QObjectiiP8QVariant
0001:00174b18  __ZNK14QClipperWidget9classNameEv
0001:00174b24  __ZN14QClipperWidget2trEPKcS1_
0001:00174b64  __ZN14QClipperWidget6trUtf8EPKcS1_
0001:00174ba4  __ZN14QClipperWidget16staticMetaObjectEv
0001:00174bfc  __ZN14QClipperWidget7qt_castEPKc
0001:00174c54  __ZN14QClipperWidget9qt_invokeEiP8QUObject
0001:00174c70  __ZN14QClipperWidget7qt_emitEiP8QUObject
0001:00174c8c  __ZN14QClipperWidget11qt_propertyEiiP8QVariant
0001:00174ca8  __ZN14QClipperWidget18qt_static_propertyEP7QObjectiiP8QVariant
0001:00174cb0  __ZN15QScrollViewData11ancestorRecEP7QWidget
0001:00174d08  __ZN15QScrollViewData13hideOrShowAllEP11QScrollViewb
0001:00174edc  __ZN15QScrollViewData9moveAllByEii
0001:00174fc0  __ZN15QScrollViewData18anyVisibleChildrenEv
0001:00175004  __ZN15QScrollViewData8autoMoveEP11QScrollView
0001:00175064  __ZN15QScrollViewData10autoResizeEP11QScrollView
0001:001750b4  __ZN15QScrollViewData14autoResizeHintEP11QScrollView
0001:001751b0  __ZN15QScrollViewData15viewportResizedEii
0001:00175328  __ZN11QScrollViewC2EP7QWidgetPKcj
0001:001754b0  __ZN11QScrollViewC1EP7QWidgetPKcj
0001:00175638  __ZN11QScrollViewD2Ev
0001:00175794  __ZN11QScrollViewD1Ev
0001:001758fc  __ZN11QScrollViewD0Ev
0001:00175a6c  __ZN11QScrollView13hbarIsPressedEv
0001:00175a84  __ZN11QScrollView14hbarIsReleasedEv
0001:00175a9c  __ZN11QScrollView25isHorizontalSliderPressedEv
0001:00175ab0  __ZN11QScrollView13vbarIsPressedEv
0001:00175ac8  __ZN11QScrollView14vbarIsReleasedEv
0001:00175ae0  __ZN11QScrollView23isVerticalSliderPressedEv
0001:00175af4  __ZN11QScrollView11styleChangeER6QStyle
0001:00175dec  __ZN11QScrollView16updateScrollBarsEv
0001:00175b40  __ZN11QScrollView10fontChangeERK5QFont
0001:00175b8c  __ZN11QScrollView6hslideEi
0001:00178064  __ZN11QScrollView12moveContentsEii
0001:00175bcc  __ZN11QScrollView6vslideEi
0001:00175c0c  __ZN11QScrollView15setHBarGeometryER10QScrollBariiii
0001:00175c30  __ZN11QScrollView15setVBarGeometryER10QScrollBariiii
0001:00175c54  __ZNK11QScrollView12viewportSizeEii
0001:00177d68  __ZNK11QScrollView19horizontalScrollBarEv
0001:00177d78  __ZNK11QScrollView17verticalScrollBarEv
0001:00178880  __ZNK11QScrollView12visibleWidthEv
0001:0017889c  __ZNK11QScrollView13visibleHeightEv
0001:001782d4  __ZNK11QScrollView14contentsHeightEv
0001:001788b8  __ZN11QScrollView15changeFrameRectERK5QRect
0001:0017886c  __ZNK11QScrollView7clipperEv
0001:00176d70  __ZNK11QScrollView12cornerWidgetEv
0001:00176a10  __ZN11QScrollView4showEv
0001:00176a4c  __ZN11QScrollView6resizeEii
0001:00176a58  __ZN11QScrollView6resizeERK5QSize
0001:00176a78  __ZN11QScrollView11resizeEventEP12QResizeEvent
0001:00176b00  __ZN11QScrollView15mousePressEventEP11QMouseEvent
0001:00176b0c  __ZN11QScrollView17mouseReleaseEventEP11QMouseEvent
0001:00176b18  __ZN11QScrollView21mouseDoubleClickEventEP11QMouseEvent
0001:00176b24  __ZN11QScrollView14mouseMoveEventEP11QMouseEvent
0001:00176b30  __ZN11QScrollView10wheelEventEP11QWheelEvent
0001:00178854  __ZNK11QScrollView8viewportEv
0001:00176c3c  __ZN11QScrollView16contextMenuEventEP17QContextMenuEvent
0001:00176cf8  __ZNK11QScrollView14vScrollBarModeEv
0001:00176d0c  __ZN11QScrollView17setVScrollBarModeENS_13ScrollBarModeE
0001:00176d34  __ZNK11QScrollView14hScrollBarModeEv
0001:00176d48  __ZN11QScrollView17setHScrollBarModeENS_13ScrollBarModeE
0001:00176d84  __ZN11QScrollView15setCornerWidgetEP7QWidget
0001:00176e14  __ZN11QScrollView15setResizePolicyENS_12ResizePolicyE
0001:00176e28  __ZNK11QScrollView12resizePolicyEv
0001:00176e3c  __ZN11QScrollView10setEnabledEb
0001:00176e4c  __ZN11QScrollView11removeChildEP7QWidget
0001:00176eb8  __ZN11QScrollView11removeChildEP7QObject
0001:00176ef4  __ZN11QScrollView8addChildEP7QWidgetii
0001:00177138  __ZN11QScrollView9moveChildEP7QWidgetii
0001:00177158  __ZN11QScrollView6childXEP7QWidget
0001:00177188  __ZN11QScrollView6childYEP7QWidget
0001:001771b8  __ZN11QScrollView11eventFilterEP7QObjectP6QEvent
0001:00179454  __ZN11QScrollView19startDragAutoScrollEv
0001:001794a8  __ZN11QScrollView18stopDragAutoScrollEv
0001:00177578  __ZN11QScrollView23contentsMousePressEventEP11QMouseEvent
0001:00177584  __ZN11QScrollView25contentsMouseReleaseEventEP11QMouseEvent
0001:00177590  __ZN11QScrollView29contentsMouseDoubleClickEventEP11QMouseEvent
0001:001775ac  __ZN11QScrollView22contentsMouseMoveEventEP11QMouseEvent
0001:001775b8  __ZN11QScrollView22contentsDragEnterEventEP15QDragEnterEvent
0001:001775c0  __ZN11QScrollView21contentsDragMoveEventEP14QDragMoveEvent
0001:001775c8  __ZN11QScrollView22contentsDragLeaveEventEP15QDragLeaveEvent
0001:001775d0  __ZN11QScrollView17contentsDropEventEP10QDropEvent
0001:001775d8  __ZN11QScrollView18contentsWheelEventEP11QWheelEvent
0001:001775e4  __ZN11QScrollView24contentsContextMenuEventEP17QContextMenuEvent
0001:001775f4  __ZN11QScrollView18viewportPaintEventEP11QPaintEvent
0001:001778cc  __ZN11QScrollView19viewportResizeEventEP12QResizeEvent
0001:001778d4  __ZN11QScrollView23viewportMousePressEventEP11QMouseEvent
0001:00178fd4  __ZNK11QScrollView18viewportToContentsERK6QPoint
0001:00177970  __ZN11QScrollView25viewportMouseReleaseEventEP11QMouseEvent
0001:00177a0c  __ZN11QScrollView29viewportMouseDoubleClickEventEP11QMouseEvent
0001:00177aa8  __ZN11QScrollView22viewportMouseMoveEventEP11QMouseEvent
0001:00177b44  __ZN11QScrollView22viewportDragEnterEventEP15QDragEnterEvent
0001:00178f60  __ZNK11QScrollView18contentsToViewportERK6QPoint
0001:00177b8c  __ZN11QScrollView21viewportDragMoveEventEP14QDragMoveEvent
0001:00177bd4  __ZN11QScrollView22viewportDragLeaveEventEP15QDragLeaveEvent
0001:00177bf0  __ZN11QScrollView17viewportDropEventEP10QDropEvent
0001:00177c38  __ZN11QScrollView18viewportWheelEventEP11QWheelEvent
0001:00177cc4  __ZN11QScrollView24viewportContextMenuEventEP17QContextMenuEvent
0001:00177d8c  __ZN11QScrollView13ensureVisibleEii
0001:00177dac  __ZN11QScrollView13ensureVisibleEiiii
0001:00177eec  __ZN11QScrollView14setContentsPosEii
0001:00177f64  __ZN11QScrollView8scrollByEii
0001:00177fa8  __ZN11QScrollView6centerEii
0001:00177fd0  __ZN11QScrollView6centerEiiff
0001:001782c0  __ZNK11QScrollView13contentsWidthEv
0001:001782e8  __ZN11QScrollView14resizeContentsEii
0001:0017848c  __ZN11QScrollView14updateContentsEiiii
0001:001785c4  __ZN11QScrollView14updateContentsERK5QRect
0001:001785f4  __ZN11QScrollView14updateContentsEv
0001:0017863c  __ZN11QScrollView15repaintContentsERK5QRectb
0001:001786c0  __ZN11QScrollView15repaintContentsEiiiib
0001:00178674  __ZN11QScrollView15repaintContentsEb
0001:001787e8  __ZN11QScrollView18drawContentsOffsetEP8QPainteriiiiii
0001:00178840  __ZN11QScrollView12drawContentsEP8QPainteriiii
0001:00178848  __ZN11QScrollView12frameChangedEv
0001:00178ad4  __ZN11QScrollView10setMarginsEiiii
0001:00178b20  __ZNK11QScrollView10leftMarginEv
0001:00178b34  __ZNK11QScrollView9topMarginEv
0001:00178b48  __ZNK11QScrollView11rightMarginEv
0001:00178b5c  __ZNK11QScrollView12bottomMarginEv
0001:00178b70  __ZN11QScrollView18focusNextPrevChildEb
0001:00178db8  __ZN11QScrollView13enableClipperEb
0001:00178f20  __ZN11QScrollView19setStaticBackgroundEb
0001:00178f48  __ZNK11QScrollView19hasStaticBackgroundEv
0001:00179048  __ZNK11QScrollView18contentsToViewportEiiRiS0_
0001:00179084  __ZNK11QScrollView18viewportToContentsEiiRiS0_
0001:001790c0  __ZNK11QScrollView8sizeHintEv
0001:001793d8  __ZNK11QScrollView15minimumSizeHintEv
0001:0017944c  __ZN11QScrollView12drawContentsEP8QPainter
0001:001794c4  __ZN11QScrollView16doDragAutoScrollEv
0001:00179608  __ZN11QScrollView17setDragAutoScrollEb
0001:00179620  __ZNK11QScrollView14dragAutoScrollEv
0001:00179638  __ZNK11QScrollView17setCachedSizeHintERK5QSize
0001:00179680  __ZN11QScrollView22disableSizeHintCachingEv
0001:00179698  __ZNK11QScrollView14cachedSizeHintEv
0002:00003d20  __ZN15QViewportWidget7metaObjE
0002:00003d24  __ZN14QClipperWidget7metaObjE
0001:00179b70* __ZTV11QPaintEvent$w$l99Whm9F8U6Pt4m74
0001:00179fac  __ZN15QScrollViewDataC1EP11QScrollViewi$w$l99Whm9F8U6Pt4m74
0001:001796e0  __ZTV8QPtrDictI11QSVChildRecE$w$l99Whm9F8U6Pt4m74
0001:00179720  __ZTV8QPtrListI11QSVChildRecE$w$l99Whm9F8U6Pt4m74
0001:001758f0  __ZThn40_N11QScrollViewD1Ev$w$l99Whm9F8U6Pt4m74
0001:00175a60  __ZThn40_N11QScrollViewD0Ev$w$l99Whm9F8U6Pt4m74
0001:00179b60* __ZTV12QResizeEvent$w$l99Whm9F8U6Pt4m74
0001:00179b80* __ZTV11QWheelEvent$w$l99Whm9F8U6Pt4m74
0001:00179b50* __ZTV17QContextMenuEvent$w$l99Whm9F8U6Pt4m74
0001:00179b90* __ZTV11QMouseEvent$w$l99Whm9F8U6Pt4m74
0001:00179760  __ZTV14QClipperWidget$w$l99Whm9F8U6Pt4m74
0001:0017a24c  __ZNK8QPtrDictI11QSVChildRecE5countEv$w$l99Whm9F8U6Pt4m74
0001:0017a204  __ZN8QPtrDictI11QSVChildRecE5clearEv$w$l99Whm9F8U6Pt4m74
0001:00179f20  __ZN8QPtrDictI11QSVChildRecED1Ev$w$l99Whm9F8U6Pt4m74
0001:0017a210  __ZN8QPtrDictI11QSVChildRecED0Ev$w$l99Whm9F8U6Pt4m74
0001:0017a258  __ZN8QPtrDictI11QSVChildRecE10deleteItemEPv$w$l99Whm9F8U6Pt4m74
0001:0017a240  __ZNK8QPtrListI11QSVChildRecE5countEv$w$l99Whm9F8U6Pt4m74
0001:0017a1c8  __ZN8QPtrListI11QSVChildRecE5clearEv$w$l99Whm9F8U6Pt4m74
0001:00179ef8  __ZN8QPtrListI11QSVChildRecED1Ev$w$l99Whm9F8U6Pt4m74
0001:0017a1d4  __ZN8QPtrListI11QSVChildRecED0Ev$w$l99Whm9F8U6Pt4m74
0001:0017a278  __ZN8QPtrListI11QSVChildRecE10deleteItemEPv$w$l99Whm9F8U6Pt4m74
0001:00179eec  __ZNK14QClipperWidget10metaObjectEv$w$l99Whm9F8U6Pt4m74
0001:00179ec0  __ZN14QClipperWidgetD1Ev$w$l99Whm9F8U6Pt4m74
0001:00179e8c  __ZN14QClipperWidgetD0Ev$w$l99Whm9F8U6Pt4m74
0001:00179dc0* __ZN7QWidget11setGeometryERK5QRect$w$l99Whm9F8U6Pt4m74
0001:00179df8* __ZN7QWidget9setWStateEj$w$l99Whm9F8U6Pt4m74
0001:00179e0c* __ZN7QWidget9setWFlagsEj$w$l99Whm9F8U6Pt4m74
0001:00179ee4  __ZThn40_N14QClipperWidgetD1Ev$w$l99Whm9F8U6Pt4m74
0001:00179eb8  __ZThn40_N14QClipperWidgetD0Ev$w$l99Whm9F8U6Pt4m74
0001:00179960  __ZTV15QViewportWidget$w$l99Whm9F8U6Pt4m74
0001:00179e80  __ZNK15QViewportWidget10metaObjectEv$w$l99Whm9F8U6Pt4m74
0001:00179e54  __ZN15QViewportWidgetD1Ev$w$l99Whm9F8U6Pt4m74
0001:00179e20  __ZN15QViewportWidgetD0Ev$w$l99Whm9F8U6Pt4m74
0001:00179e78  __ZThn40_N15QViewportWidgetD1Ev$w$l99Whm9F8U6Pt4m74
0001:00179e4c  __ZThn40_N15QViewportWidgetD0Ev$w$l99Whm9F8U6Pt4m74
0001:00179da4* __ZN17QContextMenuEventD1Ev$w$l99Whm9F8U6Pt4m74
0001:00179d7c* __ZN17QContextMenuEventD0Ev$w$l99Whm9F8U6Pt4m74
0001:00179d60* __ZN12QResizeEventD1Ev$w$l99Whm9F8U6Pt4m74
0001:00179d38* __ZN12QResizeEventD0Ev$w$l99Whm9F8U6Pt4m74
0001:00179cdc* __ZN11QPaintEventD1Ev$w$l99Whm9F8U6Pt4m74
0001:00179d08* __ZN11QPaintEventD0Ev$w$l99Whm9F8U6Pt4m74
0001:00179cc0* __ZN11QWheelEventD1Ev$w$l99Whm9F8U6Pt4m74
0001:00179c98* __ZN11QWheelEventD0Ev$w$l99Whm9F8U6Pt4m74
0001:00179c7c* __ZN11QMouseEventD1Ev$w$l99Whm9F8U6Pt4m74
0001:00179c54* __ZN11QMouseEventD0Ev$w$l99Whm9F8U6Pt4m74
0001:00179ba0* __ZTV6QGList$w$l99Whm9F8U6Pt4m74
0001:00179c48* __ZNK6QGList5countEv$w$l99Whm9F8U6Pt4m74
Module: C:\200\trunk\src\tmp\obj\release_mt_shared\qslider.obj(qslider.obj)
0001:0017a2e0  __ZN7QSliderC2EP7QWidgetPKc
0001:0017a5e4  __ZN7QSlider4initEv
0001:0017a330  __ZN7QSliderC1EP7QWidgetPKc
0001:0017a380  __ZN7QSliderC2EN2Qt11OrientationEP7QWidgetPKc
0001:0017a3d0  __ZN7QSliderC1EN2Qt11OrientationEP7QWidgetPKc
0001:0017a420  __ZN7QSliderC2EiiiiN2Qt11OrientationEP7QWidgetPKc
0001:0017a488  __ZN7QSliderC1EiiiiN2Qt11OrientationEP7QWidgetPKc
0001:0017a4f0  __ZN7QSliderD2Ev
0001:0017a534  __ZN7QSliderD1Ev
0001:0017a588  __ZN7QSliderD0Ev
0001:0017a6e0  __ZN7QSlider9initTicksEv
0001:0017a710  __ZN7QSlider11setTrackingEb
0001:0017a724  __ZNK7QSlider17positionFromValueEi
0001:0017a774  __ZNK7QSlider9availableEv
0001:0017a798  __ZNK7QSlider17valueFromPositionEi
0001:0017b758  __ZNK7QSlider8maxValueEv
0001:0017b748  __ZNK7QSlider8minValueEv
0001:0017a7fc  __ZN7QSlider11rangeChangeEv
0001:0017b800  __ZNK7QSlider5valueEv
0001:0017a9d4  __ZN7QSlider16reallyMoveSliderEi
0001:0017a83c  __ZN7QSlider11valueChangeEv
0001:0017a8ac  __ZN7QSlider11resizeEventEP12QResizeEvent
0001:0017a8d0  __ZN7QSlider10setPaletteERK8QPalette
0001:0017a8dc  __ZN7QSlider14setOrientationEN2Qt11OrientationE
0001:0017a998  __ZNK7QSlider10sliderRectEv
0001:0017aaa4  __ZN7QSlider10paintEventEP11QPaintEvent
0001:0017abdc  __ZN7QSlider15mousePressEventEP11QMouseEvent
0001:0017b254  __ZN7QSlider10resetStateEv
0001:0017b56c  __ZNK7QSlider8goodPartERK6QPoint
0001:0017b150  __ZN7QSlider10moveSliderEi
0001:0017ade4  __ZN7QSlider14mouseMoveEventEP11QMouseEvent
0001:0017af70  __ZN7QSlider10wheelEventEP11QWheelEvent
0001:0017b790  __ZNK7QSlider8lineStepEv
0001:0017b7a0  __ZNK7QSlider8pageStepEv
0001:0017b0f4  __ZN7QSlider17mouseReleaseEventEP11QMouseEvent
0001:0017b138  __ZN7QSlider12focusInEventEP11QFocusEvent
0001:0017b144  __ZN7QSlider13focusOutEventEP11QFocusEvent
0001:0017b304  __ZN7QSlider13keyPressEventEP9QKeyEvent
0001:0017b458  __ZN7QSlider12subtractLineEv
0001:0017b448  __ZN7QSlider7addLineEv
0001:0017b434  __ZN7QSlider8setValueEi
0001:0017b468  __ZN7QSlider7addStepEv
0001:0017b478  __ZN7QSlider12subtractStepEv
0001:0017b4d4  __ZN7QSlider13repeatTimeoutEv
0001:0017b58c  __ZNK7QSlider8sizeHintEv
0001:0017b684  __ZNK7QSlider15minimumSizeHintEv
0001:0017b6d8  __ZN7QSlider13setSizePolicyE11QSizePolicy
0001:0017b6e4  __ZNK7QSlider10sizePolicyEv
0001:0017b6f4  __ZN7QSlider12setTickmarksENS_11TickSettingE
0001:0017b71c  __ZN7QSlider15setTickIntervalEi
0001:0017b73c  __ZN7QSlider11styleChangeER6QStyle
0001:0017b768  __ZN7QSlider11setMinValueEi
0001:0017b77c  __ZN7QSlider11setMaxValueEi
0001:0017b7b0  __ZN7QSlider11setLineStepEi
0001:0017b7d8  __ZN7QSlider11setPageStepEi
0001:0017a578  __ZThn108_N7QSliderD1Ev$w$Njh16s9F8U6A5ag83
0001:0017a580  __ZThn40_N7QSliderD1Ev$w$Njh16s9F8U6A5ag83
0001:0017a5d4  __ZThn108_N7QSliderD0Ev$w$Njh16s9F8U6A5ag83
0001:0017a5dc  __ZThn40_N7QSliderD0Ev$w$Njh16s9F8U6A5ag83
0001:0017a834  __ZThn108_N7QSlider11rangeChangeEv$w$Njh16s9F8U6A5ag83
0001:0017a8a4  __ZThn108_N7QSlider11valueChangeEv$w$Njh16s9F8U6A5ag83
0001:0017b820* __ZTV6QGList$w$Njh16s9F8U6A5ag83
0001:0017b84c* __ZNK6QGList5countEv$w$Njh16s9F8U6A5ag83
Module: C:\200\trunk\src\tmp\obj\release_mt_shared\qsplashscreen.obj(qsplashscreen.obj)
0001:0017b860  __ZN13QSplashScreenC2ERK7QPixmapj
0001:0017bba8  __ZN13QSplashScreen9setPixmapERK7QPixmap
0001:0017b8ec  __ZN13QSplashScreenC1ERK7QPixmapj
0001:0017b978  __ZN13QSplashScreenD2Ev
0001:0017b9dc  __ZN13QSplashScreenD1Ev
0001:0017ba48  __ZN13QSplashScreenD0Ev
0001:0017babc  __ZN13QSplashScreen15mousePressEventEP11QMouseEvent
0001:0017bad4  __ZN13QSplashScreen7repaintEv
0001:0017bcec  __ZN13QSplashScreen12drawContentsEv
0001:0017bafc  __ZN13QSplashScreen7messageERK7QStringiRK6QColor
0001:0017bb50  __ZN13QSplashScreen5clearEv
0001:0017bb8c  __ZN13QSplashScreen6finishEP7QWidget
0001:0017bce0  __ZNK13QSplashScreen6pixmapEv
0001:0017bd4c  __ZN13QSplashScreen12drawContentsEP8QPainter
0001:0017ba40  __ZThn40_N13QSplashScreenD1Ev$w$Nzb0xw9F8U6AzJZU3
0001:0017bab4  __ZThn40_N13QSplashScreenD0Ev$w$Nzb0xw9F8U6AzJZU3
0001:0017bde0* __ZTV6QGList$w$Nzb0xw9F8U6AzJZU3
0001:0017be0c* __ZNK6QGList5countEv$w$Nzb0xw9F8U6AzJZU3
Module: C:\200\trunk\src\tmp\obj\release_mt_shared\qspinbox.obj(qspinbox.obj)
0001:0017be20  __ZNK17QSpinBoxValidator8validateER7QStringRi
0001:0017e1d8  __ZNK8QSpinBox8maxValueEv
0001:0017e1b4  __ZNK8QSpinBox8minValueEv
0001:0017cb2c  __ZNK8QSpinBox16specialValueTextEv
0001:0017c130  __ZN8QSpinBoxC2EP7QWidgetPKc
0001:0017c440  __ZN8QSpinBox11initSpinBoxEv
0001:0017c1c8  __ZN8QSpinBoxC1EP7QWidgetPKc
0001:0017c260  __ZN8QSpinBoxC2EiiiP7QWidgetPKc
0001:0017c30c  __ZN8QSpinBoxC1EiiiP7QWidgetPKc
0001:0017c5c4  __ZN8QSpinBoxD2Ev
0001:0017c678  __ZN8QSpinBoxD1Ev
0001:0017c744  __ZN8QSpinBoxD0Ev
0001:0017c818  __ZNK8QSpinBox4textEv
0001:0017c83c  __ZNK8QSpinBox9cleanTextEv
0001:0017cb00  __ZN8QSpinBox19setSpecialValueTextERK7QString
0001:0017cb6c  __ZN8QSpinBox9setPrefixERK7QString
0001:0017cb98  __ZNK8QSpinBox6prefixEv
0001:0017cbd8  __ZN8QSpinBox9setSuffixERK7QString
0001:0017cc04  __ZNK8QSpinBox6suffixEv
0001:0017cc44  __ZN8QSpinBox11setWrappingEb
0001:0017cc74  __ZNK8QSpinBox8wrappingEv
0001:0017cc88  __ZNK8QSpinBox8sizeHintEv
0001:0017d268  __ZNK8QSpinBox15minimumSizeHintEv
0001:0017d334  __ZN8QSpinBox14arrangeWidgetsEv
0001:0017d34c  __ZN8QSpinBox8setValueEi
0001:0017d37c  __ZNK8QSpinBox5valueEv
0001:0017d3bc  __ZN8QSpinBox6stepUpEv
0001:0017e1fc  __ZNK8QSpinBox8lineStepEv
0001:0017d44c  __ZN8QSpinBox8stepDownEv
0001:0017d4dc  __ZN8QSpinBox11eventFilterEP7QObjectP6QEvent
0001:0017d60c  __ZN8QSpinBox10setEnabledEb
0001:0017d634  __ZN8QSpinBox10leaveEventEP6QEvent
0001:0017d63c  __ZN8QSpinBox11resizeEventEP12QResizeEvent
0001:0017d680  __ZN8QSpinBox10wheelEventEP11QWheelEvent
0001:0017d788  __ZN8QSpinBox11valueChangeEv
0001:0017df78  __ZN8QSpinBox16currentValueTextEv
0001:0017d820  __ZN8QSpinBox11rangeChangeEv
0001:0017d840  __ZN8QSpinBox12setValidatorEPK10QValidator
0001:0017d874  __ZNK8QSpinBox9validatorEv
0001:0017d894  __ZN8QSpinBox13updateDisplayEv
0001:0017dbec  __ZN8QSpinBox13interpretTextEv
0001:0017dd80  __ZNK8QSpinBox6upRectEv
0001:0017dda4  __ZNK8QSpinBox8downRectEv
0001:0017ddc8  __ZNK8QSpinBox6editorEv
0001:0017ddd8  __ZN8QSpinBox11textChangedEv
0001:0017dde8  __ZN8QSpinBox14mapValueToTextEi
0001:0017de20  __ZN8QSpinBox14mapTextToValueEPb
0001:0017e0fc  __ZN8QSpinBox11styleChangeER6QStyle
0001:0017e124  __ZN8QSpinBox16setButtonSymbolsENS_13ButtonSymbolsE
0001:0017e184  __ZNK8QSpinBox13buttonSymbolsEv
0001:0017e1c4  __ZN8QSpinBox11setMinValueEi
0001:0017e1e8  __ZN8QSpinBox11setMaxValueEi
0001:0017e20c  __ZN8QSpinBox11setLineStepEi
0001:0017e22c  __ZN8QSpinBox9selectAllEv
0001:0017e400  __ZTV17QSpinBoxValidator$w$j2iWsD9F8U6OeB732
0001:0017c72c  __ZThn108_N8QSpinBoxD1Ev$w$j2iWsD9F8U6OeB732
0001:0017c738  __ZThn40_N8QSpinBoxD1Ev$w$j2iWsD9F8U6OeB732
0001:0017c800  __ZThn108_N8QSpinBoxD0Ev$w$j2iWsD9F8U6OeB732
0001:0017c80c  __ZThn40_N8QSpinBoxD0Ev$w$j2iWsD9F8U6OeB732
0001:0017d814  __ZThn108_N8QSpinBox11valueChangeEv$w$j2iWsD9F8U6OeB732
0001:0017d838  __ZThn108_N8QSpinBox11rangeChangeEv$w$j2iWsD9F8U6OeB732
0001:0017e4b8  __ZNK13QIntValidator10metaObjectEv$w$j2iWsD9F8U6OeB732
0001:0017e4c4  __ZN17QSpinBoxValidatorD1Ev$w$j2iWsD9F8U6OeB732
0001:0017e4e0  __ZN17QSpinBoxValidatorD0Ev$w$j2iWsD9F8U6OeB732
0001:0017e480* __ZTV6QGList$w$j2iWsD9F8U6OeB732
0001:0017e4ac* __ZNK6QGList5countEv$w$j2iWsD9F8U6OeB732
Module: C:\200\trunk\src\tmp\obj\release_mt_shared\qspinwidget.obj(qspinwidget.obj)
0001:0017e538  __ZN11QSpinWidgetC2EP7QWidgetPKc
0001:0017eb40  __ZN11QSpinWidget7arrangeEv
0001:0017f3a4  __ZN11QSpinWidget13updateDisplayEv
0001:0017e610  __ZN11QSpinWidgetC1EP7QWidgetPKc
0001:0017e6e8  __ZN11QSpinWidgetD2Ev
0001:0017e734  __ZN11QSpinWidgetD1Ev
0001:0017e788  __ZN11QSpinWidgetD0Ev
0001:0017e7e4  __ZN11QSpinWidget10editWidgetEv
0001:0017e7f4  __ZN11QSpinWidget13setEditWidgetEP7QWidget
0001:0017e854  __ZN11QSpinWidget15mousePressEventEP11QMouseEvent
0001:0017ec60  __ZN11QSpinWidget8stepDownEv
0001:0017ec48  __ZN11QSpinWidget6stepUpEv
0001:0017ec54  __ZN11QSpinWidget11resizeEventEP12QResizeEvent
0001:0017ec78  __ZN11QSpinWidget9timerDoneEv
0001:0017ec94  __ZN11QSpinWidget11timerDoneExEv
0001:0017ecdc  __ZN11QSpinWidget22windowActivationChangeEb
0001:0017ed2c  __ZN11QSpinWidget17mouseReleaseEventEP11QMouseEvent
0001:0017ee10  __ZN11QSpinWidget14mouseMoveEventEP11QMouseEvent
0001:0017f0c8  __ZN11QSpinWidget10wheelEventEP11QWheelEvent
0001:0017f1c8  __ZN11QSpinWidget10paintEventEP11QPaintEvent
0001:0017f32c  __ZN11QSpinWidget11styleChangeER6QStyle
0001:0017f354  __ZNK11QSpinWidget6upRectEv
0001:0017f37c  __ZNK11QSpinWidget8downRectEv
0001:0017f428  __ZN11QSpinWidget13enableChangedEb
0001:0017f464  __ZN11QSpinWidget12setUpEnabledEb
0001:0017f49c  __ZNK11QSpinWidget11isUpEnabledEv
0001:0017f4b0  __ZN11QSpinWidget14setDownEnabledEb
0001:0017f4ec  __ZNK11QSpinWidget13isDownEnabledEv
0001:0017f500  __ZN11QSpinWidget16setButtonSymbolsENS_13ButtonSymbolsE
0001:0017f514  __ZNK11QSpinWidget13buttonSymbolsEv
0001:0017e780  __ZThn40_N11QSpinWidgetD1Ev$w$NvlqjI9F8U6Z4c5e1
0001:0017e7dc  __ZThn40_N11QSpinWidgetD0Ev$w$NvlqjI9F8U6Z4c5e1
0001:0017f540* __ZTV6QGList$w$NvlqjI9F8U6Z4c5e1
0001:0017f56c* __ZNK6QGList5countEv$w$NvlqjI9F8U6Z4c5e1
Module: C:\200\trunk\src\tmp\obj\release_mt_shared\qsplitter.obj(qsplitter.obj)
0001:0017f590  __ZNK15QSplitterHandle9classNameEv
0001:0017f59c  __ZN15QSplitterHandle2trEPKcS1_
0001:0017f5dc  __ZN15QSplitterHandle6trUtf8EPKcS1_
0001:0017f61c  __ZN15QSplitterHandle16staticMetaObjectEv
0001:0017f674  __ZN15QSplitterHandle7qt_castEPKc
0001:0017f6cc  __ZN15QSplitterHandle9qt_invokeEiP8QUObject
0001:0017f6e8  __ZN15QSplitterHandle7qt_emitEiP8QUObject
0001:0017f704  __ZN15QSplitterHandle11qt_propertyEiiP8QVariant
0001:0017f720  __ZN15QSplitterHandle18qt_static_propertyEP7QObjectiiP8QVariant
0001:0017f874  __ZN15QSplitterHandleC2EN2Qt11OrientationEP9QSplitterPKc
0001:0017f970  __ZN15QSplitterHandle14setOrientationEN2Qt11OrientationE
0001:0017f8b0  __ZN15QSplitterHandleC1EN2Qt11OrientationEP9QSplitterPKc
0001:0017f8ec  __ZNK15QSplitterHandle8sizeHintEv
0001:001826b4  __ZNK9QSplitter11handleWidthEv
0001:0017f9a0  __ZN15QSplitterHandle14mouseMoveEventEP11QMouseEvent
0001:00181e8c  __ZNK9QSplitter12opaqueResizeEv
0001:001807a0  __ZN9QSplitter12moveSplitterEii
0001:00181458  __ZN9QSplitter9adjustPosEii
0001:0017fa40  __ZN15QSplitterHandle15mousePressEventEP11QMouseEvent
0001:0017fa78  __ZN15QSplitterHandle17mouseReleaseEventEP11QMouseEvent
0001:0017fb04  __ZN15QSplitterHandle10paintEventEP11QPaintEvent
0001:0017fbd8  __ZN21QSplitterLayoutStruct8getSizerEN2Qt11OrientationE
0001:0017fc60  __ZN9QSplitterC2EP7QWidgetPKc
0001:0017fea4  __ZN9QSplitter4initEv
0001:0017fca0  __ZN9QSplitterC1EP7QWidgetPKc
0001:0017fce0  __ZN9QSplitterC2EN2Qt11OrientationEP7QWidgetPKc
0001:0017fd20  __ZN9QSplitterC1EN2Qt11OrientationEP7QWidgetPKc
0001:0017fd60  __ZN9QSplitterD2Ev
0001:0017fdc4  __ZN9QSplitterD1Ev
0001:0017fe30  __ZN9QSplitterD0Ev
0001:0017ff28  __ZN9QSplitter14setOrientationEN2Qt11OrientationE
0001:00181b98  __ZN9QSplitter6recalcEb
0001:00180030  __ZN9QSplitter22setChildrenCollapsibleEb
0001:00180044  __ZNK9QSplitter19childrenCollapsibleEv
0001:00180058  __ZN9QSplitter14setCollapsibleEP7QWidgetb
0001:00180094  __ZN9QSplitter10findWidgetEP7QWidget
0001:00180088  __ZN9QSplitter11resizeEventEP12QResizeEvent
0001:00181560  __ZN9QSplitter8doResizeEv
0001:00182704  __ZN9QSplitter18processChildEventsEv
0001:001800f8  __ZN9QSplitter9addWidgetEP7QWidgetb
0001:001802b0  __ZN9QSplitter10childEventEP11QChildEvent
0001:00182030  __ZN9QSplitter8recalcIdEv
0001:0018042c  __ZN9QSplitter13setRubberbandEi
0001:0018064c  __ZN9QSplitter5eventEP6QEvent
0001:001806a4  __ZN9QSplitter12drawSplitterEP8QPainteriiii
0001:00180724  __ZNK9QSplitter7idAfterEP7QWidget
0001:00181480  __ZN9QSplitter9adjustPosEiiPiS0_S0_S0_
0001:00180a40  __ZN9QSplitter6doMoveEbiiibb
0001:001822c4  __ZN9QSplitter10storeSizesEv
0001:001808d0  __ZN9QSplitter6setGeoEP7QWidgetiib
0001:00180d3c  __ZN9QSplitter31findWidgetJustBeforeOrJustAfterEiiRi
0001:00181500  __ZN9QSplitter11collapsibleEP21QSplitterLayoutStruct
0001:00180e00  __ZN9QSplitter8getRangeEiPiS0_S0_S0_
0001:0018234c  __ZN9QSplitter15addContributionEiPiS0_b
0001:00181438  __ZN9QSplitter8getRangeEiPiS0_
0001:00181e60  __ZN9QSplitter13setResizeModeEP7QWidgetNS_10ResizeModeE
0001:00181ea0  __ZN9QSplitter15setOpaqueResizeEb
0001:00181eb4  __ZN9QSplitter11moveToFirstEP7QWidget
0001:00181f74  __ZN9QSplitter10moveToLastEP7QWidget
0001:00182088  __ZNK9QSplitter8sizeHintEv
0001:001821a8  __ZNK9QSplitter15minimumSizeHintEv
0001:00182430  __ZNK9QSplitter5sizesEv
0001:00182568  __ZN9QSplitter8setSizesE10QValueListIiE
0001:001826ec  __ZN9QSplitter14setHandleWidthEi
0001:00182744  __ZN9QSplitter13updateHandlesEv
0001:0018271c  __ZN9QSplitter11styleChangeER6QStyle
0001:001827b4  __ZlsR11QTextStreamRK9QSplitter
0001:001828ac  __ZrsR11QTextStreamR9QSplitter
0002:00003db0  __ZN15QSplitterHandle7metaObjE
0001:00182fe0  __ZTV15QSplitterHandle$w$xBCLPQ9F8U6kll1M0
0001:00182fa0  __ZTV8QPtrListI21QSplitterLayoutStructE$w$xBCLPQ9F8U6kll1M0
0001:0017fe28  __ZThn40_N9QSplitterD1Ev$w$xBCLPQ9F8U6kll1M0
0001:0017fe9c  __ZThn40_N9QSplitterD0Ev$w$xBCLPQ9F8U6kll1M0
0001:00182f70* __ZTV9QMemArrayI13QLayoutStructE$w$xBCLPQ9F8U6kll1M0
0001:00182e24  __Z7qt_castIP9QSplitterET_PK7QObject$w$xBCLPQ9F8U6kll1M0
0001:00182e40* __ZN17QValueListPrivateIiEC1Ev$w$xBCLPQ9F8U6kll1M0
0001:00182e70* __ZN17QValueListPrivateIiE6insertE18QValueListIteratorIiERKi$w$xBCLPQ9F8U6kll1M0
0001:00182ec0* __ZN10QValueListIiE14detachInternalEv$w$xBCLPQ9F8U6kll1M0
0001:00182ef0* __ZN17QValueListPrivateIiEC1ERKS0_$w$xBCLPQ9F8U6kll1M0
0001:001833a0* __ZN9QMemArrayI13QLayoutStructED1Ev$w$xBCLPQ9F8U6kll1M0
0001:001833bc* __ZN9QMemArrayI13QLayoutStructED0Ev$w$xBCLPQ9F8U6kll1M0
0001:001833e4* __ZN9QMemArrayI13QLayoutStructE6detachEv$w$xBCLPQ9F8U6kll1M0
0001:00183394  __ZNK8QPtrListI21QSplitterLayoutStructE5countEv$w$xBCLPQ9F8U6kll1M0
0001:00183358  __ZN8QPtrListI21QSplitterLayoutStructE5clearEv$w$xBCLPQ9F8U6kll1M0
0001:00183330  __ZN8QPtrListI21QSplitterLayoutStructED1Ev$w$xBCLPQ9F8U6kll1M0
0001:00183364  __ZN8QPtrListI21QSplitterLayoutStructED0Ev$w$xBCLPQ9F8U6kll1M0
0001:001833fc  __ZN8QPtrListI21QSplitterLayoutStructE10deleteItemEPv$w$xBCLPQ9F8U6kll1M0
0001:00183324  __ZNK15QSplitterHandle10metaObjectEv$w$xBCLPQ9F8U6kll1M0
0001:001832c4  __ZN15QSplitterHandleD1Ev$w$xBCLPQ9F8U6kll1M0
0001:001832f0  __ZN15QSplitterHandleD0Ev$w$xBCLPQ9F8U6kll1M0
0001:00183264* __ZN7QWidget11setGeometryERK5QRect$w$xBCLPQ9F8U6kll1M0
0001:0018329c* __ZN7QWidget9setWStateEj$w$xBCLPQ9F8U6kll1M0
0001:001832b0* __ZN7QWidget9setWFlagsEj$w$xBCLPQ9F8U6kll1M0
0001:001832e8  __ZThn40_N15QSplitterHandleD1Ev$w$xBCLPQ9F8U6kll1M0
0001:0018331c  __ZThn40_N15QSplitterHandleD0Ev$w$xBCLPQ9F8U6kll1M0
0001:001831e0* __ZTV6QGList$w$xBCLPQ9F8U6kll1M0
0001:00183258* __ZNK6QGList5countEv$w$xBCLPQ9F8U6kll1M0
Module: C:\200\trunk\src\tmp\obj\release_mt_shared\qstatusbar.obj(qstatusbar.obj)
0001:00183460  __ZN10QStatusBarC2EP7QWidgetPKc
0001:001838e4  __ZN10QStatusBar18setSizeGripEnabledEb
0001:001834ec  __ZN10QStatusBarC1EP7QWidgetPKc
0001:00183578  __ZN10QStatusBarD2Ev
0001:001835f0  __ZN10QStatusBarD1Ev
0001:00183670  __ZN10QStatusBarD0Ev
0001:0018372c  __ZN10QStatusBar9addWidgetEP7QWidgetib
0001:0018398c  __ZN10QStatusBar8reformatEv
0001:0018383c  __ZN10QStatusBar12removeWidgetEP7QWidget
0001:001838b8  __ZNK10QStatusBar17isSizeGripEnabledEv
0001:00183d78  __ZN10QStatusBar7messageERK7QString
0001:00183f0c  __ZN10QStatusBar10hideOrShowEv
0001:00183dfc  __ZN10QStatusBar7messageERK7QStringi
0001:00183eb0  __ZN10QStatusBar5clearEv
0001:00183fa4  __ZN10QStatusBar10paintEventEP11QPaintEvent
0001:001841d4  __ZN10QStatusBar11resizeEventEP12QResizeEvent
0001:001841e0  __ZN10QStatusBar5eventEP6QEvent
0001:001843e0  __ZTV8QPtrListIN17QStatusBarPrivate6SBItemEE$w$z01GPV9F8U6WLHCI0
0001:00183668  __ZThn40_N10QStatusBarD1Ev$w$z01GPV9F8U6WLHCI0
0001:001836f0  __ZThn40_N10QStatusBarD0Ev$w$z01GPV9F8U6WLHCI0
0001:001844bc  __ZNK8QPtrListIN17QStatusBarPrivate6SBItemEE5countEv$w$z01GPV9F8U6WLHCI0
0001:00184480  __ZN8QPtrListIN17QStatusBarPrivate6SBItemEE5clearEv$w$z01GPV9F8U6WLHCI0
0001:00184458  __ZN8QPtrListIN17QStatusBarPrivate6SBItemEED1Ev$w$z01GPV9F8U6WLHCI0
0001:0018448c  __ZN8QPtrListIN17QStatusBarPrivate6SBItemEED0Ev$w$z01GPV9F8U6WLHCI0
0001:001844c8  __ZN8QPtrListIN17QStatusBarPrivate6SBItemEE10deleteItemEPv$w$z01GPV9F8U6WLHCI0
0001:00184420* __ZTV6QGList$w$z01GPV9F8U6WLHCI0
0001:0018444c* __ZNK6QGList5countEv$w$z01GPV9F8U6WLHCI0
Module: C:\200\trunk\src\tmp\obj\release_mt_shared\qsyntaxhighlighter.obj(qsyntaxhighlighter.obj)
0001:0018450c  __ZN18QSyntaxHighlighterC2EP9QTextEdit
0001:0018459c  __ZN18QSyntaxHighlighterC1EP9QTextEdit
0001:0018462c  __ZN18QSyntaxHighlighterD2Ev
0001:0018465c  __ZN18QSyntaxHighlighterD1Ev
0001:0018468c  __ZN18QSyntaxHighlighterD0Ev
0001:001846c4  __ZN18QSyntaxHighlighter9setFormatEiiRK5QFontRK6QColor
0001:00184754  __ZN18QSyntaxHighlighter9setFormatEiiRK6QColor
0001:00184814  __ZN18QSyntaxHighlighter9setFormatEiiRK5QFont
0001:001848c4  __ZN18QSyntaxHighlighter11rehighlightEv
0001:00184914  __ZNK18QSyntaxHighlighter16currentParagraphEv
0001:00184928  __ZTV18QSyntaxHighlighter$w$RnCL02aF8U6ntyYz0
0001:00184940  __ZTV26QSyntaxHighlighterInternal$w$RnCL02aF8U6ntyYz0
0001:00184a48  __ZN26QSyntaxHighlighterInternalD1Ev$w$RnCL02aF8U6ntyYz0
0001:00184a58  __ZN26QSyntaxHighlighterInternalD0Ev$w$RnCL02aF8U6ntyYz0
0001:00184a88  __ZN26QSyntaxHighlighterInternal7processEP13QTextDocumentP14QTextParagraphib$w$RnCL02aF8U6ntyYz0
0001:00184bec  __ZN26QSyntaxHighlighterInternal6formatEi$w$RnCL02aF8U6ntyYz0
0001:00184958* __ZTV19QTextCommandHistory$w$RnCL02aF8U6ntyYz0
0001:001849b8* __ZN19QTextCommandHistoryD1Ev$w$RnCL02aF8U6ntyYz0
0001:001849fc* __ZN19QTextCommandHistoryD0Ev$w$RnCL02aF8U6ntyYz0
0001:00184980* __ZTV6QGList$w$RnCL02aF8U6ntyYz0
0001:001849ac* __ZNK6QGList5countEv$w$RnCL02aF8U6ntyYz0
0001:00184c20* __ZTV8QPtrListI12QTextCommandE$w$RnCL02aF8U6ntyYz0
0001:00184bf8* __ZTV17QTextPreProcessor$w$RnCL02aF8U6ntyYz0
0001:00184c8c* __ZN17QTextPreProcessorD1Ev$w$RnCL02aF8U6ntyYz0
0001:00184c9c* __ZN17QTextPreProcessorD0Ev$w$RnCL02aF8U6ntyYz0
0001:00184c80* __ZNK8QPtrListI12QTextCommandE5countEv$w$RnCL02aF8U6ntyYz0
0001:00184c74* __ZN8QPtrListI12QTextCommandE5clearEv$w$RnCL02aF8U6ntyYz0
0001:00184c4c* __ZN8QPtrListI12QTextCommandED1Ev$w$RnCL02aF8U6ntyYz0
0001:00184cb0* __ZN8QPtrListI12QTextCommandED0Ev$w$RnCL02aF8U6ntyYz0
0001:00184ce0* __ZN8QPtrListI12QTextCommandE10deleteItemEPv$w$RnCL02aF8U6ntyYz0
Module: C:\200\trunk\src\tmp\obj\release_mt_shared\qtabbar.obj(qtabbar.obj)
0001:00184d20  __ZN4QTabC2Ev
0001:00184d84  __ZN4QTabC1Ev
0001:00184de8  __ZN4QTabC2ERK7QString
0001:00184e44  __ZN4QTabC1ERK7QString
0001:00184ea0  __ZN4QTabC2ERK8QIconSetRK7QString
0001:00184f14  __ZN4QTabC1ERK8QIconSetRK7QString
0001:00184f88  __ZN4QTabD2Ev
0001:00184fdc  __ZN4QTabD1Ev
0001:00185030  __ZN4QTabD0Ev
0001:00185108  __ZN7QTabBarC2EP7QWidgetPKc
0001:001852d8  __ZN7QTabBarC1EP7QWidgetPKc
0001:001854a8  __ZN7QTabBarD2Ev
0001:0018553c  __ZN7QTabBarD1Ev
0001:001855dc  __ZN7QTabBarD0Ev
0001:00185680  __ZN7QTabBar6addTabEP4QTab
0001:0018569c  __ZN7QTabBar9insertTabEP4QTabi
0001:00186c84  __ZNK7QTabBar3tabEi
0001:00187cc8  __ZN4QTab9setTabBarEP7QTabBar
0001:0018787c  __ZN7QTabBar18updateArrowButtonsEv
0001:001868ec  __ZNK7QTabBar10currentTabEv
0001:00187680  __ZN7QTabBar11makeVisibleEP4QTab
0001:001857c8  __ZN7QTabBar9removeTabEP4QTab
0001:001858c4  __ZN7QTabBar13setTabEnabledEib
0001:00185ac4  __ZNK7QTabBar12isTabEnabledEi
0001:00185ae8  __ZNK7QTabBar8sizeHintEv
0001:00185bd0  __ZNK7QTabBar15minimumSizeHintEv
0001:00185c58  __ZNK7QTabBar5paintEP8QPainterP4QTabb
0001:00186ae4  __ZNK7QTabBar16keyboardFocusTabEv
0001:0018601c  __ZNK7QTabBar10paintLabelEP8QPainterRK5QRectP4QTabb
0001:00186324  __ZN7QTabBar10paintEventEP11QPaintEvent
0001:001865c4  __ZNK7QTabBar9selectTabERK6QPoint
0001:00186658  __ZN7QTabBar15mousePressEventEP11QMouseEvent
0001:00186720  __ZN7QTabBar14mouseMoveEventEP11QMouseEvent
0001:0018680c  __ZN7QTabBar17mouseReleaseEventEP11QMouseEvent
0001:001868b0  __ZN7QTabBar4showEv
0001:00186910  __ZN7QTabBar13setCurrentTabEi
0001:0018693c  __ZN7QTabBar13setCurrentTabEP4QTab
0001:00186b10  __ZN7QTabBar13keyPressEventEP9QKeyEvent
0001:00186cc4  __ZNK7QTabBar5tabAtEi
0001:00186ce8  __ZNK7QTabBar7indexOfEi
0001:00186d34  __ZNK7QTabBar5countEv
0001:00186d48  __ZN7QTabBar7tabListEv
0001:00186d54  __ZNK7QTabBar5shapeEv
0001:00186d68  __ZN7QTabBar8setShapeENS_5ShapeE
0001:00186d8c  __ZN7QTabBar10layoutTabsEv
0001:001873c0  __ZN7QTabBar5eventEP6QEvent
0001:0018741c  __ZN7QTabBar11styleChangeER6QStyle
0001:00187450  __ZN7QTabBar12focusInEventEP11QFocusEvent
0001:001874a0  __ZN7QTabBar13focusOutEventEP11QFocusEvent
0001:001874f0  __ZN7QTabBar11resizeEventEP12QResizeEvent
0001:001875bc  __ZN7QTabBar10scrollTabsEv
0001:00187a6c  __ZN7QTabBar13removeToolTipEi
0001:00187ab0  __ZN7QTabBar10setToolTipEiRK7QString
0001:00187b60  __ZNK7QTabBar7toolTipEi
0001:00187bec  __ZN4QTab7setTextERK7QString
0001:00187c9c  __ZN4QTab10setIconSetERK8QIconSet
0001:00187cd8  __ZN7QTabBar10fontChangeERK5QFont
0001:00188348  __ZTV4QTab$w$xtOd6aaF8U651UPI2
0001:00188300  __ZTV8QPtrListI4QTabE$w$xtOd6aaF8U651UPI2
0001:001855d0  __ZThn40_N7QTabBarD1Ev$w$xtOd6aaF8U651UPI2
0001:00185674  __ZThn40_N7QTabBarD0Ev$w$xtOd6aaF8U651UPI2
0001:00187d04  __ZN4QMapIP4QTab7QStringE5eraseERKS1_$w$xtOd6aaF8U651UPI2
0001:00188358* __ZTV11QPointArray$w$xtOd6aaF8U651UPI2
0001:00188378* __ZTV9QMemArrayI6QPointE$w$xtOd6aaF8U651UPI2
0001:00187e2c  __ZN4QMapIP4QTab7QStringE6removeERKS1_$w$xtOd6aaF8U651UPI2
0001:00187efc  __ZN4QMapIP4QTab7QStringE6insertERKS1_RKS2_b$w$xtOd6aaF8U651UPI2
0001:00188330  __ZTV14QTabBarToolTip$w$xtOd6aaF8U651UPI2
0001:00187dd4  __ZN11QMapPrivateIP4QTab7QStringEC1Ev$w$xtOd6aaF8U651UPI2
0001:00187f68  __ZNK11QMapPrivateIP4QTab7QStringE4findERKS1_$w$xtOd6aaF8U651UPI2
0001:00187fb8  __ZN4QMapIP4QTab7QStringE14detachInternalEv$w$xtOd6aaF8U651UPI2
0001:00187fe8  __ZN11QMapPrivateIP4QTab7QStringE12insertSingleERKS1_$w$xtOd6aaF8U651UPI2
0001:00188084  __ZN11QMapPrivateIP4QTab7QStringEC1EPKS3_$w$xtOd6aaF8U651UPI2
0001:00188134  __ZN11QMapPrivateIP4QTab7QStringE6insertEP12QMapNodeBaseS5_RKS1_$w$xtOd6aaF8U651UPI2
0001:001881dc  __ZN12QMapIteratorIP4QTab7QStringE3decEv$w$xtOd6aaF8U651UPI2
0001:00188234  __ZN11QMapPrivateIP4QTab7QStringE4copyEP8QMapNodeIS1_S2_E$w$xtOd6aaF8U651UPI2
0001:00188748  __ZNK8QPtrListI4QTabE5countEv$w$xtOd6aaF8U651UPI2
0001:00188798  __ZN8QPtrListI4QTabE5clearEv$w$xtOd6aaF8U651UPI2
0001:001887a4  __ZN8QPtrListI4QTabED1Ev$w$xtOd6aaF8U651UPI2
0001:00188718  __ZN8QPtrListI4QTabED0Ev$w$xtOd6aaF8U651UPI2
0001:001888b8  __ZN8QPtrListI4QTabE10deleteItemEPv$w$xtOd6aaF8U651UPI2
0001:00188510  __ZN14QTabBarToolTip8maybeTipERK6QPoint$w$xtOd6aaF8U651UPI2
0001:0018841c  __ZN14QTabBarToolTipD1Ev$w$xtOd6aaF8U651UPI2
0001:00188490  __ZN14QTabBarToolTipD0Ev$w$xtOd6aaF8U651UPI2
0001:001883d8* __ZN11QPointArrayD1Ev$w$xtOd6aaF8U651UPI2
0001:001883f4* __ZN11QPointArrayD0Ev$w$xtOd6aaF8U651UPI2
0001:001888e0* __ZN9QMemArrayI6QPointE6detachEv$w$xtOd6aaF8U651UPI2
0001:00188754* __ZN9QMemArrayI6QPointED1Ev$w$xtOd6aaF8U651UPI2
0001:00188770* __ZN9QMemArrayI6QPointED0Ev$w$xtOd6aaF8U651UPI2
0001:001883a0* __ZTV6QGList$w$xtOd6aaF8U651UPI2
0001:001883cc* __ZNK6QGList5countEv$w$xtOd6aaF8U651UPI2
0001:001887cc  __ZN11QMapPrivateIP4QTab7QStringE5clearEv$w$xtOd6aaF8U651UPI2
0001:00188808  __ZN12QMapIteratorIP4QTab7QStringE3incEv$w$xtOd6aaF8U651UPI2
0001:00188854  __ZN11QMapPrivateIP4QTab7QStringE5clearEP8QMapNodeIS1_S2_E$w$xtOd6aaF8U651UPI2
Module: C:\200\trunk\src\tmp\obj\release_mt_shared\qtabwidget.obj(qtabwidget.obj)
0001:00188920  __ZN10QTabWidgetC2EP7QWidgetPKcj
0001:00189420  __ZN10QTabWidget9setTabBarEP7QTabBar
0001:00188a84  __ZN10QTabWidgetC1EP7QWidgetPKcj
0001:00188be8  __ZN10QTabWidgetD2Ev
0001:00188c28  __ZN10QTabWidgetD1Ev
0001:00188c70  __ZN10QTabWidgetD0Ev
0001:00188cbc  __ZN10QTabWidget6addTabEP7QWidgetRK7QString
0001:00188cdc  __ZN10QTabWidget6addTabEP7QWidgetRK8QIconSetRK7QString
0001:00188d00  __ZN10QTabWidget6addTabEP7QWidgetP4QTab
0001:00188d38  __ZN10QTabWidget9insertTabEP7QWidgetRK7QStringi
0001:00188d98  __ZN10QTabWidget9insertTabEP7QWidgetRK8QIconSetRK7QStringi
0001:00188e14  __ZN10QTabWidget9insertTabEP7QWidgetP4QTabi
0001:0018952c  __ZN10QTabWidget11setUpLayoutEb
0001:00188e84  __ZN10QTabWidget9changeTabEP7QWidgetRK7QString
0001:00188f04  __ZN10QTabWidget9changeTabEP7QWidgetRK8QIconSetRK7QString
0001:00188fcc  __ZNK10QTabWidget12isTabEnabledEP7QWidget
0001:00189004  __ZN10QTabWidget13setTabEnabledEP7QWidgetb
0001:00189060  __ZN10QTabWidget15setCornerWidgetEP7QWidgetN2Qt6CornerE
0001:00189088  __ZNK10QTabWidget12cornerWidgetEN2Qt6CornerE
0001:001890a8  __ZN10QTabWidget8showPageEP7QWidget
0001:0018911c  __ZN10QTabWidget10removePageEP7QWidget
0001:00189314  __ZNK10QTabWidget11currentPageEv
0001:001894b8  __ZN10QTabWidget7showTabEi
0001:00189254  __ZNK10QTabWidget8tabLabelEP7QWidget
0001:001892a0  __ZN10QTabWidget11setTabLabelEP7QWidgetRK7QString
0001:00189334  __ZNK10QTabWidget16currentPageIndexEv
0001:0018a270  __ZNK10QTabWidget4pageEi
0001:0018935c  __ZN10QTabWidget14setCurrentPageEi
0001:001893a8  __ZNK10QTabWidget7indexOfEP7QWidget
0001:001893d8  __ZN10QTabWidget11resizeEventEP12QResizeEvent
0001:001894a8  __ZNK10QTabWidget6tabBarEv
0001:00189a40  __ZNK10QTabWidget8sizeHintEv
0001:00189c9c  __ZNK10QTabWidget15minimumSizeHintEv
0001:00189e80  __ZN10QTabWidget9showEventEP10QShowEvent
0001:00189e90  __ZNK10QTabWidget11tabPositionEv
0001:00189ea0  __ZN10QTabWidget14setTabPositionENS_11TabPositionE
0001:00189f58  __ZNK10QTabWidget8tabShapeEv
0001:00189f68  __ZN10QTabWidget11setTabShapeENS_8TabShapeE
0001:00189ff4  __ZNK10QTabWidget6marginEv
0001:0018a00c  __ZN10QTabWidget9setMarginEi
0001:0018a040  __ZN10QTabWidget11styleChangeER6QStyle
0001:0018a06c  __ZN10QTabWidget10updateMaskEv
0001:0018a128  __ZN10QTabWidget11eventFilterEP7QObjectP6QEvent
0001:0018a2f4  __ZNK10QTabWidget5countEv
0001:0018a2b0  __ZNK10QTabWidget5labelEi
0001:0018a308  __ZNK10QTabWidget10tabIconSetEP7QWidget
0001:0018a368  __ZN10QTabWidget13setTabIconSetEP7QWidgetRK8QIconSet
0001:0018a414  __ZN10QTabWidget13setTabToolTipEP7QWidgetRK7QString
0001:0018a468  __ZNK10QTabWidget10tabToolTipEP7QWidget
0001:0018a4c8  __ZN10QTabWidget16removeTabToolTipEP7QWidget
0001:0018a520  __ZTV11QTabBarBase$w$FN6JvgaF8U6ys0OY2
0001:00188c68  __ZThn40_N10QTabWidgetD1Ev$w$FN6JvgaF8U6ys0OY2
0001:00188cb4  __ZThn40_N10QTabWidgetD0Ev$w$FN6JvgaF8U6ys0OY2
0001:0018a758  __ZNK7QWidget10metaObjectEv$w$FN6JvgaF8U6ys0OY2
0001:0018a7c4  __ZN11QTabBarBaseD1Ev$w$FN6JvgaF8U6ys0OY2
0001:0018a7f0  __ZN11QTabBarBaseD0Ev$w$FN6JvgaF8U6ys0OY2
0001:0018a764* __ZN7QWidget11setGeometryERK5QRect$w$FN6JvgaF8U6ys0OY2
0001:0018a824  __ZN11QTabBarBase10paintEventEP11QPaintEvent$w$FN6JvgaF8U6ys0OY2
0001:0018a79c* __ZN7QWidget9setWStateEj$w$FN6JvgaF8U6ys0OY2
0001:0018a7b0* __ZN7QWidget9setWFlagsEj$w$FN6JvgaF8U6ys0OY2
0001:0018a7e8  __ZThn40_N11QTabBarBaseD1Ev$w$FN6JvgaF8U6ys0OY2
0001:0018a81c  __ZThn40_N11QTabBarBaseD0Ev$w$FN6JvgaF8U6ys0OY2
0001:0018a720* __ZTV6QGList$w$FN6JvgaF8U6ys0OY2
0001:0018a74c* __ZNK6QGList5countEv$w$FN6JvgaF8U6ys0OY2
Module: C:\200\trunk\src\tmp\obj\release_mt_shared\qtitlebar.obj(qtitlebar.obj)
0001:0018a940  __ZN9QTitleBarC2EP7QWidgetS1_PKc
0001:0018bd70  __ZN9QTitleBar10setCaptionERK7QString
0001:0018add4  __ZN9QTitleBar10readColorsEv
0001:0018aac8  __ZN9QTitleBarC1EP7QWidgetS1_PKc
0001:0018ac50  __ZN9QTitleBarD2Ev
0001:0018acc8  __ZN9QTitleBarD1Ev
0001:0018ad48  __ZN9QTitleBarD0Ev
0001:0018c044  __ZN9QTitleBar9setActiveEb
0001:0018aee4  __ZN9QTitleBar15mousePressEventEP11QMouseEvent
0001:0018b0f4  __ZN9QTitleBar16contextMenuEventEP17QContextMenuEvent
0001:0018b158  __ZN9QTitleBar17mouseReleaseEventEP11QMouseEvent
0001:0018b2d0  __ZN9QTitleBar14mouseMoveEventEP11QMouseEvent
0001:0018c200  __ZNK9QTitleBar9autoRaiseEv
0001:0018b610  __ZN9QTitleBar11resizeEventEP12QResizeEvent
0001:0018b638  __ZN9QTitleBar10paintEventEP11QPaintEvent
0001:0018b9b4  __ZN9QTitleBar21mouseDoubleClickEventEP11QMouseEvent
0001:0018ba2c  __ZN9QTitleBar7cutTextEv
0001:0018bde8  __ZN9QTitleBar7setIconERK7QPixmap
0001:0018bf88  __ZN9QTitleBar10leaveEventEP6QEvent
0001:0018bfc8  __ZN9QTitleBar10enterEventEP6QEvent
0001:0018c07c  __ZNK9QTitleBar8isActiveEv
0001:0018c090  __ZNK9QTitleBar15usesActiveColorEv
0001:0018c118  __ZNK9QTitleBar6windowEv
0001:0018c0f4  __ZNK9QTitleBar11visibleTextEv
0001:0018c128  __ZN9QTitleBar5eventEP6QEvent
0001:0018c1b0  __ZN9QTitleBar10setMovableEb
0001:0018c1cc  __ZNK9QTitleBar9isMovableEv
0001:0018c1e0  __ZN9QTitleBar12setAutoRaiseEb
0001:0018c218  __ZNK9QTitleBar8sizeHintEv
0001:0018c2c8  __ZTV12QTitleBarTip$w$bwZfAnaF8U6Ez9eg4
0001:0018ad40  __ZThn40_N9QTitleBarD1Ev$w$bwZfAnaF8U6Ez9eg4
0001:0018adc8  __ZThn40_N9QTitleBarD0Ev$w$bwZfAnaF8U6Ez9eg4
0001:0018c2ac  __Z7qt_castIP10QWorkspaceET_PK7QObject$w$bwZfAnaF8U6Ez9eg4
0001:0018c354  __ZN12QTitleBarTip8maybeTipERK6QPoint$w$bwZfAnaF8U6Ez9eg4
0001:0018c2e0* __ZTV6QGList$w$bwZfAnaF8U6Ez9eg4
0001:0018c30c* __ZNK6QGList5countEv$w$bwZfAnaF8U6Ez9eg4
0001:0018c704  __Z7qt_castIP9QTitleBarET_PK7QObject$w$bwZfAnaF8U6Ez9eg4
Module: C:\200\trunk\src\tmp\obj\release_mt_shared\qtoolbar.obj(qtoolbar.obj)
0001:0018c750  __ZN23QToolBarExtensionWidgetC2EP7QWidget
0001:0018c820  __ZN23QToolBarExtensionWidget14setOrientationEN2Qt11OrientationE
0001:0018c7b8  __ZN23QToolBarExtensionWidgetC1EP7QWidget
0001:0018c884  __ZN23QToolBarExtensionWidget6layOutEv
0001:0018c900  __ZN17QToolBarSeparatorC2EN2Qt11OrientationEP8QToolBarPKc
0001:0018c9f8  __ZN17QToolBarSeparator14setOrientationEN2Qt11OrientationE
0001:0018c97c  __ZN17QToolBarSeparatorC1EN2Qt11OrientationEP8QToolBarPKc
0001:0018ca08  __ZN17QToolBarSeparator11styleChangeER6QStyle
0001:0018ca18  __ZNK17QToolBarSeparator8sizeHintEv
0001:0018ca6c  __ZN17QToolBarSeparator10paintEventEP11QPaintEvent
0001:0018cb48  __ZNK17QToolBarSeparator9classNameEv
0001:0018cb54  __ZN17QToolBarSeparator2trEPKcS1_
0001:0018cb94  __ZN17QToolBarSeparator6trUtf8EPKcS1_
0001:0018cc34  __ZN17QToolBarSeparator16staticMetaObjectEv
0001:0018cc90  __ZN17QToolBarSeparator7qt_castEPKc
0001:0018cce8  __ZN17QToolBarSeparator9qt_invokeEiP8QUObject
0001:0018cd30  __ZN17QToolBarSeparator7qt_emitEiP8QUObject
0001:0018cd4c  __ZN17QToolBarSeparator11qt_propertyEiiP8QVariant
0001:0018cd68  __ZN17QToolBarSeparator18qt_static_propertyEP7QObjectiiP8QVariant
0001:0018cd88  __ZNK23QToolBarExtensionWidget9classNameEv
0001:0018cd94  __ZN23QToolBarExtensionWidget2trEPKcS1_
0001:0018cdd4  __ZN23QToolBarExtensionWidget6trUtf8EPKcS1_
0001:0018ce14  __ZN23QToolBarExtensionWidget16staticMetaObjectEv
0001:0018ce6c  __ZN23QToolBarExtensionWidget7qt_castEPKc
0001:0018cec4  __ZN23QToolBarExtensionWidget9qt_invokeEiP8QUObject
0001:0018cee0  __ZN23QToolBarExtensionWidget7qt_emitEiP8QUObject
0001:0018cefc  __ZN23QToolBarExtensionWidget11qt_propertyEiiP8QVariant
0001:0018cf18  __ZN23QToolBarExtensionWidget18qt_static_propertyEP7QObjectiiP8QVariant
0001:0018cf20  __ZN8QToolBarC2ERK7QStringP11QMainWindowN2Qt4DockEbPKc
0001:0018d290  __ZN8QToolBar4initEv
0001:0018cfa8  __ZN8QToolBarC1ERK7QStringP11QMainWindowN2Qt4DockEbPKc
0001:0018d030  __ZN8QToolBarC2ERK7QStringP11QMainWindowP7QWidgetbPKcj
0001:0018d0e0  __ZN8QToolBarC1ERK7QStringP11QMainWindowP7QWidgetbPKcj
0001:0018d190  __ZN8QToolBarC2EP11QMainWindowPKc
0001:0018d210  __ZN8QToolBarC1EP11QMainWindowPKc
0001:0018d320  __ZN8QToolBarD2Ev
0001:0018d388  __ZN8QToolBarD1Ev
0001:0018d3f8  __ZN8QToolBarD0Ev
0001:0018d46c  __ZN8QToolBar14setOrientationEN2Qt11OrientationE
0001:0018d514  __ZN8QToolBar12addSeparatorEv
0001:0018d550  __ZN8QToolBar11styleChangeER6QStyle
